******************************************************************************
             TMS320C2000 Linker PC v22.6.2                     
******************************************************************************
>> Linked Thu Oct 23 10:10:57 2025

OUTPUT FILE NAME:   <1x_cpu2_par0.out>
ENTRY POINT SYMBOL: "_c_int00"  address: 0009ac58


MEMORY CONFIGURATION

         name            origin    length      used     unused   attr    fill
----------------------  --------  ---------  --------  --------  ----  --------
PAGE 0:
  RAMLS_PRG             00009000   00000060  00000040  00000020  RWIX
  APP_BEGIN             00080000   00000004  00000002  00000002  RWIX
  APP_BLDR_HDR          00080004   00000034  00000034  00000000  RWIX
  FLASH_PRG             00080038   0003ffc8  00022a70  0001d558  RWIX
  FPUTABLES             003febdc   000006a0  00000000  000006a0  RWIX
  RESET                 003fffc0   00000002  00000000  00000002  RWIX

PAGE 1:
  BOOT_RSVD             00000000   00000120  00000000  00000120  RWIX
  RAMM                  00000120   00000780  00000000  00000780  RWIX
  STACK                 00008000   00001000  00001000  00000000  RWIX
  IRAM                  00009060   00003fa0  00003e1a  00000186  RWIX
  XCCPU1                0001bdc0   00001240  00000000  00001240  RWIX
  CMTOCPURAM            00038000   00000800  00000000  00000800  RWIX
  CPUTOCMRAM            00039000   00000800  00000000  00000800  RWIX
  CPU1TOCPU2RAM         0003a000   00000800  00000000  00000800  RWIX
  CPU2TOCPU1RAM         0003b000   00000800  00000000  00000800  RWIX
  XCCPU2                00100000   0005335e  00000000  0005335e  RWIX
  ERAM_CPU2             0015335e   001acca2  00177877  0003542b  RWIX


SECTION ALLOCATION MAP

 output                                  attributes/
section   page    origin      length       input sections
--------  ----  ----------  ----------   ----------------
.TI.ramfunc 
*          0    00009000    00000040     UNINITIALIZED
                  00009000    00000039     DSP2837x_ent.lib : Flash_2837x.obj (.text:_ZN12Dsp28335_ent5Flash4initEv)
                  00009039    00000007     DSP28x.lib : DSP28x_DisInt.obj (.TI.ramfunc)

codestart 
*          0    00080000    00000002     
                  00080000    00000002     DSP28x_CodeStartBranch.obj (codestart)

.const:*App_blr_hdr_inst*instance* 
*          0    00080004    00000034     
                  00080004    00000034     main_cpu2.obj (.const:_ZN4Base16App_blr_hdr_instILm1556335341ELm524288ELN3Bsp6SysappE3ELh1EE8instanceE)

.text      0    00080038    0001d69d     
                  00080038    0000057d     veronte.lib : Tunsuite_pa.obj (.text:_ZN3Ver10TunbuilderC1ERN5Media6CfgmgrE)
                  000805b5    00000577     rts2800_fpu64_eabi.lib : e_pow.c.obj (.text)
                  00080b2c    000004f9     pa_blocks.lib : Out_nav_pa_base.obj (.text:_ZN9Pa_blocks15Out_nav_pa_base4stepEv)
                  00081025    000004db     vpgnc.lib : Vpu.obj (.text:_ZN5Vpgnc3VpuC1EmRKN5Media6Cfgmgr16Remain_async_crcE)
                  00081500    000004db     pa_blocks.lib : Blk_pa_nav.obj (.text:_ZN9Pa_blocks10Blk_pa_nav3runEv)
                  000819db    00000001     DSP2837x_ent.lib : Hdual.obj (.text:_ZN12Dsp28335_ent5Hdual14assert_is_cpu2Ev)
                  000819dc    0000045c     rts2800_fpu64_eabi.lib : k_rem_pio2.c.obj (.text)
                  00081e38    00000441     pa_blocks.lib : Knobs.obj (.text:_ZN9Pa_blocks5KnobsC1ERNS_22Vsdk_navigation_paramsE)
                  00082279    00000433                   : State_estimate_logic.obj (.text:_ZN9Pa_blocks20State_estimate_logic4stepEv)
                  000826ac    000003bc                   : Command_contingency_wrapper.obj (.text:_ZN9Pa_blocks31Command_contingency_wrapper_ser4cgetERN4Base5LossyE)
                  00082a68    00000399     rts2800_fpu64_eabi.lib : e_powf.c.obj (.text)
                  00082e01    000002eb     pa_blocks.lib : Blk_pa_nav.obj (.text:_ZN9Pa_blocks10Blk_pa_navC1ERN4Base9AllocatorERKNS_11Site_configE)
                  000830ec    000002e2     media.lib : Cfgmgr.obj (.text:_ZN5Media6Cfgmgr5on_rxERN6Stanag14IStanag_msg_rx9Rx_paramsE)
                  000833ce    000002c7     rts2800_fpu64_eabi.lib : e_rem_pio2.c.obj (.text)
                  00083695    000002be     base.lib : Field.obj (.text:_ZN4Base5Field4csetERNS_11Lossy_errorE)
                  00083953    00000298     rts2800_fpu64_eabi.lib : memory.c.obj (.text)
                  00083beb    00000296     pa_blocks.lib : Diverse_comms_telemetry.obj (.text:_ZN9Pa_blocks23Diverse_comms_telemetry4csetERN4Base5LossyE)
                  00083e81    00000276                   : Irmatrix3_sub.obj (.text:_ZNK9Pa_blocks13Irmatrix3_sub17thisdiagthisT_addERKN8Maverick9Irvector3ERNS1_9Irmatrix3E)
                  000840f7    00000272                   : Blk_pa_nav_base.obj (.text:_ZN9Pa_blocks15Blk_pa_nav_base4stepEv)
                  00084369    00000248     crypto_c28.lib : sha256_casm_C28.obj (.text)
                  000845b1    0000023e     Vmain_cpu2.obj (.text:_ZN7Project10Vmain_cpu24stepEv)
                  000847ef    0000023e     pa_blocks.lib : State_estimate_logic.obj (.text:_ZN9Pa_blocks20State_estimate_logic13estimate_windEv)
                  00084a2d    0000022e     veronte.lib : Hx_imu_rec0.obj (.text:_ZN9Pa_blocks12Measurements12get_imu_measERNS0_3ImuE)
                  00084c5b    00000201     pa_blocks.lib : Input_gnss_vel.obj (.text:_ZN9Pa_blocks14Input_gnss_vel4stepEv)
                  00084e5c    000001fd                   : Input_gnss_pos.obj (.text:_ZN9Pa_blocks14Input_gnss_pos4stepEv)
                  00085059    000001e4                   : Estimator.obj (.text:_ZN9Pa_blocks9Estimator13always_updateEv)
                  0008523d    000001d5                   : Site_config.obj (.text:_ZN9Pa_blocks11Site_config6Setter4csetERN4Base9U8istreamE)
                  00085412    000001cd     maverick.lib : Irmatrix3.obj (.text:_ZNK8Maverick9Irmatrix36toquatERNS_6IrquatE)
                  000855df    000001c0     vpgnc.lib : CAN_cfg_maint_astro.obj (.text:_ZN5Vpgnc3Vpu21enter_maint_mode_privEb)
                  0008579f    000001b5     base.lib : Xcfilecli.obj (.text:_ZN4Base9Xcfilecli4stepEv)
                  00085954    000001a9     pa_blocks.lib : State_estimate.obj (.text:_ZNK9Pa_blocks14State_estimate4cgetERN4Base9U8ostreamE)
                  00085afd    000001a3     base.lib : Field.obj (.text:_ZNK4Base5Field8compressERNS_5LossyERKNS_4IgetE)
                  00085ca0    000001a2     pa_blocks.lib : Initializer.obj (.text:_ZN9Pa_blocks11Initializer4stepERKNS_12Measurements3ImuE)
                  00085e42    00000191     Blockfactory_par.obj (.text:_ZN7Vblocks12Blockfactory4DataC1ERN5Vpgnc3VpuERN8Midlevel5Irxfw6ParserE)
                  00085fd3    00000184     pa_blocks.lib : Input_dyn_pressure.obj (.text:_ZN9Pa_blocks18Input_dyn_pressure4stepEv)
                  00086157    00000181     media.lib : Cfgmgr.obj (.text:_ZN5Media6CfgmgrC1EN4Base6MblockIjEERKNS_13IfspermissionERNS1_7CfgsyncERNS1_5IfileENS9_3UidEmmRVKNS1_8Address0ERNS1_11Imsg_senderEPNS1_5IstepE)
                  000862d8    00000180     pa_blocks.lib : Irmatrix3_sub.obj (.text:_ZN9Pa_blocks13Irmatrix3_sub15submatTmatT_addERKS0_RKN8Maverick9Irmatrix3E)
                  00086458    0000017a     vpgnc.lib : Vpu.obj (.text:_ZN5Vpgnc3Vpu16enter_maint_modeEb)
                  000865d2    00000173     pa_blocks.lib : State_transition_matrix.obj (.text:_ZN9Pa_blocks23State_transition_matrixC1ERKfRKN4Base7TnarrayIfLm3EEES7_RKNS4_IfLm4EEERKN8Maverick7RmatrixERSC_)
                  00086745    0000016f     rts2800_fpu64_eabi.lib : vec_newdel.c.obj (.text)
                  000868b4    0000016c                            : e_atan2.c.obj (.text)
                  00086a20    00000169     pa_blocks.lib : On_ground.obj (.text:_ZN9Pa_blocks9On_ground31detect_air_to_ground_transitionEv)
                  00086b89    00000169     rts2800_fpu64_eabi.lib : s_expm1f.c.obj (.text)
                  00086cf2    00000166     pa_blocks.lib : Tllh_cs_64.obj (.text:_ZN9Pa_blocks10Tllh_cs_6423construct_lla_from_ecefERKN4Base7TnarrayIeLm3EEE)
                  00086e58    0000015f     veronte.lib : Hxcfield_cpu2.obj (.text:_ZN4Base9FieldsvecINS_6TmvdatELj20EE4csetINS_11Lossy_errorEEENS_10Async_sresERNS_9Enable_ifILb1ET_E4typeE)
                  00086fb7    0000015c     pa_blocks.lib : Irmatrix3_sub.obj (.text:_ZN9Pa_blocks13Irmatrix3_sub11submatTmatTERKS0_RKN8Maverick9Irmatrix3E)
                  00087113    00000152                   : Estimator.obj (.text:_ZN9Pa_blocks9Estimator13mechanize_imuERKNS_12Measurements3ImuE)
                  00087265    0000014f                   : Covariance_ud.obj (.text:_ZN9Pa_blocks13Covariance_ud13rank1_updatesERKNS_5StateERNS_12Iekf_updaterERN8Maverick7RvectorE)
                  000873b4    0000014e     base.lib : Field_cfg.obj (.text:_ZNK4Base9Field_cfg8Checksum5putckENS_6CktypeERNS_5LossyE)
                  00087502    0000014d     veronte.lib : Copystep.obj (.text:_ZN3Ver36_GLOBAL__N__12_Copystep_cpp_e59cf1d59Copystep04stepEv)
                  0008764f    00000147     rts2800_fpu64_eabi.lib : s_atan.c.obj (.text)
                  00087796    00000145     base.lib : Ftelemetryod.obj (.text:_ZN4Base9FieldsvecINS_8TmodvdatELj20EE3addINS_11Lossy_errorEEENS_10Async_sresERNS_9Enable_ifILb1ET_E4typeE)
                  000878db    0000013d     pa_blocks.lib : Blk_pa_nav_base.obj (.text:_ZN9Pa_blocks15Blk_pa_nav_baseC1ERNS_12MeasurementsEN4Base4BvarENS_8Nav_type4TypeERKNS_11Site_configERKb)
                  00087a18    00000139                   : Input_gnss_pos.obj (.text:_ZN9Pa_blocks14Input_gnss_pos10gnss_resetEv)
                  00087b51    0000012f                   : State_transition_matrix.obj (.text:_ZN9Pa_blocks23State_transition_matrix11y_transposeEv)
                  00087c80    0000012e                   : Input_measurements.obj (.text:_ZN9Pa_blocks18Input_measurements4stepENS_9Nav_sched5SchedE)
                  00087dae    0000012b                   : Knob_initializer.obj (.text:_ZN9Pa_blocks16Knob_initializer32populate_nav_installation_paramsERKNS_20Vsdk_recovery_paramsERNS_5KnobsE)
                  00087ed9    0000012b                   : Input_static_pressure.obj (.text:_ZN9Pa_blocks21Input_static_pressure4stepEv)
                  00088004    0000012b     vpgnc.lib : Vpu.obj (.text:_ZNK5Vpgnc3Vpu15get_status_dataERN4Base9U8ostreamE)
                  0008812f    0000012a     midlevel.lib : Irxfw.obj (.text:_ZN8Midlevel5Irxfw6Parser5parseERN4Base17U16stream_r_errorE)
                  00088259    0000012a     pa_blocks.lib : State_history.obj (.text:_ZN9Pa_blocks13State_history22write_to_state_historyERKNS_5StateERKNS_11Delta_stateE)
                  00088383    00000128                   : Gnc_transformation.obj (.text:_ZN8Maverick8Imatrix3IfE7matthisERKS1_)
                  000884ab    00000127     stanag.lib : Vehicle_identifier_cfg.obj (.text:_ZN6Stanag22Vehicle_identifier_cfg4csetERN4Base11Lossy_errorE)
                  000885d2    00000123     pa_blocks.lib : Checks_gnss.obj (.text:_ZN9Pa_blocks11Checks_gnss17gnss_posvel_matchERfRb)
                  000886f5    0000011d                   : State_history.obj (.text:_ZN9Pa_blocks13State_history14history_lookupERKN4Base5TtimeE)
                  00088812    0000011d                   : Estimator.obj (.text:_ZN9Pa_blocks9Estimator15pre_process_imuERNS_12Measurements3ImuE)
                  0008892f    0000011d     rts2800_fpu64_eabi.lib : e_expf.c.obj (.text)
                  00088a4c    0000011b     pa_blocks.lib : Estimator.obj (.text:_ZN9Pa_blocks9EstimatorC1ERKbRKNS_12MeasurementsERKNS_21Controller_introspectERNS_5StateENS_8Nav_type4TypeERNS_17Nav_max_value_setES2_)
                  00088b67    00000119                   : State_estimate.obj (.text:_ZN9Pa_blocks14State_estimateC1ERKN4Base7TnarrayIfLm3EEERKbS7_RKNS_27State_estimate_status_logic6StatusERKNS_12MeasurementsERNS_9Max_valueES7_)
                  00088c80    00000118                   : Detect_pseudo_jerk.obj (.text:_ZN9Pa_blocks18Detect_pseudo_jerk4stepEb)
                  00088d98    00000116                   : Propagate_covariance.obj (.text:_ZN9Pa_blocks20Propagate_covariance12propagate_udEj)
                  00088eae    00000114     media.lib : Cfgmgr.obj (.text:_ZN5Media6Cfgmgr9step_loadEv)
                  00088fc2    0000010b     vpgnc.lib : Evtmgr.obj (.text:_ZN5Vpgnc6Evtmgr4csetERN4Base11Lossy_errorE)
                  000890cd    00000108     base.lib : Ftelemetryod.obj (.text:_ZN4Base9FieldsvecINS_8TmodvdatELj20EE9vdat_csetINS_11Lossy_errorEEENS_10Async_sresERNS_9Enable_ifILb1ET_E4typeEj)
                  000891d5    00000108     pa_blocks.lib : Initializer_pitch_roll.obj (.text:_ZN9Pa_blocks22Initializer_pitch_roll4stepERKNS_12Measurements3ImuE)
                  000892dd    00000102     base.lib : Field.obj (.text:_ZNK4Base5Field4cgetERNS_5LossyE)
                  000893df    00000101     pa_blocks.lib : Propagate_covariance.obj (.text:_ZN9Pa_blocks20Propagate_covariance17process_noise_covEv)
                  000894e0    000000f9     Vmain_cpu2.obj (.text:_ZN7Project10Vmain_cpu2C1Ev)
                  000895d9    000000f4     pa_blocks.lib : Input_measurements.obj (.text:_ZN9Pa_blocks18Input_measurementsC1ERKNS_12MeasurementsERNS_5StateERNS_13Covariance_udERNS_11Delta_stateERKbRNS_13State_historyENS_8Nav_type4TypeE)
                  000896cd    000000f4                   : Vsdk_params.obj (.text:_ZN9Pa_blocks20Vsdk_recovery_paramsC1Ev)
                  000897c1    000000f4                   : Input_static_pressure.obj (.text:_ZN9Pa_blocks21Input_static_pressure29compute_alt_msl_from_pressureEv)
                  000898b5    000000ef     media.lib : Cfgmgr.obj (.text:_ZN5Media6Cfgmgr14step_sync_cfgsERN4Base7TimeoutE)
                  000899a4    000000ec     maverick.lib : Irmatrix3.obj (.text:_ZNK8Maverick9Irmatrix37adjointERS0_)
                  00089a90    000000ea     base.lib : Cfgsync.obj (.text:_ZNK4Base7Cfgsync7get_idsERNS_5LossyERKj)
                  00089b7a    000000e9     geomodel.lib : Gellipsoid.obj (.text:_ZN3Geo10Gellipsoid9ecef2geo3ERKN8Maverick9Irvector3ERN4Base4TllhE)
                  00089c63    000000e6     pa_blocks.lib : Vsdk_params.obj (.text:_ZN9Pa_blocks23Vsdk_controllers_paramsC1Ev)
                  00089d49    000000e3                   : Covariance_ud.obj (.text:_ZN9Pa_blocks13Covariance_ud9update_udERKNS_12Iekf_updaterEj)
                  00089e2c    000000e3     maverick.lib : Irquat.obj (.text:_ZNK8Maverick6Irquat3b2nERKNS_9Irvector3ERS1_)
                  00089f0f    000000e2     pa_blocks.lib : Time_in_tai.obj (.text:_ZNK9Pa_blocks11Time_in_tai4cgetERN4Base5LossyE)
                  00089ff1    000000e1     devices.lib : Ubxcfgdata.obj (.text:_ZN7Devices3Ubx10Ubxcfgdata4csetERN4Base11Lossy_errorE)
                  0008a0d2    000000df     geomodel.lib : Apos.obj (.text:_ZN3Geo4Apos8move_drnERKN8Maverick9Irvector3E)
                  0008a1b1    000000de     veronte.lib : Hxcfield_cpu2.obj (.text:_ZN4Base9FieldsvecINS_11SniffervdatELj0EE4csetINS_11Lossy_errorEEENS_10Async_sresERNS_9Enable_ifILb1ET_E4typeE)
                  0008a28f    000000dc     maverick.lib : Irquat.obj (.text:_ZN8Maverick6Irquat8quatmultERKS0_S2_)
                  0008a36b    000000db     pa_blocks.lib : Controllers_state_estimate.obj (.text:_ZN9Pa_blocks26Controllers_state_estimateC1Ev)
                  0008a446    000000da     veronte.lib : Hxcfield_cpu2.obj (.text:_ZN4Base9FieldsvecINS_6TmvdatELj0EE4csetINS_11Lossy_errorEEENS_10Async_sresERNS_9Enable_ifILb1ET_E4typeE)
                  0008a520    000000da                 : Hxcfield_cpu2.obj (.text:_ZN4Base9FieldsvecINS_9FmsetvdatELj0EE4csetINS_11Lossy_errorEEENS_10Async_sresERNS_9Enable_ifILb1ET_E4typeE)
                  0008a5fa    000000da     pa_blocks.lib : State_estimate_logic.obj (.text:_ZN9Pa_blocks20State_estimate_logic15blend_air_speedEv)
                  0008a6d4    000000d9     rts2800_fpu64_eabi.lib : s_floor.c.obj (.text)
                  0008a7ad    000000d8     pa_blocks.lib : Covariance_ud.obj (.text:_ZN9Pa_blocks13Covariance_udC1Ev)
                  0008a885    000000d7     vpgnc.lib : Evtmgr.obj (.text:_ZN5Vpgnc6EvtmgrC1ERN4Base7XcpktwrERNS_6ImarksERNS_20Event_inside_checkerE)
                  0008a95c    000000d3     Vmain_cpu2.obj (.text:_ZN7Project10Vmain_cpu210step_statsEf)
                  0008aa2f    000000d0     base.lib : Stickrawtrans.obj (.text:_ZN4Base13Stickrawtrans4csetERNS_11Lossy_errorE)
                  0008aaff    000000ce     pa_blocks.lib : State_history.obj (.text:_ZNK9Pa_blocks13State_history17get_nearest_indexERKN4Base5TtimeE)
                  0008abcd    000000cd     veronte.lib : Hxcfield_cpu2.obj (.text:_ZN4Base9FieldsvecIN6Stanag7StgvdatELj0EE4csetINS_11Lossy_errorEEENS_10Async_sresERNS_9Enable_ifILb1ET_E4typeE)
                  0008ac9a    000000cc     pa_blocks.lib : Pa_irquat.obj (.text:_ZN9Pa_blocks9Pa_irquat8quat2rpyERKN8Maverick6IrquatERfS5_S5_)
                  0008ad66    000000ca     veronte.lib : Copystep.obj (.text:_ZN3Ver36_GLOBAL__N__12_Copystep_cpp_e59cf1d56HrangeIN3Bsp5HbvarEE12build_rangesEv)
                  0008ae30    000000c8     rts2800_fpu64_eabi.lib : e_asinf.c.obj (.text)
                  0008aef8    000000c5     midlevel.lib : Irxfw.obj (.text:_ZN8Midlevel5Irxfw6Parser4stepEv)
                  0008afbd    000000c5     pa_blocks.lib : Initializer_bias.obj (.text:_ZN9Pa_blocks16Initializer_bias4stepERKNS_12Measurements3ImuE)
                  0008b082    000000c5                   : State_estimate_status_logic.obj (.text:_ZN9Pa_blocks27State_estimate_status_logic4stepEv)
                  0008b147    000000c4     maverick.lib : Irmatrix3.obj (.text:_ZN8Maverick9Irmatrix313rot_from_quatERKNS_6IrquatE)
                  0008b20b    000000c2     midlevel.lib : Irxfw.obj (.text:_ZN8Midlevel5Irxfw6ParserC1ERN4Base11Ipkt_senderENS2_6MblockIKNS2_15Auth_connectionEEE)
                  0008b2cd    000000c2     pa_blocks.lib : Input_dyn_pressure.obj (.text:_ZN9Pa_blocks18Input_dyn_pressure17compute_air_speedEfN4Base5TtimeE)
                  0008b38f    000000c0     DSP2837x_ent.lib : Pwmdev.obj (.text:_ZN12Dsp28335_ent6Pwmdev15set_module_freqEj)
                  0008b44f    000000c0     pa_blocks.lib : Vsdk_navigation_params.obj (.text:_ZN9Pa_blocks22Vsdk_navigation_params19Installation_paramsC1Ev)
                  0008b50f    000000bf     base.lib : Ftelemetryod.obj (.text:_ZN4Base12Ftelemetryod5Fsvod4stepEv)
                  0008b5ce    000000bf     pa_blocks.lib : State_estimate_logic.obj (.text:_ZN9Pa_blocks20State_estimate_logicC1ERKNS_5StateERKNS_21Controller_introspectERKNS_12MeasurementsENS_8Nav_type4TypeERNS_17Nav_max_value_setERKb)
                  0008b68d    000000bf                   : Estimator.obj (.text:_ZN9Pa_blocks9Estimator4stepERKNS_12Measurements3ImuENS_9Nav_sched5SchedE)
                  0008b74c    000000bb     media.lib : Cfgmgr.obj (.text:_ZN5Media6Cfgmgr14step_sync_crcsERN4Base7TimeoutE)
                  0008b807    000000b7     veronte.lib : Copystep.obj (.text:_ZN3Ver36_GLOBAL__N__12_Copystep_cpp_e59cf1d59Copystep0C1Ev)
                  0008b8be    000000b6     pa_blocks.lib : State.obj (.text:_ZN9Pa_blocks5StateC1Ev)
                  0008b974    000000b5                   : Controllers_state_estimate.obj (.text:_ZN9Pa_blocks26Controllers_state_estimate4csetERN4Base5LossyE)
                  0008ba29    000000b4     first.lib : Strutil.obj (.text:_ZN4Base7Strutil9as_stringEfhchcbcRNS_7VstringE)
                  0008badd    000000b3     geomodel.lib : Fmemcmd.obj (.text:_ZN3Geo7Fmemcmd6apply0Ev)
                  0008bb90    000000b3     pa_blocks.lib : Propagate_covariance.obj (.text:_ZN9Pa_blocks20Propagate_covariance4stepENS_9Nav_sched5SchedE)
                  0008bc43    000000b1     vpgnc.lib : Evtmgr.obj (.text:_ZN5Vpgnc6Evtmgr5on_rxERN6Stanag14IStanag_msg_rx9Rx_paramsE)
                  0008bcf4    000000b0     base.lib : Sticktypes.obj (.text:_ZN4Base11Stickvarcfg4csetERNS_11Lossy_errorE)
                  0008bda4    000000b0              : Ftelemetryod.obj (.text:_ZN4Base12Ftelemetryod5Fsvod4csetERNS_11Lossy_errorE)
                  0008be54    000000b0     pa_blocks.lib : Cy_msg_wrapper.obj (.text:_ZNK9Pa_blocks14Cy_msg_wrapper4cgetERN4Base9U8ostreamE)
                  0008bf04    000000af     base.lib : Cmdvar.obj (.text:_ZN4Base6Cmdvar4csetERNS_11Lossy_errorE)
                  0008bfb3    000000af     pa_blocks.lib : Input_gnss_pos.obj (.text:_ZN9Pa_blocks14Input_gnss_pos18update_observationERKNS_5StateE)
                  0008c062    000000ad                   : Process_lidar.obj (.text:_ZN9Pa_blocks13Process_lidar19update_lidar_statusEf)
                  0008c10f    000000ac     midlevel.lib : Sys_status_mgr.obj (.text:_ZN8Midlevel14Sys_status_mgr19build_extended_respERN4Base9U8ostreamE)
                  0008c1bb    000000ab                  : Sys_status_mgr.obj (.text:_ZN8Midlevel14Sys_status_mgr16serialize_statusERN4Base9U8ostreamE)
                  0008c266    000000aa     veronte.lib : Copystep.obj (.text:_ZN3Ver36_GLOBAL__N__12_Copystep_cpp_e59cf1d56HrangeIN3Bsp5HrvarEE12build_rangesEv)
                  0008c310    000000a9     base.lib : Ftelemetryod.obj (.text:_ZN4Base12Ftelemetryod5FsvodC1ERNS_11XcfieldsvecINS_8TmodvdatELm200ELj10EEE)
                  0008c3b9    000000a9     pa_blocks.lib : Navigation.obj (.text:_ZN9Pa_blocks10NavigationC1ERKNS_12MeasurementsENS_8Nav_type4TypeERNS_17Nav_max_value_setERKNS_11Site_configERKb)
                  0008c462    000000a8     midlevel.lib : Sys_status_mgr.obj (.text:_ZN8Midlevel14Sys_status_mgrC1ERNS0_14Istatus_getterERN4Base11Imsg_senderE)
                  0008c50a    000000a6     pa_blocks.lib : Cy_maint_action.obj (.text:_ZN9Pa_blocks15Cy_maint_action10on_tx_implERN6Stanag14IStanag_msg_tx9Tx_paramsE)
                  0008c5b0    000000a3     veronte.lib : Xcrdsuite.obj (.text:_ZN3Ver9XcrdsuiteC1ERN4Base11Ipkt_senderERNS1_9IstrparseERKNS1_7TnarrayINS1_15Auth_connectionELm5EEE)
                  0008c653    000000a1     pa_blocks.lib : Propagate_covariance.obj (.text:_ZN9Pa_blocks20Propagate_covariance5dkdkkERKN8Maverick7RvectorES4_)
                  0008c6f4    000000a0     rts2800_fpu64_eabi.lib : s_scalbn.c.obj (.text)
                  0008c794    0000009f     devices.lib : Ubxcfgnav5.obj (.text:_ZN7Devices3Ubx10Ubxcfgnav54csetERN4Base11Lossy_errorE)
                  0008c833    0000009c     media.lib : Fstrfast.obj (.text:_ZN5Media8FstrfastC1ERN4Base8XclogmngERNS1_7XcpktwrERNS1_7SessionERVKNS1_6TdsyncINS1_8FstrFastENS1_12Tdsynctraits11Rd_blockingIS9_NS1_8Cptraits6PodrawIVS9_EEEENSA_15Disabled_structEEE)
                  0008c8cf    0000009a               : Cfgmgr.obj (.text:_ZN5Media6Cfgmgr21send_sync_state_asyncEv)
                  0008c969    0000009a               : Fstrfast.obj (.text:_ZN5Media8Fstrfast4stepEv)
                  0008ca03    0000009a     pa_blocks.lib : Process_lidar.obj (.text:_ZN9Pa_blocks13Process_lidar14agl_need_resetEf)
                  0008ca9d    0000009a                   : Knob_initializer.obj (.text:_ZN9Pa_blocks16Knob_initializerC1ERNS_20Vsdk_recovery_paramsE)
                  0008cb37    0000009a                   : State_estimate_compact.obj (.text:_ZN9Pa_blocks22State_estimate_compact22compact_state_estimateERKNS_14State_estimateE)
                  0008cbd1    00000099     midlevel.lib : Stanag_cyphal_wrap.obj (.text:_ZN6Cyphal18Stanag_cyphal_wrap4wrapERN4Base4SpktERNS_19CyphalStanag_tx_hndENS1_15Stanag_msg_type8Msg_typeE)
                  0008cc6a    00000097     media.lib : Cfgmgr.obj (.text:_ZN5Media6Cfgmgr9step_csetEv)
                  0008cd01    00000097     pa_blocks.lib : Tllh_cs_64.obj (.text:_ZN9Pa_blocks10Tllh_cs_6421compute_ecef_from_llaEv)
                  0008cd98    00000095     maverick.lib : Irvector3.obj (.text:_ZNK8Maverick9Irvector312thismatthistERKNS_9Irmatrix3E)
                  0008ce2d    00000094     media.lib : Cfgmgr.obj (.text:_ZN5Media6Cfgmgr5finitEN4Base6LoadstE)
                  0008cec1    00000094     pa_blocks.lib : Input_heading.obj (.text:_ZN9Pa_blocks13Input_heading18update_observationERKNS_5StateE)
                  0008cf55    00000093                   : Diverse_comms_telemetry.obj (.text:_ZN9Pa_blocks23Diverse_comms_telemetryC1Ev)
                  0008cfe8    00000092     base.lib : Stepmgr.obj (.text:_ZN4Base7Stepmgr6step_iEj)
                  0008d07a    00000092     pa_blocks.lib : Propagate_covariance.obj (.text:_ZN9Pa_blocks20Propagate_covarianceC1ERNS_5StateERNS_13Covariance_udE)
                  0008d10c    00000092                   : Nav_introspect_compact.obj (.text:_ZN9Pa_blocks22Nav_introspect_compact4cgetERN4Base5LossyE)
                  0008d19e    00000091     vpgnc.lib : Vpu.obj (.text:_ZN8Midlevel11Default_cfg14set_default_tmIN4Base8FvecdataINS2_6TmvdatELm600ELj4EEEEEvRNT_4Fsv0ERKNS2_6MblockIKNS2_4Vref5EntryEEERKNS6_7VecdataEj)
                  0008d22f    00000091     pa_blocks.lib : Cy_maint_action.obj (.text:_ZN9Pa_blocks15Cy_maint_action5on_rxERN6Stanag14IStanag_msg_rx9Rx_paramsE)
                  0008d2c0    00000091                   : Input_uplink_heading.obj (.text:_ZN9Pa_blocks20Input_uplink_heading4stepEv)
                  0008d351    00000090                   : Nav_builder.obj (.text:_ZN9Pa_blocks11Nav_builder5buildEv)
                  0008d3e1    0000008f     base.lib : Xcmqrd.obj (.text:_ZN4Base6Xcmqrd6parse0Ev)
                  0008d470    0000008f     vpgnc.lib : Vpu_dsp.obj (.text:_ZN5Vpgnc3Vpu14boot_mode_initEv)
                  0008d4ff    0000008f     pa_blocks.lib : Navigation.obj (.text:_ZN9Pa_blocks10Navigation4stepEv)
                  0008d58e    0000008f                   : Initializer.obj (.text:_ZN9Pa_blocks11InitializerC1ERKNS_12MeasurementsERNS_5StateERNS_21Controller_introspectENS_8Nav_type4TypeERNS_17Nav_max_value_setERKNS_11Site_configERKb)
                  0008d61d    0000008f                   : Input_gnss_vel.obj (.text:_ZN9Pa_blocks14Input_gnss_vel18update_observationERKNS_5StateE)
                  0008d6ac    0000008f     vpgnc.lib : Opranges.obj (.text:_ZNK5Vpgnc8Opranges5checkERN4Base5ErrorE)
                  0008d73b    0000008e     base.lib : Spkt.obj (.text:_ZN4Base4Spkt7end_pktEv)
                  0008d7c9    0000008e              : Cfgsync.obj (.text:_ZN4Base7Cfgsync8sync_allEb)
                  0008d857    0000008e     pa_blocks.lib : In_flight_speed_change_cmd.obj (.text:_ZNK9Pa_blocks26In_flight_speed_change_cmd4cgetERN4Base9U8ostreamE)
                  0008d8e5    0000008d     vpgnc.lib : Vpu.obj (.text:_ZN4Base9FieldsvecINS_6TmvdatELj0EE11add_sub_vecEj)
                  0008d972    0000008d     pa_blocks.lib : Pa_irquat.obj (.text:_ZN9Pa_blocks9Pa_irquat8rpy2quatEfffRN8Maverick6IrquatE)
                  0008d9ff    0000008c                   : Out_nav_pa_base.obj (.text:_ZN9Pa_blocks15Out_nav_pa_baseC1ERKNS_10NavigationERN4Base6TdsyncINS4_9U8pkarrayILm84EEENS4_12Tdsynctraits14Rd_nonblockingIS7_NS4_8Cptraits6PodrawIVS7_EEEENS8_2WrIS7_NSA_8OperatorIS7_S7_EEEEEERNS5_INS6_ILm203EEENS9_ISL_NSB_IVSL_EEEENSF_ISL_NSG_ISL_SL_EEEEEERNS5_INS6_ILm201EEENS9_IST_NSB_IVST_EEEENSF_IST_NSG_IST_ST_EEEEEERNS4_11Ipkt_senderERKNS_12MeasurementsERNS_17Nav_max_value_setENS0_6ParamsE)
                  0008da8b    0000008b                   : Tllh_cs_64.obj (.text:_ZN9Pa_blocks10Tllh_cs_64C1ERKN4Base4TllhE)
                  0008db16    0000008b     rts2800_fpu64_eabi.lib : k_sin.c.obj (.text)
                  0008dba1    0000008a     base.lib : Ftelemetryod.obj (.text:_ZN4Base6JarrayINS_5FieldEE10sub_removeEj)
                  0008dc2b    0000008a     vpgnc.lib : Vpu.obj (.text:_ZN4Base9FieldsvecINS_6TmvdatELj0EE13add_sub_fieldEjjNS_5FieldE)
                  0008dcb5    0000008a     veronte.lib : Hxcfield_cpu2.obj (.text:_ZNK4Base9FieldsvecINS_6TmvdatELj20EE4cgetERNS_5LossyE)
                  0008dd3f    00000089     vpgnc.lib : Vpu.obj (.text:_ZN5Vpgnc3Vpu4stepEv)
                  0008ddc8    00000088     rts2800_fpu64_eabi.lib : fs_div28.asm.obj (.text)
                  0008de50    00000086     base.lib : Espkt.obj (.text:_ZN4Base5EspktC1Ev)
                  0008ded6    00000086     pa_blocks.lib : Vsdk_params.obj (.text:_ZN9Pa_blocks20Vsdk_recovery_params4csetERN4Base11Lossy_errorE)
                  0008df5c    00000085                   : Tllh_cs_64.obj (.text:_ZNK9Pa_blocks10Tllh_cs_6417delta_ecef_to_nedERKN8Maverick9Irvector3ERS2_)
                  0008dfe1    00000084                   : Tllh_cs_64.obj (.text:_ZNK9Pa_blocks10Tllh_cs_6411ned2ecef_lrERKN8Maverick9Irvector3ERS2_)
                  0008e065    00000083     devices.lib : Ubxcfgnavx5.obj (.text:_ZN7Devices3Ubx11Ubxcfgnavx54csetERN4Base11Lossy_errorE)
                  0008e0e8    00000082     pa_blocks.lib : State_transition_matrix.obj (.text:_ZN9Pa_blocks23State_transition_matrix4stepEv)
                  0008e16a    00000082                   : State.obj (.text:_ZN9Pa_blocks5State17apply_delta_stateERNS_11Delta_stateE)
                  0008e1ec    00000080     base.lib : Uclk.obj (.text:_ZN4Base4Uclk4csetERNS_11Lossy_errorE)
                  0008e26c    00000080     stanag.lib : Acknowledgement.obj (.text:_ZN6Stanag15Acknowledgement5on_rxERNS_14IStanag_msg_rx9Rx_paramsE)
                  0008e2ec    0000007f     base.lib : Xcfilecli.obj (.text:_ZN4Base9XcfilecliC1ERVKNS_10XcfilectrlERNS_6TdsyncINS_9XcfilereqENS_12Tdsynctraits11Rd_blockingIS5_NS_8Cptraits6PodrawIVS5_EEEENS6_2WrIS5_NS8_8OperatorIS5_S5_EEEEEERNS_8XcbufferILm512EEERVKSK_)
                  0008e36b    0000007f     pa_blocks.lib : Aiding_sensors_info.obj (.text:_ZNK9Pa_blocks19Aiding_sensors_info13Sensor_status4cgetERN4Base5LossyE)
                  0008e3ea    0000007d                   : Out_nav_pa_rec.obj (.text:_ZN9Pa_blocks14Out_pa_nav_rec4stepEv)
                  0008e467    0000007d     base.lib : Kfieldset.obj (.text:_ZNK4Base9Kfieldset14get_hash_asyncERmRj)
                  0008e4e4    0000007d     rts2800_fpu64_eabi.lib : dtor_list.c.obj (.text)
                  0008e561    0000007c     media.lib : Cfgmgr.obj (.text:_ZN5Media6Cfgmgr11step_close0Ev)
                  0008e5dd    0000007c     base.lib : Flogic.obj (.text:_ZNK4Base6Flogic5checkERPVKjcRNS_5ErrorE)
                  0008e659    0000007c     pa_blocks.lib : Measurements.obj (.text:_ZNK9Pa_blocks12Measurements16Time_sync_offset4cgetERN4Base9U8ostreamE)
                  0008e6d5    0000007a     veronte.lib : Copystep.obj (.text:_ZN3Ver36_GLOBAL__N__12_Copystep_cpp_e59cf1d56HrangeIN3Bsp5HuvarEE12build_rangesEv)
                  0008e74f    00000079     pa_blocks.lib : Cy_dcomms_site_config.obj (.text:_ZNK9Pa_blocks21Cy_dcomms_site_config4cgetERN4Base9U8ostreamE)
                  0008e7c8    00000077     rts2800_fpu64_eabi.lib : k_cos.c.obj (.text)
                  0008e83f    00000076     base.lib : Cyphal_common_types.obj (.text:_ZN19Cyphal_common_types16get_truncated_idERN4Base12U8pkrszarrayILm256EEE)
                  0008e8b5    00000076     veronte.lib : Hxcfield_cpu2.obj (.text:_ZN3Ver8Hxcfield8get_ftmcEv)
                  0008e92b    00000076     vpgnc.lib : Event.obj (.text:_ZN5Vpgnc5Event4csetERN4Base11Lossy_errorE)
                  0008e9a1    00000076     base.lib : Field_BCD.obj (.text:_ZNK4Base9Field_BCD8compressERNS_5LossyEm)
                  0008ea17    00000075     geomodel.lib : Geomodel.obj (.text:_ZN3Geo8Geomodel8ecef2nedERKN4Base5TllcsERKN8Maverick9Irvector3ERS6_)
                  0008ea8c    00000075     first.lib : Strutil.obj (.text:_ZN4Base7Strutil23as_string_padding_rightEmhhRNS_7VstringE)
                  0008eb01    00000075     media.lib : Cfgmgr.obj (.text:_ZN5Media6Cfgmgr12Actionhelper7processEhRKN4Base8Spkt_hdrERNS2_11Lossy_errorERS0_)
                  0008eb76    00000074     vpgnc.lib : Event.obj (.text:_ZN5Vpgnc5Event4stepERNS0_5InputE)
                  0008ebea    00000074     devices.lib : Adis165053_cfg.obj (.text:_ZN7Devices14Adis165053_cfg4csetERN4Base11Lossy_errorE)
                  0008ec5e    00000073     geomodel.lib : Geomodel.obj (.text:_ZN3Geo8Geomodel8ned2ecefERKN4Base5TllcsERKN8Maverick9Irvector3ERS6_)
                  0008ecd1    00000073     veronte.lib : Static_cfg.obj (.text:_ZN3Ver10Static_cfgC1ERKN4Base7CfgsyncERKN5Media7IcfgcrcERKNS1_10Ihas_valueE)
                  0008ed44    00000073                 : Hxcfield_cpu2.obj (.text:_ZN3Ver8Hxcfield12get_stgfmsetEv)
                  0008edb7    00000073     media.lib : Cfgmgr.obj (.text:_ZN4Base8Hash_mapINS_8Sync_map7ElementEE4pushERKS2_)
                  0008ee2a    00000073     base.lib : Xcfilecli.obj (.text:_ZN4Base9Xcfilecli10seek_asyncElNS_5Ifile9Seek_modeE)
                  0008ee9d    00000073     pa_blocks.lib : State_estimate_compact.obj (.text:_ZNK9Pa_blocks22State_estimate_compact4cgetERN4Base5LossyE)
                  0008ef10    00000072     veronte.lib : Hxcfield_cpu2.obj (.text:_ZN3Ver8Hxcfield7get_ftmEv)
                  0008ef82    00000072                 : Hxcfield_cpu2.obj (.text:_ZN3Ver8Hxcfield8get_fsnfEv)
                  0008eff4    00000072                 : Hxcfield_cpu2.obj (.text:_ZN3Ver8Hxcfield9get_fmsetEv)
                  0008f066    00000071     base.lib : Field.obj (.text:_ZNK4Base5Field8get_sizeEv)
                  0008f0d7    00000070     vpgnc.lib : Vpu.obj (.text:_ZN4Base11Spkt_buffer4copyERKNS_4SpktE)
                  0008f147    00000070     base.lib : Rvarsensor3D_cfg.obj (.text:_ZN4Base16Rvarsensor3D_cfg4csetERNS_11Lossy_errorE)
                  0008f1b7    00000070              : CPUrc_all.obj (.text:_ZN4Base9CPUrc_all7computeEff)
                  0008f227    00000070     vpgnc.lib : Evtmgr.obj (.text:_ZN5Vpgnc6Evtmgr9evhi_stepEv)
                  0008f297    00000070     Blockfactory_par.obj (.text:_ZN7Vblocks12BlockfactoryC1ERN5Vpgnc3VpuERN5Media6CfgmgrERN4Base7StepmgrERN8Midlevel5Irxfw6ParserEmRNS7_9ChecklistERNS1_12Polymgr_implERNS1_26Airframe_action_wp_publishE)
                  0008f307    0000006f     veronte.lib : Pwm_suite.obj (.text:_ZN12Dsp28335_ent8PwmsuiteINS_6PwmdevELj16EE4csetERN4Base11Lossy_errorE)
                  0008f376    0000006f                 : Hvar_cpu2.obj (.text:_ZN3Bsp12get_featuresEv)
                  0008f3e5    0000006f     pa_blocks.lib : Tllh_cs_64.obj (.text:_ZN9Pa_blocks10Tllh_cs_64C1Ev)
                  0008f454    0000006f     rts2800_fpu64_eabi.lib : s_cos.c.obj (.text)
                  0008f4c3    0000006e     veronte.lib : Vpuposrd_ver_pa.obj (.text:_ZN4Base8Vpuposrd7get_posEv)
                  0008f531    0000006e     pa_blocks.lib : Input_gnss_vel.obj (.text:_ZN9Pa_blocks14Input_gnss_velC1ERKNS_12Measurements4GnssERNS_5StateERNS_13Covariance_udERNS_11Delta_stateERNS_13State_historyENS_8Nav_type4TypeE)
                  0008f59f    0000006e     veronte.lib : Vfspermission.obj (.text:_ZNK3Ver13Vfspermission13is_wr_allowedEN4Base5Ifile3UidE)
                  0008f60d    0000006d     first.lib : Strutil.obj (.text:_ZN4Base7Strutil22as_string_padding_leftEmhhRNS_7VstringE)
                  0008f67a    0000006d     vpgnc.lib : Evtmgr.obj (.text:_ZN5Vpgnc6Evtmgr4stepEv)
                  0008f6e7    0000006c     pa_blocks.lib : Estimator.obj (.text:_ZN9Pa_blocks9Estimator24imu_average_value_filterEv)
                  0008f753    0000006b     rts2800_fpu64_eabi.lib : s_sin.c.obj (.text)
                  0008f7be    0000006a     crypto_c28.lib : sha256.obj (.text:SHA256_finalizeWordWise)
                  0008f828    0000006a     vpgnc.lib : Vpu.obj (.text:_ZN4Base9Allocator21allocate_new_array_itINS_3VarINS_3FidEE6CommitENS_5RngitIS3_EEEEPT_mT0_)
                  0008f892    0000006a     maverick.lib : Irmatrix3.obj (.text:_ZN8Maverick9Irmatrix33addERKS0_)
                  0008f8fc    0000006a                  : Irmatrix3.obj (.text:_ZN8Maverick9Irmatrix34addTERKS0_)
                  0008f966    00000069     pa_blocks.lib : Input_static_pressure.obj (.text:_ZN9Pa_blocks21Input_static_pressure18update_observationERKNS_5StateE)
                  0008f9cf    00000068     midlevel.lib : Default_cfg.obj (.text:_ZN8Midlevel11Default_cfg18set_default_can_rxERN4Base11TnarrayreszIN12Dsp28335_ent6CANcfg5RxcfgELm32EEEbb)
                  0008fa37    00000068     first.lib : Endian16_big.obj (.text:_ZNK4Base12Endian16_big10get_uint16ERjPKjRmi)
                  0008fa9f    00000067     veronte.lib : Pwm_suite.obj (.text:_ZN12Dsp28335_ent8PwmsuiteINS_6PwmdevELj16EEC1EN4Base6Memmgr4TypeENS3_5RngitINS1_5PWMidEEENS3_9Range_dynINS3_4RvarEEE)
                  0008fb06    00000067     first.lib : Rvar.obj (.text:_ZN4Base13user_writableENS_4RvarE)
                  0008fb6d    00000067     base.lib : Xcfilecli.obj (.text:_ZN4Base8XcbufferILm512EE6Reader4readERNS_10U8pkmblockERm)
                  0008fbd4    00000067     first.lib : Endian16_big.obj (.text:_ZNK4Base12Endian16_big10put_uint16ERKjPjRmi)
                  0008fc3b    00000066     geomodel.lib : Apos.obj (.text:_ZN3Geo4Apos8llh_diffERKN4Base4TllhES4_RNS1_12Tllh_low_resE)
                  0008fca1    00000066     veronte.lib : Vfspermission.obj (.text:_ZN3Ver13VfspermissionC1ERVKN4Base10Cfgid_modeERN5Media10IupdatableE)
                  0008fd07    00000066                 : Vfspermission.obj (.text:_ZN4Base8Hash_mapINS_7Hashers11Element_u16EE4pushERKS2_)
                  0008fd6d    00000066     first.lib : U8ostream.obj (.text:_ZN4Base9U8ostream13put_uint64_leEy)
                  0008fdd3    00000066     pa_blocks.lib : Aiding_sensors_info.obj (.text:_ZN9Pa_blocks19Aiding_sensors_infoC1Ev)
                  0008fe39    00000066                   : Input_static_pressure.obj (.text:_ZN9Pa_blocks21Input_static_pressureC1ERKNS_12Measurements15Static_pressureERNS_5StateERNS_13Covariance_udERNS_11Delta_stateE)
                  0008fe9f    00000065     base.lib : Channelmgrcfg.obj (.text:_ZN4Base13Channelmgrcfg6Chncfg4csetERNS_11Lossy_errorE)
                  0008ff04    00000065              : Xcfilecli.obj (.text:_ZN4Base9Xcfilecli11write_asyncERKNS_12U8pkmblock_kERm)
                  0008ff69    00000065     media.lib : Cfgcrc_async.obj (.text:_ZN5Media12Cfgcrc_async7computeEv)
                  0008ffce    00000065               : Cfgmgr.obj (.text:_ZN5Media6Cfgmgr13start_save_opEN4Base3Cfg2IdENS1_7AddressERKy)
                  00090033    00000064     pa_blocks.lib : Cy_dcomms_site_config.obj (.text:_ZN9Pa_blocks21Cy_dcomms_site_config4csetERN4Base9U8istreamE)
                  00090097    00000063     devices.lib : Ubxcfgtmode3.obj (.text:_ZN7Devices3Ubx12Ubxcfgtmode34csetERN4Base11Lossy_errorE)
                  000900fa    00000062     DSP2837x_ent.lib : Pwmdev.obj (.text:_ZN12Dsp28335_ent6Pwmdev14apply_settingsEv)
                  0009015c    00000062     geomodel.lib : Apos.obj (.text:_ZN3Geo4Apos7relthisERKN4Base9Apos_dataES4_RN8Maverick9Irvector3E)
                  000901be    00000062     vpgnc.lib : Vpu.obj (.text:_ZN5Vpgnc3Vpu21build_status_bit_listEv)
                  00090220    00000062     stanag.lib : Stanag_ack_mgr.obj (.text:_ZN6Stanag14Stanag_ack_mgr10manage_ackEN4Base8Msg_data8Ack_typeERNS1_8Spkt_hdrERKNS1_10StimestampEjRNS_8Msg_fifoEPNS_14IStanag_rx_pktE)
                  00090282    00000062     pa_blocks.lib : Cy_maint_action.obj (.text:_ZN9Pa_blocks15Cy_maint_actionC1ERN4Base11Imsg_senderEPN6Stanag14IStanag_rx_pktE)
                  000902e4    00000062     base.lib : Cmdvar.obj (.text:_ZNK4Base6Cmdvar4cgetERNS_5LossyE)
                  00090346    00000061     first.lib : Vref.obj (.text:_ZN4Base4Vref4csetERNS_11Lossy_errorE)
                  000903a7    00000061     media.lib : Cfgmgr.obj (.text:_ZN5Media6Cfgmgr4loadEN4Base6LoadstEPNS1_5IfileEPNS1_5IstepE)
                  00090408    00000060     veronte.lib : Hxcfield_cpu2.obj (.text:_ZN3Ver8Hxcfield12get_tm_fsvecEv)
                  00090468    00000060     base.lib : Sticktypes.obj (.text:_ZN4Base11Stickppmcfg4csetERNS_11Lossy_errorE)
                  000904c8    00000060              : Cyphal.obj (.text:_ZN6Cyphal10Cyphal_msgC1EN4Base10U8pkmblockE)
                  00090528    00000060     pa_blocks.lib : Input_gnss_pos.obj (.text:_ZN9Pa_blocks14Input_gnss_posC1ERKNS_12Measurements4GnssERNS_5StateERNS_13Covariance_udERNS_11Delta_stateERNS_13State_historyENS_8Nav_type4TypeE)
                  00090588    00000060                   : Input_static_pressure.obj (.text:_ZN9Pa_blocks21Input_static_pressure21compute_estimated_mslERKNS_5StateE)
                  000905e8    0000005f     crypto_c28.lib : sha256.obj (.text:SHA256_addDataWordWiseSwapped)
                  00090647    0000005f     base.lib : Taskmgr.obj (.text:_ZN4Base7Taskmgr8add_taskERNS_5ItaskEf)
                  000906a6    0000005f              : Xclkcfg.obj (.text:_ZN4Base7Xclkcfg9cset_typeERNS_11Lossy_errorE)
                  00090705    0000005f     vpgnc.lib : Opranges.obj (.text:_ZN5Vpgnc8Opranges3Rng4csetERN4Base11Lossy_errorE)
                  00090764    0000005f     base.lib : Field_real_dec_ASCII.obj (.text:_ZNK4Base20Field_real_dec_ASCII8compressERNS_5LossyERKNS_4IgetERKj)
                  000907c3    0000005f     pa_blocks.lib : Tllh_cs_64.obj (.text:_ZNK9Pa_blocks10Tllh_cs_6412ned_from_llaERKS0_RN8Maverick9Irvector3E)
                  00090822    0000005f                   : Gnss_time_monotonic.obj (.text:_ZNK9Pa_blocks19Gnss_time_monotonic16convert_week_towERKN4Base5TtimeE)
                  00090881    0000005e     vpgnc.lib : Vpu.obj (.text:_ZN5Vpgnc3Vpu21can_consistency_checkERN4Base5ErrorE)
                  000908df    0000005e     midlevel.lib : Synchronized_time.obj (.text:_ZN8Midlevel17Synchronized_time4csetERN4Base5LossyE)
                  0009093d    0000005e     pa_blocks.lib : Initializer_bias.obj (.text:_ZN9Pa_blocks16Initializer_biasC1ERN4Base7TnarrayIfLm3EEES4_)
                  0009099b    0000005e                   : Estimator.obj (.text:_ZN9Pa_blocks9Estimator15capture_headingEv)
                  000909f9    0000005e     media.lib : Fstrfast.obj (.text:_ZNK5Media8Fstrfast7send_stEN4Base7AddressERNS1_9U8ostreamE)
                  00090a57    0000005d     base.lib : Fsniffer.obj (.text:_ZN4Base11Sniffervdat4csetERNS_11Lossy_errorERKNS_9KfieldsetE)
                  00090ab4    0000005d              : Msg_data.obj (.text:_ZN4Base8Msg_data4csetERNS_11U16stream_rE)
                  00090b11    0000005d     vpgnc.lib : Opmgr.obj (.text:_ZN4Base8TuncacheIN5Vpgnc14Rvar_op_commit7RoptypeEE4csetERNS_11Lossy_errorE)
                  00090b6e    0000005d     pa_blocks.lib : Nav_builder.obj (.text:_ZN9Pa_blocks11Nav_builderC1ERN4Base11Ipkt_senderERN8Midlevel5Irxfw6ParserERNS1_6TdsyncINS1_9U8pkarrayILm84EEENS1_12Tdsynctraits14Rd_nonblockingISA_NS1_8Cptraits6PodrawIVSA_EEEENSB_2WrISA_NSD_8OperatorISA_SA_EEEEEERNS8_INS9_ILm203EEENSC_ISO_NSE_IVSO_EEEENSI_ISO_NSJ_ISO_SO_EEEEEERNS8_INS9_ILm76EEENSC_ISW_NSE_IVSW_EEEENSI_ISW_NSJ_ISW_SW_EEEEEERNS8_INS9_ILm201EEENSC_IS14_NSE_IVS14_EEEENSI_IS14_NSJ_IS14_S14_EEEEEENS_15Out_nav_pa_base6ParamsERKNS_11Site_configE)
                  00090bcb    0000005d     base.lib : Session.obj (.text:_ZNK4Base7Session16get_current_timeEv)
                  00090c28    0000005c     DSP2837x_ent.lib : Pwmdev.obj (.text:_ZN12Dsp28335_ent6Pwmdev15compute_dep_cfgEv)
                  00090c84    0000005c     first.lib : Lossy.obj (.text:_ZN4Base5Lossy15put_float_ibitsEfjffll)
                  00090ce0    0000005c               : Lossy.obj (.text:_ZN4Base5Lossy15put_float_ubitsEfjffmm)
                  00090d3c    0000005c     devices.lib : Ubxcfgdata.obj (.text:_ZN7Devices3Ubx10UbxcfggnssILj3EE4csetERN4Base11Lossy_errorE)
                  00090d98    0000005b     base.lib : Cyphal_common_types.obj (.text:_ZN19Cyphal_common_types18deserialize_stringERN4Base5LossyERNS0_12U8pkrszarrayILm256EEE)
                  00090df3    0000005b              : Cyphal_common_types.obj (.text:_ZN19Cyphal_common_types18deserialize_stringERN4Base9U8istreamERNS0_12U8pkrszarrayILm256EEE)
                  00090e4e    0000005b     geomodel.lib : Gellipsoid.obj (.text:_ZN3Geo10Gellipsoid7geoevolEfffRKN8Maverick9Irvector3ERN4Base12Tllh_low_resE)
                  00090ea9    0000005b     base.lib : Rtaskrc.obj (.text:_ZN4Base7Rtaskrc7computeEf)
                  00090f04    0000005b     media.lib : Cfgmgr.obj (.text:_ZN5Media6Cfgmgr17recover_from_toutEv)
                  00090f5f    0000005b     pa_blocks.lib : On_ground.obj (.text:_ZN9Pa_blocks9On_ground31detect_ground_to_air_transitionEv)
                  00090fba    0000005b     base.lib : Kfieldset.obj (.text:_ZNK4Base9Kfieldset8get_hashEv)
                  00091015    0000005a     first.lib : Lossy.obj (.text:_ZN4Base5Lossy10get_mblockEj)
                  0009106f    0000005a     midlevel.lib : Radio_sync_cfg.obj (.text:_ZN8Midlevel19Radio_sync_cfg_type6Params4csetERN4Base11Lossy_errorE)
                  000910c9    0000005a     pa_blocks.lib : Rph_from_q.obj (.text:_ZN9Pa_blocks10Rph_from_q4stepEv)
                  00091123    0000005a                   : Input_measurements.obj (.text:_ZN9Pa_blocks18Input_measurements9chi2_testERKN8Maverick9Irvector3ERKNS1_9Irmatrix3ES4_fRf)
                  0009117d    0000005a                   : Update_gps_time_offset.obj (.text:_ZN9Pa_blocks22Update_gps_time_offset6updateEv)
                  000911d7    00000059     first.lib : Lossy.obj (.text:_ZN4Base11put_n_tfuncIjLm16EXadL_ZNS_5Lossy10put_uint16EjEEEEvRS1_RKNS_6MblockIKT_EE)
                  00091230    00000059     rts2800_fpu64_eabi.lib : s_scalbnf.c.obj (.text)
                  00091289    00000058     pa_blocks.lib : Pa_irquat.obj (.text:_ZN9Pa_blocks9Pa_irquat9quat2rollERKN8Maverick6IrquatE)
                  000912e1    00000058     base.lib : Presence_vec.obj (.text:_ZNK4Base12Presence_vec9read_dataEj)
                  00091339    00000057     first.lib : PDIcheck.obj (.text:_ZN4Base8PDIcheck7commit0ERKNS_5ErrorE)
                  00091390    00000057     base.lib : Xcfilecli.obj (.text:_ZN4Base9Xcfilecli10open_asyncENS_5Ifile3UidENS1_9Open_modeE)
                  000913e7    00000057     Blockfactory_par.obj (.text:_ZN7Vblocks44_GLOBAL__N__20_Blockfactory_par_cpp_f396dcb214get_isc_paramsERKN4Base12U8pkrszarrayILm256EEE)
                  0009143e    00000057     first.lib : Endian16_little.obj (.text:_ZNK4Base15Endian16_little10put_uint16ERKjPjRmi)
                  00091495    00000057     pa_blocks.lib : Tllh_cs_64.obj (.text:_ZNK9Pa_blocks10Tllh_cs_6412lla_from_nedERKN8Maverick9Irvector3ERS0_)
                  000914ec    00000056     crypto_c28.lib : Compute_hash.obj (.text:_ZN10Crypto_c2812compute_hashERKN4Base8Mblock_sERNS0_7TnarrayImLm8EEE)
                  00091542    00000056     vpgnc.lib : Vpu.obj (.text:_ZN5Vpgnc3Vpu22xpc8_consistency_checkERN4Base5ErrorE)
                  00091598    00000055     geomodel.lib : Fidcache.obj (.text:_ZN3Geo8Fidcache13compute_path0EN4Base3FidE)
                  000915ed    00000055     first.lib : Strutil.obj (.text:_ZN4Base7Strutil6to_hexEmhRNS_7VstringE)
                  00091642    00000055     base.lib : Xcfilecli.obj (.text:_ZN4Base9Xcfilecli10read_asyncERNS_10U8pkmblockERm)
                  00091697    00000055     vpgnc.lib : Event.obj (.text:_ZN5Vpgnc5Event16compute_durationEb)
                  000916ec    00000055     midlevel.lib : Xstanag_notifier.obj (.text:_ZN8Midlevel16Xstanag_notifier5parseERN4Base17U16stream_r_errorE)
                  00091741    00000053     base.lib : Fref.obj (.text:_ZN4Base4Fref4csetERNS_11Lossy_errorE)
                  00091794    00000053     maverick.lib : Irmatrix3.obj (.text:_ZN8Maverick9Irmatrix35scaleEf)
                  000917e7    00000053     pa_blocks.lib : Irmatrix3_sub.obj (.text:_ZN9Pa_blocks13Irmatrix3_sub10setsubmatTERKS0_)
                  0009183a    00000053                   : State_history.obj (.text:_ZN9Pa_blocks13State_history19apply_latent_deltasEjRKN8Maverick7RvectorE)
                  0009188d    00000052     first.lib : Lossy.obj (.text:_ZN4Base11get_n_tfuncIfLm32EXadL_ZNS_5Lossy9get_floatERfEEEEvRS1_RNS_5ArrayIT_EEm)
                  000918df    00000052     media.lib : Cfgmgr.obj (.text:_ZN5Media6Cfgmgr15fload_blocking0EfNS0_5StateE)
                  00091931    00000052     midlevel.lib : Cy_msg_id_gen.obj (.text:_ZN6Cyphal41_GLOBAL__N__17_Cy_msg_id_gen_cpp_833419e712get_m_prefixEv)
                  00091983    00000052                  : Errors_irx.obj (.text:_ZN8Midlevel10Errors_irxC1ERN4Base7IerrorsE)
                  000919d5    00000052     vpgnc.lib : Vpu.obj (.text:_ZN8Midlevel11Default_cfg18get_default_can_inIN4Base11CANin_suiteILj6EEEEERKT_bb)
                  00091a27    00000052     pa_blocks.lib : Process_lidar.obj (.text:_ZN9Pa_blocks13Process_lidar13compute_gammaEv)
                  00091a79    00000052                   : Process_lidar.obj (.text:_ZN9Pa_blocks13Process_lidar15compute_ned2gndEf)
                  00091acb    00000052                   : Quiescence_detector.obj (.text:_ZN9Pa_blocks19Quiescence_detector4stepERN8Maverick9Irvector31KES4_)
                  00091b1d    00000052     vpgnc.lib : Varinit.obj (.text:_ZNK5Vpgnc7Varinit6Value05applyEv)
                  00091b6f    00000051     base.lib : Xcfilecli.obj (.text:_ZN4Base8XcbufferILm512EE6Writer5writeERKNS_12U8pkmblock_kE)
                  00091bc0    00000051     media.lib : Cfgmgr.obj (.text:_ZN5Media6Cfgmgr7add_cmdEN4Base3Cfg2IdERNS1_8ItunableE)
                  00091c11    00000051     first.lib : Ttime.obj (.text:_ZNK4Base5Ttime9get_msecsEv)
                  00091c62    00000050     base.lib : Evactcfg.obj (.text:_ZN4Base9Evactcfg04csetERNS_11Lossy_errorE)
                  00091cb2    00000050     media.lib : Fstrfast.obj (.text:_ZN5Media8Fstrfast6commitEv)
                  00091d02    00000050     first.lib : Real16.obj (.text:_ZN6Real1614single_to_halfEf)
                  00091d52    00000050     maverick.lib : Irvector3.obj (.text:_ZN8Maverick9Irvector37matthisERKNS_9Irmatrix3E)
                  00091da2    00000050     base.lib : Field.obj (.text:_ZNK4Base5Field13user_writableEv)
                  00091df2    0000004f     media.lib : Cfgmgr.obj (.text:_ZN5Media6Cfgmgr12get_itunableEN4Base3Cfg2IdE)
                  00091e41    0000004f     rts2800_fpu64_eabi.lib : typeinfo.c.obj (.text)
                  00091e90    0000004e     geomodel.lib : Gellipsoid.obj (.text:_ZN3Geo10Gellipsoid8geo2ecefERKN4Base5TllcsEfRNS_5TecefE)
                  00091ede    0000004e     base.lib : Meastypes.obj (.text:_ZN4Base13GNSS_week_tow12set_total_msEx)
                  00091f2c    0000004e              : Spkt.obj (.text:_ZN4Base4Spkt15update_raw_dataEv)
                  00091f7a    0000004e     first.lib : Strutil.obj (.text:_ZN4Base7Strutil21real_to_upper_hex_strEfRNS_9U8pkarrayILm8EEE)
                  00091fc8    0000004e               : Endian3.obj (.text:_ZN4Base8E3helper12get_instanceEv)
                  00092016    0000004e               : U8istream.obj (.text:_ZN4Base9U8istream13get_uint64_leEv)
                  00092064    0000004e     media.lib : Cfgmgr.obj (.text:_ZN5Media6Cfgmgr13start_load_opEN4Base3Cfg2IdENS1_7AddressERKy)
                  000920b2    0000004e     devices.lib : Ubxcfgport.obj (.text:_ZN7Devices3Ubx10Ubxcfgport4csetERN4Base11Lossy_errorE)
                  00092100    0000004e     pa_blocks.lib : State_estimate_logic.obj (.text:_ZN9Pa_blocks20State_estimate_logic12ias_from_tasEff)
                  0009214e    0000004e                   : DComms_cfg.obj (.text:_ZN9Pa_blocks38_GLOBAL__N__14_DComms_cfg_cpp_7a086dbd15check_regs_cfgsERKN4Base11TnarrayreszINS_10DComms_cfg7Reg_cfgELm30EEE)
                  0009219c    0000004d     base.lib : Fmsg_cfg.obj (.text:_ZN4Base8Fmsg_cfg4csetERNS_11Lossy_errorE)
                  000921e9    0000004d     vpgnc.lib : Event.obj (.text:_ZN5Vpgnc5Event7step_wpERKNS_13Evt_wp_groupsE)
                  00092236    0000004d     midlevel.lib : Sys_status_mgr.obj (.text:_ZN8Midlevel14Sys_status_mgr18send_extended_respEb)
                  00092283    0000004d     pa_blocks.lib : Cy_maint_action.obj (.text:_ZN9Pa_blocks15Cy_maint_action9step_taskEv)
                  000922d0    0000004c     base.lib : Cyphal_common_types.obj (.text:_ZN19Cyphal_common_types16serialize_stringERN4Base5LossyERKNS0_12U8pkrszarrayILm256EEE)
                  0009231c    0000004c              : Cyphal_common_types.obj (.text:_ZN19Cyphal_common_types16serialize_stringERN4Base9U8ostreamERKNS0_12U8pkrszarrayILm256EEE)
                  00092368    0000004c              : Cyphal_common_types.obj (.text:_ZN19Cyphal_common_types16serialize_stringERN4Base9U8ostreamERVKNS0_12U8pkrszarrayILm256EEE)
                  000923b4    0000004c     media.lib : Cfgmgr.obj (.text:_ZN4Base12Data_mutatorINS_11Lossy_error15Mutator_traits8ENS_9U8istream12Data_traits8EEC1ERS3_)
                  00092400    0000004c     first.lib : PDIcheck.obj (.text:_ZN4Base8PDIcheck7Opflush4stepEv)
                  0009244c    0000004c     base.lib : Field.obj (.text:_ZN4Rfun11safe_divideIeEET_S1_S1_S1_)
                  00092498    0000004c     stanag.lib : Acknowledgement.obj (.text:_ZN6Stanag15Acknowledgement5on_txERNS_14IStanag_msg_tx9Tx_paramsE)
                  000924e4    0000004c     pa_blocks.lib : Sep.obj (.text:_ZN9Pa_blocks3Sep11Vsdk_param_4csetERN4Base11Lossy_errorE)
                  00092530    0000004c     geomodel.lib : Rpos.obj (.text:_ZNK3Geo4Rpos7relthisERKN8Maverick9Irvector3ERNS_4AposE)
                  0009257c    0000004b     base.lib : Cfgid_mode.obj (.text:_ZN4Base10Cfgid_mode4csetERNS_11Lossy_errorE)
                  000925c7    0000004b     first.lib : Bvar.obj (.text:_ZN4Base13user_writableENS_4BvarE)
                  00092612    0000004b     base.lib : Sync.obj (.text:_ZN4Base4Sync12set_modifiedERKNS_5LossyE)
                  0009265d    0000004b     media.lib : Cfgmgr.obj (.text:_ZN5Media6Cfgmgr10start_saveEN4Base3Cfg2IdENS1_7AddressE)
                  000926a8    0000004b     vpgnc.lib : Varinit.obj (.text:_ZN5Vpgnc7Varinit4csetERN4Base11Lossy_errorE)
                  000926f3    0000004b     pa_blocks.lib : Input_gnss_pos.obj (.text:_ZN9Pa_blocks14Input_gnss_pos27gnss_position_status_updateEb)
                  0009273e    0000004b                   : Input_gnss_vel.obj (.text:_ZN9Pa_blocks14Input_gnss_vel27gnss_velocity_status_updateEb)
                  00092789    0000004a     first.lib : Memmgr_c2000.obj (.text:_ZN4Base6Memmgr12get_instanceEv)
                  000927d3    0000004a     pa_blocks.lib : Command_response.obj (.text:_ZN9Pa_blocks16Command_response4csetERN4Base5LossyE)
                  0009281d    0000004a                   : Vsdk_navigation_params.obj (.text:_ZN9Pa_blocks22Vsdk_navigation_params15Onground_paramsC1Ev)
                  00092867    00000048     geomodel.lib : Gellipsoid.obj (.text:_ZN3Geo10Gellipsoid9geoevol_1EfffRKN4Base12Tllh_low_resERN8Maverick9Irvector3E)
                  000928af    00000048     media.lib : Cfgmgr.obj (.text:_ZN5Media6Cfgmgr3addEN4Base3Cfg2IdERNS1_14Itunable_asyncE)
                  000928f7    00000048               : Cfgmgr.obj (.text:_ZN5Media6Cfgmgr3addEN4Base3Cfg2IdERNS1_21Ideserializable_asyncE)
                  0009293f    00000048     pa_blocks.lib : Input_heading.obj (.text:_ZN9Pa_blocks13Input_heading4stepEv)
                  00092987    00000048                   : Input_heading.obj (.text:_ZN9Pa_blocks13Input_headingC1ERKfRNS_5StateERNS_13Covariance_udERNS_11Delta_stateERKb)
                  000929cf    00000048     DSP2837x_ent.lib : Pwmdev.obj (.text:_ZNK12Dsp28335_ent6Pwmdev13get_frequencyEv)
                  00092a17    00000048     DSP28x.lib : SCIcfg.obj (.text:_ZNK12Dsp28335_ent6SCIcfg8validateEv)
                  00092a5f    00000047     media.lib : Cfgmgr.obj (.text:_ZN5Media6Cfgmgr9step_saveEv)
                  00092aa6    00000047     pa_blocks.lib : Sep.obj (.text:_ZN9Pa_blocks3Sep11Vsdk_param_C1Ev)
                  00092aed    00000047                   : Atcg.obj (.text:_ZN9Pa_blocks4Atcg10Vsdk_param4csetERN4Base5LossyE)
                  00092b34    00000047     base.lib : Cfgid_mode.obj (.text:_ZNVK4Base10Cfgid_mode10wr_allowedENS_3Cfg2IdE)
                  00092b7b    00000046     geomodel.lib : Apos.obj (.text:_ZN3Geo4Apos7move_rnERKN8Maverick9Irvector3E)
                  00092bc1    00000046     veronte.lib : Static_cfg.obj (.text:_ZN3Ver10Static_cfg18static_cfg_changedEv)
                  00092c07    00000046     base.lib : Spkt.obj (.text:_ZN4Base4SpktC1ENS_10U8pkmblockEb)
                  00092c4d    00000046              : Sticktypes.obj (.text:_ZN4Base8Stickout4csetERNS_11Lossy_errorE)
                  00092c93    00000046     media.lib : Cfgmgr.obj (.text:_ZN5Media6Cfgmgr14fload_blockingEN4Base3Cfg2IdE)
                  00092cd9    00000046               : Fstrfast.obj (.text:_ZN5Media8Fstrfast5on_rxERN6Stanag14IStanag_msg_rx9Rx_paramsE)
                  00092d1f    00000046     maverick.lib : Irmatrix3.obj (.text:_ZN8Maverick9Irmatrix35skewpERKNS_9Irvector3E)
                  00092d65    00000046     pa_blocks.lib : DComms_cfg.obj (.text:_ZN9Pa_blocks10DComms_cfg7Reg_cfg4csetERN4Base11Lossy_errorE)
                  00092dab    00000046                   : Pa_profiling.obj (.text:_ZN9Pa_blocks12Pa_profiling3tocEb)
                  00092df1    00000046     midlevel.lib : Sys_status_mgr.obj (.text:_ZNK8Midlevel14Sys_status_mgr8add_bitsERKN4Base6MblockIKNS1_4BvarEEERNS1_7BitmaskIyEEj)
                  00092e37    00000045     first.lib : U16stream_r.obj (.text:_ZN4Base11U16stream_r10get_uint64Ev)
                  00092e7c    00000045     base.lib : Action.obj (.text:_ZN4Base6Action4csetERNS_11Lossy_errorE)
                  00092ec1    00000045              : Xpcmap0.obj (.text:_ZN4Base7Xpcmap013cset_validateERNS_11Lossy_errorEjjj)
                  00092f06    00000045              : Cfgsync.obj (.text:_ZN4Base8Hash_mapINS_8Sync_map7ElementEE3getERKj)
                  00092f4b    00000045     media.lib : Cfgmgr.obj (.text:_ZN5Media6Cfgmgr11send_configEN4Base7AddressENS1_3Cfg2IdEPKNS1_14Itunable_asyncE)
                  00092f90    00000045     vpgnc.lib : Vpu.obj (.text:_ZN8Midlevel11Default_cfg19get_default_can_outIN4Base12CANout_suiteILj6EEEEERKT_NS2_7CANport4PortE)
                  00092fd5    00000045     midlevel.lib : CAN_term_cfg.obj (.text:_ZN8Midlevel12CAN_term_cfg4csetERN4Base11Lossy_errorE)
                  0009301a    00000045     media.lib : Cfgmgr.obj (.text:_ZNK4Base8Hash_mapINS_8Sync_map7ElementEE3getERKj)
                  0009305f    00000044     veronte.lib : Xcrdsuite.obj (.text:_ZN4Base6XcmvarINS_3FidENS_9Tuntraits10U16strCxetINS_7FeatureEEEE6Parser5parseERNS_17U16stream_r_errorE)
                  000930a3    00000044     midlevel.lib : CyphalStanag_tx_hnd.obj (.text:_ZN6Cyphal19CyphalStanag_tx_hnd5on_txERN6Stanag14IStanag_msg_tx9Tx_paramsE)
                  000930e7    00000044     stanag.lib : Stanag_pulling.obj (.text:_ZN6Stanag17Stanag_serializer5on_txEPNS_14IStanag_msg_txERN4Base4SpktERKNS3_7AddressERKNS3_8Msg_dataERNS1_9Tx_paramsE)
                  0009312b    00000044     pa_blocks.lib : Site_config.obj (.text:_ZN9Pa_blocks11Site_config6Setter13processed_reqEv)
                  0009316f    00000044     maverick.lib : Moving_average.obj (.text:_ZN9Pa_blocks14Moving_average4stepEf)
                  000931b3    00000043     base.lib : Auth_connection.obj (.text:_ZN4Base15Auth_connection14get_connectionERS0_NS_7AddressENS_15Stanag_msg_type8Msg_typeERKNS_6MblockIKS0_EE)
                  000931f6    00000043     first.lib : Ttime.obj (.text:_ZN4Base32_GLOBAL__N__9_Ttime_cpp_8429a5a816get_msecs_factorEv)
                  00093239    00000043     veronte.lib : Pwm_suite.obj (.text:_ZN4Base9Allocator21allocate_new_array_itIN12Dsp28335_ent6PwmdevENS_5RngitINS3_5PWMidEEEEEPT_mT0_)
                  0009327c    00000043     base.lib : Uclkmgr.obj (.text:_ZN4Base9Allocator21allocate_new_array_itINS_4UclkENS_5RngitINS_4RvarEEEEEPT_mT0_)
                  000932bf    00000043     media.lib : Cfgmgr.obj (.text:_ZN5Media6Cfgmgr4stepEv)
                  00093302    00000043     midlevel.lib : Sys_status_mgr.obj (.text:_ZN8Midlevel14Sys_status_mgr4stepEv)
                  00093345    00000043     pa_blocks.lib : Pa_profiling.obj (.text:_ZN9Pa_blocks12Pa_profiling7publishEv)
                  00093388    00000043     veronte.lib : Vfspermission.obj (.text:_ZNK4Base8Hash_mapINS_7Hashers11Element_u16EE3getERKj)
                  000933cb    00000043     pa_blocks.lib : Checks_gnss.obj (.text:_ZNK9Pa_blocks11Checks_gnss21gnss_check_accuraciesEv)
                  0009340e    00000042     vpgnc.lib : Vpu.obj (.text:_ZN12Dsp28335_ent8PwmsuiteINS_6PwmdevELj16EE7disableEv)
                  00093450    00000042     veronte.lib : Hvar_cpu2.obj (.text:_ZN3Bsp5Hrvar5RangeC1EN4Base6MblockIVKfEENS2_4RvarES6_)
                  00093492    00000042                 : Hvar_cpu2.obj (.text:_ZN3Bsp5Huvar5RangeC1EN4Base6MblockIVKjEENS2_4UvarES6_)
                  000934d4    00000042     base.lib : Feature.obj (.text:_ZN4Base12Data_mutatorINS_11Lossy_error16Mutator_traits16ENS_17U16stream_r_error13Data_traits16EEC1ERS3_)
                  00093516    00000042              : Rvarsensor1D_cfg.obj (.text:_ZN4Base16Rvarsensor1D_cfg4csetERNS_11Lossy_errorE)
                  00093558    00000042     first.lib : Timeout.obj (.text:_ZN4Base7TimeoutC1Ef)
                  0009359a    00000042     veronte.lib : Tunsuite_pa.obj (.text:_ZN4Base7XrtableILm12ELm3EE8cset_colERNS_11Lossy_errorEj)
                  000935dc    00000042                 : Tunsuite_pa.obj (.text:_ZN4Base7XrtableILm2ELm3EE8cset_colERNS_11Lossy_errorEj)
                  0009361e    00000042     vpgnc.lib : Varinit.obj (.text:_ZN5Vpgnc7Varinit6Value04csetERN4Base11Lossy_errorE)
                  00093660    00000042     pa_blocks.lib : Covariance_ud.obj (.text:_ZN9Pa_blocks13Covariance_ud12update_p_posEv)
                  000936a2    00000042                   : Cy_maint_action.obj (.text:_ZN9Pa_blocks15Cy_maint_action9on_rx_pktERN6Stanag14IStanag_rx_pkt6ParamsE)
                  000936e4    00000042                   : Propagate_covariance.obj (.text:_ZN9Pa_blocks20Propagate_covariance4initEv)
                  00093726    00000042     first.lib : Vref.obj (.text:_ZNK4Base4Vref4kgetEv)
                  00093768    00000041     veronte.lib : Tunsuite_pa.obj (.text:_ZN12Dsp28335_ent8TGPIOtunINS_9GPIOmux16EE4csetERN4Base11Lossy_errorE)
                  000937a9    00000041                 : Hvar_cpu2.obj (.text:_ZN3Bsp5Hbvar5RangeC1EN4Base6MblockIVKbEENS2_4BvarES6_)
                  000937ea    00000041     first.lib : Lossy.obj (.text:_ZN4Base5Lossy9put_floatEfffh)
                  0009382b    00000041     veronte.lib : Hxcfield_cpu2.obj (.text:_ZN4Base8TwrapdesINS_9Tuntraits9Wsync_desINS_6TdsyncINS_11FstrtfieldsENS_12Tdsynctraits11Rd_blockingIS4_NS_8Cptraits6PodrawIVS4_EEEENS5_15Disabled_structEEENS1_10DesdefaultIS4_EEEERSD_E4csetERNS_11Lossy_errorE)
                  0009386c    00000041                 : Tunsuite_pa.obj (.text:_ZN4Base9Tuntraits15Arraytun_nosizeINS0_8TupletunINS0_9Cset_onlyIN6Stanag14Subsystem_data8Key_dataEEENS0_7Lossy16INS_4UvarEEEEENS_11TnarrayreszINS_5TupleIS6_S9_EELm64EEENS0_8No_checkISF_EEE8str2elemERSF_RNS_11Lossy_errorE)
                  000938ad    00000041     stanag.lib : Stanag_msg_push_pkt.obj (.text:_ZN6Stanag19Stanag_msg_rx_async9on_rx_pktERNS_14IStanag_rx_pkt6ParamsE)
                  000938ee    00000041     pa_blocks.lib : Vsdk_params.obj (.text:_ZN9Pa_blocks29Vsdk_actuatorallocator_params4csetERN4Base11Lossy_errorE)
                  0009392f    00000041     rts2800_fpu64_eabi.lib : autoinit.c.obj (.text:__TI_auto_init)
                  00093970    00000040     DSP28x.lib : SCIcfg.obj (.text:_ZN12Dsp28335_ent6SCIcfg4csetERN4Base11Lossy_errorE)
                  000939b0    00000040     vpgnc.lib : Evtmgr.obj (.text:_ZN4Base12Data_mutatorINS_5Lossy15Mutator_traits8IS1_EENS_9U8istream12Data_traits8EEC1ERS4_)
                  000939f0    00000040     base.lib : Xclk.obj (.text:_ZN4Base4Xclk4stepEv)
                  00093a30    00000040     first.lib : Lossy.obj (.text:_ZN4Base5Lossy10put_uint16Ejjj)
                  00093a70    00000040     media.lib : Cfgmgr.obj (.text:_ZN5Media6Cfgmgr10start_loadEN4Base3Cfg2IdENS1_7AddressE)
                  00093ab0    00000040     pa_blocks.lib : State_estimate_logic.obj (.text:_ZN8Maverick8Ivector3IfE5crossERKS1_S3_)
                  00093af0    00000040     maverick.lib : Irmatrix3.obj (.text:_ZN8Maverick9Irmatrix34rotyEf)
                  00093b30    00000040     vpgnc.lib : Vpu.obj (.text:_ZN8Midlevel11Default_cfg18get_default_can_scIN4Base11CANsc_suiteILj6EEEEERKT_fb)
                  00093b70    00000040     Blockfactory_par.obj (.text:_ZN9Pa_blocks11Site_configC1ERVNS0_6ConfigERN5Media6CfgmgrEPNS_21Cy_dcomms_site_configE)
                  00093bb0    00000040     base.lib : Xclk.obj (.text:_ZNK4Base4Xclk3tocEv)
                  00093bf0    0000003f     vpgnc.lib : Evt_wp_groups.obj (.text:_ZN4Base14Tunarray_asyncINS_4TdesINS_11TnarrayreszIjLm8EEENS_9Tuntraits10TundefaultIS3_EEEELb0EE4csetERNS_11Lossy_errorE)
                  00093c2f    0000003f     base.lib : Xclk.obj (.text:_ZN4Base4Xclk3ticEf)
                  00093c6e    0000003f     first.lib : Lossy.obj (.text:_ZN4Base5Lossy10put_uint32Emmm)
                  00093cad    0000003f     base.lib : Tmvdat.obj (.text:_ZN4Base6Tmvdat10cset_asyncERNS_11Lossy_errorERKNS_9KfieldsetERj)
                  00093cec    0000003f              : Feature.obj (.text:_ZN4Base7Feature4csetERNS_17U16stream_r_errorE)
                  00093d2b    0000003f              : Xclkcfg.obj (.text:_ZN4Base7Xclkcfg11cset_periodERNS_11Lossy_errorE)
                  00093d6a    0000003f     veronte.lib : Copystep.obj (.text:_ZN4Base9Allocator21allocate_new_array_itIN3Bsp5HrvarENS_5RngitINS_4RvarEEEEEPT_mT0_)
                  00093da9    0000003f     base.lib : Ftelemetryod.obj (.text:_ZN4Base9FieldsvecINS_8TmodvdatELj20EE6removeEj)
                  00093de8    0000003f     pa_blocks.lib : Is_gnss_ready_to_process.obj (.text:_ZN9Pa_blocks24Is_gnss_ready_to_process4stepEv)
                  00093e27    0000003e     base.lib : Presence_vec.obj (.text:_ZN4Base12Presence_vec10initializeEy)
                  00093e65    0000003e     veronte.lib : Hvar.obj (.text:_ZN4Base8Hbmapvar3getERNS0_4TypeE)
                  00093ea3    0000003e     vpgnc.lib : Vpu.obj (.text:_ZN5Vpgnc3Vpu15get_status_bitsEv)
                  00093ee1    0000003d     base.lib : Spkt.obj (.text:_ZN4Base4Spkt7set_hdrERKNS_8Spkt_hdrE)
                  00093f1e    0000003d     first.lib : U8ostream.obj (.text:_ZN4Base9U8ostream13put_uint32_beEm)
                  00093f5b    0000003d               : U8ostream.obj (.text:_ZN4Base9U8ostream13put_uint32_leEm)
                  00093f98    0000003d     base.lib : Spkt.obj (.text:_ZNK4Base4Spkt11get_payloadEv)
                  00093fd5    0000003d     vpgnc.lib : Evt_wp_groups.obj (.text:_ZNK5Vpgnc13Evt_wp_groups7matchesEjj)
                  00094012    0000003d     midlevel.lib : Cy_msg_id_gen.obj (.text:_ZNK6Cyphal13Cy_msg_id_gen4cgetERN4Base5LossyE)
                  0009404f    0000003d     maverick.lib : Irmatrix3.obj (.text:_ZNK8Maverick9Irmatrix36invertERS0_)
                  0009408c    0000003d     pa_blocks.lib : Estimator.obj (.text:_ZNK9Pa_blocks9Estimator18get_earth_rotationEfRN8Maverick9Irvector3E)
                  000940c9    0000003d     first.lib : U8pkmblock.obj (.text:_ZNV4Base10U8pkmblock5writeERKNS_12U8pkmblock_kE)
                  00094106    0000003c     veronte.lib : Hxcfile_cpu2.obj (.text:_ZN3Ver7Hxcfile13get_xcfilecliEv)
                  00094142    0000003c                 : Hxcfile_cpu2.obj (.text:_ZN3Ver7Hxcfile14get_xcffastcliEv)
                  0009417e    0000003c     base.lib : Spkt_hdr.obj (.text:_ZN4Base8Spkt_hdr4csetERNS_9U8istreamE)
                  000941ba    0000003c     pa_blocks.lib : Process_lidar.obj (.text:_ZN9Pa_blocks13Process_lidar18process_lidar_measEf)
                  000941f6    0000003c     base.lib : Field_real_hex_ASCII.obj (.text:_ZNK4Base20Field_real_hex_ASCII8compressERNS_5LossyERKNS_4IgetERKj)
                  00094232    0000003b     veronte.lib : Herrors_ver_pa.obj (.text:_ZN4Base7Herrors19get_xcerr_rd_remoteEv)
                  0009426d    0000003b     first.lib : Timeout.obj (.text:_ZN4Base7Timeout13set_timeout_sEf)
                  000942a8    0000003b     pa_blocks.lib : Blk_pa_nav.obj (.text:_ZN9Pa_blocks12Command_fifoINS_26Controllers_state_estimateELj1EE12emplace_backEv)
                  000942e3    0000003b                   : Vsdk_rccp_param.obj (.text:_ZN9Pa_blocks15Vsdk_rccp_param4csetERN4Base11Lossy_errorE)
                  0009431e    0000003b                   : Atcg.obj (.text:_ZN9Pa_blocks4Atcg10Vsdk_paramC1Ev)
                  00094359    0000003b                   : On_ground.obj (.text:_ZN9Pa_blocks9On_groundC1ERKNS_16On_ground_inputsERKNS_8Nav_type4TypeERNS_17Nav_max_value_setE)
                  00094394    0000003b     geomodel.lib : Fidcache.obj (.text:_ZNK3Geo8Fidcache10compute_rnERN8Maverick9Irvector3E)
                  000943cf    0000003b     vpgnc.lib : Vlimits.obj (.text:_ZNK5Vpgnc7Vlimits9is_insideERKN4Base11TnarrayreszIjLm32EEE)
                  0009440a    0000003a     crypto_c28.lib : sha256.obj (.text:SHA256_startWordWise)
                  00094444    0000003a     DSP2838x_ent.lib : CAN_FD_cfg.obj (.text:_ZN12Dsp28335_ent10CAN_FD_cfg4csetERN4Base11Lossy_errorE)
                  0009447e    0000003a     veronte.lib : Hxcfield_cpu2.obj (.text:_ZN3Ver41_GLOBAL__N__17_Hxcfield_cpu2_cpp_b4af5a3213get_htun_tmodEv)
                  000944b8    0000003a                 : Tunsuite_pa.obj (.text:_ZN4Base18Routing_table_dataILj2ELj16EE4csetERNS_11Lossy_errorE)
                  000944f2    0000003a     vpgnc.lib : Vpu.obj (.text:_ZN5Vpgnc3Vpu10sync_xctunEv)
                  0009452c    0000003a     pa_blocks.lib : Process_lidar.obj (.text:_ZN9Pa_blocks13Process_lidar4stepEv)
                  00094566    0000003a                   : State_estimate_compact.obj (.text:_ZN9Pa_blocks22State_estimate_compactC1Ev)
                  000945a0    0000003a     first.lib : Endian64_big.obj (.text:_ZNK4Base12Endian64_big10get_uint64ERyPKjRmi)
                  000945da    0000003a               : Endian64_little.obj (.text:_ZNK4Base15Endian64_little10get_uint64ERyPKjRmi)
                  00094614    0000003a     base.lib : Fref.obj (.text:_ZNK4Base4Fref3getERNS_7FeatureE)
                  0009464e    0000003a     media.lib : Fstrfast.obj (.text:_ZNK5Media8Fstrfast4cgetERN4Base5LossyE)
                  00094688    00000039     veronte.lib : Pwm_suite.obj (.text:_ZN12Dsp28335_ent8PwmsuiteINS_6PwmdevELj16EE9set_valueEjf)
                  000946c1    00000039     base.lib : Tllhcompressed.obj (.text:_ZN4Base14Tllhcompressed3setERKNS_4TllhE)
                  000946fa    00000039              : Sysver.obj (.text:_ZN4Base6Sysver14publish_sysverEv)
                  00094733    00000039     first.lib : Strutil.obj (.text:_ZN4Base7Strutil23upper_hex_str_to_uint32ERNS_5LossyEhRm)
                  0009476c    00000039     veronte.lib : Hxcfield_cpu2.obj (.text:_ZN4Base8TwrapdesINS_9Tuntraits9Wsync_desINS_6TdsyncINS_11Fstr1fieldsENS_12Tdsynctraits11Rd_blockingIS4_NS_8Cptraits6PodrawIVS4_EEEENS5_15Disabled_structEEENS1_10DesdefaultIS4_EEEERSD_E4csetERNS_11Lossy_errorE)
                  000947a5    00000039                 : Hxcfield_cpu2.obj (.text:_ZN4Base8TwrapdesINS_9Tuntraits9Wsync_desINS_6TdsyncINS_8FstrFastENS_12Tdsynctraits11Rd_blockingIS4_NS_8Cptraits6PodrawIVS4_EEEENS5_15Disabled_structEEENS1_10DesdefaultIS4_EEEERSD_E4csetERNS_11Lossy_errorE)
                  000947de    00000039     vpgnc.lib : Event.obj (.text:_ZN5Vpgnc5Event9step_uvarEN4Base4UvarE)
                  00094817    00000039     maverick.lib : Notch_cfg.obj (.text:_ZN8Maverick9Notch_cfg4csetERN4Base11Lossy_errorE)
                  00094850    00000039                  : Irmatrix3.obj (.text:_ZNK8Maverick9Irmatrix39transposeERS0_)
                  00094889    00000038     base.lib : Fid.obj (.text:_ZN4Base13user_writableENS_3FidE)
                  000948c1    00000038              : Pchrono.obj (.text:_ZN4Base7Pchrono3ticEv)
                  000948f9    00000038              : Taskmgr.obj (.text:_ZN4Base7Taskmgr4stepEv)
                  00094931    00000038     first.lib : Vstring.obj (.text:_ZN4Base7Vstring3setEPKcmm)
                  00094969    00000038     base.lib : Tmovdat.obj (.text:_ZN4Base8Tmodvdat10cset_asyncERNS_11Lossy_errorERKNS_9KfieldsetERj)
                  000949a1    00000038              : CANgpio_p.obj (.text:_ZN4Base9CANgpio_p6Config11compute_depEhRNS_5ErrorE)
                  000949d9    00000038     maverick.lib : Nllpfcfg.obj (.text:_ZN8Maverick8Nllpfcfg4csetERN4Base5LossyE)
                  00094a11    00000038     pa_blocks.lib : Blk_pa_nav_base.obj (.text:_ZN9Pa_blocks15Blk_pa_nav_base9vms_resetEv)
                  00094a49    00000038                   : Vsdk_rccp_param.obj (.text:_ZN9Pa_blocks15Vsdk_rccp_paramC1Ev)
                  00094a81    00000037     veronte.lib : Tunsuite_pa.obj (.text:_ZN4Base7XrtableILm12ELm3EE4csetERNS_11Lossy_errorE)
                  00094ab8    00000037                 : Tunsuite_pa.obj (.text:_ZN4Base7XrtableILm2ELm3EE4csetERNS_11Lossy_errorE)
                  00094aef    00000037     pa_blocks.lib : State_estimate_logic.obj (.text:_ZN4Base9Allocator18allocate_new_arrayIN8Maverick23Weighted_average_filterILh10EEENS_7TnarrayIfLm10EEES6_EEPT_mRT0_RT1_)
                  00094b26    00000037                   : State_estimate_logic.obj (.text:_ZN4Base9Allocator18allocate_new_arrayIN8Maverick23Weighted_average_filterILh6EEENS_7TnarrayIfLm6EEES6_EEPT_mRT0_RT1_)
                  00094b5d    00000037                   : State_estimate_logic.obj (.text:_ZN4Base9Allocator18allocate_new_arrayIN8Maverick23Weighted_average_filterILh8EEENS_7TnarrayIfLm8EEES6_EEPT_mRT0_RT1_)
                  00094b94    00000037     veronte.lib : Hxcfield_cpu2.obj (.text:_ZN4Base9Tuntraits15Arraytun_nosizeINS0_8TupletunINS0_7Lossy16IjEENS0_15Arraytun_size16INS0_9Cset_onlyINS_8Fmsg_cfgEEENS_11TnarrayreszIS7_Lm32EEENS0_8No_checkISA_EEEEEENS9_INS_5TupleIjSA_EELm2EEENSB_ISH_EEE8str2elemERSH_RNS_11Lossy_errorE)
                  00094bcb    00000037                 : Hxcfield_cpu2.obj (.text:_ZN4Base9Tuntraits15Arraytun_nosizeINS0_8TupletunINS0_7Lossy16IjEENS0_15Arraytun_size16INS0_9Cset_onlyINS_8Fmsg_cfgEEENS_11TnarrayreszIS7_Lm32EEENS0_8No_checkISA_EEEEEENS9_INS_5TupleIjSA_EELm3EEENSB_ISH_EEE8str2elemERSH_RNS_11Lossy_errorE)
                  00094c02    00000037     DSP2838x_ent.lib : CAN_FD_cfg.obj (.text:_ZN4Base9Tuntraits6ResizeINS0_7Lossy16IjEENS_11TnarrayreszIN12Dsp28335_ent6CANcfg5RxcfgELm32EEEE8str2elemERS8_RNS_11Lossy_errorE)
                  00094c39    00000037     veronte.lib : Tunsuite_pa.obj (.text:_ZN4Base9Tuntraits6ResizeINS0_7Lossy16IjEENS_11TnarrayreszIN6Stanag11Stanag_port8Port_cfgELm6EEEE8str2elemERS8_RNS_11Lossy_errorE)
                  00094c70    00000037                 : Tunsuite_pa.obj (.text:_ZN4Base9Tuntraits6ResizeINS0_7Lossy16IjEENS_11TnarrayreszIN6Stanag15Stanag_msg_cfgs9Cfg_entryELm20EEEE8str2elemERS8_RNS_11Lossy_errorE)
                  00094ca7    00000037     stanag.lib : Fstgcfg.obj (.text:_ZN4Base9Tuntraits6ResizeINS0_7Lossy16IjEENS_11TnarrayreszIN6Stanag7Fstgcfg5EntryELm5EEEE8str2elemERS8_RNS_11Lossy_errorE)
                  00094cde    00000037     veronte.lib : Hxcfield_cpu2.obj (.text:_ZN4Base9Tuntraits6ResizeINS0_7Lossy16IjEENS_11TnarrayreszIN6Stanag7FstgcfgELm40EEEE8str2elemERS7_RNS_11Lossy_errorE)
                  00094d15    00000037                 : Tunsuite_pa.obj (.text:_ZN4Base9Tuntraits6ResizeINS0_7Lossy16IjEENS_11TnarrayreszIN7Devices8TPS9266410Config_regELm40EEEE8str2elemERS8_RNS_11Lossy_errorE)
                  00094d4c    00000037                 : Tunsuite_pa.obj (.text:_ZN4Base9Tuntraits6ResizeINS0_7Lossy16IjEENS_11TnarrayreszIN7Devices8TPS926649Led_stateELm13EEEE8str2elemERS8_RNS_11Lossy_errorE)
                  00094d83    00000037                 : Tunsuite_pa.obj (.text:_ZN4Base9Tuntraits6ResizeINS0_7Lossy16IjEENS_11TnarrayreszIN8Midlevel10Lights_cfg16Indication_stateELm10EEEE8str2elemERS8_RNS_11Lossy_errorE)
                  00094dba    00000037                 : Tunsuite_pa.obj (.text:_ZN4Base9Tuntraits6ResizeINS0_7Lossy16IjEENS_11TnarrayreszIN8Midlevel10Lights_cfg19Indication_sequenceELm11EEEE8str2elemERS8_RNS_11Lossy_errorE)
                  00094df1    00000037     pa_blocks.lib : DComms_cfg.obj (.text:_ZN4Base9Tuntraits6ResizeINS0_7Lossy16IjEENS_11TnarrayreszIN9Pa_blocks10DComms_cfg10Freq_entryELm64EEEE8str2elemERS8_RNS_11Lossy_errorE)
                  00094e28    00000037                   : DComms_cfg.obj (.text:_ZN4Base9Tuntraits6ResizeINS0_7Lossy16IjEENS_11TnarrayreszIN9Pa_blocks10DComms_cfg7Reg_cfgELm30EEEE8str2elemERS8_RNS_11Lossy_errorE)
                  00094e5f    00000037     veronte.lib : Tunsuite_pa.obj (.text:_ZN4Base9Tuntraits6ResizeINS0_7Lossy16IjEENS_11TnarrayreszINS_18Routing_table_dataILj2ELj16EE5TableELm2EEEE8str2elemERS8_RNS_11Lossy_errorE)
                  00094e96    00000037                 : Tunsuite_pa.obj (.text:_ZN4Base9Tuntraits6ResizeINS0_7Lossy16IjEENS_11TnarrayreszINS_19Routing_table_entryELm16EEEE8str2elemERS6_RNS_11Lossy_errorE)
                  00094ecd    00000037                 : Tunsuite_pa.obj (.text:_ZN4Base9Tuntraits6ResizeINS0_7Lossy16IjEENS_11TnarrayreszINS_4BvarELm20EEEE8str2elemERS6_RNS_11Lossy_errorE)
                  00094f04    00000037                 : Hxcfield_cpu2.obj (.text:_ZN4Base9Tuntraits6ResizeINS0_7Lossy16IjEENS_11TnarrayreszINS_5FieldELm128EEEE8str2elemERS6_RNS_11Lossy_errorE)
                  00094f3b    00000037                 : Tunsuite_pa.obj (.text:_ZN4Base9Tuntraits6ResizeINS0_7Lossy16IjEENS_11TnarrayreszINS_5TupleIN6Stanag14Subsystem_data8Key_dataENS_4UvarEEELm64EEEE8str2elemERSB_RNS_11Lossy_errorE)
                  00094f72    00000037                 : Hxcfield_cpu2.obj (.text:_ZN4Base9Tuntraits6ResizeINS0_7Lossy16IjEENS_11TnarrayreszINS_5TupleIjNS4_INS_8Fmsg_cfgELm32EEEEELm2EEEE8str2elemERS9_RNS_11Lossy_errorE)
                  00094fa9    00000037                 : Hxcfield_cpu2.obj (.text:_ZN4Base9Tuntraits6ResizeINS0_7Lossy16IjEENS_11TnarrayreszINS_5TupleIjNS4_INS_8Fmsg_cfgELm32EEEEELm3EEEE8str2elemERS9_RNS_11Lossy_errorE)
                  00094fe0    00000037                 : Hxcfield_cpu2.obj (.text:_ZN4Base9Tuntraits6ResizeINS0_7Lossy16IjEENS_11TnarrayreszINS_6PFieldELm128EEEE8str2elemERS6_RNS_11Lossy_errorE)
                  00095017    00000037                 : Tunsuite_pa.obj (.text:_ZN4Base9Tuntraits6ResizeINS0_7Lossy16IjEENS_11TnarrayreszINS_7CANin_p6ConfigELm6EEEE8str2elemERS7_RNS_11Lossy_errorE)
                  0009504e    00000037                 : Tunsuite_pa.obj (.text:_ZN4Base9Tuntraits6ResizeINS0_7Lossy16IjEENS_11TnarrayreszINS_7Xpcmap0ELm19EEEE8str2elemERS6_RNS_11Lossy_errorE)
                  00095085    00000037                 : Tunsuite_pa.obj (.text:_ZN4Base9Tuntraits6ResizeINS0_7Lossy16IjEENS_11TnarrayreszINS_7Xpcmap0ELm45EEEE8str2elemERS6_RNS_11Lossy_errorE)
                  000950bc    00000037                 : Tunsuite_pa.obj (.text:_ZN4Base9Tuntraits6ResizeINS0_7Lossy16IjEENS_11TnarrayreszINS_8CANout_c6ConfigELm6EEEE8str2elemERS7_RNS_11Lossy_errorE)
                  000950f3    00000037                 : Hxcfield_cpu2.obj (.text:_ZN4Base9Tuntraits6ResizeINS0_7Lossy16IjEENS_11TnarrayreszINS_8Fmsg_cfgELm32EEEE8str2elemERS6_RNS_11Lossy_errorE)
                  0009512a    00000037                 : Tunsuite_pa.obj (.text:_ZN4Base9Tuntraits6ResizeINS0_7Lossy16IjEENS_11TnarrayreszINS_9CANgpio_p6ConfigELm2EEEE8str2elemERS7_RNS_11Lossy_errorE)
                  00095161    00000037                 : Tunsuite_pa.obj (.text:_ZN4Base9Tuntraits6ResizeINS0_7Lossy16IjEENS_11TnarrayreszINS_9SerialCAN6ConfigELm6EEEE8str2elemERS7_RNS_11Lossy_errorE)
                  00095198    00000037     pa_blocks.lib : DComms_cfg.obj (.text:_ZN4Base9Tuntraits6ResizeINS0_7Lossy16IjEENS_11TnarrayreszIcLm17EEEE8str2elemERS5_RNS_11Lossy_errorE)
                  000951cf    00000037     veronte.lib : Tunsuite_pa.obj (.text:_ZN4Base9Tuntraits6ResizeINS0_7Lossy16IjEENS_11TnarrayreszIhLm20EEEE8str2elemERS5_RNS_11Lossy_errorE)
                  00095206    00000037     base.lib : Evactcfg.obj (.text:_ZN4Base9Tuntraits6ResizeINS0_7Lossy16IjEENS_11TnarrayreszIjLm128EEEE8str2elemERS5_RNS_11Lossy_errorE)
                  0009523d    00000037              : Action.obj (.text:_ZN4Base9Tuntraits6ResizeINS0_7Lossy16IjEENS_11TnarrayreszIjLm200EEEE8str2elemERS5_RNS_11Lossy_errorE)
                  00095274    00000037     veronte.lib : Tunsuite_pa.obj (.text:_ZN4Base9Tuntraits6ResizeINS0_7Lossy16IjEENS_11TnarrayreszIjLm32EEEE8str2elemERS5_RNS_11Lossy_errorE)
                  000952ab    00000037     base.lib : Evactcfg.obj (.text:_ZN4Base9Tuntraits6ResizeINS0_7Lossy16IjEENS_11TnarrayreszIjLm8EEEE8str2elemERS5_RNS_11Lossy_errorE)
                  000952e2    00000037              : Xcfilecli.obj (.text:_ZN4Base9Xcfilecli11close_asyncEv)
                  00095319    00000037     midlevel.lib : Monotonic_time.obj (.text:_ZN8Midlevel14Monotonic_time4cgetERN4Base9U8ostreamE)
                  00095350    00000037     pa_blocks.lib : Navigation.obj (.text:_ZN9Pa_blocks10Navigation6OutputC1ERKNS_14State_estimateERKNS_5StateERKNS_9On_ground19Introspect_ongroundERKNS_22Introspect_initializerERKN8Maverick7RvectorE)
                  00095387    00000037                   : Vsdk_params.obj (.text:_ZN9Pa_blocks19Vsdk_logging_paramsC1Ev)
                  000953be    00000037     midlevel.lib : Cy_msg_id_gen.obj (.text:_ZNK6Cyphal13Cy_msg_id_gen4cgetERN4Base9U8ostreamE)
                  000953f5    00000037     pa_blocks.lib : Cy_maint_action.obj (.text:_ZThn4_N9Pa_blocks15Cy_maint_action16get_cyphal_flagsEv)
                  0009542c    00000036     base.lib : Tllhcompressed.obj (.text:_ZN4Base14Tllhcompressed4csetERNS_11Lossy_errorE)
                  00095462    00000036     media.lib : PDI_loader.obj (.text:_ZN5Media10PDI_loader4loadERNS_6CfgmgrEN4Base6LoadstEb)
                  00095498    00000036               : Cfgmgr.obj (.text:_ZN5Media6Cfgmgr7add_cmdEN4Base3Cfg2IdERNS1_14Itunable_asyncE)
                  000954ce    00000036     maverick.lib : Irquat.obj (.text:_ZN8Maverick6Irquat6invertEv)
                  00095504    00000036     pa_blocks.lib : Vsdk_navigation_params.obj (.text:_ZN9Pa_blocks22Vsdk_navigation_paramsC1Ev)
                  0009553a    00000035     veronte.lib : Pa_node_ids.obj (.text:_ZN3Ver7Fastbus11get_node_idEv)
                  0009556f    00000035     base.lib : Tllcs.obj (.text:_ZN4Base5Tllcs7computeERKNS_6LonlatE)
                  000955a4    00000035     vpgnc.lib : Opranges.obj (.text:_ZN4Base8TunarrayIN5Vpgnc8Opranges3RngELb0EEC1IS3_Lj40EEERNS_8ArraymskIT_XT0_EEE)
                  000955d9    00000035     base.lib : Fsniffer.obj (.text:_ZN4Base8TunarrayINS_10Vmap_entryELb0EEC1IS1_Lj150EEERNS_8ArraymskIT_XT0_EEE)
                  0009560e    00000035     veronte.lib : Hevact_cpu2.obj (.text:_ZN4Base8TunarrayINS_6ActionELb0EEC1IS1_Lj120EEERNS_8ArraymskIT_XT0_EEE)
                  00095643    00000035                 : Hevact_cpu2.obj (.text:_ZN4Base8TunarrayINS_9Evactcfg0ELb0EEC1IS1_Lj100EEERNS_8ArraymskIT_XT0_EEE)
                  00095678    00000035     first.lib : U8ostream.obj (.text:_ZN4Base9U8ostream13put_uint64_beEyj)
                  000956ad    00000035     media.lib : Cfgmgr.obj (.text:_ZN5Media6Cfgmgr9start_setEN4Base3Cfg2IdENS1_7AddressE)
                  000956e2    00000035     pa_blocks.lib : Covariance_ud.obj (.text:_ZN9Pa_blocks13Covariance_ud12update_p_velEv)
                  00095717    00000035     veronte.lib : Vfspermission.obj (.text:_ZNK3Ver13Vfspermission15is_cset_allowedEN4Base3Cfg2IdE)
                  0009574c    00000035     base.lib : Message_received_hnd.obj (.text:_ZNK4Base20Message_received_hnd9step_privERKNS_11TnarrayreszIjLm32EEERjRKNS0_6Parser11Event_queueE)
                  00095781    00000035     pa_blocks.lib : DComms_cfg.obj (.text:_ZNK9Pa_blocks10DComms_cfg7Dynamic4cgetERN4Base5LossyE)
                  000957b6    00000035     base.lib : Stickrawtrans.obj (.text:__sti___17_Stickrawtrans_cpp_75c19331)
                  000957eb    00000034     DSP2837x_ent.lib : Pwmdev.obj (.text:_ZN12Dsp28335_ent6PwmdevC1ENS0_5PWMidE)
                  0009581f    00000034     DSP28x.lib : Stackchk.obj (.text:_ZN12Dsp28335_ent8Stackchk5checkEv)
                  00095853    00000034     first.lib : Uvar.obj (.text:_ZN4Base13user_writableENS_4UvarE)
                  00095887    00000034     base.lib : Field_real_dec_ASCII.obj (.text:_ZN4Base20Field_real_dec_ASCII4csetERNS_11Lossy_errorE)
                  000958bb    00000034     vpgnc.lib : Rvar_op_commit.obj (.text:_ZN4Base8TunarrayINS_8TwraptunINS_9Tuntraits11Lossy_floatEfEELb1EEC1IS4_Lj40EEERNS_8ArraymskIT_XT0_EEE)
                  000958ef    00000034               : CAN_cfg_maint_astro.obj (.text:_ZN5Vpgnc47_GLOBAL__N__23_CAN_cfg_maint_astro_cpp_2770a0d014set_can_in_cfgERN4Base7CANin_p6ConfigEmjjm)
                  00095923    00000034     stanag.lib : Stanag_msg_cfgs.obj (.text:_ZN6Stanag15Stanag_msg_cfgs9Cfg_entry4csetERN4Base11Lossy_errorE)
                  00095957    00000034     pa_blocks.lib : Checks_gnss.obj (.text:_ZN9Pa_blocks11Checks_gnssC1ERKNS_5StateERKNS_12Measurements4GnssERKNS_24Is_gnss_ready_to_processENS_8Nav_type4TypeE)
                  0009598b    00000034     maverick.lib : Irquat.obj (.text:_ZNK8Maverick6Irquat6norm22Ev)
                  000959bf    00000033     base.lib : Message_received_hnd.obj (.text:_ZN4Base20Message_received_hnd6ParserC1Ev)
                  000959f2    00000033              : Ftelemetryod.obj (.text:_ZN4Base6Tuncrc7computeINS_5FieldEEEmRKT_)
                  00095a25    00000033     veronte.lib : Hvar_cpu2.obj (.text:_ZN4Base8Hbmapvar3setERKNS0_4TypeE)
                  00095a58    00000033                 : Tunsuite_pa.obj (.text:_ZN4Base8TunarrayINS_13Channelmgrcfg6ChncfgELb0EEC1IS2_Lj4EEERNS_8ArraymskIT_XT0_EEE)
                  00095a8b    00000033                 : Tunsuite_pa.obj (.text:_ZN4Base8TunarrayINS_13Channelmgrcfg6ChnselELb0EEC1IS2_Lj12EEERNS_8ArraymskIT_XT0_EEE)
                  00095abe    00000033     base.lib : Sticktypes.obj (.text:_ZN4Base8TunarrayINS_8StickoutELb0EEC1IS1_Lj2EEERNS_8ArraymskIT_XT0_EEE)
                  00095af1    00000033     vpgnc.lib : Vpu.obj (.text:_ZN4Base9FieldsvecINS_6TmvdatELj0EE8sub_vdatEjS1_)
                  00095b24    00000033     media.lib : Cfgmgr.obj (.text:_ZN5Media6Cfgmgr14start_load_crcEN4Base3Cfg2IdENS1_7AddressE)
                  00095b57    00000033     devices.lib : Ubxcfgrate.obj (.text:_ZN7Devices3Ubx10Ubxcfgrate4csetERN4Base11Lossy_errorE)
                  00095b8a    00000033     pa_blocks.lib : DComms_cfg.obj (.text:_ZN9Pa_blocks10DComms_cfg11Reg_str_cfg4csetERN4Base11Lossy_errorE)
                  00095bbd    00000033                   : Time_cache.obj (.text:_ZN9Pa_blocks10Time_cache9is_recentERKN4Base5TtimeEbS4_)
                  00095bf0    00000033                   : Recovery_mission_phase_of_flight.obj (.text:_ZN9Pa_blocks32Recovery_mission_phase_of_flight5Param4csetERN4Base11Lossy_errorE)
                  00095c23    00000033     first.lib : Endian16_little.obj (.text:_ZNK4Base15Endian16_little10get_uint16ERjPKjRmi)
                  00095c56    00000032     media.lib : Cfgmgr.obj (.text:_ZN4Base12Data_mutatorINS_11Lossy_error15Mutator_traits8ENS_9U8istream12Data_traits8EED1Ev)
                  00095c88    00000032     base.lib : Feature.obj (.text:_ZN4Base12Data_mutatorINS_11Lossy_error16Mutator_traits16ENS_17U16stream_r_error13Data_traits16EED1Ev)
                  00095cba    00000032     vpgnc.lib : Evtmgr.obj (.text:_ZN4Base12Data_mutatorINS_5Lossy15Mutator_traits8IS1_EENS_9U8istream12Data_traits8EED1Ev)
                  00095cec    00000032     pa_blocks.lib : Blk_pa_nav.obj (.text:_ZN4Base12Data_mutatorINS_5Lossy15Mutator_traits8IS1_EENS_9U8ostream12Data_traits8IS4_EEEC1ERS4_)
                  00095d1e    00000032                   : State_history.obj (.text:_ZN4Base16Binary_search_ltIN9Pa_blocks5StateENS_5TtimeEXadL_ZNS1_13State_history9less_thanERKS2_RKS3_EEE18search_equal_upperENS_6MblockIS5_EES8_)
                  00095d50    00000032     base.lib : Field.obj (.text:_ZN4Base5Field14check_overflowEmj)
                  00095d82    00000032     first.lib : Lossy.obj (.text:_ZN4Base5Lossy9put_ubitsERKyj)
                  00095db4    00000032     base.lib : Tmvdat.obj (.text:_ZN4Base6Tmvdat4csetERNS_11Lossy_errorERKNS_9KfieldsetE)
                  00095de6    00000032     pa_blocks.lib : Initializer_bias.obj (.text:_ZN4Base9Allocator18allocate_new_arrayIN9Pa_blocks14Moving_averageEfEEPT_mRT0_)
                  00095e18    00000032     media.lib : Cfgmgr.obj (.text:_ZN5Media6Cfgmgr5on_txERN6Stanag14IStanag_msg_tx9Tx_paramsE)
                  00095e4a    00000032     vpgnc.lib : Evtmgr.obj (.text:_ZN5Vpgnc6Evtmgr5on_txERN6Stanag14IStanag_msg_tx9Tx_paramsE)
                  00095e7c    00000032     base.lib : Cyphal.obj (.text:_ZN6Cyphal8CyCAN_id9build_msgEhjh)
                  00095eae    00000032     maverick.lib : Irmatrix3.obj (.text:_ZN8Maverick9Irmatrix33eyeEf)
                  00095ee0    00000032     pa_blocks.lib : Site_config.obj (.text:_ZN9Pa_blocks11Site_config6Config4csetERN4Base11Lossy_errorE)
                  00095f12    00000032     maverick.lib : Moving_average.obj (.text:_ZN9Pa_blocks14Moving_averageC1Ej)
                  00095f44    00000032     pa_blocks.lib : Out_nav_pa_rec.obj (.text:_ZN9Pa_blocks14Out_pa_nav_recC1ERKNS_10NavigationERN4Base6TdsyncINS4_9U8pkarrayILm84EEENS4_12Tdsynctraits14Rd_nonblockingIS7_NS4_8Cptraits6PodrawIVS7_EEEENS8_2WrIS7_NSA_8OperatorIS7_S7_EEEEEERNS5_INS6_ILm203EEENS9_ISL_NSB_IVSL_EEEENSF_ISL_NSG_ISL_SL_EEEEEERNS5_INS6_ILm76EEENS9_IST_NSB_IVST_EEEENSF_IST_NSG_IST_ST_EEEEEERNS5_INS6_ILm201EEENS9_IS11_NSB_IVS11_EEEENSF_IS11_NSG_IS11_S11_EEEEEERNS4_11Ipkt_senderERKNS_12MeasurementsERNS_17Nav_max_value_setENS_15Out_nav_pa_base6ParamsE)
                  00095f76    00000032     base.lib : Field_cfg.obj (.text:_ZNK4Base9Field_cfg8Checksum26bits_required_for_encodingEh)
                  00095fa8    00000031     geomodel.lib : Gellipsoid.obj (.text:_ZN3Geo10ecoradius2EfRfS0_)
                  00095fd9    00000031     vpgnc.lib : Vpu.obj (.text:_ZN4Base18Routing_table_dataILj2ELj16EE11set_defaultEv)
                  0009600a    00000031     base.lib : Message_received_hnd.obj (.text:_ZN4Base20Message_received_hnd6Parser6appendEjj)
                  0009603b    00000031     pa_blocks.lib : State_estimate_logic.obj (.text:_ZN4Base5ArrayIN8Maverick23Weighted_average_filterILh10EEEEC1INS_7TnarrayIfLm10EEES7_EEmNS_6Memmgr4TypeET_T0_)
                  0009606c    00000031                   : State_estimate_logic.obj (.text:_ZN4Base5ArrayIN8Maverick23Weighted_average_filterILh6EEEEC1INS_7TnarrayIfLm6EEES7_EEmNS_6Memmgr4TypeET_T0_)
                  0009609d    00000031                   : State_estimate_logic.obj (.text:_ZN4Base5ArrayIN8Maverick23Weighted_average_filterILh8EEEEC1INS_7TnarrayIfLm8EEES7_EEmNS_6Memmgr4TypeET_T0_)
                  000960ce    00000031     base.lib : Stepmgr.obj (.text:_ZN4Base7StepmgrC1Ev)
                  000960ff    00000031     veronte.lib : Tunsuite_pa.obj (.text:_ZN4Base8TwrapdesINS_9Tuntraits9Wsync_desINS_6TdsyncINS_13ChannelmgrcfgENS_12Tdsynctraits11Rd_blockingIS4_NS_8Cptraits6PodrawIVS4_EEEENS5_15Disabled_structEEENS1_10DesdefaultIS4_EEEERSD_E4csetERNS_11Lossy_errorE)
                  00096130    00000031     base.lib : Fmsetvdat.obj (.text:_ZN4Base9Fmsetvdat4csetERNS_11Lossy_errorERKNS_9KfieldsetE)
                  00096161    00000031     vpgnc.lib : Event.obj (.text:_ZN5Vpgnc5Event15step_kbit_allokEb)
                  00096192    00000031     veronte.lib : Tunsuite_pa.obj (.text:_ZN8Midlevel10Lights_cfg4csetERN4Base11Lossy_errorE)
                  000961c3    00000031     midlevel.lib : Sys_status_mgr.obj (.text:_ZN8Midlevel14Sys_status_mgr5on_rxERN6Stanag14IStanag_msg_rx9Rx_paramsE)
                  000961f4    00000030     crypto_c28.lib : sha256.obj (.text:SHA256_finalizeWordWiseSwapped)
                  00096224    00000030     DSP2837x_ent.lib : Pwmdev.obj (.text:_ZN12Dsp28335_ent6Pwmdev6Config4csetERN4Base11Lossy_errorE)
                  00096254    00000030     veronte.lib : Xcrdsuite.obj (.text:_ZN4Base6XcmvarINS_4RvarENS_9Tuntraits12U16str_floatEE6Parser5parseERNS_17U16stream_r_errorE)
                  00096284    00000030                 : Tunsuite_pa.obj (.text:_ZN4Base9Tuntraits15Arraytun_nosizeINS0_10DesdefaultINS_8CANout_c6ConfigEEENS_11TnarrayreszIS4_Lm6EEENS0_8No_checkIS7_EEE8str2elemERS7_RNS_11Lossy_errorE)
                  000962b4    00000030     vpgnc.lib : Event.obj (.text:_ZN5Vpgnc5Event10step_timerERKN4Base7UclkmgrE)
                  000962e4    00000030     midlevel.lib : CyphalStanag_rx_hnd.obj (.text:_ZN6Cyphal19CyphalStanag_rx_hnd9on_rx_pktERN6Stanag14IStanag_rx_pkt6ParamsE)
                  00096314    00000030     maverick.lib : Irquat.obj (.text:_ZN8Maverick6Irquat4qrotERKNS_9Irvector3Ef)
                  00096344    00000030     pa_blocks.lib : Model_dynamic.obj (.text:_ZN8Maverick7TmatrixIfE3eyeEv)
                  00096374    00000030     maverick.lib : Irquat.obj (.text:_ZN8Maverick8Ivector3IfE10norm2alizeEv)
                  000963a4    00000030     pa_blocks.lib : Nav_introspect_compact.obj (.text:_ZN9Pa_blocks22Nav_introspect_compactC1ERKNS_19Aiding_sensors_infoERKNS_9On_ground19Introspect_ongroundERNS_9Max_valueERKNS_5State10Nav_statusERKNS_14State_estimateERKN4Base7BitmaskIjEE)
                  000963d4    00000030                   : Pa_irquat.obj (.text:_ZN9Pa_blocks9Pa_irquat14quat_mult_rectERKN8Maverick6IrquatES4_RS2_)
                  00096404    00000030     base.lib : Tllhcompressed.obj (.text:_ZNK4Base14Tllhcompressed3getERNS_4TllhE)
                  00096434    00000030     rts2800_fpu64_eabi.lib : cpy_tbl.c.obj (.text)
                  00096464    0000002f     DSP2837x_ent.lib : Pwmdev.obj (.text:_ZN12Dsp28335_ent6Pwmdev3setEf)
                  00096493    0000002f     base.lib : Fsniffer.obj (.text:_ZN4Base10Vmap_entry4csetERNS_11Lossy_errorE)
                  000964c2    0000002f     pa_blocks.lib : State_history.obj (.text:_ZN4Base6MblockIKN9Pa_blocks5StateEE24sub_mblock_with_start_atEm)
                  000964f1    0000002f     base.lib : Xcmqrd.obj (.text:_ZN4Base6Xcmqrd4stepEf)
                  00096520    0000002f              : Feature.obj (.text:_ZN4Base7Feature4csetERNS_11Lossy_errorE)
                  0009654f    0000002f              : Fieldset.obj (.text:_ZN4Base8Fieldset17cset_nosize_asyncERNS_11Lossy_errorEjRj)
                  0009657e    0000002f     pa_blocks.lib : Initializer_pitch_roll.obj (.text:_ZN4Base9Allocator18allocate_new_arrayIN8Maverick4EwmaEfEEPT_mRT0_)
                  000965ad    0000002f     vpgnc.lib : Vlimits.obj (.text:_ZN4Base9Allocator18allocate_new_arrayINS_5LimitEEEPT_m)
                  000965dc    0000002f     first.lib : Atunarray.obj (.text:_ZN4Base9Atunarray12cset_elementERNS_11Lossy_errorE)
                  0009660b    0000002f     veronte.lib : Tunsuite_pa.obj (.text:_ZN4Base9Tuntraits15Arraytun_nosizeINS0_10TundefaultIN7Devices8TPS926649Led_stateEEENS_11TnarrayreszIS5_Lm13EEENS0_8No_checkIS8_EEE8str2elemERS8_RNS_11Lossy_errorE)
                  0009663a    0000002f     vpgnc.lib : Evt_wp_groups.obj (.text:_ZN5Vpgnc13Evt_wp_groupsC1Ev)
                  00096669    0000002f               : Evtmgr.obj (.text:_ZN5Vpgnc6Evtmgr18build_cmd_uclk_tunEv)
                  00096698    0000002f     pa_blocks.lib : On_ground.obj (.text:_ZN9Pa_blocks9On_ground4stepEv)
                  000966c7    0000002f                   : State_estimate.obj (.text:_ZNK9Pa_blocks14State_estimate7Airdata4cgetERN4Base5LossyE)
                  000966f6    0000002f                   : State.obj (.text:_ZNK9Pa_blocks5State10Nav_status4cgetERN4Base5LossyE)
                  00096725    0000002e     DSP2837x_ent.lib : System_cpu2.obj (.text:_ZN12Dsp28335_ent13init_sys_cpu2Ev)
                  00096753    0000002e     base.lib : Presence_vec.obj (.text:_ZN4Base12Presence_vecC1ERKS0_j)
                  00096781    0000002e     veronte.lib : Xcrdsuite.obj (.text:_ZN4Base6XcmvarINS_8Bvar_mapENS_9Tuntraits10U16strCxetINS_8Hbmapvar4TypeEEEE6Parser5parseERNS_17U16stream_r_errorE)
                  000967af    0000002e                 : Tunsuite_pa.obj (.text:_ZN4Base8TwrapdesINS_9Tuntraits9Wsync_desINS_6TdsyncIN6Stanag17Stanag_period_cfgENS_12Tdsynctraits11Rd_blockingIS5_NS_8Cptraits6PodrawIVS5_EEEENS6_15Disabled_structEEENS1_10DesdefaultIS5_EEEERSE_E4csetERNS_11Lossy_errorE)
                  000967dd    0000002e     first.lib : Allocator.obj (.text:_ZN4Base9Allocator16Allocator_buffer8allocateEmm)
                  0009680b    0000002e     veronte.lib : Tunsuite_pa.obj (.text:_ZN4Base9Tuntraits15Arraytun_nosizeINS0_10DesdefaultIN6Stanag11Stanag_port8Port_cfgEEENS_11TnarrayreszIS5_Lm6EEENS0_8No_checkIS8_EEE8str2elemERS8_RNS_11Lossy_errorE)
                  00096839    0000002e     media.lib : Cfgcrcpub.obj (.text:_ZN5Media9CfgcrcpubC1ERNS_7IcfgcrcERN3Bsp5HuvarES5_S5_S5_)
                  00096867    0000002e     base.lib : Cyphal.obj (.text:_ZN6Cyphal10Cyphal_msg7MutatorC1ERS0_)
                  00096895    0000002e     devices.lib : Ubxcfgmsgrate.obj (.text:_ZN7Devices3Ubx13Ubxcfgmsgrate4csetERN4Base5LossyE)
                  000968c3    0000002e     midlevel.lib : Irxfw.obj (.text:_ZN8Midlevel5Irxfw6Parser10add_rx_hdlEN4Base15Stanag_msg_type8Msg_typeERN6Stanag14IStanag_rx_hdlE)
                  000968f1    0000002e                  : Irxfw.obj (.text:_ZN8Midlevel5Irxfw6Parser10add_tx_hdlEN4Base15Stanag_msg_type8Msg_typeERN6Stanag14IStanag_msg_txE)
                  0009691f    0000002e     pa_blocks.lib : DComms_cfg.obj (.text:_ZN9Pa_blocks10DComms_cfg7Dynamic4csetERN4Base11Lossy_errorE)
                  0009694d    0000002e                   : State_machines.obj (.text:_ZN9Pa_blocks14State_machines6Params12Track_spline4csetERN4Base11Lossy_errorE)
                  0009697b    0000002e                   : Command_contingency_wrapper.obj (.text:_ZN9Pa_blocks19Command_contingencyC1Ev)
                  000969a9    0000002e                   : Vsdk_navigation_params.obj (.text:_ZN9Pa_blocks22Vsdk_navigation_params15Onground_params4csetERN4Base11Lossy_errorE)
                  000969d7    0000002e                   : Recovery_mission_phase_of_flight.obj (.text:_ZN9Pa_blocks32Recovery_mission_phase_of_flight5ParamC1Ev)
                  00096a05    0000002e     base.lib : Varmgr.obj (.text:_ZNK4Base6Varmgr3getENS_3FidERNS_7FeatureE)
                  00096a33    0000002e     pa_blocks.lib : Input_heading.obj (.text:_ZNK9Pa_blocks13Input_heading7observeEjRKN8Maverick7RmatrixERNS1_7RvectorE)
                  00096a61    0000002e                   : Input_gnss_pos.obj (.text:_ZNK9Pa_blocks14Input_gnss_pos7observeEjRKN8Maverick7RmatrixERNS1_7RvectorE)
                  00096a8f    0000002e     rts2800_fpu64_eabi.lib : copy_decompress_lzss.c.obj (.text:decompress:lzss)
                  00096abd    0000002d     DSP2837x_ent.lib : Emif1.obj (.text:_ZN12Dsp28335_ent5Emif14lockEv)
                  00096aea    0000002d     pa_blocks.lib : Cy_dcomms_site_config.obj (.text:_ZN19Cyphal_common_types21deserialize_array_rszIN9Pa_blocks10DComms_cfg10Freq_entryELm64EVN4Base11TnarrayreszIS3_Lm64EEEEEvRT1_RNS4_5LossyEm)
                  00096b17    0000002d     base.lib : Xclk.obj (.text:_ZN4Base4Xclk14on_change_typeEv)
                  00096b44    0000002d              : Field.obj (.text:_ZN4Base5Field11build_fieldERKNS_4Vref5EntryE)
                  00096b71    0000002d              : Varmgr.obj (.text:_ZN4Base6Varmgr3setENS_3FidERKNS_7FeatureE)
                  00096b9e    0000002d     vpgnc.lib : Vpu.obj (.text:_ZN4Base9Allocator18allocate_new_arrayINS_8Sync_map7ElementEEEPT_m)
                  00096bcb    0000002d     base.lib : CRCpreset.obj (.text:_ZN4Base9get_crc32Ev)
                  00096bf8    0000002d     media.lib : Cfgmgr.obj (.text:_ZN5Media6Cfgmgr21fload_blocking_failedEv)
                  00096c25    0000002d               : Cfgmgr.obj (.text:_ZN5Media6Cfgmgr9step_openEv)
                  00096c52    0000002d     vpgnc.lib : Rvar_op_commit.obj (.text:_ZN5Vpgnc14Rvar_op_commit4stepEv)
                  00096c7f    0000002d               : Rvar_op_commit.obj (.text:_ZN5Vpgnc14Rvar_op_commit7RoptypeC1Ev)
                  00096cac    0000002d     pa_blocks.lib : Covariance_ud.obj (.text:_ZN8Maverick7TvectorIfE6matvecIffEEvRKNS_7TmatrixIT_EEPKT0_)
                  00096cd9    0000002d                   : Cy_maint_action.obj (.text:_ZN9Pa_blocks15Cy_maint_action16get_cyphal_flagsEv)
                  00096d06    0000002d     first.lib : Endian32_big.obj (.text:_ZNK4Base12Endian32_big10get_uint32ERmPKjS1_i)
                  00096d33    0000002d               : Endian32_little.obj (.text:_ZNK4Base15Endian32_little10get_uint32ERmPKjS1_i)
                  00096d60    0000002c     pa_blocks.lib : Cy_dcomms_site_config.obj (.text:_ZN19Cyphal_common_types27deserialize_uint8_array_rszIcLm16EVN4Base11TnarrayreszIcLm17EEEEEvRT1_RNS1_5LossyEm)
                  00096d8c    0000002c     veronte.lib : Hevact_cpu2.obj (.text:_ZN3Ver6Hevact11get_actionsEv)
                  00096db8    0000002c                 : Hevact_cpu2.obj (.text:_ZN3Ver6Hevact9get_evactEv)
                  00096de4    0000002c                 : Hstick_cpu2.obj (.text:_ZN3Ver6Hstick15get_stickvarcfgEv)
                  00096e10    0000002c                 : Hstick_cpu2.obj (.text:_ZN3Ver6Hstick16get_stickppm1cfgEv)
                  00096e3c    0000002c                 : Hstick_cpu2.obj (.text:_ZN3Ver6Hstick16get_stickppm3cfgEv)
                  00096e68    0000002c                 : Hxcfield_cpu2.obj (.text:_ZN3Ver8Hxcfield12get_fstrfastEv)
                  00096e94    0000002c                 : Hxcfield_cpu2.obj (.text:_ZN3Ver8Hxcfield14get_fstgmsgvecEv)
                  00096ec0    0000002c                 : Hxcfield_cpu2.obj (.text:_ZN3Ver8Hxcfield17get_fmsg8consumerEv)
                  00096eec    0000002c                 : Hxcfield_cpu2.obj (.text:_ZN3Ver8Hxcfield17get_fmsg8producerEv)
                  00096f18    0000002c                 : Hxcfield_cpu2.obj (.text:_ZN3Ver8Hxcfield9get_fstrtEv)
                  00096f44    0000002c                 : Pwm_suite.obj (.text:_ZN3Ver9Pwm_suiteC1EN4Base6Memmgr4TypeENS1_5RngitIN12Dsp28335_ent6Pwmdev5PWMidEEENS1_9Range_dynINS1_4RvarEEE)
                  00096f70    0000002c     base.lib : CRC.obj (.text:_ZN4Base3CRC11update_byteEh)
                  00096f9c    0000002c              : Limit.obj (.text:_ZN4Base5Limit4csetERNS_11Lossy_errorE)
                  00096fc8    0000002c     first.lib : Lossy.obj (.text:_ZN4Base5Lossy10compute_ckERNS_9IchecksumEjj)
                  00096ff4    0000002c     base.lib : Taskmgr.obj (.text:_ZN4Base9Allocator18allocate_new_arrayINS_9TaskentryEEEPT_m)
                  00097020    0000002c     media.lib : Cfgmgr.obj (.text:_ZN5Media6Cfgmgr3addEN4Base3Cfg2IdERNS1_8ItunableE)
                  0009704c    0000002c     base.lib : Tcal3D.obj (.text:_ZN8Maverick8Ivector3IfE6vecresERKS1_S3_)
                  00097078    0000002c     midlevel.lib : Errors_irx.obj (.text:_ZN8Midlevel10Errors_irx5on_txERN6Stanag14IStanag_msg_tx9Tx_paramsE)
                  000970a4    0000002c     pa_blocks.lib : DComms_cfg.obj (.text:_ZN9Pa_blocks10DComms_cfg10Freq_entry4csetERN4Base11Lossy_errorE)
                  000970d0    0000002c                   : Vsdk_navigation_params.obj (.text:_ZN9Pa_blocks22Vsdk_navigation_params4csetERN4Base11Lossy_errorE)
                  000970fc    0000002c     base.lib : Xclkcfg.obj (.text:_ZNK4Base7Xclkcfg9cget_typeERNS_5LossyE)
                  00097128    0000002b     veronte.lib : Vfspermission.obj (.text:_ZN3Ver13Vfspermission8fill_mapEN4Base6MblockIKNS1_3Cfg2IdEEERNS1_8Hash_mapINS1_7Hashers11Element_u16EEE)
                  00097153    0000002b     vpgnc.lib : Vpu.obj (.text:_ZN4Base6JarrayINS_5FieldEE7sub_addEj)
                  0009717e    0000002b     veronte.lib : Hvar_cpu2.obj (.text:_ZN4Base6JarrayINS_6TdsyncINS_7FeatureENS_12Tdsynctraits11Rd_blockingIS2_NS_8Cptraits6PodrawIVS2_EEEENS3_2WrIS2_NS5_8OperatorIS2_S2_EEEEEEE7sub_addEj)
                  000971a9    0000002b                 : Copystep.obj (.text:_ZN4Base6MblockIVKfE24sub_mblock_with_start_atEm)
                  000971d4    0000002b                 : Tunsuite_pa.obj (.text:_ZN4Base6MblockIfE24sub_mblock_with_start_atEm)
                  000971ff    0000002b                 : Hxcfield_cpu2.obj (.text:_ZN4Base9Tuntraits15Arraytun_nosizeINS0_9Cset_onlyINS_6PFieldEEENS_11TnarrayreszIS3_Lm128EEENS0_8No_checkIS6_EEE8str2elemERS6_RNS_11Lossy_errorE)
                  0009722a    0000002b     media.lib : PDI_loader.obj (.text:_ZN5Media10PDI_loader9load_privEN4Base6LoadstES2_)
                  00097255    0000002b     base.lib : Cyphal.obj (.text:_ZN6Cyphal17Cyphal_stg_fields5buildEhbby)
                  00097280    0000002b     pa_blocks.lib : Measurements.obj (.text:_ZN9Pa_blocks12Measurements4GnssC1Ev)
                  000972ab    0000002b                   : State_machines.obj (.text:_ZN9Pa_blocks14State_machines11Vsdk_paramsC1Ev)
                  000972d6    0000002b                   : Maneuver_coordinate.obj (.text:_ZN9Pa_blocks19Maneuver_coordinateC1Ev)
                  00097301    0000002b                   : Command_contingency_wrapper.obj (.text:_ZN9Pa_blocks31Command_contingency_wrapper_serC1ERVKjS2_S2_RKN4Base12U8pkrszarrayILm256EEE)
                  0009732c    0000002b     base.lib : Xcfilecli.obj (.text:_ZNK4Base5XccliINS_10XcfilectrlENS_9XcfilereqEE4sendERS2_)
                  00097357    0000002b     media.lib : Fstrfast.obj (.text:_ZNK4Base5XccliINS_9XclogctrlENS_8XclogreqEE4sendERS2_)
                  00097382    0000002b     base.lib : Feature.obj (.text:_ZNK4Base7Feature4cgetERNS_5LossyE)
                  000973ad    0000002b              : Pchrono.obj (.text:_ZNK4Base7Pchrono3tocEv)
                  000973d8    0000002b     rts2800_fpu64_eabi.lib : e_sqrt.c.obj (.text)
                  00097403    0000002a     base.lib : Cyphal_common_types.obj (.text:_ZN19Cyphal_common_types14put_array_sizeEmRN4Base9U8ostreamEm)
                  0009742d    0000002a     veronte.lib : Hstick_cpu2.obj (.text:_ZN3Ver6Hstick16get_stickppm0cfgEv)
                  00097457    0000002a                 : Hstick_cpu2.obj (.text:_ZN3Ver6Hstick16get_stickppm2cfgEv)
                  00097481    0000002a                 : Hxcfield_cpu2.obj (.text:_ZN3Ver8Hxcfield15get_fstrpfieldsEv)
                  000974ab    0000002a                 : Hxcfield_cpu2.obj (.text:_ZN3Ver8Hxcfield9get_fstr1Ev)
                  000974d5    0000002a                 : Hvar_cpu2.obj (.text:_ZN4Base5JemapINS_6TdsyncINS_7FeatureENS_12Tdsynctraits11Rd_blockingIS2_NS_8Cptraits6PodrawIVS2_EEEENS3_2WrIS2_NS5_8OperatorIS2_S2_EEEEEENS_3JidINS_8FidtraitEEENS_3FidEE7get_ptrESI_)
                  000974ff    0000002a     first.lib : Lossy.obj (.text:_ZN4Base5Lossy6put_ckEmiNS_10EndiannessE)
                  00097529    0000002a               : Lossy.obj (.text:_ZN4Base5Lossy8put_charEc)
                  00097553    0000002a               : Lossy.obj (.text:_ZN4Base5Lossy9put_bool1Eb)
                  0009757d    0000002a               : Lossy.obj (.text:_ZN4Base5Lossy9put_uint8Eh)
                  000975a7    0000002a     base.lib : Varmgr.obj (.text:_ZN4Base6Varmgr12get_instanceEv)
                  000975d1    0000002a     veronte.lib : Pwm_suite.obj (.text:_ZN4Base9Allocator18allocate_new_arrayIN12Dsp28335_ent8PwmsuiteINS2_6PwmdevELj16EE6ConfigEEEPT_m)
                  000975fb    0000002a     vpgnc.lib : Opmgr.obj (.text:_ZN4Base9Allocator18allocate_new_arrayIN5Vpgnc14Rvar_op_commit7RoptypeEEEPT_m)
                  00097625    0000002a               : Evtmgr.obj (.text:_ZN4Base9Allocator18allocate_new_arrayIN5Vpgnc5EventEEEPT_m)
                  0009764f    0000002a     pa_blocks.lib : State_history.obj (.text:_ZN4Base9Allocator18allocate_new_arrayIN9Pa_blocks11Delta_stateEEEPT_m)
                  00097679    0000002a                   : Estimator.obj (.text:_ZN4Base9Allocator18allocate_new_arrayIN9Pa_blocks14Moving_averageEjEEPT_mRT0_)
                  000976a3    0000002a                   : State_history.obj (.text:_ZN4Base9Allocator18allocate_new_arrayIN9Pa_blocks5StateEEEPT_m)
                  000976cd    0000002a     vpgnc.lib : Evt_wp_groups.obj (.text:_ZN4Base9Allocator18allocate_new_arrayINS_4TdesINS_11TnarrayreszIjLm8EEENS_9Tuntraits10TundefaultIS4_EEEEEEPT_m)
                  000976f7    0000002a     media.lib : Fstrfast.obj (.text:_ZN4Base9Allocator18allocate_new_arrayINS_5FieldEEEPT_m)
                  00097721    0000002a     base.lib : Stepmgr.obj (.text:_ZN4Base9Allocator18allocate_new_arrayINS_7Stepmgr5Step0EEEPT_m)
                  0009774b    0000002a     maverick.lib : Rvector.obj (.text:_ZN4Base9Allocator18allocate_new_arrayIfEEPT_m)
                  00097775    0000002a     base.lib : CANgpio_p.obj (.text:_ZN4Base9CANgpio_p6Config5buildEfmbh)
                  0009779f    0000002a              : Fheader.obj (.text:_ZN4Base9Tuntraits6ResizeINS0_7Lossy16IjEENS_5ArrayINS_5FieldEEEE8str2elemERS6_RNS_11Lossy_errorE)
                  000977c9    0000002a     devices.lib : Ubxcfgsbas.obj (.text:_ZN7Devices3Ubx10Ubxcfgsbas4csetERN4Base11Lossy_errorE)
                  000977f3    0000002a     maverick.lib : Irmatrix3.obj (.text:_ZN8Maverick9Irmatrix38add_diagERKNS_9Irvector3E)
                  0009781d    0000002a     pa_blocks.lib : Maneuver_coordinate.obj (.text:_ZN9Pa_blocks19Maneuver_coordinate11set_invalidEv)
                  00097847    0000002a                   : Site_config.obj (.text:_ZNK9Pa_blocks11Site_config6Getter4cgetERN4Base9U8ostreamE)
                  00097871    0000002a                   : On_ground.obj (.text:_ZNK9Pa_blocks9On_ground19Introspect_onground3A2g4cgetERN4Base5LossyE)
                  0009789b    00000029     DSP28x.lib : CANcfg.obj (.text:_ZN12Dsp28335_ent6CANcfg5Rxcfg4csetERN4Base11Lossy_errorE)
                  000978c4    00000029     veronte.lib : Hvar_cpu2.obj (.text:_ZN3Bsp5Hrvar9get_blockEN4Base4RvarES2_)
                  000978ed    00000029     base.lib : CRC.obj (.text:_ZN4Base3CRC6Config4csetERNS_5LossyE)
                  00097916    00000029     veronte.lib : Copystep.obj (.text:_ZN4Base6MblockIVKbE24sub_mblock_with_start_atEm)
                  0009793f    00000029                 : Copystep.obj (.text:_ZN4Base6MblockIVKjE24sub_mblock_with_start_atEm)
                  00097968    00000029     devices.lib : Adis165053.obj (.text:_ZN4Base6MblockIjE24sub_mblock_with_start_atEm)
                  00097991    00000029     first.lib : PDIcheck.obj (.text:_ZN4Base8PDIcheck6commitEjRKNS_5ErrorE)
                  000979ba    00000029               : U8ostream.obj (.text:_ZN4Base9U8ostream13put_uint16_beEj)
                  000979e3    00000029               : U8ostream.obj (.text:_ZN4Base9U8ostream13put_uint16_leEj)
                  00097a0c    00000029     vpgnc.lib : Evtmgr.obj (.text:_ZN5Vpgnc6Evtmgr9evlo_stepEj)
                  00097a35    00000029     midlevel.lib : CyphalStanag_rx_hnd.obj (.text:_ZN6Cyphal19CyphalStanag_rx_hnd10call_on_rxERN6Stanag14IStanag_msg_rx9Rx_paramsE)
                  00097a5e    00000029     pa_blocks.lib : Pa_profiling.obj (.text:_ZN9Pa_blocks12Pa_profilingC1EN4Base4RvarES2_)
                  00097a87    00000029                   : Tcg.obj (.text:_ZN9Pa_blocks3Tcg10Vsdk_param4csetERN4Base11Lossy_errorE)
                  00097ab0    00000029     first.lib : Endian32_big.obj (.text:_ZNK4Base12Endian32_big10put_uint32ERKmPjRmi)
                  00097ad9    00000029               : Endian32_little.obj (.text:_ZNK4Base15Endian32_little10put_uint32ERKmPjRmi)
                  00097b02    00000029     pa_blocks.lib : Input_gnss_vel.obj (.text:_ZNK9Pa_blocks14Input_gnss_vel7observeEjRKN8Maverick7RmatrixERNS1_7RvectorE)
                  00097b2b    00000029                   : Waypoint_msg.obj (.text:__sti___16_Waypoint_msg_cpp_a253279e)
                  00097b54    00000029                   : Maneuver_coordinate.obj (.text:__sti___23_Maneuver_coordinate_cpp_4e08081b)
                  00097b7d    00000029     main_cpu2.obj (.text:main)
                  00097ba6    00000029     rts2800_fpu64_eabi.lib : exit.c.obj (.text)
                  00097bcf    00000028     veronte.lib : Hvar_cpu2.obj (.text:_ZN3Bsp5Huvar9get_blockEN4Base4UvarES2_)
                  00097bf7    00000028     base.lib : Int_decimator.obj (.text:_ZN4Base13Int_decimator4stepEv)
                  00097c1f    00000028              : Field_real_hex_ASCII.obj (.text:_ZN4Base20Field_real_hex_ASCII4csetERNS_11Lossy_errorE)
                  00097c47    00000028     veronte.lib : Tunsuite_pa.obj (.text:_ZN4Base5Xcal0ILj12EE4csetERNS_11Lossy_errorE)
                  00097c6f    00000028                 : Tunsuite_pa.obj (.text:_ZN4Base5Xcal0ILj2EE4csetERNS_11Lossy_errorE)
                  00097c97    00000028                 : Hxcff.obj (.text:_ZN4Base5Xcwr0INS_11Spkt_bufferEEC1ILm7EEERVKNS_6XcffrdIS1_EERVNS_6XcffwrIS1_XT_EEE)
                  00097cbf    00000028     base.lib : Herrors.obj (.text:_ZN4Base7Herrors10get_err_rdEv)
                  00097ce7    00000028              : Stepmgr.obj (.text:_ZN4Base7Stepmgr3addENS0_2IdERNS_5IstepE)
                  00097d0f    00000028     midlevel.lib : Irxfw.obj (.text:_ZN4Base9Allocator18allocate_new_arrayINS_8Msg_dataEEEPT_m)
                  00097d37    00000028                  : Irxfw.obj (.text:_ZN4Base9Allocator18allocate_new_arrayIPN6Stanag14IStanag_msg_txEEEPT_m)
                  00097d5f    00000028                  : Irxfw.obj (.text:_ZN4Base9Allocator18allocate_new_arrayIPN6Stanag14IStanag_rx_hdlEEEPT_m)
                  00097d87    00000028     pa_blocks.lib : Cy_maint_action.obj (.text:_ZN4Base9Allocator18allocate_new_arrayIPN9Pa_blocks22Cy_maint_action_consts13Imaint_actionEEEPT_m)
                  00097daf    00000028     media.lib : Cfgmgr.obj (.text:_ZN4Base9Allocator18allocate_new_arrayIPNS_14Itunable_asyncEEEPT_m)
                  00097dd7    00000028               : Cfgmgr.obj (.text:_ZN4Base9Allocator18allocate_new_arrayIPNS_21Ideserializable_asyncEEEPT_m)
                  00097dff    00000028     base.lib : CANgpio_p.obj (.text:_ZN4Base9CANgpio_p6Config4csetERNS_11Lossy_errorE)
                  00097e27    00000028     media.lib : Cfgcrcpub.obj (.text:_ZN5Media9Cfgcrcpub4stepEv)
                  00097e4f    00000028     vblocks.lib : Multi_interpolator_tun.obj (.text:_ZN7Vblocks22Multi_interpolator_tun8Pdi_data4csetERN4Base11Lossy_errorE)
                  00097e77    00000028     maverick.lib : Irvector3.obj (.text:_ZN8Maverick9Irvector310lincmb_addEfRKS0_)
                  00097e9f    00000028     base.lib : Spkt_hdr.obj (.text:_ZNK4Base8Spkt_hdr4cgetERNS_9U8ostreamE)
                  00097ec7    00000028              : Xclkcfg.obj (.text:_ZNK8Maverick8Ivector3IfE3dotERKS1_)
                  00097eef    00000028     rts2800_fpu64_eabi.lib : s_copysign.c.obj (.text)
                  00097f17    00000027     veronte.lib : Hvar_cpu2.obj (.text:_ZN3Bsp5Hbvar9get_blockEN4Base4BvarES2_)
                  00097f3e    00000027     DSP28x.lib : Absolute_time.obj (.text:_ZN4Base13Absolute_time10get_utc_msEv)
                  00097f65    00000027     veronte.lib : Pwm_suite.obj (.text:_ZN4Base5ArrayIN12Dsp28335_ent6PwmdevEEC1INS2_5PWMidEEEmNS_6Memmgr4TypeENS_5RngitIT_EE)
                  00097f8c    00000027     vpgnc.lib : Vpu.obj (.text:_ZN4Base5ArrayINS_3VarINS_3FidEE6CommitEEC1IS2_EEmNS_6Memmgr4TypeENS_5RngitIT_EE)
                  00097fb3    00000027     base.lib : Uclkmgr.obj (.text:_ZN4Base5ArrayINS_4UclkEEC1INS_4RvarEEEmNS_6Memmgr4TypeENS_5RngitIT_EE)
                  00097fda    00000027     first.lib : Lossy.obj (.text:_ZN4Base5Lossy10put_uint16Ej)
                  00098001    00000027               : Lossy.obj (.text:_ZN4Base5Lossy10put_uint32Em)
                  00098028    00000027               : Lossy.obj (.text:_ZN4Base5Lossy10put_uint64ERKy)
                  0009804f    00000027     base.lib : Xcfile.obj (.text:_ZN4Base6Xcfile10open_asyncENS_5Ifile3UidENS1_9Open_modeE)
                  00098076    00000027              : Cfgsync.obj (.text:_ZN4Base7Cfgsync12set_modifiedENS_3Cfg2IdEm)
                  0009809d    00000027              : Cfgsync.obj (.text:_ZN4Base7Cfgsync8set_syncENS_3Cfg2IdEm)
                  000980c4    00000027              : Herrors.obj (.text:_ZN4Base7Herrors10get_err_wrEv)
                  000980eb    00000027     first.lib : U8istream.obj (.text:_ZN4Base9U8istream13get_uint32_beEv)
                  00098112    00000027               : U8istream.obj (.text:_ZN4Base9U8istream13get_uint32_leEv)
                  00098139    00000027     media.lib : Cfgmgr.obj (.text:_ZN5Media6Cfgmgr3addEN4Base3Cfg2IdERNS1_15IdeserializableE)
                  00098160    00000027     vpgnc.lib : Oprvar.obj (.text:_ZN5Vpgnc6OprvarC1Ev)
                  00098187    00000027     Vmain_cpu2.obj (.text:_ZN7Project10Vmain_cpu212get_instanceEv)
                  000981ae    00000027     pa_blocks.lib : Vsdk_params.obj (.text:_ZN9Pa_blocks20Vsdk_recovery_params12get_instanceEv)
                  000981d5    00000027     first.lib : Endian64_big.obj (.text:_ZNK4Base12Endian64_big10put_uint64ERKyPjRmi)
                  000981fc    00000027               : Endian64_little.obj (.text:_ZNK4Base15Endian64_little10put_uint64ERKyPjRmi)
                  00098223    00000027     pa_blocks.lib : Site_config.obj (.text:_ZNK9Pa_blocks11Site_config6Config4cgetERN4Base5LossyE)
                  0009824a    00000027                   : Tllh_cs_64.obj (.text:__sti___14_Tllh_cs_64_cpp_e8e2ceae)
                  00098271    00000001     DSP28x.lib : Warning.obj (.text:_ZN3Bsp13warning_assrtEb)
                  00098272    00000027     rts2800_fpu64_eabi.lib : e_sqrtf.c.obj (.text)
                  00098299    00000026     DSP2838x_ent.lib : CAN_FD_cfg.obj (.text:_ZN12Dsp28335_ent10CAN_FD_cfg7Timings4csetERN4Base11Lossy_errorE)
                  000982bf    00000026     pa_blocks.lib : Cy_dcomms_site_config.obj (.text:_ZN19Cyphal_common_types19serialize_array_rszIN9Pa_blocks10DComms_cfg10Freq_entryELm64EVN4Base11TnarrayreszIS3_Lm64EEEEEvRKT1_RNS4_5LossyEm)
                  000982e5    00000026     veronte.lib : Hxcff.obj (.text:_ZN3Ver5Hxcff10get_xcmqrdEv)
                  0009830b    00000026                 : Hxcff.obj (.text:_ZN3Ver5Hxcff11get_xcpktwrEv)
                  00098331    00000026     pa_blocks.lib : Blk_pa_nav.obj (.text:_ZN4Base12Data_mutatorINS_5Lossy15Mutator_traits8IS1_EENS_9U8ostream12Data_traits8IS4_EEED1Ev)
                  00098357    00000026     veronte.lib : Tunsuite_pa.obj (.text:_ZN4Base13CANgpio_suiteILj2ELh55EE4csetERNS_11Lossy_errorE)
                  0009837d    00000026     first.lib : Lossy.obj (.text:_ZN4Base5Lossy9get_uint8ERhhh)
                  000983a3    00000026     veronte.lib : Hvar_cpu2.obj (.text:_ZN4Base6JarrayINS_6TdsyncINS_7FeatureENS_12Tdsynctraits11Rd_blockingIS2_NS_8Cptraits6PodrawIVS2_EEEENS3_2WrIS2_NS5_8OperatorIS2_S2_EEEEEEE4initERKNS_6KarrayIjEE)
                  000983c9    00000026     base.lib : Vref_wr.obj (.text:_ZN4Base6kvset0ERKNS_4VrefERNS_4IsetEf)
                  000983ef    00000026              : CANin_p.obj (.text:_ZN4Base7CANin_p6Config4csetERNS_11Lossy_errorE)
                  00098415    00000026     vpgnc.lib : Vpu.obj (.text:_ZN4Base8Hash_mapINS_8Sync_map7ElementEEC1ERKNS3_6ConfigE)
                  0009843b    00000026     pa_blocks.lib : Cy_maint_action.obj (.text:_ZN4Base9Allocator18allocate_new_arrayIN9Pa_blocks22Cy_maint_action_consts13Command_typesEEEPT_m)
                  00098461    00000026     midlevel.lib : Irxfw.obj (.text:_ZN4Base9Allocator18allocate_new_arrayINS_15Stanag_msg_type8Msg_typeEEEPT_m)
                  00098487    00000026     media.lib : Cfgmgr.obj (.text:_ZN4Base9Allocator18allocate_new_arrayINS_3Cfg2IdEEEPT_m)
                  000984ad    00000026     vpgnc.lib : Vpu.obj (.text:_ZN4Base9Allocator18allocate_new_arrayINS_4BvarEEEPT_m)
                  000984d3    00000026     veronte.lib : Vfspermission.obj (.text:_ZN4Base9Allocator18allocate_new_arrayINS_7Hashers11Element_u16EEEPT_m)
                  000984f9    00000026     base.lib : Herrors.obj (.text:_ZN4Base9Allocator18allocate_new_arrayIjEEPT_m)
                  0009851f    00000026     veronte.lib : Tunsuite_pa.obj (.text:_ZN4Base9Tuntraits15Arraytun_nosizeINS0_10TundefaultIN8Midlevel10Lights_cfg19Indication_sequenceEEENS_11TnarrayreszIS5_Lm11EEENS0_8No_checkIS8_EEE8str2elemERS8_RNS_11Lossy_errorE)
                  00098545    00000026     geomodel.lib : Apos.obj (.text:_ZN8Maverick8Ivector3IfE6vecsubERKS1_)
                  0009856b    00000026     pa_blocks.lib : Waca.obj (.text:_ZN9Pa_blocks4Waca10Vsdk_paramC1Ev)
                  00098591    00000026     base.lib : Field_cfg.obj (.text:_ZNK4Base10Cksum_modn9get_valueEv)
                  000985b7    00000026              : Message_received_hnd.obj (.text:_ZNK4Base20Message_received_hnd4stepERKNS_11TnarrayreszIjLm32EEERjNS_10Event_type4TypeE)
                  000985dd    00000026     media.lib : Cfgcrc_async.obj (.text:_ZNK5Media12Cfgcrc_async3hasEN4Base3Cfg2IdE)
                  00098603    00000025     base.lib : Herrors.obj (.text:_ZN4Base17Fifospscrd_commitIVKjNS_10SPSCtraits8InternalENS2_8ExternalEEC1EPS1_S6_S6_RVKS6_)
                  00098628    00000025              : Herrors.obj (.text:_ZN4Base17Fifospscwr_commitIVjNS_10SPSCtraits8ExternalENS2_12Internal_refEEC1EPS1_S6_RVKPVKjRVS6_)
                  0009864d    00000025     first.lib : Endian3.obj (.text:_ZN4Base7Endian315get_ebbb_presetEv)
                  00098672    00000025               : Strutil.obj (.text:_ZN4Base7Strutil24upper_hex_char_to_nibbleEhRh)
                  00098697    00000025               : Strutil.obj (.text:_ZN4Base7Strutil9as_stringEmhhRNS_7VstringENS0_7PaddingE)
                  000986bc    00000025     base.lib : Uclkmgr.obj (.text:_ZN4Base7Uclkmgr4csetERNS_11Lossy_errorE)
                  000986e1    00000025     veronte.lib : Vfspermission.obj (.text:_ZN4Base8Hash_mapINS_7Hashers11Element_u16EEC1ERKNS3_6ConfigE)
                  00098706    00000025                 : Tunsuite_pa.obj (.text:_ZN4Base9Tuntraits15Arraytun_nosizeINS0_10TundefaultIN7Devices8TPS9266410Config_regEEENS_11TnarrayreszIS5_Lm40EEENS0_8No_checkIS8_EEE8str2elemERS8_RNS_11Lossy_errorE)
                  0009872b    00000025                 : Tunsuite_pa.obj (.text:_ZN4Base9Tuntraits15Arraytun_nosizeINS0_10TundefaultIN8Midlevel10Lights_cfg16Indication_stateEEENS_11TnarrayreszIS5_Lm10EEENS0_8No_checkIS8_EEE8str2elemERS8_RNS_11Lossy_errorE)
                  00098750    00000025     stanag.lib : Fstgcfg.obj (.text:_ZN4Base9Tuntraits15Arraytun_nosizeINS0_9Cset_onlyIN6Stanag7Fstgcfg5EntryEEENS_11TnarrayreszIS5_Lm5EEENS0_8No_checkIS8_EEE8str2elemERS8_RNS_11Lossy_errorE)
                  00098775    00000025     vpgnc.lib : Evtmgr.obj (.text:_ZN5Vpgnc6Evtmgr11evhi_commitEv)
                  0009879a    00000024     DSP28x.lib : CANcfg.obj (.text:_ZN12Dsp28335_ent6CANcfg4csetERN4Base11Lossy_errorE)
                  000987be    00000024     DSP2837x_ent.lib : Sysuid_cpu2.obj (.text:_ZN3Bsp7get_uidEb)
                  000987e2    00000024     geomodel.lib : Fidcache.obj (.text:_ZN3Geo8Fidcache17compute_path_loopEN4Base3FidE)
                  00098806    00000024     veronte.lib : Code_hash_amz.obj (.text:_ZN3Ver17compute_code_hashEmm)
                  0009882a    00000024     base.lib : Meastypes.obj (.text:_ZN4Base13Mabs_time_fix4initEv)
                  0009884e    00000024     veronte.lib : Copystep.obj (.text:_ZN4Base5ArrayIN3Bsp5HrvarEEC1INS_4RvarEEEmNS_6Memmgr4TypeENS_5RngitIT_EE)
                  00098872    00000024     base.lib : CANid.obj (.text:_ZN4Base5CANid4csetERNS_11Lossy_errorE)
                  00098896    00000024     first.lib : Endian3.obj (.text:_ZN4Base7Endian315get_elll_presetEv)
                  000988ba    00000024     base.lib : Feature.obj (.text:_ZN4Base7Feature9check_relENS_3FidE)
                  000988de    00000024              : Session.obj (.text:_ZN4Base7SessionC1ERVKNS_7SystimeES3_)
                  00098902    00000024              : Uclkmgr.obj (.text:_ZN4Base7Uclkmgr4stepEv)
                  00098926    00000024     media.lib : Updatable_null.obj (.text:_ZN5Media14Updatable_null12get_instanceEv)
                  0009894a    00000024               : Cfgmgr.obj (.text:_ZN5Media6Cfgmgr19send_load_op_resultEN4Base7AddressERKyNS1_3Cfg2IdEb)
                  0009896e    00000024               : Cfgmgr.obj (.text:_ZN5Media6Cfgmgr19send_save_op_resultEN4Base7AddressERKyNS1_3Cfg2IdEb)
                  00098992    00000024     vblocks.lib : Blockfactory_amz.obj (.text:_ZN7Vblocks12Blockfactory13get_marks_mgrEv)
                  000989b6    00000024     pa_blocks.lib : Irmatrix3_sub.obj (.text:_ZN9Pa_blocks13Irmatrix3_subC1ERKN8Maverick7RmatrixEjj)
                  000989da    00000024                   : Irmatrix3_sub.obj (.text:_ZN9Pa_blocks13Irmatrix3_subC1ERN8Maverick7RmatrixEjj)
                  000989fe    00000024                   : Controller_introspect.obj (.text:_ZN9Pa_blocks21Controller_introspectC1Ev)
                  00098a22    00000024                   : Initializer_pitch_roll.obj (.text:_ZN9Pa_blocks22Initializer_pitch_rollC1ERN4Base7TnarrayIfLm4EEERKNS_11Site_configE)
                  00098a46    00000024                   : Vsdk_navigation_params.obj (.text:_ZN9Pa_blocks22Vsdk_navigation_params19Installation_params4csetERN4Base11Lossy_errorE)
                  00098a6a    00000024     base.lib : Uclk.obj (.text:_ZNK4Base4Uclk4cgetERNS_5LossyE)
                  00098a8e    00000023     pa_blocks.lib : Cy_dcomms_site_config.obj (.text:_ZN19Cyphal_common_types25serialize_uint8_array_rszIcLm16EVN4Base11TnarrayreszIcLm17EEEEEvRT1_RNS1_5LossyEm)
                  00098ab1    00000023     base.lib : Routing_table_entry.obj (.text:_ZN4Base19Routing_table_entry4csetERNS_11Lossy_errorE)
                  00098ad4    00000023              : Xclk.obj (.text:_ZN4Base4XclkC1ERKNS_7XclkcfgE)
                  00098af7    00000023     veronte.lib : Xcrdsuite.obj (.text:_ZN4Base6XcmvarINS_4BvarENS_9Tuntraits10U16bool_16IbEEE6Parser5parseERNS_17U16stream_r_errorE)
                  00098b1a    00000023     media.lib : Cfgmgr.obj (.text:_ZN5Media6Cfgmgr22compute_gfcrc_blockingEv)
                  00098b3d    00000023     vpgnc.lib : CAN_cfg_maint_astro.obj (.text:_ZN5Vpgnc47_GLOBAL__N__23_CAN_cfg_maint_astro_cpp_2770a0d011set_can_cfgERN4Base7CANin_p6ConfigERNS1_8CANout_c6ConfigERNS1_9SerialCAN6ConfigEmjjmm)
                  00098b60    00000023     maverick.lib : Irvector3.obj (.text:_ZN8Maverick9Irvector36vecsumERKS0_S2_)
                  00098b83    00000023     pa_blocks.lib : Nav_builder.obj (.text:_ZN9Pa_blocks11Nav_builder4stepEv)
                  00098ba6    00000023                   : Detect_pseudo_jerk.obj (.text:_ZN9Pa_blocks18Detect_pseudo_jerkC1ERKNS_16On_ground_inputsERNS_9Max_valueE)
                  00098bc9    00000023                   : Tcg.obj (.text:_ZN9Pa_blocks3Tcg10Vsdk_paramC1Ev)
                  00098bec    00000023     base.lib : Limit.obj (.text:_ZNK4Base5Limit5checkEv)
                  00098c0f    00000023     pa_blocks.lib : Input_static_pressure.obj (.text:_ZNK9Pa_blocks21Input_static_pressure7observeEjRKN8Maverick7RmatrixERNS1_7RvectorE)
                  00098c32    00000022     DSP2838x_ent.lib : CAN_FD_cfg.obj (.text:_ZN12Dsp28335_ent10CAN_FD_cfg12validate_arbEv)
                  00098c54    00000022     veronte.lib : Hvar_cpu2.obj (.text:_ZN3Bsp5Hfvar3setERKN4Base7FeatureE)
                  00098c76    00000022     base.lib : Errors_single.obj (.text:_ZN4Base13Errors_single4readERNS_9U8ostreamE)
                  00098c98    00000022              : CRC.obj (.text:_ZN4Base3CRC9update_leEPKvm)
                  00098cba    00000022              : Pdiver.obj (.text:_ZN4Base6Pdiver4csetERNS_11Lossy_errorE)
                  00098cdc    00000022              : Cfgsync.obj (.text:_ZN4Base7Cfgsync12set_modifiedENS_3Cfg2IdERKNS_5LossyE)
                  00098cfe    00000022     first.lib : Vstring.obj (.text:_ZN4Base7VstringC1ENS_6MblockIcEE)
                  00098d20    00000022     veronte.lib : Hxcfield_cpu2.obj (.text:_ZN4Base8TwrapdesINS_9Tuntraits9Wsync_desINS_6TdsyncINS_11Pfields_cfgENS_12Tdsynctraits11Rd_blockingIS4_NS_8Cptraits6PodrawIVS4_EEEENS5_15Disabled_structEEENS1_10DesdefaultIS4_EEEERSD_E4csetERNS_11Lossy_errorE)
                  00098d42    00000022                 : Tunsuite_pa.obj (.text:_ZN4Base8TwrapdesINS_9Tuntraits9Wsync_desINS_6TdsyncINS_11TnarrayreszIN6Stanag15Stanag_msg_cfgs9Cfg_entryELm20EEENS_12Tdsynctraits11Rd_blockingIS8_NS_8Cptraits6PodrawIVS8_EEEENS9_15Disabled_structEEENS1_15Arraytun_size16INS1_9Cset_onlyIS7_EES8_NS1_8No_checkIS8_EEEEEERSH_E4csetERNS_11Lossy_errorE)
                  00098d64    00000022                 : Hxcfield_cpu2.obj (.text:_ZN4Base8TwrapdesINS_9Tuntraits9Wsync_desINS_6TdsyncINS_11TnarrayreszIN6Stanag7FstgcfgELm40EEENS_12Tdsynctraits11Rd_blockingIS7_NS_8Cptraits6PodrawIVS7_EEEENS8_15Disabled_structEEENS1_15Arraytun_size16INS1_9Cset_onlyIS6_EES7_NS1_8No_checkIS7_EEEEEERSG_E4csetERNS_11Lossy_errorE)
                  00098d86    00000022                 : Hxcfield_cpu2.obj (.text:_ZN4Base8TwrapdesINS_9Tuntraits9Wsync_desINS_6TdsyncINS_11TnarrayreszINS_5TupleIjNS4_INS_8Fmsg_cfgELm32EEEEELm2EEENS_12Tdsynctraits11Rd_blockingIS9_NS_8Cptraits6PodrawIVS9_EEEENSA_15Disabled_structEEENS1_15Arraytun_size16INS1_8TupletunINS1_7Lossy16IjEENSJ_INS1_9Cset_onlyIS6_EES7_NS1_8No_checkIS7_EEEEEES9_NSP_IS9_EEEEEERSI_E4csetERNS_11Lossy_errorE)
                  00098da8    00000022                 : Hxcfield_cpu2.obj (.text:_ZN4Base8TwrapdesINS_9Tuntraits9Wsync_desINS_6TdsyncINS_11TnarrayreszINS_5TupleIjNS4_INS_8Fmsg_cfgELm32EEEEELm3EEENS_12Tdsynctraits11Rd_blockingIS9_NS_8Cptraits6PodrawIVS9_EEEENSA_15Disabled_structEEENS1_15Arraytun_size16INS1_8TupletunINS1_7Lossy16IjEENSJ_INS1_9Cset_onlyIS6_EES7_NS1_8No_checkIS7_EEEEEES9_NSP_IS9_EEEEEERSI_E4csetERNS_11Lossy_errorE)
                  00098dca    00000022                 : Tunsuite_pa.obj (.text:_ZN4Base8TwrapdesINS_9Tuntraits9Wsync_desINS_6TdsyncINS_11TnarrayreszINS_7Xpcmap0ELm19EEENS_12Tdsynctraits11Rd_blockingIS6_NS_8Cptraits6PodrawIVS6_EEEENS7_15Disabled_structEEENS1_15Arraytun_size16INS_3XpcIN3Ver15Xpccantrait_verEE9Tuntrait0ES6_NS1_8No_checkIS6_EEEEEERSF_E4csetERNS_11Lossy_errorE)
                  00098dec    00000022                 : Tunsuite_pa.obj (.text:_ZN4Base8TwrapdesINS_9Tuntraits9Wsync_desINS_6TdsyncINS_11TnarrayreszINS_7Xpcmap0ELm45EEENS_12Tdsynctraits11Rd_blockingIS6_NS_8Cptraits6PodrawIVS6_EEEENS7_15Disabled_structEEENS1_15Arraytun_size16INS_3XpcIN3Ver11Xpcu8_traitEE9Tuntrait0ES6_NS1_8No_checkIS6_EEEEEERSF_E4csetERNS_11Lossy_errorE)
                  00098e0e    00000022     first.lib : Atunarray.obj (.text:_ZN4Base9Atunarray9cset_sizeERNS_11Lossy_errorE)
                  00098e30    00000022     vpgnc.lib : Event.obj (.text:_ZN4Base9Tuntraits15Arraytun_nosizeINS0_10TundefaultIjEENS_11TnarrayreszIjLm32EEENS0_8No_checkIS5_EEE8str2elemERS5_RNS_11Lossy_errorE)
                  00098e52    00000022               : Evt_wp_groups.obj (.text:_ZN4Base9Tuntraits15Arraytun_nosizeINS0_10TundefaultIjEENS_11TnarrayreszIjLm8EEENS0_8No_checkIS5_EEE8str2elemERS5_RNS_11Lossy_errorE)
                  00098e74    00000022     veronte.lib : Tunsuite_pa.obj (.text:_ZN4Base9Tuntraits15Arraytun_nosizeINS0_7Lossy16INS_4BvarEEENS_11TnarrayreszIS3_Lm20EEENS0_8No_checkIS6_EEE8str2elemERS6_RNS_11Lossy_errorE)
                  00098e96    00000022     base.lib : Evactcfg.obj (.text:_ZN4Base9Tuntraits15Arraytun_nosizeINS0_7Lossy16IjEENS_11TnarrayreszIjLm128EEENS0_8No_checkIS5_EEE8str2elemERS5_RNS_11Lossy_errorE)
                  00098eb8    00000022              : Action.obj (.text:_ZN4Base9Tuntraits15Arraytun_nosizeINS0_7Lossy16IjEENS_11TnarrayreszIjLm200EEENS0_8No_checkIS5_EEE8str2elemERS5_RNS_11Lossy_errorE)
                  00098eda    00000022     veronte.lib : Tunsuite_pa.obj (.text:_ZN4Base9Tuntraits15Arraytun_nosizeINS0_7Lossy16IjEENS_11TnarrayreszIjLm32EEENS0_8No_checkIS5_EEE8str2elemERS5_RNS_11Lossy_errorE)
                  00098efc    00000022     base.lib : Evactcfg.obj (.text:_ZN4Base9Tuntraits15Arraytun_nosizeINS0_7Lossy16IjEENS_11TnarrayreszIjLm8EEENS0_8No_checkIS5_EEE8str2elemERS5_RNS_11Lossy_errorE)
                  00098f1e    00000022     veronte.lib : Tunsuite_pa.obj (.text:_ZN4Base9Tuntraits15Arraytun_nosizeINS_3XpcIN3Ver11Xpcu8_traitEE9Tuntrait0ENS_11TnarrayreszINS_7Xpcmap0ELm45EEENS0_8No_checkIS9_EEE8str2elemERS9_RNS_11Lossy_errorE)
                  00098f40    00000022                 : Tunsuite_pa.obj (.text:_ZN4Base9Tuntraits15Arraytun_nosizeINS_3XpcIN3Ver15Xpccantrait_verEE9Tuntrait0ENS_11TnarrayreszINS_7Xpcmap0ELm19EEENS0_8No_checkIS9_EEE8str2elemERS9_RNS_11Lossy_errorE)
                  00098f62    00000022     media.lib : Cfgmgr.obj (.text:_ZN5Media6Cfgmgr14step_comp_gcrcEv)
                  00098f84    00000022               : Cfgmgr.obj (.text:_ZN5Media6Cfgmgr14step_init_gcrcEv)
                  00098fa6    00000022     vpgnc.lib : Oprvar.obj (.text:_ZN5Vpgnc6Oprvar4csetERN4Base11Lossy_errorE)
                  00098fc8    00000022     devices.lib : Dev_press_cfg.obj (.text:_ZN7Devices14Dev_common_cfg4csetERN4Base11Lossy_errorE)
                  00098fea    00000022     geomodel.lib : Apos.obj (.text:_ZN8Maverick8Ivector3IfE6vecaddERKS1_)
                  0009900c    00000022     midlevel.lib : Errors_irx.obj (.text:_ZN8Midlevel10Errors_irx5on_rxERN6Stanag14IStanag_msg_rx9Rx_paramsE)
                  0009902e    00000022     pa_blocks.lib : DComms_cfg.obj (.text:_ZN9Pa_blocks10DComms_cfg13get_reg_valueEjRVKN4Base11TnarrayreszINS0_7Reg_cfgELm30EEE)
                  00099050    00000022     rts2800_fpu64_eabi.lib : i_div28.asm.obj (.text)
                  00099072    00000021     DSP2838x_ent.lib : CAN_FD_cfg.obj (.text:_ZN12Dsp28335_ent10CAN_FD_cfg13validate_dataEv)
                  00099093    00000021     base.lib : Presence_vec.obj (.text:_ZN4Base12Presence_vec4csetERNS_9U8istreamE)
                  000990b4    00000021     vpgnc.lib : Vpu.obj (.text:_ZN4Base18Routing_table_dataILj2ELj16EE5resetEv)
                  000990d5    00000021     first.lib : Error.obj (.text:_ZN4Base5ArrayINS_8ErrorsrcEE6appendERKS1_)
                  000990f6    00000021               : Lossy.obj (.text:_ZN4Base5Lossy11get_float64ERe)
                  00099117    00000021     base.lib : Xcmqrd.obj (.text:_ZN4Base6Xcmqrd3addENS_7XcmsgidERNS_9IstrparseE)
                  00099138    00000021              : Taskmgr.obj (.text:_ZN4Base7TaskmgrC1EmNS_6Memmgr4TypeEj)
                  00099159    00000021     veronte.lib : Hevact_cpu2.obj (.text:_ZN4Base8TwrapdesINS_9Tuntraits9Wsync_desINS_6TdsyncINS_8ArraymskINS_6ActionELj120EEENS_12Tdsynctraits11Rd_blockingIS6_NS_8Cptraits6PodrawIVS6_EEEENS7_15Disabled_structEEENS1_11TunarraymskIS5_Lj120EEEEERSF_E4csetERNS_11Lossy_errorE)
                  0009917a    00000021                 : Hevact_cpu2.obj (.text:_ZN4Base8TwrapdesINS_9Tuntraits9Wsync_desINS_6TdsyncINS_8ArraymskINS_9Evactcfg0ELj100EEENS_12Tdsynctraits11Rd_blockingIS6_NS_8Cptraits6PodrawIVS6_EEEENS7_15Disabled_structEEENS1_11TunarraymskIS5_Lj100EEEEERSF_E4csetERNS_11Lossy_errorE)
                  0009919b    00000021     first.lib : U8ostream.obj (.text:_ZN4Base9U8ostream10put_mblockERKNS_12U8pkmblock_kE)
                  000991bc    00000021     media.lib : Cfgmgr.obj (.text:_ZN5Media6Cfgmgr18fload_crc_blockingEN4Base3Cfg2IdE)
                  000991dd    00000021     vpgnc.lib : Event.obj (.text:_ZN5Vpgnc5Event12step_wrapperERKNS_7VlimitsEb)
                  000991fe    00000021     devices.lib : Ubxcfgdata.obj (.text:_ZN7Devices3Ubx10UbxcfggnssILj3EE8Cfgblock4csetERN4Base11Lossy_errorE)
                  0009921f    00000021     maverick.lib : Irquat.obj (.text:_ZN8Maverick6Irquat12qrotfromaxisERKNS_9Irvector3E)
                  00099240    00000021                  : Irquat.obj (.text:_ZN8Maverick6Irquat5scaleEf)
                  00099261    00000021     midlevel.lib : Sys_status_mgr.obj (.text:_ZN8Midlevel14Sys_status_mgr6Config4csetERN4Base11Lossy_errorE)
                  00099282    00000021     base.lib : CRC.obj (.text:_ZNK4Base3CRC6Config4cgetERNS_5LossyE)
                  000992a3    00000021     crypto_c28.lib : sha256.obj (.text:reverse_dword)
                  000992c4    00000021     rts2800_fpu64_eabi.lib : new.c.obj (.text)
                  000992e5    00000020     DSP2838x_ent.lib : CAN_FD_cfg.obj (.text:_ZN12Dsp28335_ent10CAN_FD_cfg10Timings_ex4csetERN4Base11Lossy_errorE)
                  00099305    00000020                      : Pwmdev_2838x.obj (.text:_ZN12Dsp28335_ent6Pwmdev3getENS0_5PWMidE)
                  00099325    00000020     pa_blocks.lib : State_history.obj (.text:_ZN4Base6MblockIKN9Pa_blocks5StateEE20sub_mblock_with_sizeEm)
                  00099345    00000020     veronte.lib : Copystep.obj (.text:_ZN4Base6MblockIVKbE20sub_mblock_with_sizeEm)
                  00099365    00000020                 : Copystep.obj (.text:_ZN4Base6MblockIVKfE20sub_mblock_with_sizeEm)
                  00099385    00000020                 : Copystep.obj (.text:_ZN4Base6MblockIVKjE20sub_mblock_with_sizeEm)
                  000993a5    00000020                 : Tunsuite_pa.obj (.text:_ZN4Base6MblockIfE20sub_mblock_with_sizeEm)
                  000993c5    00000020     base.lib : Stepmgr_dsp.obj (.text:_ZN4Base7Stepmgr12get_instanceEv)
                  000993e5    00000020              : Vref_wr.obj (.text:_ZN4Base7Vref_wr4vsetEf)
                  00099405    00000020              : Cfgsync.obj (.text:_ZN4Base8Hash_mapINS_8Sync_map7ElementEE11get_elementERNS3_8IteratorE)
                  00099425    00000020     vpgnc.lib : Evtmgr.obj (.text:_ZN4Base8TunarrayINS_5LimitELb0EE4csetERNS_11Lossy_errorE)
                  00099445    00000020               : Rvar_op_commit.obj (.text:_ZN4Base8TunarrayINS_8TwraptunINS_9Tuntraits11Lossy_floatEfEELb1EE4csetERNS_11Lossy_errorE)
                  00099465    00000020     veronte.lib : Tunsuite_pa.obj (.text:_ZN4Base9Tuntraits15Arraytun_nosizeINS0_15Arraytun_size16INS0_8TupletunINS0_9Cset_onlyIN6Stanag14Subsystem_data8Key_dataEEENS0_7Lossy16INS_4UvarEEEEENS_11TnarrayreszINS_5TupleIS7_SA_EELm64EEENS0_8No_checkISG_EEEENS_7TnarrayISG_Lm32EEENSH_ISL_EEE8str2elemERSL_RNS_11Lossy_errorE)
                  00099485    00000020     first.lib : U8istream.obj (.text:_ZN4Base9U8istream13get_uint64_beEj)
                  000994a5    00000020     stanag.lib : Subsystem_status.obj (.text:_ZN6Stanag14U8istream_pvec9get_fieldIN4Base10StimestampEEEbRT_)
                  000994c5    00000020     pa_blocks.lib : Measurements.obj (.text:_ZN9Pa_blocks12Measurements3Imu4copyERKS1_)
                  000994e5    00000020                   : Vsdk_params.obj (.text:_ZN9Pa_blocks19Vsdk_logging_params4csetERN4Base11Lossy_errorE)
                  00099505    00000020     veronte.lib : Hvar_cpu2.obj (.text:_ZNK3Bsp5Hfvar3getERN4Base7FeatureE)
                  00099525    00000020     base.lib : Cfgsync.obj (.text:_ZNK4Base8Hash_mapINS_8Sync_map7ElementEE11get_elementERNS3_8IteratorE)
                  00099545    00000020     vpgnc.lib : Oprvar.obj (.text:_ZNK5Vpgnc6Oprvar5checkERN4Base5ErrorE)
                  00099565    00000020     pa_blocks.lib : Site_config.obj (.text:_ZNK9Pa_blocks11Site_config6Setter15fill_res_paramsERNS_22Cy_maint_action_consts12Result_codesERNS2_13Payload_typesERN4Base12U8pkrszarrayILm256EEE)
                  00099585    00000020                   : Aiding_sensors_info.obj (.text:_ZNK9Pa_blocks19Aiding_sensors_info4cgetERN4Base5LossyE)
                  000995a5    00000020     geomodel.lib : Apos.obj (.text:__sti___8_Apos_cpp_ad6fc636)
                  000995c5    0000001f     DSP2838x_ent.lib : Htime_2838x.obj (.text:_ZN3Bsp5Htime8get_timeEv)
                  000995e4    0000001f     base.lib : Channelmgrcfg.obj (.text:_ZN4Base13Channelmgrcfg6Chnsel4csetERNS_11Lossy_errorE)
                  00099603    0000001f              : Stanag_msg_type.obj (.text:_ZN4Base15Stanag_msg_type10needs_authENS0_8Msg_typeE)
                  00099622    0000001f     first.lib : Lossy.obj (.text:_ZN4Base5Lossy11get_n_uint8ERNS_10U8pkmblockE)
                  00099641    0000001f               : Lossy.obj (.text:_ZN4Base5Lossy8get_int8ERc)
                  00099660    0000001f     veronte.lib : Xcrdsuite.obj (.text:_ZN4Base6XcmvarINS_4UvarENS_9Tuntraits9U16str_16IjEEE6Parser5parseERNS_17U16stream_r_errorE)
                  0009967f    0000001f                 : Pwm_suite.obj (.text:_ZN4Base8TunarrayIN12Dsp28335_ent8PwmsuiteINS1_6PwmdevELj16EE6ConfigELb0EE4csetERNS_11Lossy_errorE)
                  0009969e    0000001f     vpgnc.lib : Evtmgr.obj (.text:_ZN4Base8TunarrayIN5Vpgnc5EventELb0EE4csetERNS_11Lossy_errorE)
                  000996bd    0000001f               : Opranges.obj (.text:_ZN4Base8TunarrayIN5Vpgnc8Opranges3RngELb0EE4csetERNS_11Lossy_errorE)
                  000996dc    0000001f     base.lib : Fsniffer.obj (.text:_ZN4Base8TunarrayINS_10Vmap_entryELb0EE4csetERNS_11Lossy_errorE)
                  000996fb    0000001f     veronte.lib : Tunsuite_pa.obj (.text:_ZN4Base8TunarrayINS_13Channelmgrcfg6ChncfgELb0EE4csetERNS_11Lossy_errorE)
                  0009971a    0000001f                 : Tunsuite_pa.obj (.text:_ZN4Base8TunarrayINS_13Channelmgrcfg6ChnselELb0EE4csetERNS_11Lossy_errorE)
                  00099739    0000001f                 : Hevact_cpu2.obj (.text:_ZN4Base8TunarrayINS_6ActionELb0EE4csetERNS_11Lossy_errorE)
                  00099758    0000001f     base.lib : Sticktypes.obj (.text:_ZN4Base8TunarrayINS_8StickoutELb0EE4csetERNS_11Lossy_errorE)
                  00099777    0000001f     veronte.lib : Hevact_cpu2.obj (.text:_ZN4Base8TunarrayINS_9Evactcfg0ELb0EE4csetERNS_11Lossy_errorE)
                  00099796    0000001f     pa_blocks.lib : Command_response.obj (.text:_ZN9Pa_blocks16Command_response8on_rx_cyEN6Cyphal17Cyphal_stg_fieldsERN6Stanag14IStanag_msg_rx9Rx_paramsE)
                  000997b5    0000001f                   : Diverse_comms_telemetry.obj (.text:_ZN9Pa_blocks23Diverse_comms_telemetry8on_rx_cyEN6Cyphal17Cyphal_stg_fieldsERN6Stanag14IStanag_msg_rx9Rx_paramsE)
                  000997d4    0000001f                   : Tsc.obj (.text:_ZN9Pa_blocks3Tsc16Vsdk_parameters_4csetERN4Base11Lossy_errorE)
                  000997f3    0000001f     DSP28x.lib : CANcfg.obj (.text:_ZNK12Dsp28335_ent6CANcfg8validateEv)
                  00099812    0000001f     base.lib : Cfgsync.obj (.text:_ZNK4Base7Cfgsync8get_mcrcENS_3Cfg2IdE)
                  00099831    0000001f              : Kfieldset.obj (.text:_ZNK4Base9Kfieldset13user_writableEv)
                  00099850    0000001f     pa_blocks.lib : Command_response.obj (.text:_ZThn4_N9Pa_blocks16Command_response16get_cyphal_flagsEv)
                  0009986f    0000001e     DSP2837x_ent.lib : Wipe_memory_c2_2838x.obj (.text:_ZN12Dsp28335_ent14wipe_memory_c2Ev)
                  0009988d    0000001e                      : ISRmgr.obj (.text:_ZN12Dsp28335_ent6ISRmgr4initEv)
                  000998ab    0000001e     veronte.lib : Hvar.obj (.text:_ZN3Bsp5Hrvar10get_kblockEN4Base4RvarES2_)
                  000998c9    0000001e     geomodel.lib : Fmemcmd.obj (.text:_ZN3Geo7Fmemcmd4csetERN4Base11Lossy_errorE)
                  000998e7    0000001e     veronte.lib : Ext_nav_cfg.obj (.text:_ZN3Ver11Ext_nav_cfg4csetERN4Base11Lossy_errorE)
                  00099905    0000001e     base.lib : Presence_vec.obj (.text:_ZN4Base12Presence_vec4csetERNS_11U16stream_rE)
                  00099923    0000001e              : CRCmav.obj (.text:_ZN4Base6CRCmavC1Eh)
                  00099941    0000001e     Vmain_cpu2.obj (.text:_ZN4Base7Timevar4stepEv)
                  0009995f    0000001e     vpgnc.lib : Vpu.obj (.text:_ZN4Base9Allocator12allocate_newIN3Ver9XcrdsuiteENS_11Vpktsend_xcENS_9IstrparseEKNS_7TnarrayINS_15Auth_connectionELm5EEEEEPT_RT0_RT1_RT2_)
                  0009997d    0000001e     veronte.lib : Tunsuite_pa.obj (.text:_ZN4Base9Tuntraits15Arraytun_nosizeINS0_10DesdefaultINS_7CANin_p6ConfigEEENS_11TnarrayreszIS4_Lm6EEENS0_8No_checkIS7_EEE8str2elemERS7_RNS_11Lossy_errorE)
                  0009999b    0000001e                 : Tunsuite_pa.obj (.text:_ZN4Base9Tuntraits15Arraytun_nosizeINS0_10DesdefaultINS_9CANgpio_p6ConfigEEENS_11TnarrayreszIS4_Lm2EEENS0_8No_checkIS7_EEE8str2elemERS7_RNS_11Lossy_errorE)
                  000999b9    0000001e                 : Tunsuite_pa.obj (.text:_ZN4Base9Tuntraits15Arraytun_nosizeINS0_10DesdefaultINS_9SerialCAN6ConfigEEENS_11TnarrayreszIS4_Lm6EEENS0_8No_checkIS7_EEE8str2elemERS7_RNS_11Lossy_errorE)
                  000999d7    0000001e                 : Tunsuite_pa.obj (.text:_ZN4Base9Tuntraits15Arraytun_nosizeINS0_10TundefaultINS_18Routing_table_dataILj2ELj16EE5TableEEENS_11TnarrayreszIS5_Lm2EEENS0_8No_checkIS8_EEE8str2elemERS8_RNS_11Lossy_errorE)
                  000999f5    0000001e                 : Tunsuite_pa.obj (.text:_ZN4Base9Tuntraits15Arraytun_nosizeINS0_10TundefaultINS_19Routing_table_entryEEENS_11TnarrayreszIS3_Lm16EEENS0_8No_checkIS6_EEE8str2elemERS6_RNS_11Lossy_errorE)
                  00099a13    0000001e     pa_blocks.lib : DComms_cfg.obj (.text:_ZN4Base9Tuntraits15Arraytun_nosizeINS0_4CxetIN9Pa_blocks10DComms_cfg10Freq_entryEEENS_11TnarrayreszIS5_Lm64EEENS0_8No_checkIS8_EEE8elem2strERKS8_RNS_5LossyE)
                  00099a31    0000001e                   : DComms_cfg.obj (.text:_ZN4Base9Tuntraits15Arraytun_nosizeINS0_4CxetIN9Pa_blocks10DComms_cfg10Freq_entryEEENS_11TnarrayreszIS5_Lm64EEENS0_8No_checkIS8_EEE8str2elemERS8_RNS_11Lossy_errorE)
                  00099a4f    0000001e     veronte.lib : Tunsuite_pa.obj (.text:_ZN4Base9Tuntraits15Arraytun_nosizeINS0_9Cset_onlyIN6Stanag15Stanag_msg_cfgs9Cfg_entryEEENS_11TnarrayreszIS5_Lm20EEENS0_8No_checkIS8_EEE8str2elemERS8_RNS_11Lossy_errorE)
                  00099a6d    0000001e                 : Hxcfield_cpu2.obj (.text:_ZN4Base9Tuntraits15Arraytun_nosizeINS0_9Cset_onlyIN6Stanag7FstgcfgEEENS_11TnarrayreszIS4_Lm40EEENS0_8No_checkIS7_EEE8str2elemERS7_RNS_11Lossy_errorE)
                  00099a8b    0000001e                 : Hxcfield_cpu2.obj (.text:_ZN4Base9Tuntraits15Arraytun_nosizeINS0_9Cset_onlyINS_5FieldEEENS_11TnarrayreszIS3_Lm128EEENS0_8No_checkIS6_EEE8str2elemERS6_RNS_11Lossy_errorE)
                  00099aa9    0000001e     media.lib : Cfgmgr.obj (.text:_ZN5Media6Cfgmgr12is_startableEN4Base3Cfg2IdE)
                  00099ac7    0000001e     vpgnc.lib : Event.obj (.text:_ZN5Vpgnc5EventC1Ev)
                  00099ae5    0000001e               : Opmgr.obj (.text:_ZN5Vpgnc5Opmgr16build_oprvar_tunEv)
                  00099b03    0000001e               : Evtmgr.obj (.text:_ZN5Vpgnc6Evtmgr16build_limits_tunEv)
                  00099b21    0000001e               : Opranges.obj (.text:_ZN5Vpgnc8Opranges9build_tunEv)
                  00099b3f    0000001e     pa_blocks.lib : Onground_controller_info.obj (.text:_ZN9Pa_blocks24Onground_controller_info4csetERN4Base5LossyE)
                  00099b5d    0000001e     first.lib : Vref.obj (.text:_ZNK4Base4Vref4cgetERNS_5LossyE)
                  00099b7b    0000001e     base.lib : Cfgsync.obj (.text:_ZNK4Base7Cfgsync10is_enabledENS_3Cfg2IdE)
                  00099b99    0000001e              : Checklist.obj (.text:_ZNK4Base9Checklist5checkERNS_5ErrorE)
                  00099bb7    0000001e              : Kfieldset.obj (.text:_ZNK4Base9Kfieldset8compressERNS_5LossyERKNS_4IgetE)
                  00099bd5    0000001e     pa_blocks.lib : Covariance_ud.obj (.text:_ZNK9Pa_blocks13Covariance_ud12D_serializer4cgetERN4Base9U8ostreamE)
                  00099bf3    0000001e     rts2800_fpu64_eabi.lib : ll_cmp28.asm.obj (.text)
                  00099c11    0000001d     pa_blocks.lib : State_estimate_compact.obj (.text:_ZN19Cyphal_common_types29serialize_float32_fixed_arrayIfLm3EEEvRKN4Base7TnarrayIT_XT0_EEERNS1_5LossyE)
                  00099c2e    0000001d                   : State_estimate_compact.obj (.text:_ZN19Cyphal_common_types29serialize_float32_fixed_arrayIfLm4EEEvRKN4Base7TnarrayIT_XT0_EEERNS1_5LossyE)
                  00099c4b    0000001d     Blockfactory_par.obj (.text:_ZN4Base3MapIN9Pa_blocks22Cy_maint_action_consts13Command_typesEPNS2_13Imaint_actionEE3putERKS3_RKS5_)
                  00099c68    0000001d     stanag.lib : Stanag_msg_cfgs.obj (.text:_ZN4Base3MapINS_15Stanag_msg_type8Msg_typeEPN6Stanag14IStanag_msg_txEE3putERKS2_RKS5_)
                  00099c85    0000001d     midlevel.lib : Irxfw.obj (.text:_ZN4Base3MapINS_15Stanag_msg_type8Msg_typeEPN6Stanag14IStanag_rx_hdlEE3putERKS2_RKS5_)
                  00099ca2    0000001d     media.lib : Cfgmgr.obj (.text:_ZN4Base3MapINS_3Cfg2IdEPNS_14Itunable_asyncEE3putERKS2_RKS4_)
                  00099cbf    0000001d               : Cfgmgr.obj (.text:_ZN4Base3MapINS_3Cfg2IdEPNS_21Ideserializable_asyncEE3putERKS2_RKS4_)
                  00099cdc    0000001d     veronte.lib : Hxcff.obj (.text:_ZN4Base4XcrdC1ILm1968EEERVNS_6XcffrdIjEERVKNS_6XcffwrIjXT_EEE)
                  00099cf9    0000001d     pa_blocks.lib : Initializer_pitch_roll.obj (.text:_ZN4Base5ArrayIN8Maverick4EwmaEEC1IfEEmNS_6Memmgr4TypeET_)
                  00099d16    0000001d                   : Initializer_bias.obj (.text:_ZN4Base5ArrayIN9Pa_blocks14Moving_averageEEC1IfEEmNS_6Memmgr4TypeET_)
                  00099d33    0000001d     vpgnc.lib : Vpu.obj (.text:_ZN4Base9Fifospsc0IVNS_11Spkt_bufferENS_10SPSCtraits8ExternalENS3_12Internal_refEE5writeINS_4SpktENS_8Cptraits4CopyIKS8_S2_EEEEbNS_12JSF116_paramIT_E4typeE)
                  00099d50    0000001d     media.lib : Cfgmgr.obj (.text:_ZN5Media6Cfgmgr16send_load_resultEN4Base7AddressENS1_3Cfg2IdEb)
                  00099d6d    0000001d               : Cfgmgr.obj (.text:_ZN5Media6Cfgmgr16send_save_resultEN4Base7AddressENS1_3Cfg2IdEb)
                  00099d8a    0000001d     base.lib : Cyphal.obj (.text:_ZN6Cyphal10Cyphal_msg6set_idENS_8CyCAN_idE)
                  00099da7    0000001d     pa_blocks.lib : State_estimate.obj (.text:_ZN9Pa_blocks14State_estimate7AirdataC1Ev)
                  00099dc4    0000001d                   : State_estimate_logic.obj (.text:_ZN9Pa_blocks20State_estimate_logic6OutputC1ERKN4Base7TnarrayIfLm3EEERKbS8_RKNS_27State_estimate_status_logic6StatusERKNS_9On_ground19Introspect_ongroundERKNS_12MeasurementsERNS_9Max_valueES8_)
                  00099de1    0000001d                   : Mission_reset_command.obj (.text:_ZN9Pa_blocks21Mission_reset_command4csetERN4Base9U8istreamE)
                  00099dfe    0000001d                   : Nav_introspect_compact.obj (.text:_ZN9Pa_blocks22Nav_introspect_compact4cgetERN4Base9U8ostreamE)
                  00099e1b    0000001d                   : Onground_controller_info.obj (.text:_ZN9Pa_blocks24Onground_controller_info4csetERN4Base9U8istreamE)
                  00099e38    0000001d                   : Recovery_mission_readiness_signal.obj (.text:_ZN9Pa_blocks33Recovery_mission_readiness_signal4csetERN4Base9U8istreamE)
                  00099e55    0000001d                   : Aee.obj (.text:_ZN9Pa_blocks3Aee9Telemetry5resetEv)
                  00099e72    0000001d                   : Pa_irquat.obj (.text:_ZN9Pa_blocks9Pa_irquat10quat2pitchERKN8Maverick6IrquatE)
                  00099e8f    0000001d     base.lib : Xcfile.obj (.text:_ZNK4Base6Xcfile8get_sizeERm)
                  00099eac    0000001d              : Cfgsync.obj (.text:_ZNK4Base7Cfgsync11is_modifiedENS_3Cfg2IdE)
                  00099ec9    0000001d              : Kfieldset.obj (.text:_ZNK4Base9Kfieldset8get_sizeEv)
                  00099ee6    0000001d     pa_blocks.lib : DComms_cfg.obj (.text:_ZNK9Pa_blocks10DComms_cfg11Reg_str_cfg4cgetERN4Base5LossyE)
                  00099f03    0000001d                   : Command_contingency_wrapper.obj (.text:_ZNK9Pa_blocks19Command_contingency4cgetERN4Base5LossyE)
                  00099f20    0000001d                   : State_estimate_compact.obj (.text:_ZNK9Pa_blocks22State_estimate_compact4cgetERN4Base9U8ostreamE)
                  00099f3d    0000001d     base.lib : Flogic.obj (.text:_ZNVK4Base6Flogic12next_elementERPVKjRj)
                  00099f5a    0000001d     rts2800_fpu64_eabi.lib : memcpy.c.obj (.text)
                  00099f77    0000001c     pa_blocks.lib : Controllers_state_estimate.obj (.text:_ZN19Cyphal_common_types31deserialize_float32_fixed_arrayIfLm3EEEvRN4Base7TnarrayIT_XT0_EEERNS1_5LossyE)
                  00099f93    0000001c                   : Diverse_comms_telemetry.obj (.text:_ZN19Cyphal_common_types31deserialize_float32_fixed_arrayIfLm3EEEvRN4Base7TnarrayIT_XT0_EEERNS1_5LossyE)
                  00099faf    0000001c                   : Controllers_state_estimate.obj (.text:_ZN19Cyphal_common_types31deserialize_float32_fixed_arrayIfLm4EEEvRN4Base7TnarrayIT_XT0_EEERNS1_5LossyE)
                  00099fcb    0000001c     first.lib : Lossy.obj (.text:_ZN4Base5Lossy9get_bool1ERb)
                  00099fe7    0000001c     base.lib : Stepmgr.obj (.text:_ZN4Base7Stepmgr5Step0C1Ev)
                  0009a003    0000001c              : Xcfilecli.obj (.text:_ZN4Base8XcbufferILm512EE6Reader5startEv)
                  0009a01f    0000001c              : Errors_single.obj (.text:_ZN4Base9Fifospsc0IVKjNS_10SPSCtraits12Internal_refENS2_8ExternalEE4readIjNS_8Cptraits8OperatorIS1_jEEEEbRT_)
                  0009a03b    0000001c     pa_blocks.lib : DComms_cfg.obj (.text:_ZN4Base9Tuntraits15Arraytun_nosizeINS0_4CxetIN9Pa_blocks10DComms_cfg7Reg_cfgEEENS_11TnarrayreszIS5_Lm30EEENS0_8No_checkIS8_EEE8elem2strERKS8_RNS_5LossyE)
                  0009a057    0000001c                   : DComms_cfg.obj (.text:_ZN4Base9Tuntraits15Arraytun_nosizeINS0_4CxetIN9Pa_blocks10DComms_cfg7Reg_cfgEEENS_11TnarrayreszIS5_Lm30EEENS0_8No_checkIS8_EEE8str2elemERS8_RNS_11Lossy_errorE)
                  0009a073    0000001c     DSP2838x_ent.lib : CAN_FD_cfg.obj (.text:_ZN4Base9Tuntraits15Arraytun_nosizeINS0_9Cset_onlyIN12Dsp28335_ent6CANcfg5RxcfgEEENS_11TnarrayreszIS5_Lm32EEENS0_8No_checkIS8_EEE8str2elemERS8_RNS_11Lossy_errorE)
                  0009a08f    0000001c     veronte.lib : Hxcfield_cpu2.obj (.text:_ZN4Base9Tuntraits15Arraytun_nosizeINS0_9Cset_onlyINS_8Fmsg_cfgEEENS_11TnarrayreszIS3_Lm32EEENS0_8No_checkIS6_EEE8str2elemERS6_RNS_11Lossy_errorE)
                  0009a0ab    0000001c     first.lib : U8istream.obj (.text:_ZN4Base9U8istream14get_u8pkmblockERNS_10U8pkmblockE)
                  0009a0c7    0000001c     media.lib : Cfgmgr.obj (.text:_ZN5Media6Cfgmgr8save_reqEN4Base3Cfg2IdE)
                  0009a0e3    0000001c     vpgnc.lib : Opmgr.obj (.text:_ZN5Vpgnc5OpmgrC1ERKN4Base9ChecklistE)
                  0009a0ff    0000001c     maverick.lib : Irquat.obj (.text:_ZN8Maverick6Irquat8quatthisERKS0_)
                  0009a11b    0000001c     veronte.lib : Tunsuite_pa.obj (.text:_ZNK12Dsp28335_ent8TGPIOtunINS_9GPIOmux16EE8is_validEv)
                  0009a137    0000001b     first.lib : U8pkmblock.obj (.text:_ZN4Base10U8pkmblock5writeEmRKNS_12U8pkmblock_kEmm)
                  0009a152    0000001b     vpgnc.lib : Vpu.obj (.text:_ZN4Base6Cmdvar3VarC1Ev)
                  0009a16d    0000001b     base.lib : Msg_data.obj (.text:_ZN4Base8Msg_dataC1ENS_7AddressENS_15Stanag_msg_type8Msg_typeEjb)
                  0009a188    0000001b     first.lib : PDIcheck.obj (.text:_ZN4Base8PDIcheck7append0ERKNS_5ErrorE)
                  0009a1a3    0000001b     media.lib : Cfgcrc_async.obj (.text:_ZN5Media12Cfgcrc_async4initEN4Base4Sync7TypecrcEPm)
                  0009a1be    0000001b     maverick.lib : Irquat.obj (.text:_ZN8Maverick6Irquat8thisquatERKS0_)
                  0009a1d9    0000001b     pa_blocks.lib : Measurements.obj (.text:_ZN9Pa_blocks12Measurements14Uplink_heading4csetERN4Base9U8istreamE)
                  0009a1f4    0000001b     geomodel.lib : Fmemcmd.obj (.text:_ZNK3Geo7Fmemcmd4cgetERN4Base5LossyE)
                  0009a20f    0000001b     base.lib : Tllhcompressed.obj (.text:_ZNK4Base14Tllhcompressed4cgetERNS_5LossyE)
                  0009a22a    0000001b              : Fref.obj (.text:_ZNK4Base4Fref4cgetERNS_5LossyE)
                  0009a245    0000001b     veronte.lib : Copystep.obj (.text:_ZNVK4Base3VarINS_4BvarEE8RegarrayILS1_102ELS1_105EE13get_xcd_blockILS1_102ELS1_105EEENS_6MblockIVKbEEv)
                  0009a260    0000001b                 : Copystep.obj (.text:_ZNVK4Base3VarINS_4BvarEE8RegarrayILS1_108ELS1_109EE13get_xcd_blockILS1_108ELS1_109EEENS_6MblockIVKbEEv)
                  0009a27b    0000001b                 : Copystep.obj (.text:_ZNVK4Base3VarINS_4BvarEE8RegarrayILS1_111ELS1_113EE13get_xcd_blockILS1_111ELS1_113EEENS_6MblockIVKbEEv)
                  0009a296    0000001b                 : Copystep.obj (.text:_ZNVK4Base3VarINS_4BvarEE8RegarrayILS1_1183ELS1_1189EE13get_xcd_blockILS1_1183ELS1_1189EEENS_6MblockIVKbEEv)
                  0009a2b1    0000001b                 : Copystep.obj (.text:_ZNVK4Base3VarINS_4BvarEE8RegarrayILS1_120ELS1_123EE13get_xcd_blockILS1_120ELS1_123EEENS_6MblockIVKbEEv)
                  0009a2cc    0000001b                 : Copystep.obj (.text:_ZNVK4Base3VarINS_4BvarEE8RegarrayILS1_14ELS1_15EE13get_xcd_blockILS1_14ELS1_15EEENS_6MblockIVKbEEv)
                  0009a2e7    0000001b                 : Copystep.obj (.text:_ZNVK4Base3VarINS_4BvarEE8RegarrayILS1_170ELS1_177EE13get_xcd_blockILS1_170ELS1_177EEENS_6MblockIVKbEEv)
                  0009a302    0000001b                 : Copystep.obj (.text:_ZNVK4Base3VarINS_4BvarEE8RegarrayILS1_178ELS1_179EE13get_xcd_blockILS1_178ELS1_179EEENS_6MblockIVKbEEv)
                  0009a31d    0000001b                 : Copystep.obj (.text:_ZNVK4Base3VarINS_4BvarEE8RegarrayILS1_190ELS1_191EE13get_xcd_blockILS1_190ELS1_191EEENS_6MblockIVKbEEv)
                  0009a338    0000001b                 : Copystep.obj (.text:_ZNVK4Base3VarINS_4BvarEE8RegarrayILS1_200ELS1_207EE13get_xcd_blockILS1_200ELS1_207EEENS_6MblockIVKbEEv)
                  0009a353    0000001b                 : Copystep.obj (.text:_ZNVK4Base3VarINS_4BvarEE8RegarrayILS1_210ELS1_211EE13get_xcd_blockILS1_210ELS1_211EEENS_6MblockIVKbEEv)
                  0009a36e    0000001b                 : Copystep.obj (.text:_ZNVK4Base3VarINS_4BvarEE8RegarrayILS1_300ELS1_307EE13get_xcd_blockILS1_300ELS1_307EEENS_6MblockIVKbEEv)
                  0009a389    0000001b                 : Copystep.obj (.text:_ZNVK4Base3VarINS_4BvarEE8RegarrayILS1_400ELS1_403EE13get_xcd_blockILS1_400ELS1_403EEENS_6MblockIVKbEEv)
                  0009a3a4    0000001b                 : Copystep.obj (.text:_ZNVK4Base3VarINS_4BvarEE8RegarrayILS1_48ELS1_93EE13get_xcd_blockILS1_48ELS1_93EEENS_6MblockIVKbEEv)
                  0009a3bf    0000001b                 : Copystep.obj (.text:_ZNVK4Base3VarINS_4BvarEE8RegarrayILS1_550ELS1_569EE13get_xcd_blockILS1_550ELS1_569EEENS_6MblockIVKbEEv)
                  0009a3da    0000001b                 : Copystep.obj (.text:_ZNVK4Base3VarINS_4BvarEE8RegarrayILS1_96ELS1_99EE13get_xcd_blockILS1_96ELS1_99EEENS_6MblockIVKbEEv)
                  0009a3f5    0000001b                 : Copystep.obj (.text:_ZNVK4Base3VarINS_4RvarEE8RegarrayILS1_1450ELS1_1453EE13get_xcd_blockILS1_1450ELS1_1453EEENS_6MblockIVKfEEv)
                  0009a410    0000001b                 : Copystep.obj (.text:_ZNVK4Base3VarINS_4RvarEE8RegarrayILS1_1483ELS1_1497EE13get_xcd_blockILS1_1483ELS1_1497EEENS_6MblockIVKfEEv)
                  0009a42b    0000001b                 : Copystep.obj (.text:_ZNVK4Base3VarINS_4RvarEE8RegarrayILS1_1500ELS1_1531EE13get_xcd_blockILS1_1500ELS1_1531EEENS_6MblockIVKfEEv)
                  0009a446    0000001b                 : Copystep.obj (.text:_ZNVK4Base3VarINS_4RvarEE8RegarrayILS1_1600ELS1_1631EE13get_xcd_blockILS1_1600ELS1_1631EEENS_6MblockIVKfEEv)
                  0009a461    0000001b                 : Copystep.obj (.text:_ZNVK4Base3VarINS_4RvarEE8RegarrayILS1_1750ELS1_1769EE13get_xcd_blockILS1_1750ELS1_1769EEENS_6MblockIVKfEEv)
                  0009a47c    0000001b                 : Copystep.obj (.text:_ZNVK4Base3VarINS_4RvarEE8RegarrayILS1_2000ELS1_2005EE13get_xcd_blockILS1_2000ELS1_2005EEENS_6MblockIVKfEEv)
                  0009a497    0000001b                 : Copystep.obj (.text:_ZNVK4Base3VarINS_4RvarEE8RegarrayILS1_2040ELS1_2057EE13get_xcd_blockILS1_2040ELS1_2057EEENS_6MblockIVKfEEv)
                  0009a4b2    0000001b                 : Copystep.obj (.text:_ZNVK4Base3VarINS_4RvarEE8RegarrayILS1_2904ELS1_2907EE13get_xcd_blockILS1_2904ELS1_2907EEENS_6MblockIVKfEEv)
                  0009a4cd    0000001b                 : Copystep.obj (.text:_ZNVK4Base3VarINS_4RvarEE8RegarrayILS1_322ELS1_439EE13get_xcd_blockILS1_322ELS1_439EEENS_6MblockIVKfEEv)
                  0009a4e8    0000001b                 : Copystep.obj (.text:_ZNVK4Base3VarINS_4RvarEE8RegarrayILS1_42ELS1_55EE13get_xcd_blockILS1_42ELS1_55EEENS_6MblockIVKfEEv)
                  0009a503    0000001b                 : Copystep.obj (.text:_ZNVK4Base3VarINS_4RvarEE8RegarrayILS1_59ELS1_68EE13get_xcd_blockILS1_59ELS1_68EEENS_6MblockIVKfEEv)
                  0009a51e    0000001b                 : Copystep.obj (.text:_ZNVK4Base3VarINS_4RvarEE8RegarrayILS1_700ELS1_705EE13get_xcd_blockILS1_700ELS1_705EEENS_6MblockIVKfEEv)
                  0009a539    0000001b                 : Copystep.obj (.text:_ZNVK4Base3VarINS_4RvarEE8RegarrayILS1_90ELS1_93EE13get_xcd_blockILS1_90ELS1_93EEENS_6MblockIVKfEEv)
                  0009a554    0000001b                 : Copystep.obj (.text:_ZNVK4Base3VarINS_4UvarEE8RegarrayILS1_100ELS1_116EE13get_xcd_blockILS1_100ELS1_116EEENS_6MblockIVKjEEv)
                  0009a56f    0000001b                 : Copystep.obj (.text:_ZNVK4Base3VarINS_4UvarEE8RegarrayILS1_150ELS1_166EE13get_xcd_blockILS1_150ELS1_166EEENS_6MblockIVKjEEv)
                  0009a58a    0000001b                 : Copystep.obj (.text:_ZNVK4Base3VarINS_4UvarEE8RegarrayILS1_2ELS1_18EE13get_xcd_blockILS1_2ELS1_18EEENS_6MblockIVKjEEv)
                  0009a5a5    0000001b                 : Copystep.obj (.text:_ZNVK4Base3VarINS_4UvarEE8RegarrayILS1_396ELS1_400EE13get_xcd_blockILS1_396ELS1_400EEENS_6MblockIVKjEEv)
                  0009a5c0    0000001b                 : Copystep.obj (.text:_ZNVK4Base3VarINS_4UvarEE8RegarrayILS1_447ELS1_453EE13get_xcd_blockILS1_447ELS1_453EEENS_6MblockIVKjEEv)
                  0009a5db    0000001b                 : Copystep.obj (.text:_ZNVK4Base3VarINS_4UvarEE8RegarrayILS1_460ELS1_465EE13get_xcd_blockILS1_460ELS1_465EEENS_6MblockIVKjEEv)
                  0009a5f6    0000001b                 : Copystep.obj (.text:_ZNVK4Base3VarINS_4UvarEE8RegarrayILS1_480ELS1_485EE13get_xcd_blockILS1_480ELS1_485EEENS_6MblockIVKjEEv)
                  0009a611    0000001b                 : Copystep.obj (.text:_ZNVK4Base3VarINS_4UvarEE8RegarrayILS1_500ELS1_519EE13get_xcd_blockILS1_500ELS1_519EEENS_6MblockIVKjEEv)
                  0009a62c    0000001b     base.lib : CRCmav.obj (.text:__sti___10_CRCmav_cpp_cf8d057a)
                  0009a647    0000001a     DSP2837x_ent.lib : Piectrl.obj (.text:_ZN12Dsp28335_ent7Piectrl4initEv)
                  0009a661    0000001a     veronte.lib : Tunsuite_pa.obj (.text:_ZN3Ver8Tunsuite12add_tunablesERN5Media6CfgmgrE)
                  0009a67b    0000001a     vpgnc.lib : Vpu.obj (.text:_ZN4Base10LinkedlistIRKNS_6IcheckEE14build_add_elemIS1_EEbRNS_9AllocatorERKT_)
                  0009a695    0000001a     base.lib : Xcomstats0.obj (.text:_ZN4Base10Xcomstats04csetERNS_5LossyE)
                  0009a6af    0000001a              : Vref_wr_tun.obj (.text:_ZN4Base11Vref_wr_tun14check_writableEv)
                  0009a6c9    0000001a              : CRC32.obj (.text:_ZN4Base5CRC326updateERKNS_12U8pkmblock_kE)
                  0009a6e3    0000001a              : Xcfile.obj (.text:_ZN4Base6Xcfile11close_asyncEv)
                  0009a6fd    0000001a              : Msg_data.obj (.text:_ZN4Base8Msg_dataC1ENS_7AddressENS_15Stanag_msg_type8Msg_typeEjNS_10StimestampENS0_8Ack_typeEb)
                  0009a717    0000001a              : Msg_data.obj (.text:_ZN4Base8Msg_dataC1Ev)
                  0009a731    0000001a     midlevel.lib : Irxfw.obj (.text:_ZN4Base9Fifospsc0INS_8Msg_dataENS_10SPSCtraits8InternalES3_E4readIS1_NS_8Cptraits8OperatorIS1_S1_EEEEbRT_)
                  0009a74b    0000001a     first.lib : PDIcheck.obj (.text:_ZN4Base9Fifospsc0IVjNS_10SPSCtraits8ExternalENS2_12Internal_refEE5writeIS1_NS_8Cptraits8OperatorIS1_S1_EEEEbNS_12JSF116_paramIT_E4typeE)
                  0009a765    0000001a     Blockfactory_par.obj (.text:_ZN4Base9StlvectorIN9Pa_blocks22Cy_maint_action_consts13Command_typesEE9push_backERKS3_)
                  0009a77f    0000001a     stanag.lib : Stanag_msg_cfgs.obj (.text:_ZN4Base9StlvectorINS_15Stanag_msg_type8Msg_typeEE9push_backERKS2_)
                  0009a799    0000001a     media.lib : Cfgmgr.obj (.text:_ZN4Base9StlvectorINS_3Cfg2IdEE9push_backERKS2_)
                  0009a7b3    0000001a     veronte.lib : Tunsuite_pa.obj (.text:_ZN4Base9Tuntraits15Arraytun_nosizeINS0_15Arraytun_size16INS0_7Lossy16INS_4BvarEEENS_11TnarrayreszIS4_Lm20EEENS0_8No_checkIS7_EEEENS_7TnarrayIS7_Lm3EEENS8_ISC_EEE8str2elemERSC_RNS_11Lossy_errorE)
                  0009a7cd    0000001a                 : Hxcfield_cpu2.obj (.text:_ZN4Base9Tuntraits15Arraytun_nosizeINS0_4CxetIKNS_5FieldEEENS_6MblockIS4_EENS0_8No_checkIS7_EEE8elem2strERKS7_RNS_5LossyE)
                  0009a7e7    0000001a     first.lib : U8istream.obj (.text:_ZN4Base9U8istream13get_uint64_leEj)
                  0009a801    0000001a     vpgnc.lib : Vlimits.obj (.text:_ZN5Vpgnc7VlimitsC1EmN4Base6Memmgr4TypeE)
                  0009a81b    0000001a     base.lib : Cyphal.obj (.text:_ZN6Cyphal10Cyphal_msg7set_lenEj)
                  0009a835    0000001a     pa_blocks.lib : Measurements.obj (.text:_ZN9Pa_blocks12Measurements5LidarC1Ev)
                  0009a84f    0000001a                   : State_history.obj (.text:_ZN9Pa_blocks13State_historyC1ENS_8Nav_type4TypeE)
                  0009a869    0000001a                   : Vsdk_params.obj (.text:_ZN9Pa_blocks16Vsdk_gnss_params4csetERN4Base11Lossy_errorE)
                  0009a883    0000001a     base.lib : Fsniffer.obj (.text:_ZNK4Base10Vmap_entry13user_writableEv)
                  0009a89d    0000001a              : Xcfile.obj (.text:_ZNK4Base6Xcfile14get_free_spaceEv)
                  0009a8b7    0000001a              : Cfgsync.obj (.text:_ZNK4Base7Cfgsync8get_fcrcENS_3Cfg2IdE)
                  0009a8d1    0000001a              : Xclkcfg.obj (.text:_ZNK4Base7Xclkcfg11cget_periodERNS_5LossyE)
                  0009a8eb    0000001a     pa_blocks.lib : Site_config.obj (.text:_ZNK9Pa_blocks11Site_config6Getter15fill_res_paramsERNS_22Cy_maint_action_consts12Result_codesERNS2_13Payload_typesERN4Base12U8pkrszarrayILm256EEE)
                  0009a905    0000001a     first.lib : PDIcheck.obj (.text:__sti___12_PDIcheck_cpp_0090a2f4)
                  0009a91f    00000019     vpgnc.lib : CAN_cfg_maint_astro.obj (.text:_ZN12Dsp28335_ent8PwmsuiteINS_6PwmdevELj16EE3getEj)
                  0009a938    00000019     DSP28x.lib : Stackchk.obj (.text:_ZN12Dsp28335_ent8StackchkC1Ev)
                  0009a951    00000019     veronte.lib : Static_cfg.obj (.text:_ZN3Ver10Static_cfg4stepEv)
                  0009a96a    00000019     base.lib : Xcfilecli.obj (.text:_ZN4Base12U8pkmblock_kC1ERKS0_m)
                  0009a983    00000019              : Int_decimator.obj (.text:_ZN4Base13Int_decimator14set_decimationEff)
                  0009a99c    00000019              : Uclk.obj (.text:_ZN4Base4Uclk4stepEv)
                  0009a9b5    00000019     pa_blocks.lib : Estimator.obj (.text:_ZN4Base5ArrayIN9Pa_blocks14Moving_averageEEC1IjEEmNS_6Memmgr4TypeET_)
                  0009a9ce    00000019     vpgnc.lib : Vpu.obj (.text:_ZN4Base5ArrayINS_4BvarEE6appendIVKS1_EEvRKNS_6MblockIT_EE)
                  0009a9e7    00000019     first.lib : Lossy.obj (.text:_ZN4Base5Lossy10get_float9EPf)
                  0009aa00    00000019               : Lossy.obj (.text:_ZN4Base5Lossy5bits4Ey)
                  0009aa19    00000019               : Lossy.obj (.text:_ZN4Base5Lossy9get_floatERf)
                  0009aa32    00000019               : Lossy.obj (.text:_ZN4Base5Lossy9get_uint8ERh)
                  0009aa4b    00000019               : Lossy.obj (.text:_ZN4Base5LossyC1ENS_6MblockIjEE)
                  0009aa64    00000019     base.lib : Uclkmgr.obj (.text:_ZN4Base7UclkmgrC1Ev)
                  0009aa7d    00000019     vpgnc.lib : Rvar_op_commit.obj (.text:_ZN4Base8TwraptunINS_9Tuntraits11Lossy_floatEfEC1Ev)
                  0009aa96    00000019     base.lib : Xcfilecli.obj (.text:_ZN4Base8XcbufferILm512EE6Writer5startEv)
                  0009aaaf    00000019     midlevel.lib : Irxfw.obj (.text:_ZN4Base9Fifospsc0INS_8Msg_dataENS_10SPSCtraits8InternalES3_E5writeIS1_NS_8Cptraits8OperatorIS1_S1_EEEEbNS_12JSF116_paramIT_E4typeE)
                  0009aac8    00000019     veronte.lib : Tunsuite_pa.obj (.text:_ZN4Base9Tuntraits15Arraytun_nosizeINS0_10TundefaultIhEENS_11TnarrayreszIhLm20EEENS0_8No_checkIS5_EEE8str2elemERS5_RNS_11Lossy_errorE)
                  0009aae1    00000019     pa_blocks.lib : DComms_cfg.obj (.text:_ZN4Base9Tuntraits15Arraytun_nosizeINS0_6Lossy8IcEENS_11TnarrayreszIcLm17EEENS0_8No_checkIS5_EEE8elem2strERKS5_RNS_5LossyE)
                  0009aafa    00000019                   : DComms_cfg.obj (.text:_ZN4Base9Tuntraits15Arraytun_nosizeINS0_6Lossy8IcEENS_11TnarrayreszIcLm17EEENS0_8No_checkIS5_EEE8str2elemERS5_RNS_11Lossy_errorE)
                  0009ab13    00000019     media.lib : Cfgmgr.obj (.text:_ZN5Media6Cfgmgr10step_closeEv)
                  0009ab2c    00000019     vpgnc.lib : Ftsactcmd.obj (.text:_ZN5Vpgnc9FtsactcmdC1Ev)
                  0009ab45    00000019     midlevel.lib : Cy_msg_id_gen.obj (.text:_ZN6Cyphal13Cy_msg_id_genC1ERVKyPVy)
                  0009ab5e    00000019     stanag.lib : U8istream_pvec.obj (.text:_ZN6Stanag14U8istream_pvec17get_avail_and_incEv)
                  0009ab77    00000019                : Fstgcfg.obj (.text:_ZN6Stanag7Fstgcfg4csetERN4Base11Lossy_errorE)
                  0009ab90    00000019     maverick.lib : Irquat.obj (.text:_ZN8Maverick6Irquat9conjugateEv)
                  0009aba9    00000019                  : Irvector3.obj (.text:_ZN8Maverick9Irvector37signinvEv)
                  0009abc2    00000019     midlevel.lib : Sys_status_mgr.obj (.text:_ZN8Midlevel14Sys_status_mgr5on_txERN6Stanag14IStanag_msg_tx9Tx_paramsE)
                  0009abdb    00000019     vpgnc.lib : Vpu.obj (.text:_ZN8Midlevel17Routing_table_cmdIN4Base18Routing_table_dataILj2ELj16EEEE4csetERNS1_11Lossy_errorE)
                  0009abf4    00000019     pa_blocks.lib : Knobs.obj (.text:_ZN9Pa_blocks5Knobs13get_instance0Ev)
                  0009ac0d    00000019                   : Heading.obj (.text:_ZN9Pa_blocks7Heading12get_instanceEv)
                  0009ac26    00000019     stanag.lib : Stanag_msg_cfgs.obj (.text:_ZNK4Base5ArrayINS_15Stanag_msg_type8Msg_typeEE12get_index_ofERKS2_)
                  0009ac3f    00000019     devices.lib : Adis165053_cfg.obj (.text:__sti___18_Adis165053_cfg_cpp_fffef51a)
                  0009ac58    00000019     rts2800_fpu64_eabi.lib : boot28.asm.obj (.text)
                  0009ac71    00000019                            : s_fabs.c.obj (.text)
                  0009ac8a    00000018     base.lib : Cyphal_common_types.obj (.text:_ZN19Cyphal_common_types14get_array_sizeEmRN4Base9U8istreamE)
                  0009aca2    00000018     veronte.lib : Ext_nav_cfg.obj (.text:_ZN4Base12Tun_optionalIjNS_9Tuntraits10TundefaultIjEEE8str2elemERNS_8OptionalIjEERNS_11Lossy_errorE)
                  0009acba    00000018                 : Hvar_cpu2.obj (.text:_ZN4Base3JidINS_8FidtraitEE10get_gsizesEv)
                  0009acd2    00000018     Blockfactory_par.obj (.text:_ZN4Base3MapIN9Pa_blocks22Cy_maint_action_consts13Command_typesEPNS2_13Imaint_actionEE9push_backERKS3_RKS5_)
                  0009acea    00000018     stanag.lib : Stanag_msg_cfgs.obj (.text:_ZN4Base3MapINS_15Stanag_msg_type8Msg_typeEPN6Stanag14IStanag_msg_txEE9push_backERKS2_RKS5_)
                  0009ad02    00000018     midlevel.lib : Irxfw.obj (.text:_ZN4Base3MapINS_15Stanag_msg_type8Msg_typeEPN6Stanag14IStanag_rx_hdlEE9push_backERKS2_RKS5_)
                  0009ad1a    00000018     media.lib : Cfgmgr.obj (.text:_ZN4Base3MapINS_3Cfg2IdEPNS_14Itunable_asyncEE9push_backERKS2_RKS4_)
                  0009ad32    00000018               : Cfgmgr.obj (.text:_ZN4Base3MapINS_3Cfg2IdEPNS_21Ideserializable_asyncEE9push_backERKS2_RKS4_)
                  0009ad4a    00000018     base.lib : Ftelemetryod.obj (.text:_ZN4Base40_GLOBAL__N__16_Ftelemetryod_cpp_895d352011get_tcrc_mbEv)
                  0009ad62    00000018     veronte.lib : Pwm_suite.obj (.text:_ZN4Base5ArrayIN12Dsp28335_ent8PwmsuiteINS1_6PwmdevELj16EE6ConfigEEC1EmNS_6Memmgr4TypeE)
                  0009ad7a    00000018     vpgnc.lib : Opmgr.obj (.text:_ZN4Base5ArrayIN5Vpgnc14Rvar_op_commit7RoptypeEEC1EmNS_6Memmgr4TypeE)
                  0009ad92    00000018               : Evtmgr.obj (.text:_ZN4Base5ArrayIN5Vpgnc5EventEEC1EmNS_6Memmgr4TypeE)
                  0009adaa    00000018     pa_blocks.lib : State_history.obj (.text:_ZN4Base5ArrayIN9Pa_blocks11Delta_stateEEC1EmNS_6Memmgr4TypeE)
                  0009adc2    00000018                   : State_history.obj (.text:_ZN4Base5ArrayIN9Pa_blocks5StateEEC1EmNS_6Memmgr4TypeE)
                  0009adda    00000018     vpgnc.lib : Evt_wp_groups.obj (.text:_ZN4Base5ArrayINS_4TdesINS_11TnarrayreszIjLm8EEENS_9Tuntraits10TundefaultIS3_EEEEEC1EmNS_6Memmgr4TypeE)
                  0009adf2    00000018     media.lib : Fstrfast.obj (.text:_ZN4Base5ArrayINS_5FieldEEC1EmNS_6Memmgr4TypeE)
                  0009ae0a    00000018     vpgnc.lib : Vlimits.obj (.text:_ZN4Base5ArrayINS_5LimitEEC1EmNS_6Memmgr4TypeE)
                  0009ae22    00000018     base.lib : Stepmgr.obj (.text:_ZN4Base5ArrayINS_7Stepmgr5Step0EEC1EmNS_6Memmgr4TypeE)
                  0009ae3a    00000018     first.lib : Error.obj (.text:_ZN4Base5Error5assrtEbNS_8ErrorsrcE)
                  0009ae52    00000018               : Lossy.obj (.text:_ZN4Base5Lossy10get_float4EPf)
                  0009ae6a    00000018     base.lib : Xcfile.obj (.text:_ZN4Base6Xcfile10read_asyncERNS_10U8pkmblockERm)
                  0009ae82    00000018              : Xcfile.obj (.text:_ZN4Base6Xcfile11write_asyncERKNS_12U8pkmblock_kERm)
                  0009ae9a    00000018              : Hashers.obj (.text:_ZN4Base7Hashers11Hash_uint169hash_funcEj)
                  0009aeb2    00000018     veronte.lib : Tunsuite_pa.obj (.text:_ZN4Base8TwrapdesINS_9Tuntraits9Wsync_desINS_6TdsyncIN12Dsp28335_ent10CAN_FD_cfgENS_12Tdsynctraits11Rd_blockingIS5_NS_8Cptraits6PodrawIVS5_EEEENS6_15Disabled_structEEENS1_10DesdefaultIS5_EEEERSE_E4csetERNS_11Lossy_errorE)
                  0009aeca    00000018                 : Tunsuite_pa.obj (.text:_ZN4Base8TwrapdesINS_9Tuntraits9Wsync_desINS_6TdsyncIN12Dsp28335_ent6CANcfgENS_12Tdsynctraits11Rd_blockingIS5_NS_8Cptraits6PodrawIVS5_EEEENS6_15Disabled_structEEENS1_10DesdefaultIS5_EEEERSE_E4csetERNS_11Lossy_errorE)
                  0009aee2    00000018                 : Tunsuite_pa.obj (.text:_ZN4Base8TwrapdesINS_9Tuntraits9Wsync_desINS_6TdsyncIN12Dsp28335_ent6SCIcfgENS_12Tdsynctraits11Rd_blockingIS5_NS_8Cptraits6PodrawIVS5_EEEENS6_15Disabled_structEEENS1_10DesdefaultIS5_EEEERSE_E4csetERNS_11Lossy_errorE)
                  0009aefa    00000018                 : Tunsuite_pa.obj (.text:_ZN4Base8TwrapdesINS_9Tuntraits9Wsync_desINS_6TdsyncIN3Ver11Ext_nav_cfgENS_12Tdsynctraits11Rd_blockingIS5_NS_8Cptraits6PodrawIVS5_EEEENS6_15Disabled_structEEENS1_10DesdefaultIS5_EEEERSE_E4csetERNS_11Lossy_errorE)
                  0009af12    00000018                 : Tunsuite_pa.obj (.text:_ZN4Base8TwrapdesINS_9Tuntraits9Wsync_desINS_6TdsyncIN3Ver9Xfreqmgr0ENS_12Tdsynctraits11Rd_blockingIS5_NS_8Cptraits6PodrawIVS5_EEEENS6_15Disabled_structEEENS1_10DesdefaultIS5_EEEERSE_E4csetERNS_11Lossy_errorE)
                  0009af2a    00000018                 : Tunsuite_pa.obj (.text:_ZN4Base8TwrapdesINS_9Tuntraits9Wsync_desINS_6TdsyncIN6Stanag22Vehicle_identifier_cfgENS_12Tdsynctraits11Rd_blockingIS5_NS_8Cptraits6PodrawIVS5_EEEENS6_15Disabled_structEEENS1_10DesdefaultIS5_EEEERSE_E4csetERNS_11Lossy_errorE)
                  0009af42    00000018                 : Tunsuite_pa.obj (.text:_ZN4Base8TwrapdesINS_9Tuntraits9Wsync_desINS_6TdsyncIN7Devices14Adis165053_cfgENS_12Tdsynctraits11Rd_blockingIS5_NS_8Cptraits6PodrawIVS5_EEEENS6_15Disabled_structEEENS1_10DesdefaultIS5_EEEERSE_E4csetERNS_11Lossy_errorE)
                  0009af5a    00000018                 : Tunsuite_pa.obj (.text:_ZN4Base8TwrapdesINS_9Tuntraits9Wsync_desINS_6TdsyncIN7Devices14Dev_common_cfgENS_12Tdsynctraits11Rd_blockingIS5_NS_8Cptraits6PodrawIVS5_EEEENS6_15Disabled_structEEENS1_10DesdefaultIS5_EEEERSE_E4csetERNS_11Lossy_errorE)
                  0009af72    00000018                 : Tunsuite_pa.obj (.text:_ZN4Base8TwrapdesINS_9Tuntraits9Wsync_desINS_6TdsyncIN7Devices3Ubx10UbxcfgdataENS_12Tdsynctraits11Rd_blockingIS6_NS_8Cptraits6PodrawIVS6_EEEENS7_15Disabled_structEEENS1_10DesdefaultIS6_EEEERSF_E4csetERNS_11Lossy_errorE)
                  0009af8a    00000018                 : Tunsuite_pa.obj (.text:_ZN4Base8TwrapdesINS_9Tuntraits9Wsync_desINS_6TdsyncIN8Maverick13Notch_lpf_cfgENS_12Tdsynctraits11Rd_blockingIS5_NS_8Cptraits6PodrawIVS5_EEEENS6_15Disabled_structEEENS1_10DesdefaultIS5_EEEERSE_E4csetERNS_11Lossy_errorE)
                  0009afa2    00000018                 : Tunsuite_pa.obj (.text:_ZN4Base8TwrapdesINS_9Tuntraits9Wsync_desINS_6TdsyncINS_10Xcomstats0ENS_12Tdsynctraits11Rd_blockingIS4_NS_8Cptraits6PodrawIVS4_EEEENS5_15Disabled_structEEENS1_10DesdefaultIS4_EEEERSD_E4csetERNS_11Lossy_errorE)
                  0009afba    00000018                 : Tunsuite_pa.obj (.text:_ZN4Base8TwrapdesINS_9Tuntraits9Wsync_desINS_6TdsyncINS_11CANin_suiteILj6EEENS_12Tdsynctraits11Rd_blockingIS5_NS_8Cptraits6PodrawIVS5_EEEENS6_15Disabled_structEEENS1_10DesdefaultIS5_EEEERSE_E4csetERNS_11Lossy_errorE)
                  0009afd2    00000018                 : Tunsuite_pa.obj (.text:_ZN4Base8TwrapdesINS_9Tuntraits9Wsync_desINS_6TdsyncINS_11CANsc_suiteILj6EEENS_12Tdsynctraits11Rd_blockingIS5_NS_8Cptraits6PodrawIVS5_EEEENS6_15Disabled_structEEENS1_10DesdefaultIS5_EEEERSE_E4csetERNS_11Lossy_errorE)
                  0009afea    00000018                 : Hstick_cpu2.obj (.text:_ZN4Base8TwrapdesINS_9Tuntraits9Wsync_desINS_6TdsyncINS_11StickppmcfgENS_12Tdsynctraits11Rd_blockingIS4_NS_8Cptraits6PodrawIVS4_EEEENS5_15Disabled_structEEENS1_10DesdefaultIS4_EEEERSD_E4csetERNS_11Lossy_errorE)
                  0009b002    00000018                 : Hstick_cpu2.obj (.text:_ZN4Base8TwrapdesINS_9Tuntraits9Wsync_desINS_6TdsyncINS_11StickvarcfgENS_12Tdsynctraits11Rd_blockingIS4_NS_8Cptraits6PodrawIVS4_EEEENS5_15Disabled_structEEENS1_10DesdefaultIS4_EEEERSD_E4csetERNS_11Lossy_errorE)
                  0009b01a    00000018                 : Tunsuite_pa.obj (.text:_ZN4Base8TwrapdesINS_9Tuntraits9Wsync_desINS_6TdsyncINS_12CANout_suiteILj6EEENS_12Tdsynctraits11Rd_blockingIS5_NS_8Cptraits6PodrawIVS5_EEEENS6_15Disabled_structEEENS1_10DesdefaultIS5_EEEERSE_E4csetERNS_11Lossy_errorE)
                  0009b032    00000018                 : Tunsuite_pa.obj (.text:_ZN4Base8TwrapdesINS_9Tuntraits9Wsync_desINS_6TdsyncINS_13CANgpio_suiteILj2ELh55EEENS_12Tdsynctraits11Rd_blockingIS5_NS_8Cptraits6PodrawIVS5_EEEENS6_15Disabled_structEEENS1_10DesdefaultIS5_EEEERSE_E4csetERNS_11Lossy_errorE)
                  0009b04a    00000018                 : Tunsuite_pa.obj (.text:_ZN4Base8TwrapdesINS_9Tuntraits9Wsync_desINS_6TdsyncINS_13Varsens1D_cfgENS_12Tdsynctraits11Rd_blockingIS4_NS_8Cptraits6PodrawIVS4_EEEENS5_15Disabled_structEEENS1_10DesdefaultIS4_EEEERSD_E4csetERNS_11Lossy_errorE)
                  0009b062    00000018                 : Tunsuite_pa.obj (.text:_ZN4Base8TwrapdesINS_9Tuntraits9Wsync_desINS_6TdsyncINS_13Varsens3D_cfgENS_12Tdsynctraits11Rd_blockingIS4_NS_8Cptraits6PodrawIVS4_EEEENS5_15Disabled_structEEENS1_10DesdefaultIS4_EEEERSD_E4csetERNS_11Lossy_errorE)
                  0009b07a    00000018                 : Tunsuite_pa.obj (.text:_ZN4Base8TwrapdesINS_9Tuntraits9Wsync_desINS_6TdsyncINS_5Xcal0ILj12EEENS_12Tdsynctraits11Rd_blockingIS5_NS_8Cptraits6PodrawIVS5_EEEENS6_15Disabled_structEEENS1_10DesdefaultIS5_EEEERSE_E4csetERNS_11Lossy_errorE)
                  0009b092    00000018                 : Tunsuite_pa.obj (.text:_ZN4Base8TwrapdesINS_9Tuntraits9Wsync_desINS_6TdsyncINS_5Xcal0ILj2EEENS_12Tdsynctraits11Rd_blockingIS5_NS_8Cptraits6PodrawIVS5_EEEENS6_15Disabled_structEEENS1_10DesdefaultIS5_EEEERSE_E4csetERNS_11Lossy_errorE)
                  0009b0aa    00000018                 : Tunsuite_pa.obj (.text:_ZN4Base8TwrapdesINS_9Tuntraits9Wsync_desINS_6TdsyncINS_7TnarrayIN12Dsp28335_ent8TGPIOtunINS5_9GPIOmux16EEELm20EEENS_12Tdsynctraits11Rd_blockingIS9_NS_8Cptraits6PodrawIVS9_EEEENSA_15Disabled_structEEENS1_15Arraytun_nosizeINS1_9Cset_onlyIS8_EES9_NS1_8No_checkIS9_EEEEEERSI_E4csetERNS_11Lossy_errorE)
                  0009b0c2    00000018                 : Tunsuite_pa.obj (.text:_ZN4Base8TwrapdesINS_9Tuntraits9Wsync_desINS_6TdsyncINS_7TnarrayINS_11TnarrayreszINS_4BvarELm20EEELm3EEENS_12Tdsynctraits11Rd_blockingIS8_NS_8Cptraits6PodrawIVS8_EEEENS9_15Disabled_structEEENS1_15Arraytun_nosizeINS1_15Arraytun_size16INS1_7Lossy16IS6_EES7_NS1_8No_checkIS7_EEEES8_NSM_IS8_EEEEEERSH_E4csetERNS_11Lossy_errorE)
                  0009b0da    00000018     first.lib : Bitmblock.obj (.text:_ZN4Base9Bitmblock4copyERKS0_)
                  0009b0f2    00000018     base.lib : Xcmqrd.obj (.text:_ZN4Base9Fifospsc0IVKjNS_10SPSCtraits8InternalENS2_8ExternalEE4readIjNS_8Cptraits8OperatorIS1_jEEEEbRT_)
                  0009b10a    00000018     vpgnc.lib : Vpu.obj (.text:_ZN5Vpgnc30_GLOBAL__N__7_Vpu_cpp_939b1fa514get_tm_entriesEv)
                  0009b122    00000018               : Opranges.obj (.text:_ZN5Vpgnc8OprangesC1ERKNS_5OpmgrE)
                  0009b13a    00000018     maverick.lib : Irvector3.obj (.text:_ZN8Maverick9Irvector38vecresxyERKS0_S2_)
                  0009b152    00000018     midlevel.lib : Sys_status_mgr.obj (.text:_ZN8Midlevel14Sys_status_mgr11send_statusEh)
                  0009b16a    00000018     Blockfactory_par.obj (.text:_ZN8Midlevel19Cyphal_cget_wrapper16get_cyphal_flagsEv)
                  0009b182    00000018     midlevel.lib : Sys_status_mgr.obj (.text:_ZN8Midlevel42_GLOBAL__N__18_Sys_status_mgr_cpp_2a0467ea15get_common_bitsEv)
                  0009b19a    00000018     pa_blocks.lib : Measurements.obj (.text:_ZN9Pa_blocks12Measurements16Time_sync_offsetC1Ev)
                  0009b1b2    00000018                   : Command_response.obj (.text:_ZN9Pa_blocks16Command_response10on_tx_implERN6Stanag14IStanag_msg_tx9Tx_paramsE)
                  0009b1ca    00000018                   : On_ground_inputs.obj (.text:_ZN9Pa_blocks16On_ground_inputsC1ERKN4Base5TtimeERKN8Maverick6IrquatERKNS5_9Irvector3ESB_RKfRKNS_27State_estimate_status_logic6StatusERKNS_5State10Nav_statusERKNS_21Controller_introspectE)
                  0009b1e2    00000018                   : Input_uplink_heading.obj (.text:_ZN9Pa_blocks20Input_uplink_headingC1ERKNS_12Measurements14Uplink_headingERNS_5StateERKb)
                  0009b1fa    00000018                   : Evasive_maneuver_status.obj (.text:_ZN9Pa_blocks23Evasive_maneuver_status4csetERN4Base5LossyE)
                  0009b212    00000018                   : Command_contingency_wrapper.obj (.text:_ZN9Pa_blocks31Command_contingency_wrapper_ser10on_tx_implERN6Stanag14IStanag_msg_tx9Tx_paramsE)
                  0009b22a    00000018     Blockfactory_par.obj (.text:_ZNK4Base5ArrayIN9Pa_blocks22Cy_maint_action_consts13Command_typesEE12get_index_ofERKS3_)
                  0009b242    00000018     media.lib : Cfgmgr.obj (.text:_ZNK4Base5ArrayINS_3Cfg2IdEE12get_index_ofERKS2_)
                  0009b25a    00000018     base.lib : Spkt.obj (.text:_ZNK4Base5Cksum9get_valueEv)
                  0009b272    00000018              : CRCmav.obj (.text:_ZNK4Base6CRCmav9get_valueEv)
                  0009b28a    00000018              : Tmvdat.obj (.text:_ZNK4Base6Tmvdat4cgetERNS_5LossyE)
                  0009b2a2    00000018              : Xcfile.obj (.text:_ZNK4Base6Xcfile7get_crcERm)
                  0009b2ba    00000018     rts2800_fpu64_eabi.lib : ll_aox28.asm.obj (.text)
                  0009b2d2    00000017     veronte.lib : Hvar_cpu2.obj (.text:_ZN3Bsp5Hrvar3setEf)
                  0009b2e9    00000017                 : Copystep.obj (.text:_ZN3Ver8Copystep4stepEv)
                  0009b300    00000017     base.lib : Async_transfer_data.obj (.text:_ZN4Base19Async_transfer_data4nextEv)
                  0009b317    00000017              : Message_received_hnd.obj (.text:_ZN4Base20Message_received_hnd6Parser5parseERNS_17U16stream_r_errorE)
                  0009b32e    00000017              : Herrors.obj (.text:_ZN4Base35_GLOBAL__N__11_Herrors_cpp_b86a41c413get_cpu2_buffEv)
                  0009b345    00000017     vpgnc.lib : Vpu.obj (.text:_ZN4Base5ArrayINS_5FieldEE6resizeEm)
                  0009b35c    00000017     first.lib : Lossy.obj (.text:_ZN4Base5Lossy10put_n_charERKNS_6MblockIKcEE)
                  0009b373    00000017               : Lossy.obj (.text:_ZN4Base5Lossy11get_n_floatERNS_6MblockIfEE)
                  0009b38a    00000017     veronte.lib : Tunsuite_pa.obj (.text:_ZN4Base9Tuntraits9Wsync_desINS_6TdsyncIN8Midlevel10Lights_cfgENS_12Tdsynctraits11Rd_blockingIS4_NS_8Cptraits6PodrawIVS4_EEEENS5_15Disabled_structEEENS0_10DesdefaultIS4_EEE8str2elemERSD_RNS_11Lossy_errorE)
                  0009b3a1    00000017     first.lib : U8ostream.obj (.text:_ZN4Base9U8ostream4seekEm)
                  0009b3b8    00000017     geomodel.lib : Gellipsoid.obj (.text:_ZN4Rfun11safe_divideIfEET_S1_S1_S1_)
                  0009b3cf    00000017     pa_blocks.lib : DComms_cfg.obj (.text:_ZN9Pa_blocks10DComms_cfg16update_reg_valueEjjRVN4Base11TnarrayreszINS0_7Reg_cfgELm30EEE)
                  0009b3e6    00000017                   : Site_config.obj (.text:_ZN9Pa_blocks11Site_config6Config28validate_and_convert_headingEv)
                  0009b3fd    00000017                   : Input_dyn_pressure.obj (.text:_ZN9Pa_blocks18Input_dyn_pressureC1ERKNS_12Measurements12Dyn_pressureES4_RNS_5StateE)
                  0009b414    00000017     base.lib : Field_real_dec_ASCII.obj (.text:_ZNK4Base20Field_real_dec_ASCII4cgetERNS_5LossyE)
                  0009b42b    00000017     pa_blocks.lib : DComms_cfg.obj (.text:_ZNK9Pa_blocks10DComms_cfg10Freq_entry4cgetERN4Base5LossyE)
                  0009b442    00000017                   : Command_response.obj (.text:_ZNK9Pa_blocks16Command_response4cgetERN4Base5LossyE)
                  0009b459    00000017                   : DComms_cfg.obj (.text:_ZNV9Pa_blocks10DComms_cfg10Freq_entry4csetERN4Base5LossyE)
                  0009b470    00000017     vpgnc.lib : Opranges.obj (.text:_ZNVK4Base8ArraymskIN5Vpgnc8Opranges3RngELj40EE10is_enabledEj)
                  0009b487    00000017     base.lib : Fsniffer.obj (.text:_ZNVK4Base8ArraymskINS_10Vmap_entryELj150EE10is_enabledEj)
                  0009b49e    00000017     pa_blocks.lib : DComms_cfg.obj (.text:_ZNVK9Pa_blocks10DComms_cfg10Freq_entry4cgetERN4Base5LossyE)
                  0009b4b5    00000016     FPU.lib : rnd_SP_RS.obj (.text)
                  0009b4cb    00000016     DSP2837x_ent.lib : GPIO.obj (.text:_ZN12Dsp28335_ent4GPIOC1ENS_6GPIOidE)
                  0009b4e1    00000016                      : Cpusys.obj (.text:_ZN12Dsp28335_ent6Cpusys14clk_enable_pwmEj)
                  0009b4f7    00000016     base.lib : Cyphal_common_types.obj (.text:_ZN19Cyphal_common_types14put_array_sizeEmRN4Base5LossyEm)
                  0009b50d    00000016     veronte.lib : Copystep.obj (.text:_ZN3Ver36_GLOBAL__N__12_Copystep_cpp_e59cf1d56HrangeIN3Bsp5HbvarEE11build_rangeIN4Base3VarINS6_4BvarEE8RegarrayILS8_1183ELS8_1189EEEEENS3_5RangeERVKT_)
                  0009b523    00000016                 : Copystep.obj (.text:_ZN3Ver36_GLOBAL__N__12_Copystep_cpp_e59cf1d56HrangeIN3Bsp5HbvarEE11build_rangeIN4Base3VarINS6_4BvarEE8RegarrayILS8_300ELS8_307EEEEENS3_5RangeERVKT_)
                  0009b539    00000016                 : Copystep.obj (.text:_ZN3Ver36_GLOBAL__N__12_Copystep_cpp_e59cf1d56HrangeIN3Bsp5HbvarEE11build_rangeIN4Base3VarINS6_4BvarEE8RegarrayILS8_400ELS8_403EEEEENS3_5RangeERVKT_)
                  0009b54f    00000016                 : Copystep.obj (.text:_ZN3Ver36_GLOBAL__N__12_Copystep_cpp_e59cf1d56HrangeIN3Bsp5HbvarEE11build_rangeIN4Base3VarINS6_4BvarEE8RegarrayILS8_550ELS8_569EEEEENS3_5RangeERVKT_)
                  0009b565    00000016                 : Copystep.obj (.text:_ZN3Ver36_GLOBAL__N__12_Copystep_cpp_e59cf1d56HrangeIN3Bsp5HrvarEE11build_rangeIN4Base3VarINS6_4RvarEE8RegarrayILS8_1450ELS8_1453EEEEENS3_5RangeERVKT_)
                  0009b57b    00000016                 : Copystep.obj (.text:_ZN3Ver36_GLOBAL__N__12_Copystep_cpp_e59cf1d56HrangeIN3Bsp5HrvarEE11build_rangeIN4Base3VarINS6_4RvarEE8RegarrayILS8_1483ELS8_1497EEEEENS3_5RangeERVKT_)
                  0009b591    00000016                 : Copystep.obj (.text:_ZN3Ver36_GLOBAL__N__12_Copystep_cpp_e59cf1d56HrangeIN3Bsp5HrvarEE11build_rangeIN4Base3VarINS6_4RvarEE8RegarrayILS8_1500ELS8_1531EEEEENS3_5RangeERVKT_)
                  0009b5a7    00000016                 : Copystep.obj (.text:_ZN3Ver36_GLOBAL__N__12_Copystep_cpp_e59cf1d56HrangeIN3Bsp5HrvarEE11build_rangeIN4Base3VarINS6_4RvarEE8RegarrayILS8_1600ELS8_1631EEEEENS3_5RangeERVKT_)
                  0009b5bd    00000016                 : Copystep.obj (.text:_ZN3Ver36_GLOBAL__N__12_Copystep_cpp_e59cf1d56HrangeIN3Bsp5HrvarEE11build_rangeIN4Base3VarINS6_4RvarEE8RegarrayILS8_1750ELS8_1769EEEEENS3_5RangeERVKT_)
                  0009b5d3    00000016                 : Copystep.obj (.text:_ZN3Ver36_GLOBAL__N__12_Copystep_cpp_e59cf1d56HrangeIN3Bsp5HrvarEE11build_rangeIN4Base3VarINS6_4RvarEE8RegarrayILS8_2000ELS8_2005EEEEENS3_5RangeERVKT_)
                  0009b5e9    00000016                 : Copystep.obj (.text:_ZN3Ver36_GLOBAL__N__12_Copystep_cpp_e59cf1d56HrangeIN3Bsp5HrvarEE11build_rangeIN4Base3VarINS6_4RvarEE8RegarrayILS8_2040ELS8_2057EEEEENS3_5RangeERVKT_)
                  0009b5ff    00000016                 : Copystep.obj (.text:_ZN3Ver36_GLOBAL__N__12_Copystep_cpp_e59cf1d56HrangeIN3Bsp5HrvarEE11build_rangeIN4Base3VarINS6_4RvarEE8RegarrayILS8_2904ELS8_2907EEEEENS3_5RangeERVKT_)
                  0009b615    00000016                 : Copystep.obj (.text:_ZN3Ver36_GLOBAL__N__12_Copystep_cpp_e59cf1d56HrangeIN3Bsp5HrvarEE11build_rangeIN4Base3VarINS6_4RvarEE8RegarrayILS8_322ELS8_439EEEEENS3_5RangeERVKT_)
                  0009b62b    00000016                 : Copystep.obj (.text:_ZN3Ver36_GLOBAL__N__12_Copystep_cpp_e59cf1d56HrangeIN3Bsp5HrvarEE11build_rangeIN4Base3VarINS6_4RvarEE8RegarrayILS8_700ELS8_705EEEEENS3_5RangeERVKT_)
                  0009b641    00000016                 : Copystep.obj (.text:_ZN3Ver36_GLOBAL__N__12_Copystep_cpp_e59cf1d56HrangeIN3Bsp5HuvarEE11build_rangeIN4Base3VarINS6_4UvarEE8RegarrayILS8_396ELS8_400EEEEENS3_5RangeERVKT_)
                  0009b657    00000016                 : Copystep.obj (.text:_ZN3Ver36_GLOBAL__N__12_Copystep_cpp_e59cf1d56HrangeIN3Bsp5HuvarEE11build_rangeIN4Base3VarINS6_4UvarEE8RegarrayILS8_447ELS8_453EEEEENS3_5RangeERVKT_)
                  0009b66d    00000016                 : Copystep.obj (.text:_ZN3Ver36_GLOBAL__N__12_Copystep_cpp_e59cf1d56HrangeIN3Bsp5HuvarEE11build_rangeIN4Base3VarINS6_4UvarEE8RegarrayILS8_460ELS8_465EEEEENS3_5RangeERVKT_)
                  0009b683    00000016                 : Copystep.obj (.text:_ZN3Ver36_GLOBAL__N__12_Copystep_cpp_e59cf1d56HrangeIN3Bsp5HuvarEE11build_rangeIN4Base3VarINS6_4UvarEE8RegarrayILS8_480ELS8_485EEEEENS3_5RangeERVKT_)
                  0009b699    00000016                 : Copystep.obj (.text:_ZN3Ver36_GLOBAL__N__12_Copystep_cpp_e59cf1d56HrangeIN3Bsp5HuvarEE11build_rangeIN4Base3VarINS6_4UvarEE8RegarrayILS8_500ELS8_519EEEEENS3_5RangeERVKT_)
                  0009b6af    00000016                 : Xfreqmgr0.obj (.text:_ZN3Ver9Xfreqmgr04csetERN4Base5LossyE)
                  0009b6c5    00000016     base.lib : Stimestamp.obj (.text:_ZN4Base10Stimestamp11get_currentEv)
                  0009b6db    00000016              : Chk_blk_impl.obj (.text:_ZN4Base12Chk_blk_impl12update_blockERKNS_12U8pkmblock_kE)
                  0009b6f1    00000016              : Presence_vec.obj (.text:_ZN4Base12Presence_vecC1Ebj)
                  0009b707    00000016     vpgnc.lib : Opranges.obj (.text:_ZN4Base5ArrayIN5Vpgnc8Opranges3RngEEC1IS3_EENS_6MblockIT_EE)
                  0009b71d    00000016     base.lib : Fsniffer.obj (.text:_ZN4Base5ArrayINS_10Vmap_entryEEC1IS1_EENS_6MblockIT_EE)
                  0009b733    00000016     veronte.lib : Tunsuite_pa.obj (.text:_ZN4Base5ArrayINS_13Channelmgrcfg6ChncfgEEC1IS2_EENS_6MblockIT_EE)
                  0009b749    00000016                 : Tunsuite_pa.obj (.text:_ZN4Base5ArrayINS_13Channelmgrcfg6ChnselEEC1IS2_EENS_6MblockIT_EE)
                  0009b75f    00000016     vpgnc.lib : Vpu.obj (.text:_ZN4Base5ArrayINS_5FieldEEC1IS1_EENS_6MblockIT_EE)
                  0009b775    00000016     veronte.lib : Hevact_cpu2.obj (.text:_ZN4Base5ArrayINS_6ActionEEC1IS1_EENS_6MblockIT_EE)
                  0009b78b    00000016     midlevel.lib : Irxfw.obj (.text:_ZN4Base5ArrayINS_8Msg_dataEEC1EmNS_6Memmgr4TypeE)
                  0009b7a1    00000016     base.lib : Sticktypes.obj (.text:_ZN4Base5ArrayINS_8StickoutEEC1IS1_EENS_6MblockIT_EE)
                  0009b7b7    00000016     vpgnc.lib : Vpu.obj (.text:_ZN4Base5ArrayINS_8Sync_map7ElementEEC1EmNS_6Memmgr4TypeE)
                  0009b7cd    00000016               : Rvar_op_commit.obj (.text:_ZN4Base5ArrayINS_8TwraptunINS_9Tuntraits11Lossy_floatEfEEEC1IS4_EENS_6MblockIT_EE)
                  0009b7e3    00000016     veronte.lib : Hevact_cpu2.obj (.text:_ZN4Base5ArrayINS_9Evactcfg0EEC1IS1_EENS_6MblockIT_EE)
                  0009b7f9    00000016     base.lib : Taskmgr.obj (.text:_ZN4Base5ArrayINS_9TaskentryEEC1EmNS_6Memmgr4TypeE)
                  0009b80f    00000016     midlevel.lib : Irxfw.obj (.text:_ZN4Base5ArrayIPN6Stanag14IStanag_msg_txEEC1EmNS_6Memmgr4TypeE)
                  0009b825    00000016                  : Irxfw.obj (.text:_ZN4Base5ArrayIPN6Stanag14IStanag_rx_hdlEEC1EmNS_6Memmgr4TypeE)
                  0009b83b    00000016     pa_blocks.lib : Cy_maint_action.obj (.text:_ZN4Base5ArrayIPN9Pa_blocks22Cy_maint_action_consts13Imaint_actionEEC1EmNS_6Memmgr4TypeE)
                  0009b851    00000016     media.lib : Cfgmgr.obj (.text:_ZN4Base5ArrayIPNS_14Itunable_asyncEEC1EmNS_6Memmgr4TypeE)
                  0009b867    00000016               : Cfgmgr.obj (.text:_ZN4Base5ArrayIPNS_21Ideserializable_asyncEEC1EmNS_6Memmgr4TypeE)
                  0009b87d    00000016     maverick.lib : Rvector.obj (.text:_ZN4Base5ArrayIfEC1EmNS_6Memmgr4TypeE)
                  0009b893    00000016     first.lib : Dsync.obj (.text:_ZN4Base5Dsync6Reader8get_nullEv)
                  0009b8a9    00000016               : Lossy.obj (.text:_ZN4Base5LossyC1ERKS0_)
                  0009b8bf    00000016               : Chrono.obj (.text:_ZN4Base6ChronoC1Eb)
                  0009b8d5    00000016               : Memmgr_c2000.obj (.text:_ZN4Base6Memmgr13get_allocatorENS0_4TypeE)
                  0009b8eb    00000016     base.lib : Pdiver.obj (.text:_ZN4Base6Pdiver4cgetERNS_5LossyE)
                  0009b901    00000016              : Feature.obj (.text:_ZN4Base7Feature9build_absERKNS_4TllhE)
                  0009b917    00000016              : Xcfilecli.obj (.text:_ZN4Base8XcbufferILm512EE6Reader3endEv)
                  0009b92d    00000016              : Xcfilecli.obj (.text:_ZN4Base8XcbufferILm512EE6Writer3endEv)
                  0009b943    00000016     veronte.lib : Tunsuite_pa.obj (.text:_ZN4Base9Tuntraits15Arraytun_nosizeINS0_9Cset_onlyIN12Dsp28335_ent8TGPIOtunINS3_9GPIOmux16EEEEENS_7TnarrayIS6_Lm20EEENS0_8No_checkIS9_EEE8str2elemERS9_RNS_11Lossy_errorE)
                  0009b959    00000016     base.lib : Sticktypes.obj (.text:_ZN4Base9Tuntraits15Arraytun_nosizeINS0_9Cset_onlyINS_13StickrawtransEEENS_7TnarrayIS3_Lm16EEENS0_8No_checkIS6_EEE8str2elemERS6_RNS_11Lossy_errorE)
                  0009b96f    00000016     media.lib : Cfgmgr.obj (.text:_ZN5Media6Cfgmgr7str2tunERN4Base11Lossy_errorERNS1_14Itunable_asyncE)
                  0009b985    00000016     Vmain_cpu2.obj (.text:_ZN7Project38_GLOBAL__N__14_Vmain_cpu2_cpp_5bd1185c12Stpmgrhelper4stepEv)
                  0009b99b    00000016     midlevel.lib : Irxfw.obj (.text:_ZN8Midlevel5Irxfw6Parser3addEN4Base15Stanag_msg_type8Msg_typeERN6Stanag10Stanag_msgE)
                  0009b9b1    00000016     pa_blocks.lib : DComms_cfg.obj (.text:_ZN9Pa_blocks10DComms_cfg6Static4csetERN4Base11Lossy_errorE)
                  0009b9c7    00000016                   : Time_cache.obj (.text:_ZN9Pa_blocks10Time_cache17persistence_checkERKN4Base5TtimeEbS4_)
                  0009b9dd    00000016                   : Command_contingency_wrapper.obj (.text:_ZN9Pa_blocks31Command_contingency_wrapper_ser16get_cyphal_flagsEv)
                  0009b9f3    00000016     geomodel.lib : Fidcache.obj (.text:_ZNK3Geo8Fidcache16recompute_neededEv)
                  0009ba09    00000015     veronte.lib : Pwm_suite.obj (.text:_ZN12Dsp28335_ent8PwmsuiteINS_6PwmdevELj16EE6Config4csetERN4Base11Lossy_errorE)
                  0009ba1e    00000015     base.lib : CRC.obj (.text:_ZN4Base3CRC6Config5buildEjmmmbb)
                  0009ba33    00000015     pa_blocks.lib : Cy_maint_action.obj (.text:_ZN4Base5ArrayIN9Pa_blocks22Cy_maint_action_consts13Command_typesEEC1EmNS_6Memmgr4TypeE)
                  0009ba48    00000015     midlevel.lib : Irxfw.obj (.text:_ZN4Base5ArrayINS_15Stanag_msg_type8Msg_typeEEC1EmNS_6Memmgr4TypeE)
                  0009ba5d    00000015     media.lib : Cfgmgr.obj (.text:_ZN4Base5ArrayINS_3Cfg2IdEEC1EmNS_6Memmgr4TypeE)
                  0009ba72    00000015     vpgnc.lib : Vpu.obj (.text:_ZN4Base5ArrayINS_4BvarEEC1EmNS_6Memmgr4TypeE)
                  0009ba87    00000015     veronte.lib : Vfspermission.obj (.text:_ZN4Base5ArrayINS_7Hashers11Element_u16EEC1EmNS_6Memmgr4TypeE)
                  0009ba9c    00000015     maverick.lib : Rvector.obj (.text:_ZN4Base5ArrayIfE6resizeEm)
                  0009bab1    00000015     base.lib : Herrors.obj (.text:_ZN4Base5ArrayIjEC1EmNS_6Memmgr4TypeE)
                  0009bac6    00000015     first.lib : Lossy.obj (.text:_ZN4Base5Lossy11put_n_uint8ERKNS_12U8pkmblock_kE)
                  0009badb    00000015               : Lossy.obj (.text:_ZN4Base5Lossy15float_to_uint32Efh)
                  0009baf0    00000015     veronte.lib : Copystep.obj (.text:_ZN4Base6MblockIVKbE10sub_mblockEmm)
                  0009bb05    00000015                 : Copystep.obj (.text:_ZN4Base6MblockIVKfE10sub_mblockEmm)
                  0009bb1a    00000015                 : Copystep.obj (.text:_ZN4Base6MblockIVKjE10sub_mblockEmm)
                  0009bb2f    00000015                 : Tunsuite_pa.obj (.text:_ZN4Base6MblockIfE10sub_mblockEmm)
                  0009bb44    00000015     base.lib : Sysver.obj (.text:_ZN4Base6Sysver11get_currentEv)
                  0009bb59    00000015              : Xcfile.obj (.text:_ZN4Base6Xcfile10seek_asyncElNS_5Ifile9Seek_modeE)
                  0009bb6e    00000015              : Xcmqrd.obj (.text:_ZN4Base6XcmqrdC1ERNS_4XcrdE)
                  0009bb83    00000015              : Rtaskrc.obj (.text:_ZN4Base7RtaskrcC1Ef)
                  0009bb98    00000015              : Stepmgr.obj (.text:_ZN4Base7Stepmgr4stepEv)
                  0009bbad    00000015     first.lib : PDIcheck.obj (.text:_ZN4Base8PDIcheck4initEv)
                  0009bbc2    00000015     veronte.lib : Hxcfield_cpu2.obj (.text:_ZN4Base9Tuntraits15Arraytun_nosizeINS0_9Cset_onlyINS_5FieldEEENS_5ArrayIS3_EENS0_8No_checkIS6_EEE8str2elemERS6_RNS_11Lossy_errorE)
                  0009bbd7    00000015     base.lib : Xcfilecli.obj (.text:_ZN4Base9Xcfilecli18compute_next_stateENS0_5StateE)
                  0009bbec    00000015     media.lib : Cfgmgr.obj (.text:_ZN5Media6Cfgmgr4sendEN4Base7AddressENS1_3Cfg10Config_argE)
                  0009bc01    00000015     vblocks.lib : Multi_interpolator_tun.obj (.text:_ZN7Vblocks22Multi_interpolator_tunC1Ev)
                  0009bc16    00000015     maverick.lib : Irquat.obj (.text:_ZN8Maverick6Irquat10norm2alizeEv)
                  0009bc2b    00000015     pa_blocks.lib : Process_lidar.obj (.text:_ZN9Pa_blocks13Process_lidarC1ERKNS_12Measurements5LidarERNS_5StateERKb)
                  0009bc40    00000015                   : Command_response.obj (.text:_ZN9Pa_blocks16Command_response16get_cyphal_flagsEv)
                  0009bc55    00000015                   : Track_spline_manager.obj (.text:_ZN9Pa_blocks20Track_spline_manager10Vsdk_param4csetERN4Base11Lossy_errorE)
                  0009bc6a    00000015                   : Aacg.obj (.text:_ZN9Pa_blocks4Aacg11Vsdk_param_4csetERN4Base11Lossy_errorE)
                  0009bc7f    00000015     base.lib : CRC.obj (.text:_ZNK4Base3CRC9get_valueEv)
                  0009bc94    00000015              : Field.obj (.text:_ZNK4Base5Field12compress_ftrERNS_5LossyERKNS_4IgetE)
                  0009bca9    00000015     pa_blocks.lib : Vector_saturation.obj (.text:_ZNK8Maverick7TvectorIfE3dotERKS1_)
                  0009bcbe    00000014     base.lib : Cyphal_common_types.obj (.text:_ZN19Cyphal_common_types14get_array_sizeEmRN4Base5LossyE)
                  0009bcd2    00000014     veronte.lib : Copystep.obj (.text:_ZN3Ver36_GLOBAL__N__12_Copystep_cpp_e59cf1d56HrangeIN3Bsp5HbvarEE11build_rangeIN4Base3VarINS6_4BvarEE8RegarrayILS8_102ELS8_105EEEEENS3_5RangeERVKT_)
                  0009bce6    00000014                 : Copystep.obj (.text:_ZN3Ver36_GLOBAL__N__12_Copystep_cpp_e59cf1d56HrangeIN3Bsp5HbvarEE11build_rangeIN4Base3VarINS6_4BvarEE8RegarrayILS8_108ELS8_109EEEEENS3_5RangeERVKT_)
                  0009bcfa    00000014                 : Copystep.obj (.text:_ZN3Ver36_GLOBAL__N__12_Copystep_cpp_e59cf1d56HrangeIN3Bsp5HbvarEE11build_rangeIN4Base3VarINS6_4BvarEE8RegarrayILS8_111ELS8_113EEEEENS3_5RangeERVKT_)
                  0009bd0e    00000014                 : Copystep.obj (.text:_ZN3Ver36_GLOBAL__N__12_Copystep_cpp_e59cf1d56HrangeIN3Bsp5HbvarEE11build_rangeIN4Base3VarINS6_4BvarEE8RegarrayILS8_120ELS8_123EEEEENS3_5RangeERVKT_)
                  0009bd22    00000014                 : Copystep.obj (.text:_ZN3Ver36_GLOBAL__N__12_Copystep_cpp_e59cf1d56HrangeIN3Bsp5HbvarEE11build_rangeIN4Base3VarINS6_4BvarEE8RegarrayILS8_14ELS8_15EEEEENS3_5RangeERVKT_)
                  0009bd36    00000014                 : Copystep.obj (.text:_ZN3Ver36_GLOBAL__N__12_Copystep_cpp_e59cf1d56HrangeIN3Bsp5HbvarEE11build_rangeIN4Base3VarINS6_4BvarEE8RegarrayILS8_170ELS8_177EEEEENS3_5RangeERVKT_)
                  0009bd4a    00000014                 : Copystep.obj (.text:_ZN3Ver36_GLOBAL__N__12_Copystep_cpp_e59cf1d56HrangeIN3Bsp5HbvarEE11build_rangeIN4Base3VarINS6_4BvarEE8RegarrayILS8_178ELS8_179EEEEENS3_5RangeERVKT_)
                  0009bd5e    00000014                 : Copystep.obj (.text:_ZN3Ver36_GLOBAL__N__12_Copystep_cpp_e59cf1d56HrangeIN3Bsp5HbvarEE11build_rangeIN4Base3VarINS6_4BvarEE8RegarrayILS8_190ELS8_191EEEEENS3_5RangeERVKT_)
                  0009bd72    00000014                 : Copystep.obj (.text:_ZN3Ver36_GLOBAL__N__12_Copystep_cpp_e59cf1d56HrangeIN3Bsp5HbvarEE11build_rangeIN4Base3VarINS6_4BvarEE8RegarrayILS8_200ELS8_207EEEEENS3_5RangeERVKT_)
                  0009bd86    00000014                 : Copystep.obj (.text:_ZN3Ver36_GLOBAL__N__12_Copystep_cpp_e59cf1d56HrangeIN3Bsp5HbvarEE11build_rangeIN4Base3VarINS6_4BvarEE8RegarrayILS8_210ELS8_211EEEEENS3_5RangeERVKT_)
                  0009bd9a    00000014                 : Copystep.obj (.text:_ZN3Ver36_GLOBAL__N__12_Copystep_cpp_e59cf1d56HrangeIN3Bsp5HbvarEE11build_rangeIN4Base3VarINS6_4BvarEE8RegarrayILS8_48ELS8_93EEEEENS3_5RangeERVKT_)
                  0009bdae    00000014                 : Copystep.obj (.text:_ZN3Ver36_GLOBAL__N__12_Copystep_cpp_e59cf1d56HrangeIN3Bsp5HbvarEE11build_rangeIN4Base3VarINS6_4BvarEE8RegarrayILS8_96ELS8_99EEEEENS3_5RangeERVKT_)
                  0009bdc2    00000014                 : Copystep.obj (.text:_ZN3Ver36_GLOBAL__N__12_Copystep_cpp_e59cf1d56HrangeIN3Bsp5HrvarEE11build_rangeIN4Base3VarINS6_4RvarEE8RegarrayILS8_42ELS8_55EEEEENS3_5RangeERVKT_)
                  0009bdd6    00000014                 : Copystep.obj (.text:_ZN3Ver36_GLOBAL__N__12_Copystep_cpp_e59cf1d56HrangeIN3Bsp5HrvarEE11build_rangeIN4Base3VarINS6_4RvarEE8RegarrayILS8_59ELS8_68EEEEENS3_5RangeERVKT_)
                  0009bdea    00000014                 : Copystep.obj (.text:_ZN3Ver36_GLOBAL__N__12_Copystep_cpp_e59cf1d56HrangeIN3Bsp5HrvarEE11build_rangeIN4Base3VarINS6_4RvarEE8RegarrayILS8_90ELS8_93EEEEENS3_5RangeERVKT_)
                  0009bdfe    00000014                 : Copystep.obj (.text:_ZN3Ver36_GLOBAL__N__12_Copystep_cpp_e59cf1d56HrangeIN3Bsp5HuvarEE11build_rangeIN4Base3VarINS6_4UvarEE8RegarrayILS8_100ELS8_116EEEEENS3_5RangeERVKT_)
                  0009be12    00000014                 : Copystep.obj (.text:_ZN3Ver36_GLOBAL__N__12_Copystep_cpp_e59cf1d56HrangeIN3Bsp5HuvarEE11build_rangeIN4Base3VarINS6_4UvarEE8RegarrayILS8_150ELS8_166EEEEENS3_5RangeERVKT_)
                  0009be26    00000014                 : Copystep.obj (.text:_ZN3Ver36_GLOBAL__N__12_Copystep_cpp_e59cf1d56HrangeIN3Bsp5HuvarEE11build_rangeIN4Base3VarINS6_4UvarEE8RegarrayILS8_2ELS8_18EEEEENS3_5RangeERVKT_)
                  0009be3a    00000014     base.lib : Xclk.obj (.text:_ZN4Base4Xclk3ticEv)
                  0009be4e    00000014     Blockfactory_par.obj (.text:_ZN4Base5ArrayIN9Pa_blocks22Cy_maint_action_consts13Command_typesEE6resizeEm)
                  0009be62    00000014     stanag.lib : Stanag_msg_cfgs.obj (.text:_ZN4Base5ArrayINS_15Stanag_msg_type8Msg_typeEE6resizeEm)
                  0009be76    00000014     media.lib : Cfgmgr.obj (.text:_ZN4Base5ArrayINS_3Cfg2IdEE6resizeEm)
                  0009be8a    00000014     vpgnc.lib : Vpu.obj (.text:_ZN4Base5ArrayINS_4BvarEE6resizeEm)
                  0009be9e    00000014     first.lib : Error.obj (.text:_ZN4Base5ArrayINS_8ErrorsrcEE6resizeEm)
                  0009beb2    00000014               : Vstring.obj (.text:_ZN4Base5ArrayIcE6resizeEm)
                  0009bec6    00000014     veronte.lib : Tunsuite_pa.obj (.text:_ZN4Base5ArrayIfEC1IfEENS_6MblockIT_EE)
                  0009beda    00000014     first.lib : Lossy.obj (.text:_ZN4Base5Lossy10set_endianENS_10EndiannessE)
                  0009beee    00000014     veronte.lib : Hvar_cpu2.obj (.text:_ZN4Base6MblockIPNS_6TdsyncINS_7FeatureENS_12Tdsynctraits11Rd_blockingIS2_NS_8Cptraits6PodrawIVS2_EEEENS3_2WrIS2_NS5_8OperatorIS2_S2_EEEEEEEC1EmNS_6Memmgr4TypeE)
                  0009bf02    00000014     vpgnc.lib : Vpu.obj (.text:_ZN4Base6MblockIjEC1EmNS_6Memmgr4TypeE)
                  0009bf16    00000014     midlevel.lib : Irxfw.obj (.text:_ZN4Base8FifospscINS_8Msg_dataEEC1EmNS_6Memmgr4TypeE)
                  0009bf2a    00000014     first.lib : Bitmblock.obj (.text:_ZN4Base9BitmblockC1EjNS_6Memmgr4TypeE)
                  0009bf3e    00000014               : U8istream.obj (.text:_ZN4Base9U8istream13get_uint16_beEv)
                  0009bf52    00000014               : U8istream.obj (.text:_ZN4Base9U8istream13get_uint16_leEv)
                  0009bf66    00000014     vpgnc.lib : Meta.obj (.text:_ZN5Vpgnc4Meta13register_cfgsERN5Media6CfgmgrE)
                  0009bf7a    00000014               : Event.obj (.text:_ZN5Vpgnc5Event12step_rcv_msgERN4Base20Message_received_hndE)
                  0009bf8e    00000014     stanag.lib : U8istream_pvec.obj (.text:_ZN6Stanag14U8istream_pvec9get_uint8Eh)
                  0009bfa2    00000014     pa_blocks.lib : Dyn_pa_interpolator_cat_2.obj (.text:_ZN8Maverick6TarrayIfE10lincmb_addEfRKN4Base5ArrayIfEE)
                  0009bfb6    00000014     maverick.lib : Rmatrix.obj (.text:_ZN8Maverick7TmatrixIfEC1EjjN4Base6Memmgr4TypeE)
                  0009bfca    00000014     pa_blocks.lib : Delta_state.obj (.text:_ZN9Pa_blocks11Delta_stateC1Ev)
                  0009bfde    00000014                   : Mrs_received.obj (.text:_ZN9Pa_blocks12Mrs_received12get_instanceEv)
                  0009bff2    00000014     media.lib : Cfgmgr.obj (.text:_ZNK5Media34_GLOBAL__N__10_Cfgmgr_cpp_be3311b217Itunable_as_async4cgetERN4Base5LossyE)
                  0009c006    00000014     pa_blocks.lib : State_estimate_logic.obj (.text:_ZNK8Maverick8Ivector3IfE5dotxyERKS1_)
                  0009c01a    00000014     media.lib : Cfgmgr.obj (.text:__sti___10_Cfgmgr_cpp_be3311b2)
                  0009c02e    00000014     stanag.lib : Stanag_status_msgs.obj (.text:__sti___22_Stanag_status_msgs_cpp_2eb84926)
                  0009c042    00000014     rts2800_fpu64_eabi.lib : ll_mpy28.asm.obj (.text)
                  0009c056    00000013     veronte.lib : Pwm_suite.obj (.text:_ZN12Dsp28335_ent8PwmsuiteINS_6PwmdevELj16EE6ConfigC1Ev)
                  0009c069    00000013     geomodel.lib : Fidcache.obj (.text:_ZN3Geo8Fidcache7refreshEN4Base3FidE)
                  0009c07c    00000013     vpgnc.lib : Vpu.obj (.text:_ZN4Base11Errors_dual4readERNS_9U8ostreamE)
                  0009c08f    00000013     base.lib : CRC.obj (.text:_ZN4Base3CRCC1ERKS0_)
                  0009c0a2    00000013              : Uclk.obj (.text:_ZN4Base4UclkC1ENS_4RvarE)
                  0009c0b5    00000013     first.lib : Lossy.obj (.text:_ZN4Base5ArrayIjEC1IjEENS_6MblockIT_EE)
                  0009c0c8    00000013               : Lossy.obj (.text:_ZN4Base5Lossy10get_float3EPf)
                  0009c0db    00000013               : Lossy.obj (.text:_ZN4Base5LossyC1EmNS_6Memmgr4TypeE)
                  0009c0ee    00000013     veronte.lib : Tunsuite_pa.obj (.text:_ZN4Base9Allocator12allocate_newIN3Ver10TunbuilderERN5Media6CfgmgrEEEPT_RT0_)
                  0009c101    00000013     vpgnc.lib : Evtmgr.obj (.text:_ZN5Vpgnc34_GLOBAL__N__10_Evtmgr_cpp_40eceed37is_evhiERKNS_5EventE)
                  0009c114    00000013               : Ftsactcmd.obj (.text:_ZN5Vpgnc9Ftsactcmd4csetERN4Base11Lossy_errorE)
                  0009c127    00000013     Blockfactory_par.obj (.text:_ZN9Pa_blocks21Cy_dcomms_site_configC1ERVNS_10DComms_cfg7DynamicE)
                  0009c13a    00000013     pa_blocks.lib : Cm.obj (.text:_ZN9Pa_blocks2Cm10Vsdk_param4csetERN4Base11Lossy_errorE)
                  0009c14d    00000013                   : Command_contingency_wrapper.obj (.text:_ZN9Pa_blocks32Command_contingency_wrapper_dataC1Ev)
                  0009c160    00000013                   : Recovery_mission_readiness_signal.obj (.text:_ZN9Pa_blocks33Recovery_mission_readiness_signal4csetERN4Base5LossyE)
                  0009c173    00000013     base.lib : Tllhcompressed.obj (.text:_ZNK4Base14Tllhcompressed4cgetERNS_9U8ostreamE)
                  0009c186    00000013              : Xcfile.obj (.text:_ZNK4Base6Xcfile4tellEv)
                  0009c199    00000013              : Taskmgr.obj (.text:_ZNK4Base7Taskmgr13get_number_ofERKNS_5ItaskE)
                  0009c1ac    00000013              : Uclkmgr.obj (.text:_ZNK4Base7Uclkmgr4cgetERNS_5LossyE)
                  0009c1bf    00000012     veronte.lib : Pwm_suite.obj (.text:_ZN12Dsp28335_ent8PwmsuiteINS_6PwmdevELj16EEC2EN4Base6Memmgr4TypeENS3_5RngitINS1_5PWMidEEENS3_9Range_dynINS3_4RvarEEE)
                  0009c1d1    00000012                 : Hvar_cpu2.obj (.text:_ZN3Bsp5Hbvar3setEb)
                  0009c1e3    00000012                 : Hvar_cpu2.obj (.text:_ZN3Bsp5Huvar3setEj)
                  0009c1f5    00000012     base.lib : Vref_wr_tun.obj (.text:_ZN4Base11Vref_wr_tun4csetERNS_11Lossy_errorE)
                  0009c207    00000012              : Field_cfg.obj (.text:_ZN4Base14Cksum_sagetech11update_byteEh)
                  0009c219    00000012     vpgnc.lib : Vpu.obj (.text:_ZN4Base18Routing_table_dataILj2ELj16EE16set_active_tableEj)
                  0009c22b    00000012     base.lib : Pdiver.obj (.text:_ZN4Base34_GLOBAL__N__10_Pdiver_cpp_cc16dca813is_compatibleERKNS_7VersionE)
                  0009c23d    00000012     first.lib : Lossy.obj (.text:_ZN4Base5Lossy10get_bool16ERb)
                  0009c24f    00000012     base.lib : Varmgr.obj (.text:_ZN4Base6Varmgr3setENS_4RvarEf)
                  0009c261    00000012     first.lib : PDIcheck.obj (.text:_ZN4Base8PDIcheck12wr_availableEv)
                  0009c273    00000012               : PDIcheck.obj (.text:_ZN4Base8PDIcheck6commitERKNS_5ErrorE)
                  0009c285    00000012     base.lib : Spkt_hdr.obj (.text:_ZN4Base8Spkt_hdrC1EjNS_7AddressES1_NS_15Stanag_msg_type8Msg_typeENS0_9Msg_propsE)
                  0009c297    00000012              : Spkt_hdr.obj (.text:_ZN4Base8Spkt_hdrC1Ev)
                  0009c2a9    00000012     midlevel.lib : Irxfw.obj (.text:_ZN6Stanag8Msg_fifo4sendEN4Base8Msg_dataE)
                  0009c2bb    00000012     Blockfactory_par.obj (.text:_ZN7Vblocks44_GLOBAL__N__20_Blockfactory_par_cpp_f396dcb218get_out_mgr_paramsEv)
                  0009c2cd    00000012     pa_blocks.lib : Covariance_ud.obj (.text:_ZN8Maverick6TarrayIfE3addERKN4Base5ArrayIfEE)
                  0009c2df    00000012                   : Covariance_ud.obj (.text:_ZN8Maverick6TarrayIfE8mul_wiseIfEEvRKN4Base5ArrayIT_EE)
                  0009c2f1    00000012                   : Waypoint_coordinate.obj (.text:_ZN9Pa_blocks19Waypoint_coordinateC1Ev)
                  0009c303    00000012                   : Aee.obj (.text:_ZN9Pa_blocks3Aee9TelemetryC1Ev)
                  0009c315    00000012     base.lib : Spkt.obj (.text:_ZNK4Base4Spkt7get_hdrERNS_8Spkt_hdrE)
                  0009c327    00000012              : Xcfile.obj (.text:_ZNK4Base6Xcfile9is_openedEv)
                  0009c339    00000011     Vmain_cpu2.obj (.text:_ZN12Dsp28335_ent11GPIOtogglerINS_4GPIOEE4stepEv)
                  0009c34a    00000011     DSP2837x_ent.lib : Emif1.obj (.text:_ZN12Dsp28335_ent5Emif19cpu2_grabEv)
                  0009c35b    00000011     base.lib : Spkt.obj (.text:_ZN4Base5CRC3211update_byteEh)
                  0009c36c    00000011     first.lib : Lossy.obj (.text:_ZN4Base5Lossy11get_float64Ev)
                  0009c37d    00000011     base.lib : Tllcs.obj (.text:_ZN4Base5Tllcs5zerosEv)
                  0009c38e    00000011              : Xcfile.obj (.text:_ZN4Base6Xcfile11flush_asyncEv)
                  0009c39f    00000011              : Spkt_hdr.obj (.text:_ZN4Base8Spkt_hdr9Msg_propsC1Eb)
                  0009c3b0    00000011     media.lib : Cfgmgr.obj (.text:_ZN5Media6Cfgmgr20send_load_op_result0Ev)
                  0009c3c1    00000011               : Cfgmgr.obj (.text:_ZN5Media6Cfgmgr20send_save_op_result0Ev)
                  0009c3d2    00000011               : Cfgmgr.obj (.text:_ZN5Media6Cfgmgr7tun2strERKN4Base14Itunable_asyncERNS1_5LossyE)
                  0009c3e3    00000011               : Fstrfast.obj (.text:_ZN5Media8Fstrfast5on_txERN6Stanag14IStanag_msg_tx9Tx_paramsE)
                  0009c3f4    00000011     vpgnc.lib : Oprvar.obj (.text:_ZN5Vpgnc6Oprvar9set_opmgrERKNS_5OpmgrE)
                  0009c405    00000011               : Varinit.obj (.text:_ZN5Vpgnc7VarinitC1Ev)
                  0009c416    00000011     pa_blocks.lib : Polynomial_coeffs.obj (.text:_ZN8Maverick6TarrayIfE5scaleERKf)
                  0009c427    00000011     midlevel.lib : Default_cfg.obj (.text:_ZN8Midlevel11Default_cfg18set_default_can_fdERN12Dsp28335_ent10CAN_FD_cfgENS2_8BaudrateES4_bb)
                  0009c438    00000011     pa_blocks.lib : State_estimate_logic.obj (.text:_ZN9Pa_blocks20State_estimate_logic9vms_resetEv)
                  0009c449    00000011     veronte.lib : Hvar.obj (.text:_ZNK3Bsp5Hrvar3getEv)
                  0009c45a    00000011     pa_blocks.lib : On_ground.obj (.text:_ZNK9Pa_blocks9On_ground19Introspect_onground4cgetERN4Base5LossyE)
                  0009c46b    00000011     devices.lib : Ubxcfgmsgrate.obj (.text:_ZNVK7Devices3Ubx13Ubxcfgmsgrate14is_msg_enabledEv)
                  0009c47c    00000011     rts2800_fpu64_eabi.lib : s_copysignf.c.obj (.text)
                  0009c48d    00000010     crypto_c28.lib : sha256.obj (.text:SHA256_cancelWordWise)
                  0009c49d    00000010     DSP2837x_ent.lib : Emif1.obj (.text:_ZN12Dsp28335_ent5Emif18set_mselEmm)
                  0009c4ad    00000010                      : Pwmdev.obj (.text:_ZN12Dsp28335_ent6Pwmdev6configERKNS0_6ConfigE)
                  0009c4bd    00000010     veronte.lib : Vfspermission.obj (.text:_ZN3Ver13Vfspermission19get_external_cmdidsEv)
                  0009c4cd    00000010                 : Vfspermission.obj (.text:_ZN3Ver13Vfspermission20get_operation_cfgidsEv)
                  0009c4dd    00000010     base.lib : Varsens1D_cfg.obj (.text:_ZN4Base12Tun_optionalINS_16Rvarsensor1D_cfgENS_9Tuntraits10TundefaultIS1_EEE8str2elemERNS_8OptionalIS1_EERNS_11Lossy_errorE)
                  0009c4ed    00000010              : Varsens3D_Cfg.obj (.text:_ZN4Base12Tun_optionalINS_16Rvarsensor3D_cfgENS_9Tuntraits10TundefaultIS1_EEE8str2elemERNS_8OptionalIS1_EERNS_11Lossy_errorE)
                  0009c4fd    00000010              : CRC.obj (.text:_ZN4Base3CRC6reset0Ev)
                  0009c50d    00000010     first.lib : Tmem.obj (.text:_ZN4Base4Tmem7set_selEPvim)
                  0009c51d    00000010               : Strutil.obj (.text:_ZN4Base7Strutil24nibble_to_upper_hex_charEhRh)
                  0009c52d    00000010     base.lib : Routing_table_entry.obj (.text:_ZN4Base8BitarrayILj16EE7set_allIvEENS_9Enable_ifILb1ET_E4typeERKy)
                  0009c53d    00000010     first.lib : Bitutils.obj (.text:_ZN4Base8Bitutils8reflect8Ej)
                  0009c54d    00000010     veronte.lib : Vpuposrd_ver_pa.obj (.text:_ZN4Base8Vpuposrd11get_rel_posERKNS_9Apos_dataERN8Maverick8Rvector3E)
                  0009c55d    00000010     base.lib : Field_BCD.obj (.text:_ZN4Base9Field_BCD4csetERNS_11Lossy_errorE)
                  0009c56d    00000010     stanag.lib : U8istream_pvec.obj (.text:_ZN6Stanag14U8istream_pvec13get_uint16_beEj)
                  0009c57d    00000010     devices.lib : Ubxcfgitfm.obj (.text:_ZN7Devices3Ubx10Ubxcfgitfm4csetERN4Base11Lossy_errorE)
                  0009c58d    00000010     maverick.lib : IIR_2cfg.obj (.text:_ZN8Maverick8IIR_2cfg4csetERN4Base5LossyE)
                  0009c59d    00000010     pa_blocks.lib : Navigation.obj (.text:_ZN9Pa_blocks10Navigation9vms_resetEv)
                  0009c5ad    00000010                   : Persistent_pdi.obj (.text:_ZN9Pa_blocks14Persistent_pdi4csetERN4Base11Lossy_errorE)
                  0009c5bd    00000010                   : Vsdk_navigation_params.obj (.text:_ZN9Pa_blocks22Vsdk_navigation_params11Wind_params4csetERN4Base11Lossy_errorE)
                  0009c5cd    00000010                   : Vsdk_navigation_params.obj (.text:_ZN9Pa_blocks22Vsdk_navigation_params11Wind_source4csetERN4Base11Lossy_errorE)
                  0009c5dd    00000010                   : Vsdk_navigation_params.obj (.text:_ZN9Pa_blocks22Vsdk_navigation_params7Heading4csetERN4Base11Lossy_errorE)
                  0009c5ed    00000010                   : Ttcg.obj (.text:_ZN9Pa_blocks4Ttcg10Vsdk_param4csetERN4Base11Lossy_errorE)
                  0009c5fd    00000010     media.lib : Fstrfast.obj (.text:_ZNK4Base11TnarrayreszINS_5FieldELm128EE9to_mblockEv)
                  0009c60d    00000010     veronte.lib : Vfspermission.obj (.text:_ZThn2_NK3Ver13Vfspermission3hasEj)
                  0009c61d    00000010     midlevel.lib : Sys_status_mgr.obj (.text:_ZThn8_N8Midlevel14Sys_status_mgr4csetERN4Base11Lossy_errorE)
                  0009c62d    0000000f     pa_blocks.lib : Blk_pa_nav.obj (.text:$P$F0)
                  0009c63c    0000000f     geomodel.lib : Tecef.obj (.text:_ZN3Geo5Tecef9set_wgs84ERKN4Base9Apos_dataE)
                  0009c64b    0000000f     vpgnc.lib : Vpu.obj (.text:_ZN3Geo8Fidcache4NodeC1Ev)
                  0009c65a    0000000f               : Vpu.obj (.text:_ZN4Base10LinkedlistIRKNS_6IcheckEE8add_elemEPNS4_7ElementE)
                  0009c669    0000000f     base.lib : Ftelemetryod.obj (.text:_ZN4Base12Ftelemetryod5Fsvod4initEv)
                  0009c678    0000000f              : Async_transfer_data.obj (.text:_ZN4Base19Async_transfer_data4initEm)
                  0009c687    0000000f     first.lib : Error.obj (.text:_ZN4Base5ErrorC1Ev)
                  0009c696    0000000f               : Lossy.obj (.text:_ZN4Base5Lossy10get_uint16ERj)
                  0009c6a5    0000000f               : Lossy.obj (.text:_ZN4Base5Lossy10get_uint32ERm)
                  0009c6b4    0000000f               : Lossy.obj (.text:_ZN4Base5Lossy10get_uint64ERy)
                  0009c6c3    0000000f               : Lossy.obj (.text:_ZN4Base5Lossy9get_int32ERl)
                  0009c6d2    0000000f               : Lossy.obj (.text:_ZN4Base5Lossy9get_int64ERx)
                  0009c6e1    0000000f     vpgnc.lib : Opranges.obj (.text:_ZN4Base8TwrapdesINS_9Tuntraits10DesdefaultINS_8ArraymskIN5Vpgnc8Opranges3RngELj40EEEEERS7_E4csetERNS_11Lossy_errorE)
                  0009c6f0    0000000f     first.lib : Allocator.obj (.text:_ZN4Base9Allocator16Allocator_bufferC1EPjm)
                  0009c6ff    0000000f     midlevel.lib : Irxfw.obj (.text:_ZN4Base9Fifospsc0INS_8Msg_dataENS_10SPSCtraits8InternalES3_EC1EPS1_S5_PKS1_S5_)
                  0009c70e    0000000f     base.lib : Herrors.obj (.text:_ZN4Base9Fifospsc0IVjNS_10SPSCtraits8ExternalENS2_12Internal_refEEC1EPS1_S6_RVKPVKjRVS6_)
                  0009c71d    0000000f     first.lib : Rfun.obj (.text:_ZN4Rfun7pow_u32Emh)
                  0009c72c    0000000f     media.lib : Cfgmgr.obj (.text:_ZN5Media6Cfgmgr13load_blockingEN4Base3Cfg2IdE)
                  0009c73b    0000000f               : Cfgmgr.obj (.text:_ZN5Media6Cfgmgr16send_set_result0Ev)
                  0009c74a    0000000f               : Cfgmgr.obj (.text:_ZN5Media6Cfgmgr17send_load_result0Ev)
                  0009c759    0000000f               : Cfgmgr.obj (.text:_ZN5Media6Cfgmgr17send_save_result0Ev)
                  0009c768    0000000f               : Cfgmgr.obj (.text:_ZN5Media6Cfgmgr9get_reqidERN4Base5LossyE)
                  0009c777    0000000f     vpgnc.lib : Rvar_op_commit.obj (.text:_ZN5Vpgnc14Rvar_op_commit7Roptype4csetERN4Base11Lossy_errorE)
                  0009c786    0000000f               : Vpu.obj (.text:_ZN5Vpgnc30_GLOBAL__N__7_Vpu_cpp_939b1fa511sync_xctun0ERN4Base5DsyncE)
                  0009c795    0000000f     pa_blocks.lib : Blk_pa_nav_base.obj (.text:_ZN9Pa_blocks19Cyphal_cset_wrapperINS_12Measurements14Uplink_headingEE8on_rx_cyEN6Cyphal17Cyphal_stg_fieldsERN6Stanag14IStanag_msg_rx9Rx_paramsE)
                  0009c7a4    0000000f                   : Blk_pa_nav_base.obj (.text:_ZN9Pa_blocks19Cyphal_cset_wrapperINS_21Mission_reset_commandEE8on_rx_cyEN6Cyphal17Cyphal_stg_fieldsERN6Stanag14IStanag_msg_rx9Rx_paramsE)
                  0009c7b3    0000000f                   : Blk_pa_nav_base.obj (.text:_ZN9Pa_blocks19Cyphal_cset_wrapperINS_24Onground_controller_infoEE8on_rx_cyEN6Cyphal17Cyphal_stg_fieldsERN6Stanag14IStanag_msg_rx9Rx_paramsE)
                  0009c7c2    0000000f                   : Blk_pa_nav_base.obj (.text:_ZN9Pa_blocks19Cyphal_cset_wrapperINS_33Recovery_mission_readiness_signalEE8on_rx_cyEN6Cyphal17Cyphal_stg_fieldsERN6Stanag14IStanag_msg_rx9Rx_paramsE)
                  0009c7d1    0000000f                   : Recovery_route_constructor.obj (.text:_ZN9Pa_blocks26Recovery_route_constructor5ParamC1Ev)
                  0009c7e0    0000000f     veronte.lib : Hvar.obj (.text:_ZNK3Bsp5Hbvar3getEv)
                  0009c7ef    0000000f                 : Hvar.obj (.text:_ZNK3Bsp5Hrvar8get_krefEv)
                  0009c7fe    0000000f                 : Hvar.obj (.text:_ZNK3Bsp5Huvar3getEv)
                  0009c80d    0000000f                 : Vfspermission.obj (.text:_ZNK3Ver13Vfspermission3hasEj)
                  0009c81c    0000000f     base.lib : Field_BCD.obj (.text:_ZNK4Base9Field_BCD4cgetERNS_5LossyE)
                  0009c82b    0000000f     pa_blocks.lib : DComms_cfg.obj (.text:_ZNK9Pa_blocks10DComms_cfg7Reg_cfg4cgetERN4Base5LossyE)
                  0009c83a    0000000f                   : Persistent_pdi.obj (.text:_ZNK9Pa_blocks14Persistent_pdi4cgetERN4Base5LossyE)
                  0009c849    0000000f                   : Pa_profiling.obj (.text:__sti___16_Pa_profiling_cpp_f711d801)
                  0009c858    0000000f     main_cpu2.obj (.text:_system_pre_init)
                  0009c867    0000000e     DSP2838x_ent.lib : Ipc_2838x.obj (.text:_ZN12Dsp28335_ent3Ipc14is_cpu2_lockedEv)
                  0009c875    0000000e     veronte.lib : Hvar.obj (.text:_ZN3Bsp5HbvarC1EN4Base4BvarE)
                  0009c883    0000000e                 : Hvar.obj (.text:_ZN3Bsp5HrvarC1EN4Base4RvarE)
                  0009c891    0000000e                 : Hvar.obj (.text:_ZN3Bsp5HuvarC1EN4Base4UvarE)
                  0009c89f    0000000e     base.lib : CANid_filter.obj (.text:_ZN4Base12CANid_filter4csetERNS_11Lossy_errorE)
                  0009c8ad    0000000e              : Varsens1D_cfg.obj (.text:_ZN4Base13Varsens1D_cfg4csetERNS_11Lossy_errorE)
                  0009c8bb    0000000e              : Varsens3D_Cfg.obj (.text:_ZN4Base13Varsens3D_cfg4csetERNS_11Lossy_errorE)
                  0009c8c9    0000000e              : Sync.obj (.text:_ZN4Base4Sync13set_modified0Em)
                  0009c8d7    0000000e              : Tllh.obj (.text:_ZN4Base4Tllh5buildERKeS2_S2_)
                  0009c8e5    0000000e     first.lib : Tmem.obj (.text:_ZN4Base4Tmem7cpy_selEPvPKvm)
                  0009c8f3    0000000e     vpgnc.lib : Opranges.obj (.text:_ZN4Base5ArrayIN5Vpgnc8Opranges3RngEEC2IS3_EENS_6MblockIT_EE)
                  0009c901    0000000e     base.lib : Fsniffer.obj (.text:_ZN4Base5ArrayINS_10Vmap_entryEEC2IS1_EENS_6MblockIT_EE)
                  0009c90f    0000000e     veronte.lib : Tunsuite_pa.obj (.text:_ZN4Base5ArrayINS_13Channelmgrcfg6ChncfgEEC2IS2_EENS_6MblockIT_EE)
                  0009c91d    0000000e                 : Tunsuite_pa.obj (.text:_ZN4Base5ArrayINS_13Channelmgrcfg6ChnselEEC2IS2_EENS_6MblockIT_EE)
                  0009c92b    0000000e                 : Hevact_cpu2.obj (.text:_ZN4Base5ArrayINS_6ActionEEC2IS1_EENS_6MblockIT_EE)
                  0009c939    0000000e     base.lib : Sticktypes.obj (.text:_ZN4Base5ArrayINS_8StickoutEEC2IS1_EENS_6MblockIT_EE)
                  0009c947    0000000e     vpgnc.lib : Rvar_op_commit.obj (.text:_ZN4Base5ArrayINS_8TwraptunINS_9Tuntraits11Lossy_floatEfEEEC2IS4_EENS_6MblockIT_EE)
                  0009c955    0000000e     veronte.lib : Hevact_cpu2.obj (.text:_ZN4Base5ArrayINS_9Evactcfg0EEC2IS1_EENS_6MblockIT_EE)
                  0009c963    0000000e     first.lib : Lossy.obj (.text:_ZN4Base5Lossy9get_floatEv)
                  0009c971    0000000e     base.lib : Varmgr.obj (.text:_ZN4Base6Varmgr3setENS_4BvarEb)
                  0009c97f    0000000e              : Varmgr.obj (.text:_ZN4Base6Varmgr3setENS_4UvarEj)
                  0009c98d    0000000e              : Xcfile.obj (.text:_ZN4Base6Xcfile7set_crcEm)
                  0009c99b    0000000e              : CANin_p.obj (.text:_ZN4Base7CANin_p9In_filter4csetERNS_11Lossy_errorE)
                  0009c9a9    0000000e     veronte.lib : Copystep.obj (.text:_ZN4Base7TnarrayIN3Bsp5Hbvar5RangeELm16EED1Ev)
                  0009c9b7    0000000e                 : Copystep.obj (.text:_ZN4Base7TnarrayIN3Bsp5Hrvar5RangeELm13EED1Ev)
                  0009c9c5    0000000e                 : Tunsuite_pa.obj (.text:_ZN4Base8TwrapdesINS_9Tuntraits10DesdefaultINS_11TnarrayreszIN6Stanag11Stanag_port8Port_cfgELm6EEEEERS7_E4csetERNS_11Lossy_errorE)
                  0009c9d3    0000000e                 : Tunsuite_pa.obj (.text:_ZN4Base8TwrapdesINS_9Tuntraits15Arraytun_size16INS1_7Lossy16IjEENS_11TnarrayreszIjLm32EEENS_13Order_checker9AscendingIS6_EEEERS6_E4csetERNS_11Lossy_errorE)
                  0009c9e1    0000000e     base.lib : SerialCAN.obj (.text:_ZN4Base9SerialCAN6Config4csetERNS_11Lossy_errorE)
                  0009c9ef    0000000e              : SerialCAN.obj (.text:_ZN4Base9SerialCAN6Config5buildEmbf)
                  0009c9fd    0000000e     media.lib : Fstrfast.obj (.text:_ZN5Media8Fstrfast4csetERN4Base11Lossy_errorE)
                  0009ca0b    0000000e     vpgnc.lib : Vpu.obj (.text:_ZN5Vpgnc3Vpu7step_gcEv)
                  0009ca19    0000000e     maverick.lib : Notch_lpf_cfg.obj (.text:_ZN8Maverick13Notch_lpf_cfg4csetERN4Base11Lossy_errorE)
                  0009ca27    0000000e     pa_blocks.lib : Vector_saturation.obj (.text:_ZN8Maverick6TarrayIfE6lincmbEfRKN4Base5ArrayIfEE)
                  0009ca35    0000000e     midlevel.lib : Sys_status_mgr.obj (.text:_ZN8Midlevel14Sys_status_mgr4csetERN4Base11Lossy_errorE)
                  0009ca43    0000000e     pa_blocks.lib : Tp_vsdk_param.obj (.text:_ZN9Pa_blocks13Tp_vsdk_paramC1Ev)
                  0009ca51    0000000e                   : Is_gnss_ready_to_process.obj (.text:_ZN9Pa_blocks24Is_gnss_ready_to_processC1ERKNS_5StateERKNS_19Gnss_time_monotonicE)
                  0009ca5f    0000000e     veronte.lib : Hvar_cpu2.obj (.text:_ZNK3Bsp5Hbvar7get_refEv)
                  0009ca6d    0000000e                 : Hvar.obj (.text:_ZNK3Bsp5Hbvar8get_krefEv)
                  0009ca7b    0000000e                 : Hvar.obj (.text:_ZNK3Bsp5Huvar8get_krefEv)
                  0009ca89    0000000e     base.lib : Varmgr.obj (.text:_ZNK4Base6Varmgr3getEv)
                  0009ca97    0000000d     DSP2837x_ent.lib : Pwmdev.obj (.text:_ZN12Dsp28335_ent6Pwmdev9write_cmpEj)
                  0009caa4    0000000d     veronte.lib : Hsys.obj (.text:_ZN3Ver4Hsys11get_khwaddrEv)
                  0009cab1    0000000d     base.lib : Checklist.obj (.text:_ZN4Base10LinkedlistIRKNS_6IcheckEE14Const_iterator4nextEv)
                  0009cabe    0000000d     veronte.lib : Tunsuite_pa.obj (.text:_ZN4Base11CANin_suiteILj6EE4csetERNS_11Lossy_errorE)
                  0009cacb    0000000d                 : Tunsuite_pa.obj (.text:_ZN4Base11CANsc_suiteILj6EE4csetERNS_11Lossy_errorE)
                  0009cad8    0000000d                 : Tunsuite_pa.obj (.text:_ZN4Base12CANout_suiteILj6EE4csetERNS_11Lossy_errorE)
                  0009cae5    0000000d                 : Tunsuite_pa.obj (.text:_ZN4Base18Routing_table_dataILj2ELj16EE5Table4csetERNS_11Lossy_errorE)
                  0009caf2    0000000d     base.lib : Taskmgr.obj (.text:_ZN4Base7Taskmgr6cancelERKNS_5ItaskE)
                  0009caff    0000000d     veronte.lib : Copystep.obj (.text:_ZN4Base7TnarrayIN3Bsp5Huvar5RangeELm8EED1Ev)
                  0009cb0c    0000000d     base.lib : Xclkcfg.obj (.text:_ZN4Base7Xclkcfg4csetERNS_11Lossy_errorE)
                  0009cb19    0000000d              : Apos_data.obj (.text:_ZN4Base9Apos_data7set_llhERKNS_14TllhcompressedE)
                  0009cb26    0000000d              : Herrors.obj (.text:_ZN4Base9Fifospsc0IVKjNS_10SPSCtraits8InternalENS2_22Add_reference_to_traitINS2_8ExternalEE8TemplateEEC1EPS1_S9_S9_RVKS9_)
                  0009cb33    0000000d     veronte.lib : Hxcff.obj (.text:_ZN4Base9Fifospsc0IVKjNS_10SPSCtraits8InternalENS2_8ExternalEEC1EPS1_S6_S6_RVKS6_)
                  0009cb40    0000000d     pa_blocks.lib : Process_lidar.obj (.text:_ZN4Rfun8in_rangeIfEEbN4Base12JSF116_paramIT_E4typeES5_S5_)
                  0009cb4d    0000000d     vpgnc.lib : Event.obj (.text:_ZN5Vpgnc5Event5InputC1ERKNS_7VlimitsERKN4Base7UclkmgrERNS_6ImarksERNS_13Evt_wp_groupsERNS5_20Message_received_hndE)
                  0009cb5a    0000000d     stanag.lib : IStanag_msg_push.obj (.text:_ZN6Stanag14IStanag_msg_rx9Rx_paramsC1ERN4Base9U8istreamERKNS2_8Spkt_hdrERNS2_10StimestampERKNS2_15Auth_connectionERNS2_11Imsg_senderE)
                  0009cb67    0000000d     maverick.lib : Irquat.obj (.text:_ZN8Maverick6Irquat7rectifyEv)
                  0009cb74    0000000d     pa_blocks.lib : Vsdk_params.obj (.text:_ZN9Pa_blocks19Vsdk_vehicle_params4csetERN4Base11Lossy_errorE)
                  0009cb81    0000000d                   : Mission_reset_command.obj (.text:_ZN9Pa_blocks21Mission_reset_command4csetERN4Base5LossyE)
                  0009cb8e    0000000d     first.lib : Lossy.obj (.text:_ZNK4Base5Lossy17is_default_endianEv)
                  0009cb9b    0000000d     base.lib : Herrors.obj (.text:__sti___11_Herrors_cpp_b86a41c4)
                  0009cba8    0000000c     DSP2838x_ent.lib : Ipc_2838x.obj (.text:_ZN12Dsp28335_ent3Ipc16is_reset_requestEv)
                  0009cbb4    0000000c     DSP2837x_ent.lib : Pwmdev.obj (.text:_ZN12Dsp28335_ent6Pwmdev6ConfigC1Ev)
                  0009cbc0    0000000c     base.lib : Int_decimator.obj (.text:_ZN4Base13Int_decimatorC1Effb)
                  0009cbcc    0000000c     first.lib : Mutex.obj (.text:_ZN4Base5Mutex22enter_critical_sectionEv)
                  0009cbd8    0000000c     base.lib : Xcfile.obj (.text:_ZN4Base6Xcfile11exist_asyncENS_5Ifile3UidERb)
                  0009cbe4    0000000c              : Xcfile.obj (.text:_ZN4Base6Xcfile12remove_asyncENS_5Ifile3UidE)
                  0009cbf0    0000000c     first.lib : Bitutils.obj (.text:_ZN4Base8Bitutils9reflect16Ej)
                  0009cbfc    0000000c               : Bitutils.obj (.text:_ZN4Base8Bitutils9reflect32Em)
                  0009cc08    0000000c     base.lib : Spkt_hdr.obj (.text:_ZN4Base8Spkt_hdr9Msg_propsC1Ev)
                  0009cc14    0000000c     vpgnc.lib : Oprvar.obj (.text:_ZN5Vpgnc13is_rvar_rangeERKN4Base4VrefENS0_4RvarES4_)
                  0009cc20    0000000c               : Evtmgr.obj (.text:_ZN5Vpgnc6Evtmgr7UevtcmdC1Ev)
                  0009cc2c    0000000c     devices.lib : Ubxcfgmsgrate.obj (.text:_ZN7Devices3Ubx13Ubxcfgmsgrate4initENS0_5MsgidE)
                  0009cc38    0000000c     pa_blocks.lib : Rph_from_q.obj (.text:_ZN9Pa_blocks10Rph_from_q6OutputC1Ev)
                  0009cc44    0000000c                   : Measurements.obj (.text:_ZN9Pa_blocks12Measurements14Uplink_headingC1Ev)
                  0009cc50    0000000c                   : Aiding_sensors_info.obj (.text:_ZN9Pa_blocks19Aiding_sensors_info19set_all_healthinessEb)
                  0009cc5c    0000000c                   : Quiescence_detector.obj (.text:_ZN9Pa_blocks19Quiescence_detectorC1ERKN8Maverick9Irvector3ERKfS6_S6_)
                  0009cc68    0000000c                   : State_estimate_status_logic.obj (.text:_ZN9Pa_blocks27State_estimate_status_logicC1ERKN4Base5TtimeERKNS_19Aiding_sensors_infoERKNS_5State10Nav_statusE)
                  0009cc74    0000000c                   : On_ground.obj (.text:_ZN9Pa_blocks9On_ground19Introspect_onground3A2gC1ERNS_9Max_valueE)
                  0009cc80    0000000c     vpgnc.lib : Event.obj (.text:_ZNV4Base9Eventout03setEb)
                  0009cc8c    0000000c     rts2800_fpu64_eabi.lib : args_main.c.obj (.text)
                  0009cc98    0000000b     DSP2837x_ent.lib : Emif1.obj (.text:_ZN12Dsp28335_ent5Emif1C1Ev)
                  0009cca3    0000000b                      : Piectrl.obj (.text:_ZN12Dsp28335_ent7Piectrl10enable_pieEv)
                  0009ccae    0000000b     veronte.lib : Xfreqmgr0.obj (.text:_ZN3Ver9Xfreqmgr08sanitizeEv)
                  0009ccb9    0000000b     base.lib : Xclk.obj (.text:_ZN4Base4Xclk6cancelEv)
                  0009ccc4    0000000b     first.lib : Lossy.obj (.text:_ZN4Base5Lossy10get_uint32Ev)
                  0009cccf    0000000b               : Memmgr_c2000.obj (.text:_ZN4Base6Memmgr16close_allocationEv)
                  0009ccda    0000000b               : Bitutils.obj (.text:_ZN4Base8Bitutils8reflectnEmj)
                  0009cce5    0000000b               : Memcpy32.obj (.text:_ZN4Base8Memcpy324copyEPvPKvj)
                  0009ccf0    0000000b               : PDIcheck.obj (.text:_ZN4Base8PDIcheck7OpflushC1Ev)
                  0009ccfb    0000000b     vpgnc.lib : Opranges.obj (.text:_ZN5Vpgnc8Opranges3RngC1Ev)
                  0009cd06    0000000b     vblocks.lib : Multi_interpolator_tun.obj (.text:_ZN7Vblocks22Multi_interpolator_tun8Pdi_dataC1Ev)
                  0009cd11    0000000b     maverick.lib : Rvector3.obj (.text:_ZN8Maverick8Rvector3C1Efff)
                  0009cd1c    0000000b     midlevel.lib : CAN_term_cfg.obj (.text:_ZN8Midlevel12CAN_term_cfgC1EN12Dsp28335_ent6GPIOidES2_S2_)
                  0009cd27    0000000b     pa_blocks.lib : Time_in_tai.obj (.text:_ZN9Pa_blocks11Time_in_taiC1ERKbRKN4Base5TtimeES6_)
                  0009cd32    0000000b                   : Pa_profiling.obj (.text:_ZN9Pa_blocks12Pa_profiling3ticEv)
                  0009cd3d    0000000b                   : Tsc.obj (.text:_ZN9Pa_blocks3Tsc16Vsdk_parameters_C1Ev)
                  0009cd48    0000000b                   : Heading.obj (.text:_ZN9Pa_blocks7Heading31update_from_site_specific_paramERKNS_11Site_configE)
                  0009cd53    0000000b                   : On_ground.obj (.text:_ZN9Pa_blocks9On_ground6OutputC1ERNS_9Max_valueE)
                  0009cd5e    0000000b     base.lib : Field_real_dec_ASCII.obj (.text:_ZNK4Base20Field_real_dec_ASCII8get_sizeEv)
                  0009cd69    0000000b              : Xclk.obj (.text:_ZNK4Base4Xclk7ongoingEv)
                  0009cd74    0000000b     pa_blocks.lib : On_ground.obj (.text:_ZNK9Pa_blocks9On_ground19Introspect_onground3G2a4cgetERN4Base5LossyE)
                  0009cd7f    0000000b     vpgnc.lib : Rvar_op_commit.obj (.text:_ZThn2_NK4Base8TwraptunINS_9Tuntraits11Lossy_floatEfE4cgetERNS_5LossyE)
                  0009cd8a    0000000b     pa_blocks.lib : Rph_from_q.obj (.text:__sti___14_Rph_from_q_cpp_c207a4d8)
                  0009cd95    0000000b     rts2800_fpu64_eabi.lib : guard.c.obj (.text)
                  0009cda0    0000000a     DSP2837x_ent.lib : System_cpu2.obj (.text:_ZN12Dsp28335_ent18post_init_sys_cpu2Ev)
                  0009cdaa    0000000a     DSP2838x_ent.lib : Ipc_2838x.obj (.text:_ZN12Dsp28335_ent3Ipc11cpu1_unlockEv)
                  0009cdb4    0000000a     base.lib : Stimestamp.obj (.text:_ZN4Base10Stimestamp4csetERNS_9U8istreamE)
                  0009cdbe    0000000a     first.lib : Lossy.obj (.text:_ZN4Base5Lossy10get_uint16Ev)
                  0009cdc8    0000000a               : Lossy.obj (.text:_ZN4Base5Lossy9get_uint8Ev)
                  0009cdd2    0000000a               : Mutex.obj (.text:_ZN4Base5Mutex21exit_critical_sectionEv)
                  0009cddc    0000000a               : Mutex.obj (.text:_ZN4Base5MutexC1Eb)
                  0009cde6    0000000a               : Mutex.obj (.text:_ZN4Base5MutexD1Ev)
                  0009cdf0    0000000a     pa_blocks.lib : State_estimate_logic.obj (.text:_ZN4Rfun6interpIfEET_N4Base12JSF116_paramIS1_E4typeES5_S5_)
                  0009cdfa    0000000a     media.lib : Cfgmgr.obj (.text:_ZN5Media6Cfgmgr11set_processEjN4Base5Ifile9Open_modeENS1_3Cfg10Config_argENS0_5StateE)
                  0009ce04    0000000a               : Cfgmgr.obj (.text:_ZN5Media6Cfgmgr4loadEN4Base6LoadstE)
                  0009ce0e    0000000a     vpgnc.lib : CAN_cfg_maint_astro.obj (.text:_ZN5Vpgnc47_GLOBAL__N__23_CAN_cfg_maint_astro_cpp_2770a0d012set_can_mbxsERVN12Dsp28335_ent6CANcfg5RxcfgERKN4Base12CANid_filterE)
                  0009ce18    0000000a     base.lib : Cyphal.obj (.text:_ZN6Cyphal10Cyphal_msg7MutatorD1Ev)
                  0009ce22    0000000a     midlevel.lib : Stanag_cyphal_wrap.obj (.text:_ZN6Cyphal46_GLOBAL__N__22_Stanag_cyphal_wrap_cpp_031033ee12Dummy_sender4sendEN4Base8Msg_dataE)
                  0009ce2c    0000000a     stanag.lib : IStanag_msg_pull.obj (.text:_ZN6Stanag14IStanag_msg_tx9Tx_paramsC1ERN4Base9U8ostreamERNS2_15Auth_connectionERNS2_11Imsg_senderERKNS2_8Msg_dataE)
                  0009ce36    0000000a     pa_blocks.lib : Nav_builder.obj (.text:_ZN9Pa_blocks11Nav_builder4csetERN4Base11Lossy_errorE)
                  0009ce40    0000000a                   : Gnss_time_monotonic.obj (.text:_ZN9Pa_blocks19Gnss_time_monotonicC1Ev)
                  0009ce4a    0000000a                   : State_estimate_logic.obj (.text:_ZN9Pa_blocks20State_estimate_logic19init_state_estimateEv)
                  0009ce54    0000000a                   : Mission_reset_command.obj (.text:_ZN9Pa_blocks21Mission_reset_commandC1Ev)
                  0009ce5e    0000000a     DSP2837x_ent.lib : GPIO.obj (.text:_ZNK12Dsp28335_ent4GPIO3getEv)
                  0009ce68    0000000a     base.lib : Varmgr.obj (.text:_ZNK4Base6Varmgr3getENS_4BvarE)
                  0009ce72    0000000a              : Varmgr.obj (.text:_ZNK4Base6Varmgr3getENS_4RvarE)
                  0009ce7c    0000000a              : Varmgr.obj (.text:_ZNK4Base6Varmgr3getENS_4UvarE)
                  0009ce86    0000000a              : Varmgr.obj (.text:_ZNK4Base6Varmgr7get_u64Ej)
                  0009ce90    0000000a     vpgnc.lib : Rvar_op_commit.obj (.text:_ZNK4Base8TwraptunINS_9Tuntraits11Lossy_floatEfE4cgetERNS_5LossyE)
                  0009ce9a    00000009     DSP2837x_ent.lib : Default_isr_cpu2.obj (.text:_ZN12Dsp28335_ent11Default_isr3isrEv)
                  0009cea3    00000009     DSP2838x_ent.lib : Ipc_2838x.obj (.text:_ZN12Dsp28335_ent3Ipc20cpu2_wait_for_unlockEv)
                  0009ceac    00000009                      : Ipc_2838x.obj (.text:_ZN12Dsp28335_ent3Ipc27send_ack_reset_request_2to1Ev)
                  0009ceb5    00000009                      : Ipc_2838x.obj (.text:_ZN12Dsp28335_ent3Ipc28send_nack_reset_request_2to1Ev)
                  0009cebe    00000009     DSP2837x_ent.lib : Delay.obj (.text:_ZN12Dsp28335_ent5Delay2msEj)
                  0009cec7    00000009                      : Pwmdev.obj (.text:_ZN12Dsp28335_ent6Pwmdev11set_enabledEb)
                  0009ced0    00000009     veronte.lib : Hxcfield_cpu2.obj (.text:_ZN3Ver8Hxcfield14get_ftmod_stepEv)
                  0009ced9    00000009     base.lib : Stimestamp.obj (.text:_ZN4Base10Stimestamp4csetERNS_11U16stream_rE)
                  0009cee2    00000009     vpgnc.lib : Vpu.obj (.text:_ZN4Base11Vpktsend_xc4sendERNS_5EspktE)
                  0009ceeb    00000009     base.lib : Auth_connection.obj (.text:_ZN4Base15Auth_connectionC1Ev)
                  0009cef4    00000009              : Cfg_utils.obj (.text:_ZN4Base3Cfg24get_cget_response_headerENS0_2IdERNS_5LossyE)
                  0009cefd    00000009              : Sync.obj (.text:_ZN4Base4Sync9set_sync0Em)
                  0009cf06    00000009              : Xcrd.obj (.text:_ZN4Base4Xcrd6commitEv)
                  0009cf0f    00000009     maverick.lib : Rvector.obj (.text:_ZN4Base5ArrayIfEC1EPfm)
                  0009cf18    00000009     first.lib : Memmgr_c2000.obj (.text:_ZN4Base6Memmgr21get_allocator_of_typeENS0_4TypeE)
                  0009cf21    00000009     base.lib : Varmgr.obj (.text:_ZN4Base6Varmgr3setENS_8Bvar_mapERKNS_8Hbmapvar4TypeE)
                  0009cf2a    00000009     pa_blocks.lib : State_estimate_logic.obj (.text:_ZN4Base7TnarrayIfLm10EE7set_allEf)
                  0009cf33    00000009                   : Input_gnss_pos.obj (.text:_ZN4Base7TnarrayIfLm3EE7set_allEf)
                  0009cf3c    00000009     veronte.lib : Hx_imu_rec0.obj (.text:_ZN4Base7TnarrayIfLm6EE7set_allEf)
                  0009cf45    00000009     pa_blocks.lib : State_estimate_logic.obj (.text:_ZN4Base7TnarrayIfLm8EE7set_allEf)
                  0009cf4e    00000009     base.lib : CANgpio_p.obj (.text:_ZN4Base7TnarrayIiLm16EE7set_allEi)
                  0009cf57    00000009     vpgnc.lib : Vpu.obj (.text:_ZN4Base7TnarrayIjLm1EE7set_allEj)
                  0009cf60    00000009     base.lib : Presence_vec.obj (.text:_ZN4Base7TnarrayIjLm3EE7set_allEj)
                  0009cf69    00000009     first.lib : Bitmblock.obj (.text:_ZN4Base9Bitmblock5zerosEv)
                  0009cf72    00000009     midlevel.lib : Stanag_cyphal_wrap.obj (.text:_ZN6Cyphal18Stanag_cyphal_wrap4wrapERN4Base5EspktERNS_19CyphalStanag_tx_hndENS1_15Stanag_msg_type8Msg_typeE)
                  0009cf7b    00000009     Vmain_cpu2.obj (.text:_ZN7Project10Vmain_cpu27PreinitC1Ev)
                  0009cf84    00000009     Vmain_cpu2.obj (.text:_ZN7Project10Vmain_cpu29Wait_addrC1Ev)
                  0009cf8d    00000009     maverick.lib : Rvector.obj (.text:_ZN8Maverick7RvectorC1EjN4Base6Memmgr4TypeE)
                  0009cf96    00000009     pa_blocks.lib : Covariance_ud.obj (.text:_ZN8Maverick7RvectorC1IN4Base7TnarrayIfLm15EEEEERT_)
                  0009cf9f    00000009                   : Measurements.obj (.text:_ZN9Pa_blocks12Measurements12Dyn_pressureC1Ev)
                  0009cfa8    00000009                   : Measurements.obj (.text:_ZN9Pa_blocks12Measurements15Static_pressureC1Ev)
                  0009cfb1    00000009                   : Vsdk_navigation_params.obj (.text:_ZN9Pa_blocks22Vsdk_navigation_params11Wind_paramsC1Ev)
                  0009cfba    00000009                   : Vsdk_navigation_params.obj (.text:_ZN9Pa_blocks22Vsdk_navigation_params7HeadingC1Ev)
                  0009cfc3    00000009                   : Ttcg.obj (.text:_ZN9Pa_blocks4Ttcg10Vsdk_paramC1Ev)
                  0009cfcc    00000009                   : State.obj (.text:_ZN9Pa_blocks5State10Nav_statusC1Ev)
                  0009cfd5    00000009     base.lib : Field_real_hex_ASCII.obj (.text:_ZNK4Base20Field_real_hex_ASCII4cgetERNS_5LossyE)
                  0009cfde    00000009              : Varmgr.obj (.text:_ZNK4Base6Varmgr3getENS_8Bvar_mapERNS_8Hbmapvar4TypeE)
                  0009cfe7    00000009     rts2800_fpu64_eabi.lib : _lock.c.obj (.text)
                  0009cff0    00000008     DSP28x_CodeStartBranch.obj (.text)
                  0009cff8    00000008     DSP2837x_ent.lib : GPIO.obj (.text:_ZN12Dsp28335_ent14Gpio_data_regs8get_bankENS_6GPIOidE)
                  0009d000    00000008                      : GPIO.obj (.text:_ZN12Dsp28335_ent4GPIO3setEb)
                  0009d008    00000008                      : Delay.obj (.text:_ZN12Dsp28335_ent5Delay2usEj)
                  0009d010    00000008     veronte.lib : Hvar_cpu2.obj (.text:_ZN3Bsp7Hu64varC1Ej)
                  0009d018    00000008     vpgnc.lib : Vpu.obj (.text:_ZN3Bsp8is_astroENS_6SysappE)
                  0009d020    00000008     veronte.lib : Hx_nav_msg_cpu2.obj (.text:_ZN3Ver10Hx_nav_msg11get_nav_msgEv)
                  0009d028    00000008                 : Hnav_introspect_compact_cpu2.obj (.text:_ZN3Ver23Hnav_introspect_compact26get_nav_introspect_compactEv)
                  0009d030    00000008                 : Hstate_estimate_compact_cpu2.obj (.text:_ZN3Ver23Hstate_estimate_compact26get_state_estimate_compactEv)
                  0009d038    00000008                 : Copystep.obj (.text:_ZN3Ver36_GLOBAL__N__12_Copystep_cpp_e59cf1d56HrangeIN3Bsp5HbvarEEC1Ev)
                  0009d040    00000008                 : Copystep.obj (.text:_ZN3Ver36_GLOBAL__N__12_Copystep_cpp_e59cf1d56HrangeIN3Bsp5HrvarEEC1Ev)
                  0009d048    00000008                 : Copystep.obj (.text:_ZN3Ver36_GLOBAL__N__12_Copystep_cpp_e59cf1d56HrangeIN3Bsp5HuvarEEC1Ev)
                  0009d050    00000008                 : Hxcfield.obj (.text:_ZN3Ver8Hxcfield13get_kfstrfastEv)
                  0009d058    00000008                 : Hxcfield.obj (.text:_ZN3Ver8Hxcfield18get_kfmsg8consumerEv)
                  0009d060    00000008                 : Hxcfield.obj (.text:_ZN3Ver8Hxcfield20get_kfmsgcanconsumerEv)
                  0009d068    00000008                 : Hcfg_mode_cpu2.obj (.text:_ZN3Ver9Hcfg_mode12get_cfgmodesEv)
                  0009d070    00000008                 : Hd_vector.obj (.text:_ZN3Ver9Hd_vector12get_d_vectorEv)
                  0009d078    00000008     base.lib : Int_decimator.obj (.text:_ZN4Base13Int_decimatorC1Ejb)
                  0009d080    00000008     first.lib : PDIcheck.obj (.text:_ZN4Base17Fifospscwr_commitIVjNS_10SPSCtraits8ExternalENS2_12Internal_refEE5writeIS1_NS_8Cptraits8OperatorIS1_S1_EEEEbNS_12JSF116_paramIT_E4typeE)
                  0009d088    00000008     veronte.lib : Hvar_cpu2.obj (.text:_ZN4Base5ArrayIKjEC1EPS1_m)
                  0009d090    00000008     first.lib : Error.obj (.text:_ZN4Base5ArrayINS_8ErrorsrcEEC1EPS1_m)
                  0009d098    00000008               : Vstring.obj (.text:_ZN4Base5ArrayIcEC1EPcm)
                  0009d0a0    00000008               : Lossy.obj (.text:_ZN4Base5ArrayIjEC1EPjm)
                  0009d0a8    00000008               : Lossy.obj (.text:_ZN4Base5Lossy11align_bytesEv)
                  0009d0b0    00000008               : Lossy.obj (.text:_ZN4Base5Lossy5alignEv)
                  0009d0b8    00000008     vpgnc.lib : Vpu.obj (.text:_ZN4Base5RngitIN12Dsp28335_ent6Pwmdev5PWMidEE4nextEv)
                  0009d0c0    00000008               : Vpu.obj (.text:_ZN4Base5RngitINS_3FidEE4nextEv)
                  0009d0c8    00000008     veronte.lib : Copystep.obj (.text:_ZN4Base5RngitINS_4RvarEE4nextEv)
                  0009d0d0    00000008     base.lib : CANin_p.obj (.text:_ZN4Base7CANin_p6Config13build_defaultEv)
                  0009d0d8    00000008              : Fheader.obj (.text:_ZN4Base7Fheader12wr_availableEj)
                  0009d0e0    00000008              : Stickrawtrans.obj (.text:_ZN4Base8Lintrans5buildEff)
                  0009d0e8    00000008     midlevel.lib : Irxfw.obj (.text:_ZN6Stanag14IStanag_rx_pktC1Ev)
                  0009d0f0    00000008     maverick.lib : Rvector.obj (.text:_ZN8Maverick7RvectorC1EPfj)
                  0009d0f8    00000008     Blockfactory_par.obj (.text:_ZN8Midlevel19Cyphal_cget_wrapper10on_tx_implERN6Stanag14IStanag_msg_tx9Tx_paramsE)
                  0009d100    00000008     pa_blocks.lib : Rph_from_q.obj (.text:_ZN9Pa_blocks10Rph_from_qC1ERKN4Base7TnarrayIfLm4EEE)
                  0009d108    00000008                   : Time_cache.obj (.text:_ZN9Pa_blocks10Time_cacheC1Ev)
                  0009d110    00000008                   : Latch_on_first_true.obj (.text:_ZN9Pa_blocks19Latch_on_first_true4stepEb)
                  0009d118    00000008                   : Onground_controller_info.obj (.text:_ZN9Pa_blocks24Onground_controller_infoC1Ev)
                  0009d120    00000008                   : Aacg.obj (.text:_ZN9Pa_blocks4Aacg11Vsdk_param_C1Ev)
                  0009d128    00000008                   : On_ground.obj (.text:_ZN9Pa_blocks9On_ground19Introspect_ongroundC1ERNS_9Max_valueE)
                  0009d130    00000008     base.lib : Stimestamp.obj (.text:_ZNK4Base10Stimestamp4cgetERNS_9U8ostreamE)
                  0009d138    00000008              : Spkt_hdr.obj (.text:_ZNK4Base8Spkt_hdr9Msg_props13get_chk_bytesEv)
                  0009d140    00000008     rts2800_fpu64_eabi.lib : copy_decompress_none.c.obj (.text:decompress:none)
                  0009d148    00000007     FPU.lib : memcpy_fast.obj (.text)
                  0009d14f    00000007     DSP2837x_ent.lib : System_cpu2.obj (.text:_ZN12Dsp28335_ent15init_sys_cpu2_0Ev)
                  0009d156    00000007     veronte.lib : Hnav_inputs.obj (.text:_ZN3Ver11Hnav_inputs27get_kmotor_performance_liteEv)
                  0009d15d    00000007                 : Hstate_estimate.obj (.text:_ZN3Ver15Hstate_estimate19get_kstate_estimateEv)
                  0009d164    00000007                 : Hmeas.obj (.text:_ZN3Ver5Hmeas9get_kmeasEv)
                  0009d16b    00000007                 : Hxcfg_cpu2.obj (.text:_ZN3Ver5Hxcfg8get_xcfgEv)
                  0009d172    00000007                 : Hxcfg.obj (.text:_ZN3Ver5Hxcfg9get_kxcfgEv)
                  0009d179    00000007                 : Hevact_cpu2.obj (.text:_ZN3Ver6Hevact15get_eventsreadyEv)
                  0009d180    00000007                 : Hevact_cpu2.obj (.text:_ZN3Ver6Hevact9get_evoutEv)
                  0009d187    00000007                 : Hxcygen_cpu2.obj (.text:_ZN3Ver7Hxcygen9get_cygenEv)
                  0009d18e    00000007                 : Hlicense.obj (.text:_ZN3Ver8Hlicense16get_kpermissionsEv)
                  0009d195    00000007                 : Hregvars.obj (.text:_ZN3Ver8Hregvars12get_kregvarsEv)
                  0009d19c    00000007     base.lib : Uclkmgr.obj (.text:_ZN4Base5ArrayINS_4UclkEEC2INS_4RvarEEEmNS_6Memmgr4TypeENS_5RngitIT_EE)
                  0009d1a3    00000007              : Xcfilecli.obj (.text:_ZN4Base5XccliINS_10XcfilectrlENS_9XcfilereqEEC1ERVKS1_RNS_6TdsyncIS2_NS_12Tdsynctraits11Rd_blockingIS2_NS_8Cptraits6PodrawIVS2_EEEENS7_2WrIS2_NS9_8OperatorIS2_S2_EEEEEE)
                  0009d1aa    00000007     veronte.lib : Hxcfile_cpu2.obj (.text:_ZN4Base5XccliINS_9XclogctrlENS_8XclogreqEEC1ERVKS1_RNS_6TdsyncIS2_NS_12Tdsynctraits11Rd_blockingIS2_NS_8Cptraits6PodrawIVS2_EEEENS7_2WrIS2_NS9_8OperatorIS2_S2_EEEEEE)
                  0009d1b1    00000007     pa_blocks.lib : Blk_pa_nav.obj (.text:_ZN4Base8Cptraits6PodrawIVNS_13Mabs_time_fixEE4copyERVKS2_RS3_)
                  0009d1b8    00000007     veronte.lib : Hx_imu_rec0.obj (.text:_ZN4Base8Cptraits6PodrawIVNS_15Imu_output_dataEE4copyERVKS2_RS3_)
                  0009d1bf    00000007     pa_blocks.lib : Blk_pa_nav.obj (.text:_ZN4Base8Cptraits6PodrawIVNS_4MvelEE4copyERVKS2_RS3_)
                  0009d1c6    00000007                   : Blk_pa_nav.obj (.text:_ZN4Base8Cptraits6PodrawIVNS_9MpositionEE4copyERVKS2_RS3_)
                  0009d1cd    00000007                   : Blk_pa_nav.obj (.text:_ZN4Base8Cptraits6PodrawIVNS_9U8pkarrayILm201EEEE4copyERVKS3_RS4_)
                  0009d1d4    00000007     veronte.lib : Copystep.obj (.text:_ZN4Base8Cptraits6PodrawIVfE4copyERVKfRS2_)
                  0009d1db    00000007     pa_blocks.lib : Blk_pa_nav.obj (.text:_ZN4Base8Cptraits6PodrawIViE4copyERVKiRS2_)
                  0009d1e2    00000007     vpgnc.lib : Rvar_op_commit.obj (.text:_ZN4Base8TwraptunINS_9Tuntraits11Lossy_floatEfE4csetERNS_11Lossy_errorE)
                  0009d1e9    00000007     first.lib : Allocator.obj (.text:_ZN4Base9Allocator12allocate_oneEm)
                  0009d1f0    00000007               : PDIcheck.obj (.text:_ZN4Base9Fifospsc0IVjNS_10SPSCtraits22Add_reference_to_traitINS2_8ExternalEE8TemplateENS2_12Internal_refEE6set_wrEPS1_)
                  0009d1f7    00000007               : Rfun.obj (.text:_ZN4Rfun5asinwEf)
                  0009d1fe    00000007     media.lib : Cfgmgr.obj (.text:_ZN5Media34_GLOBAL__N__10_Cfgmgr_cpp_be3311b217Itunable_as_async4csetERN4Base11Lossy_errorE)
                  0009d205    00000007               : Cfgmgr.obj (.text:_ZN5Media34_GLOBAL__N__10_Cfgmgr_cpp_be3311b224Ideserializable_as_async4csetERN4Base11Lossy_errorE)
                  0009d20c    00000007     vpgnc.lib : Varinit.obj (.text:_ZN5Vpgnc7Varinit6Value0C1Ev)
                  0009d213    00000007     maverick.lib : Rmatrix.obj (.text:_ZN8Maverick7RmatrixC1EjjN4Base6Memmgr4TypeE)
                  0009d21a    00000007     midlevel.lib : Default_cfg.obj (.text:_ZN8Midlevel11Default_cfg15set_default_canERN12Dsp28335_ent6CANcfgEmbb)
                  0009d221    00000007                  : Sys_status_mgr.obj (.text:_ZN8Midlevel14Sys_status_mgr6ConfigC1Ev)
                  0009d228    00000007     pa_blocks.lib : Blk_pa_nav.obj (.text:_ZN9Pa_blocks12Command_fifoINS_26Controllers_state_estimateELj1EE4ElemC1Ev)
                  0009d22f    00000007                   : Measurements.obj (.text:_ZN9Pa_blocks12Measurements12Dyn_pressure10CalibratedC1Ev)
                  0009d236    00000007                   : Vsdk_navigation_params.obj (.text:_ZN9Pa_blocks22Vsdk_navigation_params8Air_dataC1Ev)
                  0009d23d    00000007                   : Evasive_maneuver_status.obj (.text:_ZN9Pa_blocks23Evasive_maneuver_statusC1Ev)
                  0009d244    00000007                   : Is_gnss_ready_to_process.obj (.text:_ZN9Pa_blocks24Is_gnss_ready_to_process6OutputC1Ev)
                  0009d24b    00000007                   : Estimator.obj (.text:_ZN9Pa_blocks9Estimator9vms_resetEv)
                  0009d252    00000007     vpgnc.lib : Vpu.obj (.text:_ZNK8Midlevel17Routing_table_cmdIN4Base18Routing_table_dataILj2ELj16EEEE4cgetERNS1_5LossyE)
                  0009d259    00000007     rts2800_fpu64_eabi.lib : memset.c.obj (.text)
                  0009d260    00000006     FPU.lib : memset_fast.obj (.text)
                  0009d266    00000006     DSP2837x_ent.lib : GPIOvalid.obj (.text:_ZN12Dsp28335_ent15is_gpioid_validEj)
                  0009d26c    00000006     pa_blocks.lib : Controllers_state_estimate.obj (.text:_ZN19Cyphal_common_types18deserialize_bool16ERbRN4Base5LossyE)
                  0009d272    00000006     base.lib : Auth_connection.obj (.text:_ZN4Base15Auth_connectionC1ENS_7AddressE)
                  0009d278    00000006     first.lib : Memmgr_c2000.obj (.text:_ZN4Base6Memmgr22get_external_allocatorEv)
                  0009d27e    00000006               : Memmgr_c2000.obj (.text:_ZN4Base6Memmgr22get_internal_allocatorEv)
                  0009d284    00000006               : Memmgr_c2000.obj (.text:_ZN4Base6MemmgrC1ERNS_9AllocatorES2_)
                  0009d28a    00000006     media.lib : Cfgmgr.obj (.text:_ZN5Media6Cfgmgr12Itundes_wrap4csetERN4Base11Lossy_errorE)
                  0009d290    00000006     Blockfactory_par.obj (.text:_ZN7Vblocks12Blockfactory12step_pre_gncEv)
                  0009d296    00000006     Blockfactory_par.obj (.text:_ZN7Vblocks12Blockfactory13post_pdi_loadEv)
                  0009d29c    00000006     pa_blocks.lib : Message_id.obj (.text:_ZN9Pa_blocks10Message_id4csetERN4Base5LossyE)
                  0009d2a2    00000006                   : Land_manager.obj (.text:_ZN9Pa_blocks12Land_manager10Vsdk_param4csetERN4Base11Lossy_errorE)
                  0009d2a8    00000006                   : Takeoff_manager.obj (.text:_ZN9Pa_blocks15Takeoff_manager10Vsdk_param4csetERN4Base11Lossy_errorE)
                  0009d2ae    00000006                   : Detect_pseudo_jerk.obj (.text:_ZN9Pa_blocks18Detect_pseudo_jerk6OutputC1Ev)
                  0009d2b4    00000006     veronte.lib : Activated_knob_version.obj (.text:_ZN9Pa_blocks22Activated_knob_version6Config4csetERN4Base11Lossy_errorE)
                  0009d2ba    00000006     pa_blocks.lib : Vsdk_navigation_params.obj (.text:_ZN9Pa_blocks22Vsdk_navigation_params14Vehicle_params4csetERN4Base11Lossy_errorE)
                  0009d2c0    00000006                   : Vsdk_navigation_params.obj (.text:_ZN9Pa_blocks22Vsdk_navigation_params8Air_data4csetERN4Base11Lossy_errorE)
                  0009d2c6    00000006                   : Recovery_route_constructor.obj (.text:_ZN9Pa_blocks26Recovery_route_constructor5Param4csetERN4Base11Lossy_errorE)
                  0009d2cc    00000006                   : State_estimate_status_logic.obj (.text:_ZN9Pa_blocks27State_estimate_status_logic6StatusC1ERKb)
                  0009d2d2    00000006                   : Waca.obj (.text:_ZN9Pa_blocks4Waca10Vsdk_param4csetERN4Base11Lossy_errorE)
                  0009d2d8    00000006                   : Estimator.obj (.text:_ZN9Pa_blocks9Estimator6OutputC1ERKNS_5StateERKNS_14State_estimateERKNS_9On_ground19Introspect_ongroundE)
                  0009d2de    00000006                   : Message_id.obj (.text:_ZNK9Pa_blocks10Message_id4cgetERN4Base5LossyE)
                  0009d2e4    00000006     first.lib : Lossy.obj (.text:_ZNV4Base10U8pkmblock3setEmh)
                  0009d2ea    00000006     vpgnc.lib : Evtmgr.obj (.text:_ZNV4Base9Eventout013set_and_clearEv)
                  0009d2f0    00000006     stanag.lib : Vehicle_identifier_cfg.obj (.text:_ZNVK4Base8Address0eqENS0_4AddrE)
                  0009d2f6    00000006     DSP28x.lib : Absolute_time.obj (.text:__sti___17_Absolute_time_cpp_c8996795)
                  0009d2fc    00000006     midlevel.lib : Sys_status_mgr.obj (.text:__sti___18_Sys_status_mgr_cpp_2a0467ea)
                  0009d302    00000006     rts2800_fpu64_eabi.lib : copy_zero_init.c.obj (.text:decompress:ZI)
                  0009d308    00000005     DSP2838x_ent.lib : Ipc_2838x.obj (.text:_ZN12Dsp28335_ent3Ipc11reset_flagsEv)
                  0009d30d    00000005     DSP2837x_ent.lib : GPIO.obj (.text:_ZN12Dsp28335_ent4GPIO6set_hiEv)
                  0009d312    00000005                      : GPIO.obj (.text:_ZN12Dsp28335_ent4GPIO6set_loEv)
                  0009d317    00000005                      : GPIO.obj (.text:_ZN12Dsp28335_ent4GPIO6toggleEv)
                  0009d31c    00000005                      : Emif1.obj (.text:_ZN12Dsp28335_ent5Emif116get_async_cs2_crEv)
                  0009d321    00000005     veronte.lib : Hvar_cpu2.obj (.text:_ZN3Bsp7Hu64var3getEv)
                  0009d326    00000005                 : Hsys.obj (.text:_ZN3Ver4Hsys13get_ksen_initEv)
                  0009d32b    00000005                 : Hsys.obj (.text:_ZN3Ver4Hsys20get_loadst_requestedEv)
                  0009d330    00000005     base.lib : Field_cfg.obj (.text:_ZN4Base14Cksum_sagetech5resetEv)
                  0009d335    00000005     veronte.lib : Hvar_cpu2.obj (.text:_ZN4Base5Dsync6ReaderC1ERVKS0_)
                  0009d33a    00000005     vpgnc.lib : Vpu.obj (.text:_ZN4Base8BitarrayILj16EE7set_allEv)
                  0009d33f    00000005     base.lib : Presence_vec.obj (.text:_ZN4Base8BitarrayILj40EE7set_allEv)
                  0009d344    00000005     first.lib : Allocator.obj (.text:_ZN4Base9Allocator16Allocator_buffer16close_allocationEv)
                  0009d349    00000005     media.lib : Cfgmgr.obj (.text:_ZN5Media6Cfgmgr8add_metaEN4Base3Cfg2IdE)
                  0009d34e    00000005     vpgnc.lib : Vpu.obj (.text:_ZN5Vpgnc3Vpu9step_xqrdEf)
                  0009d353    00000005     maverick.lib : Rvector3.obj (.text:_ZN8Maverick8Rvector3C1Ev)
                  0009d358    00000005     pa_blocks.lib : Land_manager.obj (.text:_ZN9Pa_blocks12Land_manager10Vsdk_paramC1Ev)
                  0009d35d    00000005                   : State_history.obj (.text:_ZN9Pa_blocks13State_history5resetEv)
                  0009d362    00000005                   : Vsdk_common_params.obj (.text:_ZN9Pa_blocks18Vsdk_common_paramsC1Ev)
                  0009d367    00000005                   : Tsc.obj (.text:_ZN9Pa_blocks3Tsc41Vsdk_parameters_a2a_bypass_switch_blenderC1Ev)
                  0009d36c    00000005     geomodel.lib : Apos.obj (.text:_ZNK3Geo31_GLOBAL__N__8_Apos_cpp_ad6fc63620Height_computer_null10msl_heightERKN4Base6LonlatE)
                  0009d371    00000005                  : Apos.obj (.text:_ZNK3Geo31_GLOBAL__N__8_Apos_cpp_ad6fc63620Height_computer_null12wgs84_heightERKN4Base6LonlatE)
                  0009d376    00000005     veronte.lib : Tunsuite_pa.obj (.text:_ZThn2_NK4Base8TwraptunINS_9Tuntraits10TundefaultIN9Pa_blocks10DComms_cfg7DynamicEEERS5_E4cgetERNS_5LossyE)
                  0009d37b    00000005                 : Tunsuite_pa.obj (.text:_ZThn2_NK4Base8TwraptunINS_9Tuntraits10TundefaultIN9Pa_blocks11Site_config6ConfigEEERS5_E4cgetERNS_5LossyE)
                  0009d380    00000005     vpgnc.lib : Evtmgr.obj (.text:_ZThn2_NK4Base8TwraptunINS_9Tuntraits10TundefaultINS_7UclkmgrEEERS3_E4cgetERNS_5LossyE)
                  0009d385    00000005               : Polymgr_impl_amz.obj (.text:__sti___20_Polymgr_impl_amz_cpp_1b434771)
                  0009d38a    00000005     pa_blocks.lib : Aee.obj (.text:__sti___7_Aee_cpp_d099247d)
                  0009d38f    00000005     rts2800_fpu64_eabi.lib : delete.c.obj (.text)
                  0009d394    00000004     DSP2837x_ent.lib : Cpusys.obj (.text:_ZN12Dsp28335_ent6CpusysC1Ev)
                  0009d398    00000004                      : Piectrl.obj (.text:_ZN12Dsp28335_ent7PiectrlC1Ev)
                  0009d39c    00000004     veronte.lib : Sysaddr_ver2.obj (.text:_ZN3Bsp19get_addr_location_kEv)
                  0009d3a0    00000004                 : Hauth_connections_cpu2.obj (.text:_ZN3Ver17Hauth_connections16get_kconnectionsEv)
                  0009d3a4    00000004                 : Hsys.obj (.text:_ZN3Ver4Hsys11get_kpctimeEv)
                  0009d3a8    00000004                 : Hsys.obj (.text:_ZN3Ver4Hsys12get_ksysaddrEv)
                  0009d3ac    00000004                 : Hsys.obj (.text:_ZN3Ver4Hsys13get_kgnsstimeEv)
                  0009d3b0    00000004                 : Hxcfield_cpu2.obj (.text:_ZN3Ver8Hxcfield9get_ftmodEv)
                  0009d3b4    00000004     base.lib : Field_cfg.obj (.text:_ZN4Base10Cksum_modn11update_byteEh)
                  0009d3b8    00000004     veronte.lib : Hxcfield_cpu2.obj (.text:_ZN4Base14Twraptun_asyncINS_9Tuntraits10Cxet_asyncINS_12Ftelemetryod5FsvodEEERS4_E4csetERNS_11Lossy_errorE)
                  0009d3bc    00000004                 : Hxcfield_cpu2.obj (.text:_ZN4Base14Twraptun_asyncINS_9Tuntraits10Cxet_asyncINS_9FieldsvecINS_6TmvdatELj20EEEEERS5_E4csetERNS_11Lossy_errorE)
                  0009d3c0    00000004     base.lib : Spkt.obj (.text:_ZN4Base5CRC325resetEv)
                  0009d3c4    00000004              : Spkt.obj (.text:_ZN4Base5Cksum11update_byteEh)
                  0009d3c8    00000004     Blockfactory_par.obj (.text:_ZN4Base5ItaskC1Ev)
                  0009d3cc    00000004     media.lib : Cfgmgr.obj (.text:_ZN4Base5ItaskC2Ev)
                  0009d3d0    00000004     pa_blocks.lib : Input_measurements.obj (.text:_ZN4Base5TtimeC1Ev)
                  0009d3d4    00000004     base.lib : CRCmav.obj (.text:_ZN4Base6CRCmav11update_byteEh)
                  0009d3d8    00000004              : CRCmav.obj (.text:_ZN4Base6CRCmav5resetEv)
                  0009d3dc    00000004     first.lib : PDIcheck.obj (.text:_ZN4Base8PDIcheck8set_fifoEPNS_17Fifospscwr_commitIVjNS_10SPSCtraits8ExternalENS3_12Internal_refEEE)
                  0009d3e0    00000004     vpgnc.lib : Vpu.obj (.text:_ZN4Base8TwrapdesINS_9Tuntraits10DesdefaultIN5Vpgnc7VarinitEEERS4_E4csetERNS_11Lossy_errorE)
                  0009d3e4    00000004               : Evtmgr.obj (.text:_ZN4Base8TwrapdesINS_9Tuntraits10DesdefaultIN5Vpgnc7VlimitsEEERS4_E4csetERNS_11Lossy_errorE)
                  0009d3e8    00000004     veronte.lib : Tunsuite_pa.obj (.text:_ZN4Base8TwrapdesINS_9Tuntraits10DesdefaultIN8Midlevel19Radio_sync_cfg_type6ParamsEEERS5_E4csetERNS_11Lossy_errorE)
                  0009d3ec    00000004                 : Tunsuite_pa.obj (.text:_ZN4Base8TwrapdesINS_9Tuntraits10DesdefaultIN9Pa_blocks10DComms_cfg6StaticEEERS5_E4csetERNS_11Lossy_errorE)
                  0009d3f0    00000004                 : Tunsuite_pa.obj (.text:_ZN4Base8TwrapdesINS_9Tuntraits10DesdefaultIN9Pa_blocks22Activated_knob_version6ConfigEEERS5_E4csetERNS_11Lossy_errorE)
                  0009d3f4    00000004                 : Tunsuite_pa.obj (.text:_ZN4Base8TwrapdesINS_9Tuntraits10DesdefaultINS_18Routing_table_dataILj2ELj16EEEEERS4_E4csetERNS_11Lossy_errorE)
                  0009d3f8    00000004     vpgnc.lib : Opmgr.obj (.text:_ZN4Base8TwrapdesINS_9Tuntraits10DesdefaultINS_8TuncacheIN5Vpgnc14Rvar_op_commit7RoptypeEEEEERS7_E4csetERNS_11Lossy_errorE)
                  0009d3fc    00000004     veronte.lib : Tunsuite_pa.obj (.text:_ZN4Base8TwrapdesINS_9Tuntraits15Arraytun_nosizeINS1_15Arraytun_size16INS1_8TupletunINS1_9Cset_onlyIN6Stanag14Subsystem_data8Key_dataEEENS1_7Lossy16INS_4UvarEEEEENS_11TnarrayreszINS_5TupleIS8_SB_EELm64EEENS1_8No_checkISH_EEEENS_7TnarrayISH_Lm32EEENSI_ISM_EEEERSM_E4csetERNS_11Lossy_errorE)
                  0009d400    00000004                 : Hxcfield_cpu2.obj (.text:_ZN4Base8TwrapdesINS_9Tuntraits9Cset_onlyINS_9FieldsvecIN6Stanag7StgvdatELj0EEEEERS6_E4csetERNS_11Lossy_errorE)
                  0009d404    00000004                 : Hxcfield_cpu2.obj (.text:_ZN4Base8TwrapdesINS_9Tuntraits9Cset_onlyINS_9FieldsvecINS_11SniffervdatELj0EEEEERS5_E4csetERNS_11Lossy_errorE)
                  0009d408    00000004                 : Hxcfield_cpu2.obj (.text:_ZN4Base8TwrapdesINS_9Tuntraits9Cset_onlyINS_9FieldsvecINS_6TmvdatELj0EEEEERS5_E4csetERNS_11Lossy_errorE)
                  0009d40c    00000004                 : Hxcfield_cpu2.obj (.text:_ZN4Base8TwrapdesINS_9Tuntraits9Cset_onlyINS_9FieldsvecINS_9FmsetvdatELj0EEEEERS5_E4csetERNS_11Lossy_errorE)
                  0009d410    00000004                 : Tunsuite_pa.obj (.text:_ZN4Base8TwrapdesINS_9Tuntraits9Cset_onlyIRNS_10Cfgid_modeEEES4_E4csetERNS_11Lossy_errorE)
                  0009d414    00000004                 : Tunsuite_pa.obj (.text:_ZN4Base8TwrapdesINS_9Tuntraits9Wsync_desINS_6TdsyncIN8Midlevel10Lights_cfgENS_12Tdsynctraits11Rd_blockingIS5_NS_8Cptraits6PodrawIVS5_EEEENS6_15Disabled_structEEENS1_10DesdefaultIS5_EEEERSE_E4csetERNS_11Lossy_errorE)
                  0009d418    00000004                 : Tunsuite_pa.obj (.text:_ZN4Base8TwraptunINS_9Tuntraits10TundefaultIN9Pa_blocks10DComms_cfg7DynamicEEERS5_E4csetERNS_11Lossy_errorE)
                  0009d41c    00000004                 : Tunsuite_pa.obj (.text:_ZN4Base8TwraptunINS_9Tuntraits10TundefaultIN9Pa_blocks11Site_config6ConfigEEERS5_E4csetERNS_11Lossy_errorE)
                  0009d420    00000004     vpgnc.lib : Evtmgr.obj (.text:_ZN4Base8TwraptunINS_9Tuntraits10TundefaultINS_7UclkmgrEEERS3_E4csetERNS_11Lossy_errorE)
                  0009d424    00000004     veronte.lib : Hxcfield_cpu2.obj (.text:_ZN4Base9Tuntraits10Cxet_asyncINS_12Ftelemetryod5FsvodEE8elem2strERKS3_RNS_5LossyE)
                  0009d428    00000004                 : Hxcfield_cpu2.obj (.text:_ZN4Base9Tuntraits15Cset_only_asyncINS_12Ftelemetryod5FsvodEE8str2elemERS3_RNS_11Lossy_errorE)
                  0009d42c    00000004     vpgnc.lib : Polymgr_impl_amz.obj (.text:_ZN5Vpgnc12Polymgr_implC1ERKN3Geo4AposERKN8Maverick9Irvector3ERN5Media6CfgmgrERN4Base7StepmgrE)
                  0009d430    00000004               : Evt_wp_groups.obj (.text:_ZN5Vpgnc13Evt_wp_groups4csetERN4Base11Lossy_errorE)
                  0009d434    00000004               : Event_inside_checker_amz.obj (.text:_ZN5Vpgnc20Event_inside_checkerC1Ev)
                  0009d438    00000004     pa_blocks.lib : Blk_pa_nav_base.obj (.text:_ZN6Cyphal19CyphalStanag_rx_hnd9step_taskEv)
                  0009d43c    00000004     media.lib : Cfgmgr.obj (.text:_ZN6Stanag13Stanag_msg_rx9step_taskEv)
                  0009d440    00000004     midlevel.lib : Irxfw.obj (.text:_ZN6Stanag14IStanag_msg_rxC1Ev)
                  0009d444    00000004     pa_blocks.lib : Message_id.obj (.text:_ZN9Pa_blocks10Message_idC1Ev)
                  0009d448    00000004                   : Initializer.obj (.text:_ZN9Pa_blocks11Initializer6OutputC1ERKN4Base7BitmaskIjEERKNS_14State_estimateE)
                  0009d44c    00000004                   : Initializer.obj (.text:_ZN9Pa_blocks11Initializer9vms_resetEv)
                  0009d450    00000004     base.lib : Field_cfg.obj (.text:_ZNK4Base14Cksum_sagetech9get_valueEv)
                  0009d454    00000004     veronte.lib : Hxcfield_cpu2.obj (.text:_ZNK4Base14Twraptun_asyncINS_9Tuntraits10Cxet_asyncINS_12Ftelemetryod5FsvodEEERS4_E4cgetERNS_5LossyE)
                  0009d458    00000004                 : Hxcfield_cpu2.obj (.text:_ZNK4Base14Twraptun_asyncINS_9Tuntraits10Cxet_asyncINS_9FieldsvecINS_6TmvdatELj20EEEEERS5_E4cgetERNS_5LossyE)
                  0009d45c    00000004     vpgnc.lib : Vpu.obj (.text:_ZNK4Base5RngitIN12Dsp28335_ent6Pwmdev5PWMidEE12pending_sizeEv)
                  0009d460    00000004               : Vpu.obj (.text:_ZNK4Base5RngitINS_3FidEE12pending_sizeEv)
                  0009d464    00000004     veronte.lib : Copystep.obj (.text:_ZNK4Base5RngitINS_4RvarEE12pending_sizeEv)
                  0009d468    00000004     base.lib : CRCmav.obj (.text:_ZNK4Base6CRCmav9get_nbitsEv)
                  0009d46c    00000004     veronte.lib : Tunsuite_pa.obj (.text:_ZNK4Base8TwraptunINS_9Tuntraits10TundefaultIN9Pa_blocks10DComms_cfg7DynamicEEERS5_E4cgetERNS_5LossyE)
                  0009d470    00000004                 : Tunsuite_pa.obj (.text:_ZNK4Base8TwraptunINS_9Tuntraits10TundefaultIN9Pa_blocks11Site_config6ConfigEEERS5_E4cgetERNS_5LossyE)
                  0009d474    00000004     vpgnc.lib : Evtmgr.obj (.text:_ZNK4Base8TwraptunINS_9Tuntraits10TundefaultINS_7UclkmgrEEERS3_E4cgetERNS_5LossyE)
                  0009d478    00000004     veronte.lib : Pwm_suite.obj (.text:_ZNK4Base9Range_dynINS_4RvarEE4sizeEv)
                  0009d47c    00000004                 : Pwm_suite.obj (.text:_ZNK4Base9Range_dynINS_4RvarEE7get_idxEj)
                  0009d480    00000004     pa_blocks.lib : State_estimate_logic.obj (.text:_ZNK8Maverick8Ivector3IfE8norm22xyEv)
                  0009d484    00000004     vpgnc.lib : Vpu.obj (.text:_ZNVK4Base7TnarrayINS_6TdsyncINS_15Xfmsgcanc0arrayILj0ELj0EEENS_12Tdsynctraits11Rd_blockingIS3_NS_8Cptraits6PodrawIVS3_EEEENS4_15Disabled_structEEELm0EEixEm)
                  0009d488    00000004     media.lib : Fstrfast.obj (.text:_ZThn10_NK5Media8Fstrfast4cgetERN4Base5LossyE)
                  0009d48c    00000004     vpgnc.lib : Vpu.obj (.text:_ZThn2_N12Dsp28335_ent8PwmsuiteINS_6PwmdevELj16EE7disableEv)
                  0009d490    00000004     base.lib : Ftelemetryod.obj (.text:_ZThn2_N4Base12Ftelemetryod5Fsvod4stepEv)
                  0009d494    00000004              : Taskmgr.obj (.text:_ZThn2_N4Base7Taskmgr4stepEv)
                  0009d498    00000004     vpgnc.lib : Evtmgr.obj (.text:_ZThn2_N5Vpgnc6Evtmgr5on_txERN6Stanag14IStanag_msg_tx9Tx_paramsE)
                  0009d49c    00000004     midlevel.lib : CyphalStanag_rx_hnd.obj (.text:_ZThn2_N6Cyphal19CyphalStanag_rx_hnd5on_rxERN6Stanag14IStanag_msg_rx9Rx_paramsE)
                  0009d4a0    00000004                  : Irxfw.obj (.text:_ZThn2_N8Midlevel5Irxfw6Parser4stepEv)
                  0009d4a4    00000004     pa_blocks.lib : Site_config.obj (.text:_ZThn2_N9Pa_blocks11Site_config6Setter4csetERN4Base9U8istreamE)
                  0009d4a8    00000004                   : Cy_maint_action.obj (.text:_ZThn2_N9Pa_blocks15Cy_maint_action5on_rxERN6Stanag14IStanag_msg_rx9Rx_paramsE)
                  0009d4ac    00000004                   : Cy_dcomms_site_config.obj (.text:_ZThn2_N9Pa_blocks21Cy_dcomms_site_config4csetERN4Base9U8istreamE)
                  0009d4b0    00000004     geomodel.lib : Fmemcmd.obj (.text:_ZThn2_NK3Geo7Fmemcmd4cgetERN4Base5LossyE)
                  0009d4b4    00000004     base.lib : Cmdvar.obj (.text:_ZThn2_NK4Base6Cmdvar4cgetERNS_5LossyE)
                  0009d4b8    00000004     vpgnc.lib : Vpu.obj (.text:_ZThn2_NK8Midlevel17Routing_table_cmdIN4Base18Routing_table_dataILj2ELj16EEEE4cgetERNS1_5LossyE)
                  0009d4bc    00000004     veronte.lib : Pwm_suite.obj (.text:_ZThn4_N12Dsp28335_ent8PwmsuiteINS_6PwmdevELj16EE9set_valueEjf)
                  0009d4c0    00000004     media.lib : Cfgmgr.obj (.text:_ZThn4_N5Media6Cfgmgr5on_rxERN6Stanag14IStanag_msg_rx9Rx_paramsE)
                  0009d4c4    00000004               : Fstrfast.obj (.text:_ZThn4_N5Media8Fstrfast5on_rxERN6Stanag14IStanag_msg_rx9Rx_paramsE)
                  0009d4c8    00000004     stanag.lib : Acknowledgement.obj (.text:_ZThn4_N6Stanag15Acknowledgement5on_rxERNS_14IStanag_msg_rx9Rx_paramsE)
                  0009d4cc    00000004     midlevel.lib : Errors_irx.obj (.text:_ZThn4_N8Midlevel10Errors_irx5on_rxERN6Stanag14IStanag_msg_rx9Rx_paramsE)
                  0009d4d0    00000004                  : Sys_status_mgr.obj (.text:_ZThn4_N8Midlevel14Sys_status_mgr5on_rxERN6Stanag14IStanag_msg_rx9Rx_paramsE)
                  0009d4d4    00000004     pa_blocks.lib : Cy_maint_action.obj (.text:_ZThn4_N9Pa_blocks15Cy_maint_action10on_tx_implERN6Stanag14IStanag_msg_tx9Tx_paramsE)
                  0009d4d8    00000004                   : Command_response.obj (.text:_ZThn4_N9Pa_blocks16Command_response10on_tx_implERN6Stanag14IStanag_msg_tx9Tx_paramsE)
                  0009d4dc    00000004     media.lib : Cfgmgr.obj (.text:_ZThn6_N5Media6Cfgmgr4stepEv)
                  0009d4e0    00000004               : Fstrfast.obj (.text:_ZThn6_N5Media8Fstrfast4stepEv)
                  0009d4e4    00000004     vpgnc.lib : Evtmgr.obj (.text:_ZThn6_N5Vpgnc6Evtmgr5on_rxERN6Stanag14IStanag_msg_rx9Rx_paramsE)
                  0009d4e8    00000004     midlevel.lib : Sys_status_mgr.obj (.text:_ZThn6_N8Midlevel14Sys_status_mgr4stepEv)
                  0009d4ec    00000004     media.lib : Fstrfast.obj (.text:_ZThn8_N5Media8Fstrfast4csetERN4Base11Lossy_errorE)
                  0009d4f0    00000004               : Cfgmgr.obj (.text:_ZThn8_NK5Media6Cfgmgr20get_last_changed_idxEv)
                  0009d4f4    00000004               : Cfgmgr.obj (.text:_ZThn8_NK5Media6Cfgmgr9get_gfcrcEv)
                  0009d4f8    00000004               : Cfgmgr.obj (.text:_ZThn8_NK5Media6Cfgmgr9get_gmcrcEv)
                  0009d4fc    00000004     main_cpu2.obj (.text:_system_post_cinit)
                  0009d500    00000004     rts2800_fpu64_eabi.lib : pure_virt.c.obj (.text)
                  0009d504    00000003     DSP2838x_ent.lib : Emif1_2838x.obj (.text:_ZN12Dsp28335_ent5Emif114get_emif1_regsEv)
                  0009d507    00000003                      : Emif1_2838x.obj (.text:_ZN12Dsp28335_ent5Emif121get_emif1_config_regsEv)
                  0009d50a    00000003     DSP2837x_ent.lib : Emif1.obj (.text:_ZN12Dsp28335_ent5Emif18get_mselEv)
                  0009d50d    00000003     veronte.lib : Sysuid.obj (.text:_ZN3Bsp16get_uid_locationEv)
                  0009d510    00000003                 : Vfspermission.obj (.text:_ZN3Ver13VfspermissionD0Ev)
                  0009d513    00000003                 : Xcd_cpu2.obj (.text:_ZN3Ver2Xc12get_xcd_cpu1Ev)
                  0009d516    00000003                 : Xcd_cpu2.obj (.text:_ZN3Ver2Xc12get_xcd_cpu2Ev)
                  0009d519    00000003     base.lib : Field_cfg.obj (.text:_ZN4Base10Cksum_modn5resetEv)
                  0009d51c    00000003     midlevel.lib : Irxfw.obj (.text:_ZN4Base11Imsg_senderD0Ev)
                  0009d51f    00000003     vpgnc.lib : Vpu.obj (.text:_ZN4Base11Ipkt_senderD0Ev)
                  0009d522    00000003               : Vpu.obj (.text:_ZN4Base11Vpktsend_xcD0Ev)
                  0009d525    00000003     base.lib : Feature.obj (.text:_ZN4Base12Data_mutatorINS_11Lossy_error16Mutator_traits16ENS_17U16stream_r_error13Data_traits16EEC2ERS3_)
                  0009d528    00000003              : Feature.obj (.text:_ZN4Base12Data_mutatorINS_11Lossy_error16Mutator_traits16ENS_17U16stream_r_error13Data_traits16EED2Ev)
                  0009d52b    00000003              : CRC.obj (.text:_ZN4Base3CRC5resetEv)
                  0009d52e    00000003     veronte.lib : Pwm_suite.obj (.text:_ZN4Base5ArrayIN12Dsp28335_ent8PwmsuiteINS1_6PwmdevELj16EE6ConfigEEC2EmNS_6Memmgr4TypeE)
                  0009d531    00000003     vpgnc.lib : Evtmgr.obj (.text:_ZN4Base5ArrayIN5Vpgnc5EventEEC2EmNS_6Memmgr4TypeE)
                  0009d534    00000003               : Evt_wp_groups.obj (.text:_ZN4Base5ArrayINS_4TdesINS_11TnarrayreszIjLm8EEENS_9Tuntraits10TundefaultIS3_EEEEEC2EmNS_6Memmgr4TypeE)
                  0009d537    00000003               : Vlimits.obj (.text:_ZN4Base5ArrayINS_5LimitEEC2EmNS_6Memmgr4TypeE)
                  0009d53a    00000003     midlevel.lib : Irxfw.obj (.text:_ZN4Base5ArrayINS_8Msg_dataEEC2EmNS_6Memmgr4TypeE)
                  0009d53d    00000003     base.lib : Taskmgr.obj (.text:_ZN4Base5ArrayINS_9TaskentryEEC2EmNS_6Memmgr4TypeE)
                  0009d540    00000003     first.lib : Vstring.obj (.text:_ZN4Base5ArrayIcEC2EPcm)
                  0009d543    00000003     maverick.lib : Rvector.obj (.text:_ZN4Base5ArrayIfEC2EPfm)
                  0009d546    00000003                  : Rvector.obj (.text:_ZN4Base5ArrayIfEC2EmNS_6Memmgr4TypeE)
                  0009d549    00000003     base.lib : Spkt.obj (.text:_ZN4Base5Cksum5resetEv)
                  0009d54c    00000003     vpgnc.lib : Vpu.obj (.text:_ZN4Base5IfileD0Ev)
                  0009d54f    00000003     veronte.lib : Hvar_cpu2.obj (.text:_ZN4Base6MblockIVfEC1EPS1_m)
                  0009d552    00000003                 : Hvar_cpu2.obj (.text:_ZN4Base6MblockIVjEC1EPS1_m)
                  0009d555    00000003     base.lib : Xcfile.obj (.text:_ZN4Base6XcfileD0Ev)
                  0009d558    00000003     vpgnc.lib : Vpu.obj (.text:_ZN4Base8CANout_c6ConfigC1Ev)
                  0009d55b    00000003     midlevel.lib : Irxfw.obj (.text:_ZN4Base8FifospscINS_8Msg_dataEEC2EmNS_6Memmgr4TypeE)
                  0009d55e    00000003     vpgnc.lib : Vpu.obj (.text:_ZN4Base9Range_dynINS_4RvarEEC1ES1_S1_)
                  0009d561    00000003     veronte.lib : Tunsuite_pa.obj (.text:_ZN4Base9Tuntraits9Cset_onlyIN8Midlevel10Lights_cfgEE8str2elemERS3_RNS_11Lossy_errorE)
                  0009d564    00000003     vpgnc.lib : Opmgr.obj (.text:_ZN4Base9Tuntraits9Cset_onlyINS_8TuncacheIN5Vpgnc14Rvar_op_commit7RoptypeEEEE8str2elemERS6_RNS_11Lossy_errorE)
                  0009d567    00000003     media.lib : Updatable_null.obj (.text:_ZN5Media10IupdatableD0Ev)
                  0009d56a    00000003     veronte.lib : Vfspermission.obj (.text:_ZN5Media13IfspermissionD0Ev)
                  0009d56d    00000003     media.lib : Updatable_null.obj (.text:_ZN5Media14Updatable_nullD0Ev)
                  0009d570    00000003     midlevel.lib : Stanag_cyphal_wrap.obj (.text:_ZN6Cyphal46_GLOBAL__N__22_Stanag_cyphal_wrap_cpp_031033ee12Dummy_senderD0Ev)
                  0009d573    00000003     stanag.lib : Stanag_status_msgs.obj (.text:_ZN6Stanag19Ispecial_conversionD0Ev)
                  0009d576    00000003                : Stanag_status_msgs.obj (.text:_ZN6Stanag23Special_conversion_nullD0Ev)
                  0009d579    00000003     midlevel.lib : Irxfw.obj (.text:_ZN6Stanag8Msg_fifoD0Ev)
                  0009d57c    00000003     maverick.lib : Rmatrix.obj (.text:_ZN8Maverick7TmatrixIfEC2EjjN4Base6Memmgr4TypeE)
                  0009d57f    00000003     vpgnc.lib : Vpu.obj (.text:_ZN8Midlevel11Default_cfg5Xpcu8IN3Ver11Xpcu8_traitEE16get_default_0sciEv)
                  0009d582    00000003               : Vpu.obj (.text:_ZN8Midlevel11Default_cfg5Xpcu8IN3Ver11Xpcu8_traitEE16get_default_4sciEv)
                  0009d585    00000003               : Vpu.obj (.text:_ZN8Midlevel11Default_cfg6XpccanIN3Ver15Xpccantrait_verEE11get_defaultEv)
                  0009d588    00000003     pa_blocks.lib : State_machines.obj (.text:_ZN9Pa_blocks14State_machines11Vsdk_params4csetERN4Base11Lossy_errorE)
                  0009d58b    00000003                   : Cy_maint_action.obj (.text:_ZN9Pa_blocks15Cy_maint_action6notifyERKN4Base8Msg_dataE)
                  0009d58e    00000003                   : Vsdk_params.obj (.text:_ZN9Pa_blocks17Vsdk_mixer_params4csetERN4Base11Lossy_errorE)
                  0009d591    00000003                   : Vsdk_navigation_params.obj (.text:_ZN9Pa_blocks22Vsdk_navigation_params14Vehicle_paramsC1Ev)
                  0009d594    00000003                   : Recovery_mission_readiness_signal.obj (.text:_ZN9Pa_blocks33Recovery_mission_readiness_signalC1Ev)
                  0009d597    00000003     geomodel.lib : Tecef.obj (.text:_ZNK3Geo5Tecef9get_wgs84ERN4Base4TllhE)
                  0009d59a    00000003     veronte.lib : Static_cfg.obj (.text:_ZNK3Ver10Static_cfg20get_last_changed_idxEv)
                  0009d59d    00000003                 : Static_cfg.obj (.text:_ZNK3Ver10Static_cfg9get_gfcrcEv)
                  0009d5a0    00000003                 : Static_cfg.obj (.text:_ZNK3Ver10Static_cfg9get_gmcrcEv)
                  0009d5a3    00000003     base.lib : CRC.obj (.text:_ZNK4Base3CRC9get_nbitsEv)
                  0009d5a6    00000003              : Spkt.obj (.text:_ZNK4Base5CRC329get_valueEv)
                  0009d5a9    00000003     media.lib : Cfgmgr.obj (.text:_ZNK5Media6Cfgmgr20get_last_changed_idxEv)
                  0009d5ac    00000003               : Cfgmgr.obj (.text:_ZNK5Media6Cfgmgr9get_gfcrcEv)
                  0009d5af    00000003               : Cfgmgr.obj (.text:_ZNK5Media6Cfgmgr9get_gmcrcEv)
                  0009d5b2    00000003     veronte.lib : Hxcfield_cpu2.obj (.text:_ZNVK4Base5Dsync10wr_ongoingEv)
                  0009d5b5    00000003     Vmain_cpu2.obj (.text:_ZNVK4Base5Ttime8get_ticsEv)
                  0009d5b8    00000003     base.lib : Varmgr.obj (.text:_ZThn2_N4Base6Varmgr3setENS_3FidERKNS_7FeatureE)
                  0009d5bb    00000003              : Varmgr.obj (.text:_ZThn2_N4Base6Varmgr3setENS_4BvarEb)
                  0009d5be    00000003              : Varmgr.obj (.text:_ZThn2_N4Base6Varmgr3setENS_4RvarEf)
                  0009d5c1    00000003              : Varmgr.obj (.text:_ZThn2_N4Base6Varmgr3setENS_4UvarEj)
                  0009d5c4    00000003              : Varmgr.obj (.text:_ZThn2_N4Base6Varmgr3setENS_8Bvar_mapERKNS_8Hbmapvar4TypeE)
                  0009d5c7    00000003     pa_blocks.lib : Cy_maint_action.obj (.text:_ZThn4_N9Pa_blocks15Cy_maint_action6notifyERKN4Base8Msg_dataE)
                  0009d5ca    00000003     rts2800_fpu64_eabi.lib : error.c.obj (.text)
                  0009d5cd    00000002     veronte.lib : GPIOname_util.obj (.text:_ZN3Ver18get_cana_term_gpioEv)
                  0009d5cf    00000002                 : GPIOname_util.obj (.text:_ZN3Ver18get_canb_term_gpioEv)
                  0009d5d1    00000002                 : GPIOname_util.obj (.text:_ZN3Ver18get_gpio_switch_fbEv)
                  0009d5d3    00000002                 : GPIOname_util.obj (.text:_ZN3Ver19get_gpio_led_red_idEv)
                  0009d5d5    00000002                 : GPIOname_util.obj (.text:_ZN3Ver21get_canfd_a_term_gpioEv)
                  0009d5d7    00000002     first.lib : Dsync.obj (.text:_ZN4Base5Dsync6Reader10build_nullEv)
                  0009d5d9    00000002     base.lib : Varmgr.obj (.text:_ZN4Base6Varmgr3setERKNS_12U8pkmblock_kE)
                  0009d5db    00000002     media.lib : Cfgmgr.obj (.text:_ZN5Media34_GLOBAL__N__10_Cfgmgr_cpp_be3311b210Meta_async4csetERN4Base11Lossy_errorE)
                  0009d5dd    00000002     vpgnc.lib : Polymgr_impl_amz.obj (.text:_ZN5Vpgnc12Polymgr_impl24get_event_inside_checkerEv)
                  0009d5df    00000002               : Event_inside_checker_amz.obj (.text:_ZN5Vpgnc20Event_inside_checker4initERNS_5EventE)
                  0009d5e1    00000002               : Event_inside_checker_amz.obj (.text:_ZN5Vpgnc20Event_inside_checker9step_taskEv)
                  0009d5e3    00000002               : Airframe_action_wp_publish.obj (.text:_ZN5Vpgnc26Airframe_action_wp_publishC1ERVKN4Base4BvarE)
                  0009d5e5    00000002     Blockfactory_par.obj (.text:_ZN7Vblocks13Null_autotune4stepEN3Gnc8OpinctrlEffRf)
                  0009d5e7    00000002     pa_blocks.lib : Site_config.obj (.text:_ZN9Pa_blocks11Site_config6Getter13processed_reqEv)
                  0009d5e9    00000002                   : Covariance_ud.obj (.text:_ZN9Pa_blocks13Covariance_ud12D_serializerC1ERKN8Maverick7Rvector1KE)
                  0009d5eb    00000002                   : Latch_on_first_true.obj (.text:_ZN9Pa_blocks19Latch_on_first_trueC1Ev)
                  0009d5ed    00000002                   : On_ground.obj (.text:_ZN9Pa_blocks9On_ground19Introspect_onground3G2aC1Ev)
                  0009d5ef    00000002     base.lib : Field_cfg.obj (.text:_ZNK4Base10Cksum_modn9get_nbitsEv)
                  0009d5f1    00000002              : Xcrd.obj (.text:_ZNK4Base10FifospscrdIVKjE6get_rdEv)
                  0009d5f3    00000002              : Ftelemetryod.obj (.text:_ZNK4Base12Ftelemetryod5Fsvod4cgetERNS_5LossyE)
                  0009d5f5    00000002              : Field_cfg.obj (.text:_ZNK4Base14Cksum_sagetech9get_nbitsEv)
                  0009d5f7    00000002              : Spkt.obj (.text:_ZNK4Base5CRC329get_nbitsEv)
                  0009d5f9    00000002              : Spkt.obj (.text:_ZNK4Base5Cksum9get_nbitsEv)
                  0009d5fb    00000002              : Xcfile.obj (.text:_ZNK4Base6Xcfile8get_timeEv)
                  0009d5fd    00000002     media.lib : Updatable_null.obj (.text:_ZNK5Media14Updatable_null12is_updatableEj)
                  0009d5ff    00000002               : Updatable_null.obj (.text:_ZNK5Media14Updatable_null14update_allowedEv)
                  0009d601    00000002               : Cfgmgr.obj (.text:_ZNK5Media6Cfgmgr12Itundes_wrap4cgetERN4Base5LossyE)
                  0009d603    00000002     vpgnc.lib : Polymgr_impl_amz.obj (.text:_ZNK5Vpgnc12Polymgr_impl32get_mov_obstacle_changed_counterEv)
                  0009d605    00000002               : Vpu.obj (.text:_ZNK5Vpgnc3Vpu18get_status_versionEv)
                  0009d607    00000002     Blockfactory_par.obj (.text:_ZNK7Vblocks13Null_autotune12is_computingEv)
                  0009d609    00000002     vblocks.lib : Blockfactory_amz.obj (.text:_ZNK7Vblocks8No_marks10mark_eventERKN4Base6MblockIjEE)
                  0009d60b    00000002     pa_blocks.lib : Tllh_cs_64.obj (.text:_ZNK9Pa_blocks10Tllh_cs_6412get_ecef_refEv)
                  0009d60d    00000002                   : Input_heading.obj (.text:_ZNK9Pa_blocks13Input_heading14get_sensor_dimEv)
                  0009d60f    00000002                   : Input_gnss_pos.obj (.text:_ZNK9Pa_blocks14Input_gnss_pos14get_sensor_dimEv)
                  0009d611    00000002                   : Input_gnss_vel.obj (.text:_ZNK9Pa_blocks14Input_gnss_vel14get_sensor_dimEv)
                  0009d613    00000002                   : Input_static_pressure.obj (.text:_ZNK9Pa_blocks21Input_static_pressure14get_sensor_dimEv)
                  0009d615    00000002     DSP2838x_ent.lib : CAN_FD_cfg.obj (.text:_ZNVK4Base11TnarrayreszIN12Dsp28335_ent6CANcfg5RxcfgELm32EE4sizeEv)
                  0009d617    00000002     vpgnc.lib : CAN_cfg_maint_astro.obj (.text:_ZNVK4Base11TnarrayreszIN12Dsp28335_ent6CANcfg5RxcfgELm32EE8size_maxEv)
                  0009d619    00000002               : Varinit.obj (.text:_ZNVK4Base11TnarrayreszIN5Vpgnc7Varinit6Value0ELm96EE4sizeEv)
                  0009d61b    00000002     veronte.lib : Tunsuite_pa.obj (.text:_ZNVK4Base11TnarrayreszIN6Stanag11Stanag_port8Port_cfgELm6EE4sizeEv)
                  0009d61d    00000002                 : Tunsuite_pa.obj (.text:_ZNVK4Base11TnarrayreszIN6Stanag15Stanag_msg_cfgs9Cfg_entryELm20EE4sizeEv)
                  0009d61f    00000002     stanag.lib : Fstgcfg.obj (.text:_ZNVK4Base11TnarrayreszIN6Stanag7Fstgcfg5EntryELm5EE4sizeEv)
                  0009d621    00000002     veronte.lib : Hxcfield_cpu2.obj (.text:_ZNVK4Base11TnarrayreszIN6Stanag7FstgcfgELm40EE4sizeEv)
                  0009d623    00000002                 : Tunsuite_pa.obj (.text:_ZNVK4Base11TnarrayreszIN7Devices8TPS9266410Config_regELm40EE4sizeEv)
                  0009d625    00000002                 : Tunsuite_pa.obj (.text:_ZNVK4Base11TnarrayreszIN7Devices8TPS926649Led_stateELm13EE4sizeEv)
                  0009d627    00000002                 : Tunsuite_pa.obj (.text:_ZNVK4Base11TnarrayreszIN8Midlevel10Lights_cfg16Indication_stateELm10EE4sizeEv)
                  0009d629    00000002                 : Tunsuite_pa.obj (.text:_ZNVK4Base11TnarrayreszIN8Midlevel10Lights_cfg19Indication_sequenceELm11EE4sizeEv)
                  0009d62b    00000002     pa_blocks.lib : DComms_cfg.obj (.text:_ZNVK4Base11TnarrayreszIN9Pa_blocks10DComms_cfg10Freq_entryELm64EE4sizeEv)
                  0009d62d    00000002                   : DComms_cfg.obj (.text:_ZNVK4Base11TnarrayreszIN9Pa_blocks10DComms_cfg7Reg_cfgELm30EE4sizeEv)
                  0009d62f    00000002                   : Blk_pa_nav.obj (.text:_ZNVK4Base11TnarrayreszIN9Pa_blocks12Command_fifoINS1_26Controllers_state_estimateELj1EE4ElemELm1EE4sizeEv)
                  0009d631    00000002     base.lib : Sticktypes.obj (.text:_ZNVK4Base11TnarrayreszINS_12Stickvarcfg013StickvarcfgchELm16EE4sizeEv)
                  0009d633    00000002              : Sticktypes.obj (.text:_ZNVK4Base11TnarrayreszINS_12Stickvarcfg013StickvarcfgchELm16EE8size_maxEv)
                  0009d635    00000002     veronte.lib : Tunsuite_pa.obj (.text:_ZNVK4Base11TnarrayreszINS_18Routing_table_dataILj2ELj16EE5TableELm2EE4sizeEv)
                  0009d637    00000002                 : Tunsuite_pa.obj (.text:_ZNVK4Base11TnarrayreszINS_19Routing_table_entryELm16EE4sizeEv)
                  0009d639    00000002                 : Tunsuite_pa.obj (.text:_ZNVK4Base11TnarrayreszINS_4BvarELm20EE4sizeEv)
                  0009d63b    00000002                 : Hxcfield_cpu2.obj (.text:_ZNVK4Base11TnarrayreszINS_5FieldELm128EE4sizeEv)
                  0009d63d    00000002                 : Tunsuite_pa.obj (.text:_ZNVK4Base11TnarrayreszINS_5TupleIN6Stanag14Subsystem_data8Key_dataENS_4UvarEEELm64EE4sizeEv)
                  0009d63f    00000002                 : Hxcfield_cpu2.obj (.text:_ZNVK4Base11TnarrayreszINS_5TupleIjNS0_INS_8Fmsg_cfgELm32EEEEELm2EE4sizeEv)
                  0009d641    00000002                 : Hxcfield_cpu2.obj (.text:_ZNVK4Base11TnarrayreszINS_5TupleIjNS0_INS_8Fmsg_cfgELm32EEEEELm3EE4sizeEv)
                  0009d643    00000002     base.lib : Cmdvar.obj (.text:_ZNVK4Base11TnarrayreszINS_6Cmdvar3VarELm16EE4sizeEv)
                  0009d645    00000002     veronte.lib : Hxcfield_cpu2.obj (.text:_ZNVK4Base11TnarrayreszINS_6PFieldELm128EE4sizeEv)
                  0009d647    00000002                 : Tunsuite_pa.obj (.text:_ZNVK4Base11TnarrayreszINS_7CANin_p6ConfigELm6EE4sizeEv)
                  0009d649    00000002     vpgnc.lib : CAN_cfg_maint_astro.obj (.text:_ZNVK4Base11TnarrayreszINS_7CANin_p6ConfigELm6EE8size_maxEv)
                  0009d64b    00000002     veronte.lib : Tunsuite_pa.obj (.text:_ZNVK4Base11TnarrayreszINS_7Xpcmap0ELm19EE4sizeEv)
                  0009d64d    00000002     vpgnc.lib : Vpu.obj (.text:_ZNVK4Base11TnarrayreszINS_7Xpcmap0ELm45EE4sizeEv)
                  0009d64f    00000002     veronte.lib : Tunsuite_pa.obj (.text:_ZNVK4Base11TnarrayreszINS_8CANout_c6ConfigELm6EE4sizeEv)
                  0009d651    00000002     vpgnc.lib : CAN_cfg_maint_astro.obj (.text:_ZNVK4Base11TnarrayreszINS_8CANout_c6ConfigELm6EE8size_maxEv)
                  0009d653    00000002     veronte.lib : Hxcfield_cpu2.obj (.text:_ZNVK4Base11TnarrayreszINS_8Fmsg_cfgELm32EE4sizeEv)
                  0009d655    00000002                 : Tunsuite_pa.obj (.text:_ZNVK4Base11TnarrayreszINS_9CANgpio_p6ConfigELm2EE4sizeEv)
                  0009d657    00000002                 : Tunsuite_pa.obj (.text:_ZNVK4Base11TnarrayreszINS_9SerialCAN6ConfigELm6EE4sizeEv)
                  0009d659    00000002     vpgnc.lib : CAN_cfg_maint_astro.obj (.text:_ZNVK4Base11TnarrayreszINS_9SerialCAN6ConfigELm6EE8size_maxEv)
                  0009d65b    00000002     pa_blocks.lib : DComms_cfg.obj (.text:_ZNVK4Base11TnarrayreszIcLm17EE4sizeEv)
                  0009d65d    00000002     veronte.lib : Tunsuite_pa.obj (.text:_ZNVK4Base11TnarrayreszIhLm20EE4sizeEv)
                  0009d65f    00000002     base.lib : Evactcfg.obj (.text:_ZNVK4Base11TnarrayreszIjLm128EE4sizeEv)
                  0009d661    00000002              : Action.obj (.text:_ZNVK4Base11TnarrayreszIjLm200EE4sizeEv)
                  0009d663    00000002     veronte.lib : Tunsuite_pa.obj (.text:_ZNVK4Base11TnarrayreszIjLm32EE4sizeEv)
                  0009d665    00000002     vpgnc.lib : Evtmgr.obj (.text:_ZNVK4Base11TnarrayreszIjLm60EE4sizeEv)
                  0009d667    00000002               : Evtmgr.obj (.text:_ZNVK4Base11TnarrayreszIjLm60EE8size_maxEv)
                  0009d669    00000002     base.lib : Evactcfg.obj (.text:_ZNVK4Base11TnarrayreszIjLm8EE4sizeEv)
                  0009d66b    00000002              : Varmgr.obj (.text:_ZThn2_N4Base6Varmgr3setERKNS_12U8pkmblock_kE)
                  0009d66d    00000001     veronte.lib : Copystep.obj (.text:_ZN3Bsp5Hbvar5RangeD1Ev)
                  0009d66e    00000001                 : Copystep.obj (.text:_ZN3Bsp5Hrvar5RangeD1Ev)
                  0009d66f    00000001                 : Copystep.obj (.text:_ZN3Bsp5Huvar5RangeD1Ev)
                  0009d670    00000001     DSP28x.lib : Warning.obj (.text:_ZN3Bsp7warningEv)
                  0009d671    00000001     veronte.lib : Vfspermission.obj (.text:_ZN3Ver13VfspermissionD1Ev)
                  0009d672    00000001                 : Hxcfield_cpu2.obj (.text:_ZN3Ver8HtunfsetIN4Base12FtelemetryodEED1Ev)
                  0009d673    00000001                 : Hxcfield_cpu2.obj (.text:_ZN3Ver8HtunfsetIN4Base14Fvecdata_asyncINS1_6TmvdatELm150ELj1EEEED1Ev)
                  0009d674    00000001                 : Hxcfield_cpu2.obj (.text:_ZN3Ver8HtunfsetIN4Base8FvecdataIN6Stanag7StgvdatELm1000ELj100EEEED1Ev)
                  0009d675    00000001                 : Hxcfield_cpu2.obj (.text:_ZN3Ver8HtunfsetIN4Base8FvecdataINS1_11SniffervdatELm300ELj2EEEED1Ev)
                  0009d676    00000001                 : Hxcfield_cpu2.obj (.text:_ZN3Ver8HtunfsetIN4Base8FvecdataINS1_6TmvdatELm600ELj4EEEED1Ev)
                  0009d677    00000001                 : Hxcfield_cpu2.obj (.text:_ZN3Ver8HtunfsetIN4Base8FvecdataINS1_9FmsetvdatELm2000ELj104EEEED1Ev)
                  0009d678    00000001     base.lib : Stimestamp.obj (.text:_ZN4Base10Stimestamp5buildEx)
                  0009d679    00000001     midlevel.lib : Irxfw.obj (.text:_ZN4Base11Imsg_senderD1Ev)
                  0009d67a    00000001     vpgnc.lib : Vpu.obj (.text:_ZN4Base11Ipkt_senderD1Ev)
                  0009d67b    00000001               : Vpu.obj (.text:_ZN4Base11Vpktsend_xcD1Ev)
                  0009d67c    00000001     base.lib : Message_received_hnd.obj (.text:_ZN4Base20Message_received_hnd10get_parserEv)
                  0009d67d    00000001     vpgnc.lib : Vpu.obj (.text:_ZN4Base5IfileD1Ev)
                  0009d67e    00000001     base.lib : Kfieldset.obj (.text:_ZN4Base6TuncrcD1Ev)
                  0009d67f    00000001              : Varmgr.obj (.text:_ZN4Base6Varmgr3setERKNS_4Iset4DataINS_6R64varEeEE)
                  0009d680    00000001              : Varmgr.obj (.text:_ZN4Base6VarmgrD1Ev)
                  0009d681    00000001              : Xcfile.obj (.text:_ZN4Base6XcfileD1Ev)
                  0009d682    00000001              : Stepmgr_dsp.obj (.text:_ZN4Base7StepmgrD1Ev)
                  0009d683    00000001     first.lib : Endian3.obj (.text:_ZN4Base8E3helperD1Ev)
                  0009d684    00000001     veronte.lib : Hxcfield_cpu2.obj (.text:_ZN4Base8TwrapdesINS_9Tuntraits9Wsync_desINS_6TdsyncINS_11Fstr1fieldsENS_12Tdsynctraits11Rd_blockingIS4_NS_8Cptraits6PodrawIVS4_EEEENS5_15Disabled_structEEENS1_10DesdefaultIS4_EEEERSD_ED1Ev)
                  0009d685    00000001                 : Hxcfield_cpu2.obj (.text:_ZN4Base8TwrapdesINS_9Tuntraits9Wsync_desINS_6TdsyncINS_11FstrtfieldsENS_12Tdsynctraits11Rd_blockingIS4_NS_8Cptraits6PodrawIVS4_EEEENS5_15Disabled_structEEENS1_10DesdefaultIS4_EEEERSD_ED1Ev)
                  0009d686    00000001                 : Hxcfield_cpu2.obj (.text:_ZN4Base8TwrapdesINS_9Tuntraits9Wsync_desINS_6TdsyncINS_11Pfields_cfgENS_12Tdsynctraits11Rd_blockingIS4_NS_8Cptraits6PodrawIVS4_EEEENS5_15Disabled_structEEENS1_10DesdefaultIS4_EEEERSD_ED1Ev)
                  0009d687    00000001                 : Hstick_cpu2.obj (.text:_ZN4Base8TwrapdesINS_9Tuntraits9Wsync_desINS_6TdsyncINS_11StickppmcfgENS_12Tdsynctraits11Rd_blockingIS4_NS_8Cptraits6PodrawIVS4_EEEENS5_15Disabled_structEEENS1_10DesdefaultIS4_EEEERSD_ED1Ev)
                  0009d688    00000001                 : Hstick_cpu2.obj (.text:_ZN4Base8TwrapdesINS_9Tuntraits9Wsync_desINS_6TdsyncINS_11StickvarcfgENS_12Tdsynctraits11Rd_blockingIS4_NS_8Cptraits6PodrawIVS4_EEEENS5_15Disabled_structEEENS1_10DesdefaultIS4_EEEERSD_ED1Ev)
                  0009d689    00000001                 : Hxcfield_cpu2.obj (.text:_ZN4Base8TwrapdesINS_9Tuntraits9Wsync_desINS_6TdsyncINS_11TnarrayreszIN6Stanag7FstgcfgELm40EEENS_12Tdsynctraits11Rd_blockingIS7_NS_8Cptraits6PodrawIVS7_EEEENS8_15Disabled_structEEENS1_15Arraytun_size16INS1_9Cset_onlyIS6_EES7_NS1_8No_checkIS7_EEEEEERSG_ED1Ev)
                  0009d68a    00000001                 : Hxcfield_cpu2.obj (.text:_ZN4Base8TwrapdesINS_9Tuntraits9Wsync_desINS_6TdsyncINS_11TnarrayreszINS_5TupleIjNS4_INS_8Fmsg_cfgELm32EEEEELm2EEENS_12Tdsynctraits11Rd_blockingIS9_NS_8Cptraits6PodrawIVS9_EEEENSA_15Disabled_structEEENS1_15Arraytun_size16INS1_8TupletunINS1_7Lossy16IjEENSJ_INS1_9Cset_onlyIS6_EES7_NS1_8No_checkIS7_EEEEEES9_NSP_IS9_EEEEEERSI_ED1Ev)
                  0009d68b    00000001                 : Hxcfield_cpu2.obj (.text:_ZN4Base8TwrapdesINS_9Tuntraits9Wsync_desINS_6TdsyncINS_11TnarrayreszINS_5TupleIjNS4_INS_8Fmsg_cfgELm32EEEEELm3EEENS_12Tdsynctraits11Rd_blockingIS9_NS_8Cptraits6PodrawIVS9_EEEENSA_15Disabled_structEEENS1_15Arraytun_size16INS1_8TupletunINS1_7Lossy16IjEENSJ_INS1_9Cset_onlyIS6_EES7_NS1_8No_checkIS7_EEEEEES9_NSP_IS9_EEEEEERSI_ED1Ev)
                  0009d68c    00000001                 : Hevact_cpu2.obj (.text:_ZN4Base8TwrapdesINS_9Tuntraits9Wsync_desINS_6TdsyncINS_8ArraymskINS_6ActionELj120EEENS_12Tdsynctraits11Rd_blockingIS6_NS_8Cptraits6PodrawIVS6_EEEENS7_15Disabled_structEEENS1_11TunarraymskIS5_Lj120EEEEERSF_ED1Ev)
                  0009d68d    00000001                 : Hevact_cpu2.obj (.text:_ZN4Base8TwrapdesINS_9Tuntraits9Wsync_desINS_6TdsyncINS_8ArraymskINS_9Evactcfg0ELj100EEENS_12Tdsynctraits11Rd_blockingIS6_NS_8Cptraits6PodrawIVS6_EEEENS7_15Disabled_structEEENS1_11TunarraymskIS5_Lj100EEEEERSF_ED1Ev)
                  0009d68e    00000001                 : Hxcfield_cpu2.obj (.text:_ZN4Base8TwrapdesINS_9Tuntraits9Wsync_desINS_6TdsyncINS_8FstrFastENS_12Tdsynctraits11Rd_blockingIS4_NS_8Cptraits6PodrawIVS4_EEEENS5_15Disabled_structEEENS1_10DesdefaultIS4_EEEERSD_ED1Ev)
                  0009d68f    00000001                 : Hxcfile_cpu2.obj (.text:_ZN4Base9XcfilecliD1Ev)
                  0009d690    00000001     media.lib : Updatable_null.obj (.text:_ZN5Media10IupdatableD1Ev)
                  0009d691    00000001     veronte.lib : Vfspermission.obj (.text:_ZN5Media13IfspermissionD1Ev)
                  0009d692    00000001     media.lib : Updatable_null.obj (.text:_ZN5Media14Updatable_nullD1Ev)
                  0009d693    00000001               : Cfgmgr.obj (.text:_ZN5Media34_GLOBAL__N__10_Cfgmgr_cpp_be3311b210Meta_asyncD1Ev)
                  0009d694    00000001               : Cfgmgr.obj (.text:_ZN5Media6Cfgmgr13send_nothing0Ev)
                  0009d695    00000001     midlevel.lib : Stanag_cyphal_wrap.obj (.text:_ZN6Cyphal46_GLOBAL__N__22_Stanag_cyphal_wrap_cpp_031033ee12Dummy_senderD1Ev)
                  0009d696    00000001     media.lib : Cfgmgr.obj (.text:_ZN6Stanag13Stanag_msg_tx6notifyERKN4Base8Msg_dataE)
                  0009d697    00000001     stanag.lib : Stanag_status_msgs.obj (.text:_ZN6Stanag19Ispecial_conversionD1Ev)
                  0009d698    00000001                : Stanag_status_msgs.obj (.text:_ZN6Stanag23Special_conversion_null11rev_convertEjRKfRfRN4Base12Stanag_typesE)
                  0009d699    00000001                : Stanag_status_msgs.obj (.text:_ZN6Stanag23Special_conversion_null7convertEjRKfRfRN4Base12Stanag_typesE)
                  0009d69a    00000001                : Stanag_status_msgs.obj (.text:_ZN6Stanag23Special_conversion_nullD1Ev)
                  0009d69b    00000001     midlevel.lib : Irxfw.obj (.text:_ZN6Stanag8Msg_fifoD1Ev)
                  0009d69c    00000001     Blockfactory_par.obj (.text:_ZN7Vblocks12Blockfactory8step_gncEv)
                  0009d69d    00000001     Blockfactory_par.obj (.text:_ZN7Vblocks13Null_autotune5resetEv)
                  0009d69e    00000001     Blockfactory_par.obj (.text:_ZN7Vblocks13Null_autotune8cset_cmdERN4Base11Lossy_errorE)
                  0009d69f    00000001     vblocks.lib : Blockfactory_amz.obj (.text:_ZN7Vblocks8No_marks4stepEv)
                  0009d6a0    00000001                 : Blockfactory_amz.obj (.text:_ZN7Vblocks8No_marksD1Ev)
                  0009d6a1    00000001     Blockfactory_par.obj (.text:_ZN8Midlevel19Cyphal_cget_wrapper6notifyERKN4Base8Msg_dataE)
                  0009d6a2    00000001     pa_blocks.lib : Site_config.obj (.text:_ZN9Pa_blocks11Site_config6Getter4csetERN4Base9U8istreamE)
                  0009d6a3    00000001                   : Command_response.obj (.text:_ZN9Pa_blocks16Command_response6notifyERKN4Base8Msg_dataE)
                  0009d6a4    00000001                   : Command_contingency_wrapper.obj (.text:_ZN9Pa_blocks31Command_contingency_wrapper_ser6notifyERKN4Base8Msg_dataE)
                  0009d6a5    00000001     vpgnc.lib : Vpu.obj (.text:_ZNK5Vpgnc3Vpu18get_status_data_exERN4Base9U8ostreamE)
                  0009d6a6    00000001               : Ftsactcmd.obj (.text:_ZNK5Vpgnc9Ftsactcmd4cgetERN4Base5LossyE)
                  0009d6a7    00000001     Blockfactory_par.obj (.text:_ZNK7Vblocks13Null_autotune8cget_cmdERN4Base5LossyE)
                  0009d6a8    00000001     pa_blocks.lib : Site_config.obj (.text:_ZNK9Pa_blocks11Site_config6Setter4cgetERN4Base9U8ostreamE)
                  0009d6a9    00000001     base.lib : Varmgr.obj (.text:_ZThn2_N4Base6Varmgr3setERKNS_4Iset4DataINS_6R64varEeEE)
                  0009d6aa    00000001     pa_blocks.lib : Site_config.obj (.text:_ZThn2_N9Pa_blocks11Site_config6Getter4csetERN4Base9U8istreamE)
                  0009d6ab    00000001     vpgnc.lib : Ftsactcmd.obj (.text:_ZThn2_NK5Vpgnc9Ftsactcmd4cgetERN4Base5LossyE)
                  0009d6ac    00000001     pa_blocks.lib : Command_response.obj (.text:_ZThn4_N9Pa_blocks16Command_response6notifyERKN4Base8Msg_dataE)
                  0009d6ad    00000001     veronte.lib : Sysuid.obj (.text:__sti___10_Sysuid_cpp_85c6185f)
                  0009d6ae    00000001                 : Hlicense.obj (.text:__sti___12_Hlicense_cpp_a82de323)
                  0009d6af    00000001                 : Hregvars.obj (.text:__sti___12_Hregvars_cpp_4944de89)
                  0009d6b0    00000001                 : Hxcfield.obj (.text:__sti___12_Hxcfield_cpp_9d66e5d0)
                  0009d6b1    00000001                 : Xcd_cpu2.obj (.text:__sti___12_Xcd_cpu2_cpp_0c32b705)
                  0009d6b2    00000001                 : Hd_vector.obj (.text:__sti___13_Hd_vector_cpp_4bb23931)
                  0009d6b3    00000001                 : Hvar_cpu2.obj (.text:__sti___13_Hvar_cpu2_cpp_77b24d1e)
                  0009d6b4    00000001     main_cpu2.obj (.text:__sti___13_main_cpu2_cpp_a3fe240e)
                  0009d6b5    00000001     veronte.lib : Hxcfg_cpu2.obj (.text:__sti___14_Hxcfg_cpu2_cpp_d1a62207)
                  0009d6b6    00000001     Vmain_cpu2.obj (.text:__sti___14_Vmain_cpu2_cpp_5bd1185c)
                  0009d6b7    00000001     veronte.lib : Hevact_cpu2.obj (.text:__sti___15_Hevact_cpu2_cpp_654971b7)
                  0009d6b8    00000001                 : Hnav_inputs.obj (.text:__sti___15_Hnav_inputs_cpp_8fac8338)
                  0009d6b9    00000001                 : Hstick_cpu2.obj (.text:__sti___15_Hstick_cpu2_cpp_c98da30b)
                  0009d6ba    00000001     DSP2838x_ent.lib : Htime_2838x.obj (.text:__sti___15_Htime_2838x_cpp_8100e017)
                  0009d6bb    00000001     veronte.lib : Hx_imu_rec0.obj (.text:__sti___15_Hx_imu_rec0_cpp_26f859b4)
                  0009d6bc    00000001                 : Tunsuite_pa.obj (.text:__sti___15_Tunsuite_pa_cpp_5746aedd)
                  0009d6bd    00000001     crypto_c28.lib : Compute_hash.obj (.text:__sti___16_Compute_hash_cpp_bf21941f)
                  0009d6be    00000001     veronte.lib : Hxcfile_cpu2.obj (.text:__sti___16_Hxcfile_cpu2_cpp_db7d06da)
                  0009d6bf    00000001                 : Hxcygen_cpu2.obj (.text:__sti___16_Hxcygen_cpu2_cpp_76e44217)
                  0009d6c0    00000001                 : Sysaddr_ver2.obj (.text:__sti___16_Sysaddr_ver2_cpp_d2ccc277)
                  0009d6c1    00000001                 : Code_hash_amz.obj (.text:__sti___17_Code_hash_amz_cpp_a3ac516f)
                  0009d6c2    00000001                 : Hxcfield_cpu2.obj (.text:__sti___17_Hxcfield_cpu2_cpp_b4af5a32)
                  0009d6c3    00000001                 : Hcfg_mode_cpu2.obj (.text:__sti___18_Hcfg_mode_cpu2_cpp_b1868e4f)
                  0009d6c4    00000001                 : Herrors_ver_pa.obj (.text:__sti___18_Herrors_ver_pa_cpp_3011a4a7)
                  0009d6c5    00000001                 : Hstate_estimate.obj (.text:__sti___19_Hstate_estimate_cpp_3cdf892f)
                  0009d6c6    00000001                 : Hx_nav_msg_cpu2.obj (.text:__sti___19_Hx_nav_msg_cpu2_cpp_d820765c)
                  0009d6c7    00000001     stanag.lib : Stanag_msg_cfgs.obj (.text:__sti___19_Stanag_msg_cfgs_cpp_6177b44c)
                  0009d6c8    00000001     Blockfactory_par.obj (.text:__sti___20_Blockfactory_par_cpp_f396dcb2)
                  0009d6c9    00000001     vpgnc.lib : CAN_cfg_maint_astro.obj (.text:__sti___23_CAN_cfg_maint_astro_cpp_2770a0d0)
                  0009d6ca    00000001     veronte.lib : Hauth_connections_cpu2.obj (.text:__sti___26_Hauth_connections_cpu2_cpp_f2a71969)
                  0009d6cb    00000001                 : Hnav_introspect_compact_cpu2.obj (.text:__sti___32_Hnav_introspect_compact_cpu2_cpp_9fc8be4d)
                  0009d6cc    00000001                 : Hstate_estimate_compact_cpu2.obj (.text:__sti___32_Hstate_estimate_compact_cpu2_cpp_d27291ce)
                  0009d6cd    00000001     vpgnc.lib : Vpu.obj (.text:__sti___7_Vpu_cpp_939b1fa5)
                  0009d6ce    00000001     veronte.lib : Hsys.obj (.text:__sti___8_Hsys_cpp_a557da24)
                  0009d6cf    00000001                 : Hvar.obj (.text:__sti___8_Hvar_cpp_72202282)
                  0009d6d0    00000001                 : Hmeas.obj (.text:__sti___9_Hmeas_cpp_1bf92ba1)
                  0009d6d1    00000001                 : Hxcff.obj (.text:__sti___9_Hxcff_cpp_a134acfb)
                  0009d6d2    00000001                 : Hxcfg.obj (.text:__sti___9_Hxcfg_cpp_eead2fca)
                  0009d6d3    00000001     rts2800_fpu64_eabi.lib : newhandler.c.obj (.text)
                  0009d6d4    00000001                            : placenew.c.obj (.text)

.const     0    0009d6d8    000052a2     
                  0009d6d8    00000200     base.lib : CRC32.obj (.const:_ZN4Base11CRC32_table5tableE)
                  0009d8d8    00000028     rts2800_fpu64_eabi.lib : typeinfo.c.obj (.const:.typeinfo:_ZTSN10__cxxabiv123__fundamental_type_infoE)
                  0009d900    000001c2     pa_blocks.lib : Nav_params.obj (.const:_ZN9Pa_blocks10Nav_params2Ic2Ud1UE)
                  0009dac2    0000003e     geomodel.lib : Apos.obj (.const:.typeinfo:_ZTSN3Geo31_GLOBAL__N__8_Apos_cpp_ad6fc63620Height_computer_nullE)
                  0009db00    0000016e     pa_blocks.lib : Nav_params.obj (.const)
                  0009dc6e    00000145     veronte.lib : Hxcfield_cpu2.obj (.const:.typeinfo:_ZTSN4Base8TwrapdesINS_9Tuntraits9Wsync_desINS_6TdsyncINS_11TnarrayreszINS_5TupleIjNS4_INS_8Fmsg_cfgELm32EEEEELm2EEENS_12Tdsynctraits11Rd_blockingIS9_NS_8Cptraits6PodrawIVS9_EEEENSA_15Disabled_structEEENS1_15Arraytun_size16INS1_8TupletunINS1_7Lossy16IjEENSJ_INS1_9Cset_onlyIS6_EES7_NS1_8No_checkIS7_EEEEEES9_NSP_IS9_EEEEEERSI_EE)
                  0009ddb3    00000145                 : Hxcfield_cpu2.obj (.const:.typeinfo:_ZTSN4Base8TwrapdesINS_9Tuntraits9Wsync_desINS_6TdsyncINS_11TnarrayreszINS_5TupleIjNS4_INS_8Fmsg_cfgELm32EEEEELm3EEENS_12Tdsynctraits11Rd_blockingIS9_NS_8Cptraits6PodrawIVS9_EEEENSA_15Disabled_structEEENS1_15Arraytun_size16INS1_8TupletunINS1_7Lossy16IjEENSJ_INS1_9Cset_onlyIS6_EES7_NS1_8No_checkIS7_EEEEEES9_NSP_IS9_EEEEEERSI_EE)
                  0009def8    0000012a                 : Tunsuite_pa.obj (.const:.typeinfo:_ZTSN4Base8TwrapdesINS_9Tuntraits9Wsync_desINS_6TdsyncINS_7TnarrayINS_11TnarrayreszINS_4BvarELm20EEELm3EEENS_12Tdsynctraits11Rd_blockingIS8_NS_8Cptraits6PodrawIVS8_EEEENS9_15Disabled_structEEENS1_15Arraytun_nosizeINS1_15Arraytun_size16INS1_7Lossy16IS6_EES7_NS1_8No_checkIS7_EEEES8_NSM_IS8_EEEEEERSH_EE)
                  0009e022    00000111                 : Tunsuite_pa.obj (.const:.typeinfo:_ZTSN4Base8TwrapdesINS_9Tuntraits9Wsync_desINS_6TdsyncINS_7TnarrayIN12Dsp28335_ent8TGPIOtunINS5_9GPIOmux16EEELm20EEENS_12Tdsynctraits11Rd_blockingIS9_NS_8Cptraits6PodrawIVS9_EEEENSA_15Disabled_structEEENS1_15Arraytun_nosizeINS1_9Cset_onlyIS8_EES9_NS1_8No_checkIS9_EEEEEERSI_EE)
                  0009e133    00000110                 : Tunsuite_pa.obj (.const:.typeinfo:_ZTSN4Base8TwrapdesINS_9Tuntraits9Wsync_desINS_6TdsyncINS_11TnarrayreszIN6Stanag15Stanag_msg_cfgs9Cfg_entryELm20EEENS_12Tdsynctraits11Rd_blockingIS8_NS_8Cptraits6PodrawIVS8_EEEENS9_15Disabled_structEEENS1_15Arraytun_size16INS1_9Cset_onlyIS7_EES8_NS1_8No_checkIS8_EEEEEERSH_EE)
                  0009e243    0000010f                 : Tunsuite_pa.obj (.const:.typeinfo:_ZTSN4Base8TwrapdesINS_9Tuntraits9Wsync_desINS_6TdsyncINS_11TnarrayreszINS_7Xpcmap0ELm19EEENS_12Tdsynctraits11Rd_blockingIS6_NS_8Cptraits6PodrawIVS6_EEEENS7_15Disabled_structEEENS1_15Arraytun_size16INS_3XpcIN3Ver15Xpccantrait_verEE9Tuntrait0ES6_NS1_8No_checkIS6_EEEEEERSF_EE)
                  0009e352    0000010b                 : Tunsuite_pa.obj (.const:.typeinfo:_ZTSN4Base8TwrapdesINS_9Tuntraits9Wsync_desINS_6TdsyncINS_11TnarrayreszINS_7Xpcmap0ELm45EEENS_12Tdsynctraits11Rd_blockingIS6_NS_8Cptraits6PodrawIVS6_EEEENS7_15Disabled_structEEENS1_15Arraytun_size16INS_3XpcIN3Ver11Xpcu8_traitEE9Tuntrait0ES6_NS1_8No_checkIS6_EEEEEERSF_EE)
                  0009e45d    00000108                 : Tunsuite_pa.obj (.const:.typeinfo:_ZTSN4Base8TwrapdesINS_9Tuntraits15Arraytun_nosizeINS1_15Arraytun_size16INS1_8TupletunINS1_9Cset_onlyIN6Stanag14Subsystem_data8Key_dataEEENS1_7Lossy16INS_4UvarEEEEENS_11TnarrayreszINS_5TupleIS8_SB_EELm64EEENS1_8No_checkISH_EEEENS_7TnarrayISH_Lm32EEENSI_ISM_EEEERSM_EE)
                  0009e565    000000fd                 : Hxcfield_cpu2.obj (.const:.typeinfo:_ZTSN4Base8TwrapdesINS_9Tuntraits9Wsync_desINS_6TdsyncINS_11TnarrayreszIN6Stanag7FstgcfgELm40EEENS_12Tdsynctraits11Rd_blockingIS7_NS_8Cptraits6PodrawIVS7_EEEENS8_15Disabled_structEEENS1_15Arraytun_size16INS1_9Cset_onlyIS6_EES7_NS1_8No_checkIS7_EEEEEERSG_EE)
                  0009e662    000000d2                 : Hevact_cpu2.obj (.const:.typeinfo:_ZTSN4Base8TwrapdesINS_9Tuntraits9Wsync_desINS_6TdsyncINS_8ArraymskINS_9Evactcfg0ELj100EEENS_12Tdsynctraits11Rd_blockingIS6_NS_8Cptraits6PodrawIVS6_EEEENS7_15Disabled_structEEENS1_11TunarraymskIS5_Lj100EEEEERSF_EE)
                  0009e734    000000cf                 : Hevact_cpu2.obj (.const:.typeinfo:_ZTSN4Base8TwrapdesINS_9Tuntraits9Wsync_desINS_6TdsyncINS_8ArraymskINS_6ActionELj120EEENS_12Tdsynctraits11Rd_blockingIS6_NS_8Cptraits6PodrawIVS6_EEEENS7_15Disabled_structEEENS1_11TunarraymskIS5_Lj120EEEEERSF_EE)
                  0009e803    000000c9                 : Tunsuite_pa.obj (.const:.typeinfo:_ZTSN4Base8TwrapdesINS_9Tuntraits9Wsync_desINS_6TdsyncIN6Stanag22Vehicle_identifier_cfgENS_12Tdsynctraits11Rd_blockingIS5_NS_8Cptraits6PodrawIVS5_EEEENS6_15Disabled_structEEENS1_10DesdefaultIS5_EEEERSE_EE)
                  0009e8cc    000000c6                 : Tunsuite_pa.obj (.const:.typeinfo:_ZTSN4Base8TwrapdesINS_9Tuntraits9Wsync_desINS_6TdsyncINS_13CANgpio_suiteILj2ELh55EEENS_12Tdsynctraits11Rd_blockingIS5_NS_8Cptraits6PodrawIVS5_EEEENS6_15Disabled_structEEENS1_10DesdefaultIS5_EEEERSE_EE)
                  0009e992    000000c4                 : Tunsuite_pa.obj (.const:.typeinfo:_ZTSN4Base8TwrapdesINS_9Tuntraits9Wsync_desINS_6TdsyncIN12Dsp28335_ent10CAN_FD_cfgENS_12Tdsynctraits11Rd_blockingIS5_NS_8Cptraits6PodrawIVS5_EEEENS6_15Disabled_structEEENS1_10DesdefaultIS5_EEEERSE_EE)
                  0009ea56    000000c4                 : Tunsuite_pa.obj (.const:.typeinfo:_ZTSN4Base8TwrapdesINS_9Tuntraits9Wsync_desINS_6TdsyncIN6Stanag17Stanag_period_cfgENS_12Tdsynctraits11Rd_blockingIS5_NS_8Cptraits6PodrawIVS5_EEEENS6_15Disabled_structEEENS1_10DesdefaultIS5_EEEERSE_EE)
                  0009eb1a    000000c2                 : Tunsuite_pa.obj (.const:.typeinfo:_ZTSN4Base8TwrapdesINS_9Tuntraits9Wsync_desINS_6TdsyncIN7Devices14Adis165053_cfgENS_12Tdsynctraits11Rd_blockingIS5_NS_8Cptraits6PodrawIVS5_EEEENS6_15Disabled_structEEENS1_10DesdefaultIS5_EEEERSE_EE)
                  0009ebdc    000000c2                 : Tunsuite_pa.obj (.const:.typeinfo:_ZTSN4Base8TwrapdesINS_9Tuntraits9Wsync_desINS_6TdsyncIN7Devices14Dev_common_cfgENS_12Tdsynctraits11Rd_blockingIS5_NS_8Cptraits6PodrawIVS5_EEEENS6_15Disabled_structEEENS1_10DesdefaultIS5_EEEERSE_EE)
                  0009ec9e    000000c2                 : Tunsuite_pa.obj (.const:.typeinfo:_ZTSN4Base8TwrapdesINS_9Tuntraits9Wsync_desINS_6TdsyncIN7Devices3Ubx10UbxcfgdataENS_12Tdsynctraits11Rd_blockingIS6_NS_8Cptraits6PodrawIVS6_EEEENS7_15Disabled_structEEENS1_10DesdefaultIS6_EEEERSF_EE)
                  0009ed60    000000c2                 : Tunsuite_pa.obj (.const:.typeinfo:_ZTSN4Base8TwrapdesINS_9Tuntraits9Wsync_desINS_6TdsyncIN8Maverick13Notch_lpf_cfgENS_12Tdsynctraits11Rd_blockingIS5_NS_8Cptraits6PodrawIVS5_EEEENS6_15Disabled_structEEENS1_10DesdefaultIS5_EEEERSE_EE)
                  0009ee22    000000c0                 : Tunsuite_pa.obj (.const:.typeinfo:_ZTSN4Base8TwrapdesINS_9Tuntraits9Wsync_desINS_6TdsyncINS_12CANout_suiteILj6EEENS_12Tdsynctraits11Rd_blockingIS5_NS_8Cptraits6PodrawIVS5_EEEENS6_15Disabled_structEEENS1_10DesdefaultIS5_EEEERSE_EE)
                  0009eee2    000000bf                 : Tunsuite_pa.obj (.const:.typeinfo:_ZTSN4Base8TwrapdesINS_9Tuntraits9Wsync_desINS_6TdsyncIN12Dsp28335_ent6CANcfgENS_12Tdsynctraits11Rd_blockingIS5_NS_8Cptraits6PodrawIVS5_EEEENS6_15Disabled_structEEENS1_10DesdefaultIS5_EEEERSE_EE)
                  0009efa1    000000bf                 : Tunsuite_pa.obj (.const:.typeinfo:_ZTSN4Base8TwrapdesINS_9Tuntraits9Wsync_desINS_6TdsyncIN12Dsp28335_ent6SCIcfgENS_12Tdsynctraits11Rd_blockingIS5_NS_8Cptraits6PodrawIVS5_EEEENS6_15Disabled_structEEENS1_10DesdefaultIS5_EEEERSE_EE)
                  0009f060    000000bf                 : Tunsuite_pa.obj (.const:.typeinfo:_ZTSN4Base8TwrapdesINS_9Tuntraits9Wsync_desINS_6TdsyncIN8Midlevel10Lights_cfgENS_12Tdsynctraits11Rd_blockingIS5_NS_8Cptraits6PodrawIVS5_EEEENS6_15Disabled_structEEENS1_10DesdefaultIS5_EEEERSE_EE)
                  0009f11f    000000bf                 : Tunsuite_pa.obj (.const:.typeinfo:_ZTSN4Base8TwrapdesINS_9Tuntraits9Wsync_desINS_6TdsyncINS_11CANin_suiteILj6EEENS_12Tdsynctraits11Rd_blockingIS5_NS_8Cptraits6PodrawIVS5_EEEENS6_15Disabled_structEEENS1_10DesdefaultIS5_EEEERSE_EE)
                  0009f1de    000000bf                 : Tunsuite_pa.obj (.const:.typeinfo:_ZTSN4Base8TwrapdesINS_9Tuntraits9Wsync_desINS_6TdsyncINS_11CANsc_suiteILj6EEENS_12Tdsynctraits11Rd_blockingIS5_NS_8Cptraits6PodrawIVS5_EEEENS6_15Disabled_structEEENS1_10DesdefaultIS5_EEEERSE_EE)
                  0009f29d    000000bb                 : Tunsuite_pa.obj (.const:.typeinfo:_ZTSN4Base8TwrapdesINS_9Tuntraits9Wsync_desINS_6TdsyncIN3Ver11Ext_nav_cfgENS_12Tdsynctraits11Rd_blockingIS5_NS_8Cptraits6PodrawIVS5_EEEENS6_15Disabled_structEEENS1_10DesdefaultIS5_EEEERSE_EE)
                  0009f358    000000bb                 : Tunsuite_pa.obj (.const:.typeinfo:_ZTSN4Base8TwrapdesINS_9Tuntraits9Wsync_desINS_6TdsyncINS_13ChannelmgrcfgENS_12Tdsynctraits11Rd_blockingIS4_NS_8Cptraits6PodrawIVS4_EEEENS5_15Disabled_structEEENS1_10DesdefaultIS4_EEEERSD_EE)
                  0009f413    000000bb                 : Tunsuite_pa.obj (.const:.typeinfo:_ZTSN4Base8TwrapdesINS_9Tuntraits9Wsync_desINS_6TdsyncINS_13Varsens1D_cfgENS_12Tdsynctraits11Rd_blockingIS4_NS_8Cptraits6PodrawIVS4_EEEENS5_15Disabled_structEEENS1_10DesdefaultIS4_EEEERSD_EE)
                  0009f4ce    000000bb                 : Tunsuite_pa.obj (.const:.typeinfo:_ZTSN4Base8TwrapdesINS_9Tuntraits9Wsync_desINS_6TdsyncINS_13Varsens3D_cfgENS_12Tdsynctraits11Rd_blockingIS4_NS_8Cptraits6PodrawIVS4_EEEENS5_15Disabled_structEEENS1_10DesdefaultIS4_EEEERSD_EE)
                  0009f589    000000b9                 : Hxcfield_cpu2.obj (.const:.typeinfo:_ZTSN4Base8TwrapdesINS_9Tuntraits9Wsync_desINS_6TdsyncINS_11Fstr1fieldsENS_12Tdsynctraits11Rd_blockingIS4_NS_8Cptraits6PodrawIVS4_EEEENS5_15Disabled_structEEENS1_10DesdefaultIS4_EEEERSD_EE)
                  0009f642    000000b9                 : Hxcfield_cpu2.obj (.const:.typeinfo:_ZTSN4Base8TwrapdesINS_9Tuntraits9Wsync_desINS_6TdsyncINS_11FstrtfieldsENS_12Tdsynctraits11Rd_blockingIS4_NS_8Cptraits6PodrawIVS4_EEEENS5_15Disabled_structEEENS1_10DesdefaultIS4_EEEERSD_EE)
                  0009f6fb    000000b9                 : Hxcfield_cpu2.obj (.const:.typeinfo:_ZTSN4Base8TwrapdesINS_9Tuntraits9Wsync_desINS_6TdsyncINS_11Pfields_cfgENS_12Tdsynctraits11Rd_blockingIS4_NS_8Cptraits6PodrawIVS4_EEEENS5_15Disabled_structEEENS1_10DesdefaultIS4_EEEERSD_EE)
                  0009f7b4    000000b9                 : Hstick_cpu2.obj (.const:.typeinfo:_ZTSN4Base8TwrapdesINS_9Tuntraits9Wsync_desINS_6TdsyncINS_11StickppmcfgENS_12Tdsynctraits11Rd_blockingIS4_NS_8Cptraits6PodrawIVS4_EEEENS5_15Disabled_structEEENS1_10DesdefaultIS4_EEEERSD_EE)
                  0009f86d    000000b9                 : Hstick_cpu2.obj (.const:.typeinfo:_ZTSN4Base8TwrapdesINS_9Tuntraits9Wsync_desINS_6TdsyncINS_11StickvarcfgENS_12Tdsynctraits11Rd_blockingIS4_NS_8Cptraits6PodrawIVS4_EEEENS5_15Disabled_structEEENS1_10DesdefaultIS4_EEEERSD_EE)
                  0009f926    000000b9                 : Tunsuite_pa.obj (.const:.typeinfo:_ZTSN4Base8TwrapdesINS_9Tuntraits9Wsync_desINS_6TdsyncINS_5Xcal0ILj12EEENS_12Tdsynctraits11Rd_blockingIS5_NS_8Cptraits6PodrawIVS5_EEEENS6_15Disabled_structEEENS1_10DesdefaultIS5_EEEERSE_EE)
                  0009f9df    000000b8                 : Tunsuite_pa.obj (.const:.typeinfo:_ZTSN4Base8TwrapdesINS_9Tuntraits9Wsync_desINS_6TdsyncIN3Ver9Xfreqmgr0ENS_12Tdsynctraits11Rd_blockingIS5_NS_8Cptraits6PodrawIVS5_EEEENS6_15Disabled_structEEENS1_10DesdefaultIS5_EEEERSE_EE)
                  0009fa97    000000b8                 : Tunsuite_pa.obj (.const:.typeinfo:_ZTSN4Base8TwrapdesINS_9Tuntraits9Wsync_desINS_6TdsyncINS_10Xcomstats0ENS_12Tdsynctraits11Rd_blockingIS4_NS_8Cptraits6PodrawIVS4_EEEENS5_15Disabled_structEEENS1_10DesdefaultIS4_EEEERSD_EE)
                  0009fb4f    000000b8                 : Tunsuite_pa.obj (.const:.typeinfo:_ZTSN4Base8TwrapdesINS_9Tuntraits9Wsync_desINS_6TdsyncINS_5Xcal0ILj2EEENS_12Tdsynctraits11Rd_blockingIS5_NS_8Cptraits6PodrawIVS5_EEEENS6_15Disabled_structEEENS1_10DesdefaultIS5_EEEERSE_EE)
                  0009fc07    00000039     media.lib : Cfgmgr.obj (.const:.typeinfo:_ZTSN5Media34_GLOBAL__N__10_Cfgmgr_cpp_be3311b210Meta_asyncE)
                  0009fc40    000000b6     vpgnc.lib : Vpu.obj (.const:_ZZN8Midlevel11Default_cfg5Xpcu8IN3Ver11Xpcu8_traitEE16get_default_0sciEvE4tmap)
                  0009fcf6    0000000a     main_cpu2.obj (.const:.typeinfo:_ZTIN4Base8FifospscINS_8Msg_dataEEE)
                  0009fd00    000000b6     vpgnc.lib : Vpu.obj (.const:_ZZN8Midlevel11Default_cfg5Xpcu8IN3Ver11Xpcu8_traitEE16get_default_4sciEvE4tmap)
                  0009fdb6    000000b5     veronte.lib : Hxcfield_cpu2.obj (.const:.typeinfo:_ZTSN4Base8TwrapdesINS_9Tuntraits9Wsync_desINS_6TdsyncINS_8FstrFastENS_12Tdsynctraits11Rd_blockingIS4_NS_8Cptraits6PodrawIVS4_EEEENS5_15Disabled_structEEENS1_10DesdefaultIS4_EEEERSD_EE)
                  0009fe6b    00000001     midlevel.lib : Sys_status_mgr.obj (.const:$P$T25$1)
                  0009fe6c    00000084     rts2800_fpu64_eabi.lib : k_rem_pio2.c.obj (.const:ipio2)
                  0009fef0    00000083     veronte.lib : Tunsuite_pa.obj (.const:.typeinfo:_ZTSN4Base8TwrapdesINS_9Tuntraits15Arraytun_size16INS1_7Lossy16IjEENS_11TnarrayreszIjLm32EEENS_13Order_checker9AscendingIS6_EEEERS6_EE)
                  0009ff73    00000001     --HOLE-- [fill = 0]
                  0009ff74    00000080     crypto_c28.lib : sha256.obj (.const:SHA256_K)
                  0009fff4    00000069     veronte.lib : Tunsuite_pa.obj (.const:.typeinfo:_ZTSN4Base8TwrapdesINS_9Tuntraits10DesdefaultINS_11TnarrayreszIN6Stanag11Stanag_port8Port_cfgELm6EEEEERS7_EE)
                  000a005d    00000062     vpgnc.lib : Opmgr.obj (.const:.typeinfo:_ZTSN4Base8TwrapdesINS_9Tuntraits10DesdefaultINS_8TuncacheIN5Vpgnc14Rvar_op_commit7RoptypeEEEEERS7_EE)
                  000a00bf    0000005e     veronte.lib : Tunsuite_pa.obj (.const:.typeinfo:_ZTSN4Base8TwrapdesINS_9Tuntraits10DesdefaultIN9Pa_blocks22Activated_knob_version6ConfigEEERS5_EE)
                  000a011d    0000005c     vpgnc.lib : Opranges.obj (.const:.typeinfo:_ZTSN4Base8TwrapdesINS_9Tuntraits10DesdefaultINS_8ArraymskIN5Vpgnc8Opranges3RngELj40EEEEERS7_EE)
                  000a0179    0000005a     veronte.lib : Hxcfield_cpu2.obj (.const:.typeinfo:_ZTSN4Base14Twraptun_asyncINS_9Tuntraits10Cxet_asyncINS_9FieldsvecINS_6TmvdatELj20EEEEERS5_EE)
                  000a01d3    0000005a                 : Tunsuite_pa.obj (.const:.typeinfo:_ZTSN4Base8TwrapdesINS_9Tuntraits10DesdefaultIN8Midlevel19Radio_sync_cfg_type6ParamsEEERS5_EE)
                  000a022d    00000056                 : Tunsuite_pa.obj (.const:.typeinfo:_ZTSN4Base8TwrapdesINS_9Tuntraits10DesdefaultINS_18Routing_table_dataILj2ELj16EEEEERS4_EE)
                  000a0283    00000056                 : Hxcfield_cpu2.obj (.const:.typeinfo:_ZTSN4Base8TwrapdesINS_9Tuntraits9Cset_onlyINS_9FieldsvecIN6Stanag7StgvdatELj0EEEEERS6_EE)
                  000a02d9    00000056                 : Hxcfield_cpu2.obj (.const:.typeinfo:_ZTSN4Base8TwrapdesINS_9Tuntraits9Cset_onlyINS_9FieldsvecINS_11SniffervdatELj0EEEEERS5_EE)
                  000a032f    00000053                 : Xcrdsuite.obj (.const:.typeinfo:_ZTSN4Base6XcmvarINS_8Bvar_mapENS_9Tuntraits10U16strCxetINS_8Hbmapvar4TypeEEEE6ParserE)
                  000a0382    00000053                 : Hxcfield_cpu2.obj (.const:.typeinfo:_ZTSN4Base8TwrapdesINS_9Tuntraits9Cset_onlyINS_9FieldsvecINS_9FmsetvdatELj0EEEEERS5_EE)
                  000a03d5    00000053                 : Tunsuite_pa.obj (.const:.typeinfo:_ZTSN4Base8TwraptunINS_9Tuntraits10TundefaultIN9Pa_blocks10DComms_cfg7DynamicEEERS5_EE)
                  000a0428    00000053                 : Tunsuite_pa.obj (.const:.typeinfo:_ZTSN4Base8TwraptunINS_9Tuntraits10TundefaultIN9Pa_blocks11Site_config6ConfigEEERS5_EE)
                  000a047b    00000052                 : Hxcfield_cpu2.obj (.const:.typeinfo:_ZTSN4Base14Twraptun_asyncINS_9Tuntraits10Cxet_asyncINS_12Ftelemetryod5FsvodEEERS4_EE)
                  000a04cd    00000052                 : Tunsuite_pa.obj (.const:.typeinfo:_ZTSN4Base8TwrapdesINS_9Tuntraits10DesdefaultIN9Pa_blocks10DComms_cfg6StaticEEERS5_EE)
                  000a051f    00000050                 : Hxcfield_cpu2.obj (.const:.typeinfo:_ZTSN4Base8TwrapdesINS_9Tuntraits9Cset_onlyINS_9FieldsvecINS_6TmvdatELj0EEEEERS5_EE)
                  000a056f    00000011                 : Pwm_suite.obj (.const:.typeinfo:_ZTSN3Ver9Pwm_suiteE)
                  000a0580    0000004e     vpgnc.lib : Vpu.obj (.const:_ZZN8Midlevel11Default_cfg6XpccanIN3Ver15Xpccantrait_verEE11get_defaultEvE4tmap)
                  000a05ce    0000004b     pa_blocks.lib : Blk_pa_nav_base.obj (.const:.typeinfo:_ZTSN9Pa_blocks19Cyphal_cset_wrapperINS_33Recovery_mission_readiness_signalEEE)
                  000a0619    00000048     veronte.lib : Xcrdsuite.obj (.const:.typeinfo:_ZTSN4Base6XcmvarINS_3FidENS_9Tuntraits10U16strCxetINS_7FeatureEEEE6ParserE)
                  000a0661    00000048     midlevel.lib : Stanag_cyphal_wrap.obj (.const:.typeinfo:_ZTSN6Cyphal46_GLOBAL__N__22_Stanag_cyphal_wrap_cpp_031033ee12Dummy_senderE)
                  000a06a9    00000047     media.lib : Cfgmgr.obj (.const:.typeinfo:_ZTSN5Media34_GLOBAL__N__10_Cfgmgr_cpp_be3311b224Ideserializable_as_asyncE)
                  000a06f0    00000047     vpgnc.lib : Vpu.obj (.const:.typeinfo:_ZTSN8Midlevel17Routing_table_cmdIN4Base18Routing_table_dataILj2ELj16EEEEE)
                  000a0737    00000046     pa_blocks.lib : Blk_pa_nav_base.obj (.const:.typeinfo:_ZTSN9Pa_blocks19Cyphal_cset_wrapperINS_12Measurements14Uplink_headingEEE)
                  000a077d    00000043     vpgnc.lib : Vpu.obj (.const:.typeinfo:_ZTSN4Base8TwrapdesINS_9Tuntraits10DesdefaultIN5Vpgnc7VarinitEEERS4_EE)
                  000a07c0    00000043               : Evtmgr.obj (.const:.typeinfo:_ZTSN4Base8TwrapdesINS_9Tuntraits10DesdefaultIN5Vpgnc7VlimitsEEERS4_EE)
                  000a0803    00000042     pa_blocks.lib : Blk_pa_nav_base.obj (.const:.typeinfo:_ZTSN9Pa_blocks19Cyphal_cset_wrapperINS_24Onground_controller_infoEEE)
                  000a0845    00000041     veronte.lib : Tunsuite_pa.obj (.const:.typeinfo:_ZTSN4Base8TwrapdesINS_9Tuntraits9Cset_onlyIRNS_10Cfgid_modeEEES4_EE)
                  000a0886    00000040     media.lib : Cfgmgr.obj (.const:.typeinfo:_ZTSN5Media34_GLOBAL__N__10_Cfgmgr_cpp_be3311b217Itunable_as_asyncE)
                  000a08c6    0000003f     vpgnc.lib : Evtmgr.obj (.const:.typeinfo:_ZTSN4Base8TwraptunINS_9Tuntraits10TundefaultINS_7UclkmgrEEERS3_EE)
                  000a0905    0000003f     pa_blocks.lib : Blk_pa_nav_base.obj (.const:.typeinfo:_ZTSN9Pa_blocks19Cyphal_cset_wrapperINS_21Mission_reset_commandEEE)
                  000a0944    0000003e     veronte.lib : Xcrdsuite.obj (.const:.typeinfo:_ZTSN4Base6XcmvarINS_4BvarENS_9Tuntraits10U16bool_16IbEEE6ParserE)
                  000a0982    0000003d                 : Xcrdsuite.obj (.const:.typeinfo:_ZTSN4Base6XcmvarINS_4RvarENS_9Tuntraits12U16str_floatEE6ParserE)
                  000a09bf    0000003c                 : Xcrdsuite.obj (.const:.typeinfo:_ZTSN4Base6XcmvarINS_4UvarENS_9Tuntraits9U16str_16IjEEE6ParserE)
                  000a09fb    00000001     --HOLE-- [fill = 0]
                  000a09fc    00000004     first.lib : Lossy.obj (.const:$P$T0)
                  000a0a00    00000038     pa_blocks.lib : Environ_params.obj (.const)
                  000a0a38    00000008     vpgnc.lib : Vpu.obj (.const:$P$T136$8)
                  000a0a40    00000034     crypto_c28.lib : Compute_hash.obj (.const:$P$T0$1)
                  000a0a74    00000034     Blockfactory_par.obj (.const:.typeinfo:_ZTSN9Pa_blocks22Cy_maint_action_consts13Imaint_actionE)
                  000a0aa8    00000032     base.lib : Varmgr.obj (.const:_ZTVN4Base6VarmgrE)
                  000a0ada    00000031     vpgnc.lib : Vpu.obj (.const:.typeinfo:_ZTSN4Base9IiteratorIN12Dsp28335_ent6Pwmdev5PWMidEEE)
                  000a0b0b    00000031     veronte.lib : Vfspermission.obj (.const:ext_cmd_ids$2)
                  000a0b3c    00000030     media.lib : Cfgmgr.obj (.const:_ZTVN5Media6CfgmgrE)
                  000a0b6c    00000030               : Fstrfast.obj (.const:_ZTVN5Media8FstrfastE)
                  000a0b9c    0000002f     vpgnc.lib : Rvar_op_commit.obj (.const:.typeinfo:_ZTSN4Base8TwraptunINS_9Tuntraits11Lossy_floatEfEE)
                  000a0bcb    0000002e     pa_blocks.lib : Command_contingency_wrapper.obj (.const:.typeinfo:_ZTSN9Pa_blocks31Command_contingency_wrapper_serE)
                  000a0bf9    00000007     vpgnc.lib : Vpu.obj (.const:map$12)
                  000a0c00    0000002e     base.lib : Fid.obj (.const:_ZN4Base8Fidtrait7szarrayE)
                  000a0c2e    0000002d     vpgnc.lib : Vpu.obj (.const:.typeinfo:_ZTSN4Base5RngitIN12Dsp28335_ent6Pwmdev5PWMidEEE)
                  000a0c5b    0000002d     pa_blocks.lib : Measurements.obj (.const:.typeinfo:_ZTSN9Pa_blocks12Measurements16Time_sync_offsetE)
                  000a0c88    0000002c     veronte.lib : Pwm_suite.obj (.const:.typeinfo:_ZTSN12Dsp28335_ent8PwmsuiteINS_6PwmdevELj16EEE)
                  000a0cb4    0000002c     vblocks.lib : Multi_interpolator_tun.obj (.const:.typeinfo:_ZTSN7Vblocks22Multi_interpolator_tun8Pdi_dataE)
                  000a0ce0    0000002c     vpgnc.lib : Vpu.obj (.const:.typeinfo:_ZTSN8Midlevel14Sys_status_mgr14Istatus_getterE)
                  000a0d0c    0000002c     rts2800_fpu64_eabi.lib : s_atan.c.obj (.const:aT)
                  000a0d38    00000029     pa_blocks.lib : In_flight_speed_change_cmd.obj (.const:.typeinfo:_ZTSN9Pa_blocks26In_flight_speed_change_cmdE)
                  000a0d61    00000001     --HOLE-- [fill = 0]
                  000a0d62    00000028     midlevel.lib : Sys_status_mgr.obj (.const:_ZTVN8Midlevel14Sys_status_mgrE)
                  000a0d8a    00000028     vpgnc.lib : Vpu.obj (.const:tn_entries$17)
                  000a0db2    00000027     Blockfactory_par.obj (.const:.typeinfo:_ZTSN4Base13IserializableINS_9U8ostreamEEE)
                  000a0dd9    00000026     rts2800_fpu64_eabi.lib : typeinfo.c.obj (.const:.typeinfo:_ZTSN10__cxxabiv121__vmi_class_type_infoE)
                  000a0dff    00000026     pa_blocks.lib : Diverse_comms_telemetry.obj (.const:.typeinfo:_ZTSN9Pa_blocks23Diverse_comms_telemetryE)
                  000a0e25    00000001     --HOLE-- [fill = 0]
                  000a0e26    00000026     vpgnc.lib : Vpu.obj (.const:_ZTVN4Base5IfileE)
                  000a0e4c    00000026     base.lib : Xcfile.obj (.const:_ZTVN4Base6XcfileE)
                  000a0e72    00000026     vpgnc.lib : Vpu.obj (.const:app_bits0$14)
                  000a0e98    00000025     rts2800_fpu64_eabi.lib : typeinfo.c.obj (.const:.typeinfo:_ZTSN10__cxxabiv120__si_class_type_infoE)
                  000a0ebd    00000025     base.lib : Message_received_hnd.obj (.const:.typeinfo:_ZTSN4Base20Message_received_hnd6ParserE)
                  000a0ee2    00000024     rts2800_fpu64_eabi.lib : typeinfo.c.obj (.const:.typeinfo:_ZTSN10__cxxabiv119__pointer_type_infoE)
                  000a0f06    00000024     pa_blocks.lib : Cy_dcomms_site_config.obj (.const:.typeinfo:_ZTSN9Pa_blocks21Cy_dcomms_site_configE)
                  000a0f2a    00000024                   : Input_static_pressure.obj (.const:.typeinfo:_ZTSN9Pa_blocks21Input_static_pressureE)
                  000a0f4e    00000024                   : Command_response.obj (.const:_ZTVN9Pa_blocks16Command_responseE)
                  000a0f72    00000023     vpgnc.lib : Vpu.obj (.const:.typeinfo:_ZTSN4Base13IserializableINS_5LossyEEE)
                  000a0f95    00000023     stanag.lib : Stanag_status_msgs.obj (.const:.typeinfo:_ZTSN6Stanag23Special_conversion_nullE)
                  000a0fb8    00000023     pa_blocks.lib : Vsdk_params.obj (.const:.typeinfo:_ZTSN9Pa_blocks20Vsdk_recovery_paramsE)
                  000a0fdb    00000022     rts2800_fpu64_eabi.lib : typeinfo.c.obj (.const:.typeinfo:_ZTSN10__cxxabiv117__class_type_infoE)
                  000a0ffd    00000022                            : typeinfo.c.obj (.const:.typeinfo:_ZTSN10__cxxabiv117__pbase_type_infoE)
                  000a101f    00000001     --HOLE-- [fill = 0]
                  000a1020    00000022     pa_blocks.lib : Cy_maint_action.obj (.const:_ZTVN9Pa_blocks15Cy_maint_actionE)
                  000a1042    00000022     devices.lib : Adis165053.obj (.const)
                  000a1064    00000021     Blockfactory_par.obj (.const:.typeinfo:_ZTSN8Midlevel19Cyphal_cget_wrapperE)
                  000a1085    00000021     pa_blocks.lib : Site_config.obj (.const:.typeinfo:_ZTSN9Pa_blocks11Site_config6GetterE)
                  000a10a6    00000021                   : Site_config.obj (.const:.typeinfo:_ZTSN9Pa_blocks11Site_config6SetterE)
                  000a10c7    00000020     main_cpu2.obj (.const:.typeinfo:_ZTSN4Base8FifospscINS_8Msg_dataEEE)
                  000a10e7    00000001     --HOLE-- [fill = 0]
                  000a10e8    00000020     rts2800_fpu64_eabi.lib : k_rem_pio2.c.obj (.const:PIo2)
                  000a1108    00000020     vpgnc.lib : Evtmgr.obj (.const:_ZTVN5Vpgnc6EvtmgrE)
                  000a1128    0000001f     media.lib : Cfgmgr.obj (.const:.typeinfo:_ZTSN4Base21Ideserializable_asyncE)
                  000a1147    0000001f     midlevel.lib : CyphalStanag_rx_hnd.obj (.const:.typeinfo:_ZTSN6Cyphal19CyphalStanag_rx_hndE)
                  000a1166    0000001f                  : CyphalStanag_tx_hnd.obj (.const:.typeinfo:_ZTSN6Cyphal19CyphalStanag_tx_hndE)
                  000a1185    0000001f     stanag.lib : Stanag_status_msgs.obj (.const:.typeinfo:_ZTSN6Stanag19Ispecial_conversionE)
                  000a11a4    0000001f                : Stanag_msg_push_pkt.obj (.const:.typeinfo:_ZTSN6Stanag19Stanag_msg_rx_asyncE)
                  000a11c3    0000001f     pa_blocks.lib : Command_response.obj (.const:.typeinfo:_ZTSN9Pa_blocks16Command_responseE)
                  000a11e2    0000001e     base.lib : Taskmgr.obj (.const:.typeinfo:_ZTSN4Base5ArrayINS_9TaskentryEEE)
                  000a1200    0000001e     media.lib : Cfgmgr.obj (.const:.typeinfo:_ZTSN5Media6Cfgmgr12Itundes_wrapE)
                  000a121e    0000001e     midlevel.lib : Xstanag_notifier.obj (.const:.typeinfo:_ZTSN8Midlevel16Xstanag_notifierE)
                  000a123c    0000001e     pa_blocks.lib : Cy_maint_action.obj (.const:.typeinfo:_ZTSN9Pa_blocks15Cy_maint_actionE)
                  000a125a    0000001e                   : Nav_params.obj (.const:_ZN9Pa_blocks10Nav_params2Ic10Statedelta1xE)
                  000a1278    00000008     base.lib : Xcfilecli.obj (.const:$P$T20$2)
                  000a1280    0000001e     pa_blocks.lib : Nav_params.obj (.const:_ZN9Pa_blocks10Nav_params2Ic2Ud1DE)
                  000a129e    0000001e     vpgnc.lib : Meta.obj (.const:meta_ids$1)
                  000a12bc    0000001d     main_cpu2.obj (.const:.typeinfo:_ZTSN4Base5ArrayINS_8Msg_dataEEE)
                  000a12d9    0000001d     veronte.lib : Copystep.obj (.const:.typeinfo:_ZTSN4Base9IiteratorINS_4RvarEEE)
                  000a12f6    0000001d     pa_blocks.lib : Cy_msg_wrapper.obj (.const:.typeinfo:_ZTSN9Pa_blocks14Cy_msg_wrapperE)
                  000a1313    0000001d                   : Input_gnss_pos.obj (.const:.typeinfo:_ZTSN9Pa_blocks14Input_gnss_posE)
                  000a1330    0000001d                   : Input_gnss_vel.obj (.const:.typeinfo:_ZTSN9Pa_blocks14Input_gnss_velE)
                  000a134d    0000001d                   : State_estimate.obj (.const:.typeinfo:_ZTSN9Pa_blocks14State_estimateE)
                  000a136a    0000001c     base.lib : Ftelemetryod.obj (.const:.typeinfo:_ZTSN4Base12Ftelemetryod5FsvodE)
                  000a1386    0000001c     Blockfactory_par.obj (.const:.typeinfo:_ZTSN4Base18Ideserializable_u8E)
                  000a13a2    0000001c     vpgnc.lib : Vpu.obj (.const:.typeinfo:_ZTSN4Base9IiteratorINS_3FidEEE)
                  000a13be    0000001c     midlevel.lib : Sys_status_mgr.obj (.const:.typeinfo:_ZTSN8Midlevel14Sys_status_mgrE)
                  000a13da    0000001c     pa_blocks.lib : Input_heading.obj (.const:.typeinfo:_ZTSN9Pa_blocks13Input_headingE)
                  000a13f6    0000001c     base.lib : Stepmgr.obj (.const:_ZN4Base4stimE)
                  000a1412    0000001b     stanag.lib : Acknowledgement.obj (.const:.typeinfo:_ZTSN6Stanag15AcknowledgementE)
                  000a142d    0000001b     pa_blocks.lib : Input_heading.obj (.const:.typeinfo:_ZTSN9Pa_blocks12Iekf_updaterE)
                  000a1448    0000001a     veronte.lib : Pwm_suite.obj (.const:.typeinfo:_ZTSN12Dsp28335_ent8IdisableE)
                  000a1462    0000001a     Blockfactory_par.obj (.const:.typeinfo:_ZTSN6Stanag14IStanag_msg_rxE)
                  000a147c    0000001a     Blockfactory_par.obj (.const:.typeinfo:_ZTSN6Stanag14IStanag_msg_txE)
                  000a1496    0000001a     Blockfactory_par.obj (.const:.typeinfo:_ZTSN6Stanag14IStanag_rx_hdlE)
                  000a14b0    0000001a     Blockfactory_par.obj (.const:.typeinfo:_ZTSN6Stanag14IStanag_rx_pktE)
                  000a14ca    0000001a     Blockfactory_par.obj (.const:.typeinfo:_ZTSN7Vblocks13Null_autotuneE)
                  000a14e4    0000001a     midlevel.lib : CAN_term_cfg.obj (.const:.typeinfo:_ZTSN8Midlevel12CAN_term_cfgE)
                  000a14fe    0000001a     pa_blocks.lib : Nav_builder.obj (.const:.typeinfo:_ZTSN9Pa_blocks11Nav_builderE)
                  000a1518    0000001a                   : Time_in_tai.obj (.const:.typeinfo:_ZTSN9Pa_blocks11Time_in_taiE)
                  000a1532    00000019     geomodel.lib : Apos.obj (.const:.typeinfo:_ZTSN3Geo16Iheight_computerE)
                  000a154b    00000019     first.lib : Endian16_little.obj (.const:.typeinfo:_ZTSN4Base15Endian16_littleE)
                  000a1564    00000019               : Endian32_little.obj (.const:.typeinfo:_ZTSN4Base15Endian32_littleE)
                  000a157d    00000019               : Endian64_little.obj (.const:.typeinfo:_ZTSN4Base15Endian64_littleE)
                  000a1596    00000019     vpgnc.lib : Vpu.obj (.const:.typeinfo:_ZTSN4Base15IdeserializableE)
                  000a15af    00000019     veronte.lib : Copystep.obj (.const:.typeinfo:_ZTSN4Base5RngitINS_4RvarEEE)
                  000a15c8    00000019     media.lib : Updatable_null.obj (.const:.typeinfo:_ZTSN5Media14Updatable_nullE)
                  000a15e1    00000019     vpgnc.lib : Rvar_op_commit.obj (.const:.typeinfo:_ZTSN5Vpgnc14Rvar_op_commitE)
                  000a15fa    00000019     midlevel.lib : Cy_msg_id_gen.obj (.const:.typeinfo:_ZTSN6Cyphal13Cy_msg_id_genE)
                  000a1613    00000019     media.lib : Cfgmgr.obj (.const:.typeinfo:_ZTSN6Stanag13Stanag_msg_rxE)
                  000a162c    00000019               : Cfgmgr.obj (.const:.typeinfo:_ZTSN6Stanag13Stanag_msg_txE)
                  000a1645    00000019     midlevel.lib : Irxfw.obj (.const:.typeinfo:_ZTSN8Midlevel5Irxfw6ParserE)
                  000a165e    00000018     base.lib : CANgpio_p.obj (.const:$P$T12$2)
                  000a1676    00000018              : Field_cfg.obj (.const:.typeinfo:_ZTSN4Base14Cksum_sagetechE)
                  000a168e    00000018     media.lib : Cfgmgr.obj (.const:.typeinfo:_ZTSN4Base14Itunable_asyncE)
                  000a16a6    00000018     vpgnc.lib : Vpu.obj (.const:.typeinfo:_ZTSN4Base5RngitINS_3FidEEE)
                  000a16be    00000018     veronte.lib : Vfspermission.obj (.const:.typeinfo:_ZTSN5Media13IfspermissionE)
                  000a16d6    00000018     vpgnc.lib : Evt_wp_groups.obj (.const:.typeinfo:_ZTSN5Vpgnc13Evt_wp_groupsE)
                  000a16ee    00000018     midlevel.lib : Errors_irx.obj (.const:.typeinfo:_ZTSN8Midlevel10Errors_irxE)
                  000a1706    00000018     stanag.lib : Acknowledgement.obj (.const:_ZTVN6Stanag15AcknowledgementE)
                  000a171e    00000018     midlevel.lib : Errors_irx.obj (.const:_ZTVN8Midlevel10Errors_irxE)
                  000a1736    00000017     base.lib : Errors_single.obj (.const:.typeinfo:_ZTSN4Base13Errors_singleE)
                  000a174d    00000017              : Session.obj (.const:.typeinfo:_ZTSN4Base13ItimeproviderE)
                  000a1764    00000016     veronte.lib : Vfspermission.obj (.const:.typeinfo:_ZTSN3Ver13VfspermissionE)
                  000a177a    00000016     media.lib : Cfgmgr.obj (.const:.typeinfo:_ZTSN4Base12Chk_blk_implE)
                  000a1790    00000016     first.lib : Endian16_big.obj (.const:.typeinfo:_ZTSN4Base12Endian16_bigE)
                  000a17a6    00000016               : Endian32_big.obj (.const:.typeinfo:_ZTSN4Base12Endian32_bigE)
                  000a17bc    00000016               : Endian64_big.obj (.const:.typeinfo:_ZTSN4Base12Endian64_bigE)
                  000a17d2    00000016     main_cpu2.obj (.const:.typeinfo:_ZTSN4Base12Interface_nvE)
                  000a17e8    00000016     media.lib : Cfgmgr.obj (.const:.typeinfo:_ZTSN6Stanag10Stanag_msgE)
                  000a17fe    00000016     veronte.lib : Pwm_suite.obj (.const:_ZTVN12Dsp28335_ent8PwmsuiteINS_6PwmdevELj16EEE)
                  000a1814    00000016                 : Pwm_suite.obj (.const:_ZTVN3Ver9Pwm_suiteE)
                  000a182a    00000016     media.lib : Cfgmgr.obj (.const:_ZTVN6Stanag10Stanag_msgE)
                  000a1840    00000015     vpgnc.lib : Vpu.obj (.const:.typeinfo:_ZTSN4Base11Errors_dualE)
                  000a1855    00000015     midlevel.lib : Irxfw.obj (.const:.typeinfo:_ZTSN4Base11Imsg_senderE)
                  000a186a    00000015     vpgnc.lib : Vpu.obj (.const:.typeinfo:_ZTSN4Base11Ipkt_senderE)
                  000a187f    00000015               : Vpu.obj (.const:.typeinfo:_ZTSN4Base11Vpktsend_xcE)
                  000a1894    00000015     media.lib : Updatable_null.obj (.const:.typeinfo:_ZTSN5Media10IupdatableE)
                  000a18a9    00000015     Blockfactory_par.obj (.const:.typeinfo:_ZTSN7Vblocks9IautotuneE)
                  000a18be    00000014     base.lib : Field_cfg.obj (.const:.typeinfo:_ZTSN4Base10Cksum_modnE)
                  000a18d2    00000014     veronte.lib : Vfspermission.obj (.const:.typeinfo:_ZTSN4Base10Ihas_valueE)
                  000a18e6    00000014     vblocks.lib : Blockfactory_amz.obj (.const:.typeinfo:_ZTSN7Vblocks8No_marksE)
                  000a18fa    00000006     base.lib : Cyphal.obj (.const:$P$T15$5)
                  000a1900    00000014     pa_blocks.lib : State_estimate_logic.obj (.const:_ZN9Pa_blocks20State_estimate_logic20avsef_x_input_coeffsE)
                  000a1914    00000014                   : State_estimate_logic.obj (.const:_ZN9Pa_blocks20State_estimate_logic21avsef_x_output_coeffsE)
                  000a1928    00000014                   : State_estimate_logic.obj (.const:_ZN9Pa_blocks20State_estimate_logic21avsef_yz_input_coeffsE)
                  000a193c    00000004     media.lib : Cfgmgr.obj (.const:$P$T10)
                  000a1940    00000014     pa_blocks.lib : State_estimate_logic.obj (.const:_ZN9Pa_blocks20State_estimate_logic22avsef_yz_output_coeffsE)
                  000a1954    00000014     veronte.lib : Vfspermission.obj (.const:_ZTVN3Ver13VfspermissionE)
                  000a1968    00000013                 : Static_cfg.obj (.const:.typeinfo:_ZTSN3Ver10Static_cfgE)
                  000a197b    00000013                 : Pwm_suite.obj (.const:.typeinfo:_ZTSN4Base7IsetterIfEE)
                  000a198e    00000013     media.lib : Cfgcrcpub.obj (.const:.typeinfo:_ZTSN5Media9CfgcrcpubE)
                  000a19a1    00000013     vpgnc.lib : Ftsactcmd.obj (.const:.typeinfo:_ZTSN5Vpgnc9FtsactcmdE)
                  000a19b4    00000013     midlevel.lib : Irxfw.obj (.const:.typeinfo:_ZTSN6Stanag8Msg_fifoE)
                  000a19c7    00000001     --HOLE-- [fill = 0]
                  000a19c8    00000012     veronte.lib : Pwm_suite.obj (.const:.typeinfo:_ZTIN12Dsp28335_ent8PwmsuiteINS_6PwmdevELj16EEE)
                  000a19da    00000012     base.lib : Taskmgr.obj (.const:.typeinfo:_ZTIN4Base7TaskmgrE)
                  000a19ec    00000012     media.lib : Cfgmgr.obj (.const:.typeinfo:_ZTIN5Media6CfgmgrE)
                  000a19fe    00000002     base.lib : Cyphal.obj (.const:$P$T13$3)
                  000a1a00    00000012     media.lib : Fstrfast.obj (.const:.typeinfo:_ZTIN5Media8FstrfastE)
                  000a1a12    00000012     midlevel.lib : Sys_status_mgr.obj (.const:.typeinfo:_ZTIN8Midlevel14Sys_status_mgrE)
                  000a1a24    00000012     base.lib : Checklist.obj (.const:.typeinfo:_ZTSN4Base9ChecklistE)
                  000a1a36    00000012     media.lib : Cfgmgr.obj (.const:.typeinfo:_ZTSN4Base9IchecksumE)
                  000a1a48    00000012     first.lib : Endian3.obj (.const:.typeinfo:_ZTSN4Base9Iendian16E)
                  000a1a5a    00000012               : Endian3.obj (.const:.typeinfo:_ZTSN4Base9Iendian32E)
                  000a1a6c    00000012               : Endian3.obj (.const:.typeinfo:_ZTSN4Base9Iendian64E)
                  000a1a7e    00000012     veronte.lib : Xcrdsuite.obj (.const:.typeinfo:_ZTSN4Base9IstrparseE)
                  000a1a90    00000012     base.lib : Xcfilecli.obj (.const:.typeinfo:_ZTSN4Base9XcfilecliE)
                  000a1aa2    00000012     media.lib : Fstrfast.obj (.const:.typeinfo:_ZTSN5Media8FstrfastE)
                  000a1ab4    00000012     vpgnc.lib : Opranges.obj (.const:.typeinfo:_ZTSN5Vpgnc8OprangesE)
                  000a1ac6    00000012               : CAN_cfg_maint_astro.obj (.const:_ZN5Vpgnc47_GLOBAL__N__23_CAN_cfg_maint_astro_cpp_2770a0d015cfgs_to_be_loadE)
                  000a1ad8    00000012     base.lib : Varmgr.obj (.const:_ZTVN4Base4IgetE)
                  000a1aea    00000012              : Varmgr.obj (.const:_ZTVN4Base4IsetE)
                  000a1afc    00000012              : Taskmgr.obj (.const:_ZTVN4Base7TaskmgrE)
                  000a1b0e    00000012     midlevel.lib : CyphalStanag_rx_hnd.obj (.const:_ZTVN6Cyphal19CyphalStanag_rx_hndE)
                  000a1b20    00000012     pa_blocks.lib : Site_config.obj (.const:_ZTVN9Pa_blocks11Site_config6GetterE)
                  000a1b32    00000012                   : Site_config.obj (.const:_ZTVN9Pa_blocks11Site_config6SetterE)
                  000a1b44    00000012                   : Blk_pa_nav_base.obj (.const:_ZTVN9Pa_blocks19Cyphal_cset_wrapperINS_12Measurements14Uplink_headingEEE)
                  000a1b56    00000012                   : Blk_pa_nav_base.obj (.const:_ZTVN9Pa_blocks19Cyphal_cset_wrapperINS_21Mission_reset_commandEEE)
                  000a1b68    00000012                   : Blk_pa_nav_base.obj (.const:_ZTVN9Pa_blocks19Cyphal_cset_wrapperINS_24Onground_controller_infoEEE)
                  000a1b7a    00000012                   : Blk_pa_nav_base.obj (.const:_ZTVN9Pa_blocks19Cyphal_cset_wrapperINS_33Recovery_mission_readiness_signalEEE)
                  000a1b8c    00000012                   : Diverse_comms_telemetry.obj (.const:_ZTVN9Pa_blocks23Diverse_comms_telemetryE)
                  000a1b9e    00000012     veronte.lib : Vfspermission.obj (.const:op_files$1)
                  000a1bb0    00000011     base.lib : Taskmgr.obj (.const:.typeinfo:_ZTSN4Base8ItaskmgrE)
                  000a1bc1    00000011     vpgnc.lib : Vpu.obj (.const:.typeinfo:_ZTSN4Base8ItunableE)
                  000a1bd2    00000011     media.lib : Cfgmgr.obj (.const:.typeinfo:_ZTSN5Media7IcfgcrcE)
                  000a1be3    00000011     first.lib : Bitutils.obj (.const:_ZN4Base8Bitutils6mask16E)
                  000a1bf4    00000010     vpgnc.lib : Vpu.obj (.const:.typeinfo:_ZTSN4Base7IerrorsE)
                  000a1c04    00000010     base.lib : Session.obj (.const:.typeinfo:_ZTSN4Base7SessionE)
                  000a1c14    00000010              : Taskmgr.obj (.const:.typeinfo:_ZTSN4Base7TaskmgrE)
                  000a1c24    00000010     Vmain_cpu2.obj (.const:.typeinfo:_ZTSN4Base7TimevarE)
                  000a1c34    00000010     media.lib : Cfgmgr.obj (.const:.typeinfo:_ZTSN5Media6CfgmgrE)
                  000a1c44    00000010     vpgnc.lib : Evtmgr.obj (.const:.typeinfo:_ZTSN5Vpgnc6EvtmgrE)
                  000a1c54    00000010     vblocks.lib : Blockfactory_amz.obj (.const:.typeinfo:_ZTSN5Vpgnc6ImarksE)
                  000a1c64    00000010     first.lib : Bitutils.obj (.const:_ZN4Base8Bitutils14reflect4lookupE)
                  000a1c74    0000000c     base.lib : CRC.obj (.const:.typeinfo:_ZTSN4Base3CRCE)
                  000a1c80    00000010     pa_blocks.lib : State_estimate_logic.obj (.const:_ZN9Pa_blocks20State_estimate_logic18lasef_input_coeffsE)
                  000a1c90    00000010                   : State_estimate_logic.obj (.const:_ZN9Pa_blocks20State_estimate_logic19lasef_output_coeffsE)
                  000a1ca0    00000010     base.lib : Ftelemetryod.obj (.const:_ZTVN4Base12Ftelemetryod5FsvodE)
                  000a1cb0    00000010     Blockfactory_par.obj (.const:_ZTVN9Pa_blocks22Cy_maint_action_consts13Imaint_actionE)
                  000a1cc0    00000010     rts2800_fpu64_eabi.lib : s_atan.c.obj (.const:atanhi)
                  000a1cd0    00000010                            : s_atan.c.obj (.const:atanlo)
                  000a1ce0    00000010                            : e_asinf.c.obj (.const)
                  000a1cf0    0000000f     geomodel.lib : Fmemcmd.obj (.const:.typeinfo:_ZTSN3Geo7FmemcmdE)
                  000a1cff    0000000f     base.lib : CRCmav.obj (.const:.typeinfo:_ZTSN4Base6CRCmavE)
                  000a1d0e    0000000f              : Cmdvar.obj (.const:.typeinfo:_ZTSN4Base6CmdvarE)
                  000a1d1d    0000000f     vpgnc.lib : Vpu.obj (.const:.typeinfo:_ZTSN4Base6IcheckE)
                  000a1d2c    0000000f     base.lib : Varmgr.obj (.const:.typeinfo:_ZTSN4Base6VarmgrE)
                  000a1d3b    0000000f              : Xcfile.obj (.const:.typeinfo:_ZTSN4Base6XcfileE)
                  000a1d4a    0000000e     veronte.lib : Vfspermission.obj (.const:.typeinfo:_ZTIN3Ver13VfspermissionE)
                  000a1d58    0000000e     base.lib : Ftelemetryod.obj (.const:.typeinfo:_ZTIN4Base12Ftelemetryod5FsvodE)
                  000a1d66    0000000e              : Varmgr.obj (.const:.typeinfo:_ZTIN4Base6VarmgrE)
                  000a1d74    0000000c     pa_blocks.lib : State_estimate_logic.obj (.const:_ZN9Pa_blocks20State_estimate_logic18lvsef_input_coeffsE)
                  000a1d80    0000000e     vpgnc.lib : Vpu.obj (.const:.typeinfo:_ZTIN4Base8ItunableE)
                  000a1d8e    0000000e               : Evtmgr.obj (.const:.typeinfo:_ZTIN5Vpgnc6EvtmgrE)
                  000a1d9c    0000000e     media.lib : Cfgmgr.obj (.const:.typeinfo:_ZTIN6Stanag10Stanag_msgE)
                  000a1daa    0000000e     Blockfactory_par.obj (.const:.typeinfo:_ZTIN6Stanag14IStanag_rx_hdlE)
                  000a1db8    00000008     rts2800_fpu64_eabi.lib : typeinfo.c.obj (.const:.typeinfo:_ZTIPKe)
                  000a1dc0    0000000e     midlevel.lib : Irxfw.obj (.const:.typeinfo:_ZTIN6Stanag8Msg_fifoE)
                  000a1dce    0000000e                  : Irxfw.obj (.const:.typeinfo:_ZTIN8Midlevel5Irxfw6ParserE)
                  000a1ddc    0000000e     pa_blocks.lib : Cy_maint_action.obj (.const:.typeinfo:_ZTIN9Pa_blocks15Cy_maint_actionE)
                  000a1dea    0000000e                   : Command_response.obj (.const:.typeinfo:_ZTIN9Pa_blocks16Command_responseE)
                  000a1df8    00000008                   : Nav_params.obj (.const:_ZN9Pa_blocks10Nav_params2Ic13Stateestimate13q_ned_from_vfE)
                  000a1e00    0000000e                   : Cy_dcomms_site_config.obj (.const:.typeinfo:_ZTIN9Pa_blocks21Cy_dcomms_site_configE)
                  000a1e0e    0000000e     Blockfactory_par.obj (.const:.typeinfo:_ZTIN9Pa_blocks22Cy_maint_action_consts13Imaint_actionE)
                  000a1e1c    0000000e     base.lib : Spkt.obj (.const:.typeinfo:_ZTSN4Base5CRC32E)
                  000a1e2a    0000000e              : Spkt.obj (.const:.typeinfo:_ZTSN4Base5CksumE)
                  000a1e38    0000000e     vpgnc.lib : Vpu.obj (.const:.typeinfo:_ZTSN4Base5IfileE)
                  000a1e46    0000000e     Vmain_cpu2.obj (.const:.typeinfo:_ZTSN4Base5IstepE)
                  000a1e54    0000000e     Blockfactory_par.obj (.const:.typeinfo:_ZTSN4Base5ItaskE)
                  000a1e62    0000000e     base.lib : Limit.obj (.const:.typeinfo:_ZTSN4Base5LimitE)
                  000a1e70    0000000e     geomodel.lib : Fmemcmd.obj (.const:_ZTVN3Geo7FmemcmdE)
                  000a1e7e    0000000e     base.lib : Cmdvar.obj (.const:_ZTVN4Base6CmdvarE)
                  000a1e8c    0000000e     veronte.lib : Tunsuite_pa.obj (.const:_ZTVN4Base8TwraptunINS_9Tuntraits10TundefaultIN9Pa_blocks10DComms_cfg7DynamicEEERS5_EE)
                  000a1e9a    0000000e                 : Tunsuite_pa.obj (.const:_ZTVN4Base8TwraptunINS_9Tuntraits10TundefaultIN9Pa_blocks11Site_config6ConfigEEERS5_EE)
                  000a1ea8    0000000e     vpgnc.lib : Evtmgr.obj (.const:_ZTVN4Base8TwraptunINS_9Tuntraits10TundefaultINS_7UclkmgrEEERS3_EE)
                  000a1eb6    0000000e               : Rvar_op_commit.obj (.const:_ZTVN4Base8TwraptunINS_9Tuntraits11Lossy_floatEfEE)
                  000a1ec4    0000000e               : Ftsactcmd.obj (.const:_ZTVN5Vpgnc9FtsactcmdE)
                  000a1ed2    0000000e     media.lib : Cfgmgr.obj (.const:_ZTVN6Stanag13Stanag_msg_rxE)
                  000a1ee0    0000000e     Blockfactory_par.obj (.const:_ZTVN6Stanag14IStanag_rx_hdlE)
                  000a1eee    0000000e     stanag.lib : Stanag_msg_push_pkt.obj (.const:_ZTVN6Stanag19Stanag_msg_rx_asyncE)
                  000a1efc    0000000e     Blockfactory_par.obj (.const:_ZTVN7Vblocks13Null_autotuneE)
                  000a1f0a    0000000e     Blockfactory_par.obj (.const:_ZTVN7Vblocks9IautotuneE)
                  000a1f18    0000000e     vpgnc.lib : Vpu.obj (.const:_ZTVN8Midlevel17Routing_table_cmdIN4Base18Routing_table_dataILj2ELj16EEEEE)
                  000a1f26    0000000e     midlevel.lib : Irxfw.obj (.const:_ZTVN8Midlevel5Irxfw6ParserE)
                  000a1f34    0000000e     pa_blocks.lib : Cy_dcomms_site_config.obj (.const:_ZTVN9Pa_blocks21Cy_dcomms_site_configE)
                  000a1f42    0000000d     base.lib : Varmgr.obj (.const:.typeinfo:_ZTSN4Base4IgetE)
                  000a1f4f    0000000d              : Varmgr.obj (.const:.typeinfo:_ZTSN4Base4IsetE)
                  000a1f5c    0000000d     vpgnc.lib : Vpu.obj (.const:.typeinfo:_ZTSN5Vpgnc3VpuE)
                  000a1f69    0000000d     rts2800_fpu64_eabi.lib : typeinfo.c.obj (.const:.typeinfo:_ZTSSt9type_info)
                  000a1f76    0000000a     veronte.lib : Static_cfg.obj (.const:_ZTVN3Ver10Static_cfgE)
                  000a1f80    0000000c     pa_blocks.lib : State_estimate_logic.obj (.const:_ZN9Pa_blocks20State_estimate_logic19lvsef_output_coeffsE)
                  000a1f8c    0000000c                   : Fifo_imu.obj (.const:_ZN9Pa_blocks8Fifo_imu6Writer8in_coefsE)
                  000a1f98    0000000c                   : Fifo_imu.obj (.const:_ZN9Pa_blocks8Fifo_imu6Writer9out_coefsE)
                  000a1fa4    0000000c     base.lib : Field_cfg.obj (.const:_ZTVN4Base10Cksum_modnE)
                  000a1fb0    0000000c     media.lib : Cfgmgr.obj (.const:_ZTVN4Base12Chk_blk_implE)
                  000a1fbc    0000000c     base.lib : Field_cfg.obj (.const:_ZTVN4Base14Cksum_sagetechE)
                  000a1fc8    0000000c              : CRC.obj (.const:_ZTVN4Base3CRCE)
                  000a1fd4    0000000c              : Spkt.obj (.const:_ZTVN4Base5CRC32E)
                  000a1fe0    0000000c              : Spkt.obj (.const:_ZTVN4Base5CksumE)
                  000a1fec    0000000c              : CRCmav.obj (.const:_ZTVN4Base6CRCmavE)
                  000a1ff8    0000000c              : Taskmgr.obj (.const:_ZTVN4Base8ItaskmgrE)
                  000a2004    0000000c     vpgnc.lib : Vpu.obj (.const:_ZTVN4Base8ItunableE)
                  000a2010    0000000c     media.lib : Cfgmgr.obj (.const:_ZTVN4Base9IchecksumE)
                  000a201c    0000000c               : Updatable_null.obj (.const:_ZTVN5Media10IupdatableE)
                  000a2028    0000000c     veronte.lib : Vfspermission.obj (.const:_ZTVN5Media13IfspermissionE)
                  000a2034    0000000c     media.lib : Updatable_null.obj (.const:_ZTVN5Media14Updatable_nullE)
                  000a2040    0000000c     vpgnc.lib : Vpu.obj (.const:_ZTVN5Vpgnc3VpuE)
                  000a204c    0000000c     midlevel.lib : CyphalStanag_tx_hnd.obj (.const:_ZTVN6Cyphal19CyphalStanag_tx_hndE)
                  000a2058    0000000c     stanag.lib : Stanag_status_msgs.obj (.const:_ZTVN6Stanag19Ispecial_conversionE)
                  000a2064    0000000c                : Stanag_status_msgs.obj (.const:_ZTVN6Stanag23Special_conversion_nullE)
                  000a2070    0000000c     vpgnc.lib : Vpu.obj (.const:_ZTVN8Midlevel14Sys_status_mgr14Istatus_getterE)
                  000a207c    0000000c     Blockfactory_par.obj (.const:_ZTVN8Midlevel19Cyphal_cget_wrapperE)
                  000a2088    0000000c     pa_blocks.lib : Command_contingency_wrapper.obj (.const:_ZTVN9Pa_blocks31Command_contingency_wrapper_serE)
                  000a2094    0000000b     Blockfactory_par.obj (.const:$P$T59$6)
                  000a209f    00000001     --HOLE-- [fill = 0]
                  000a20a0    0000000a     midlevel.lib : Irxfw.obj (.const:_ZTVN4Base11Imsg_senderE)
                  000a20aa    0000000a     vpgnc.lib : Vpu.obj (.const:_ZTVN4Base11Ipkt_senderE)
                  000a20b4    0000000a               : Vpu.obj (.const:_ZTVN4Base11Vpktsend_xcE)
                  000a20be    0000000a     media.lib : Cfgmgr.obj (.const:_ZTVN5Media7IcfgcrcE)
                  000a20c8    0000000a     midlevel.lib : Stanag_cyphal_wrap.obj (.const:_ZTVN6Cyphal46_GLOBAL__N__22_Stanag_cyphal_wrap_cpp_031033ee12Dummy_senderE)
                  000a20d2    0000000a                  : Irxfw.obj (.const:_ZTVN6Stanag8Msg_fifoE)
                  000a20dc    0000000a     pa_blocks.lib : Input_heading.obj (.const:_ZTVN9Pa_blocks12Iekf_updaterE)
                  000a20e6    0000000a                   : Input_heading.obj (.const:_ZTVN9Pa_blocks13Input_headingE)
                  000a20f0    0000000a                   : Input_gnss_pos.obj (.const:_ZTVN9Pa_blocks14Input_gnss_posE)
                  000a20fa    0000000a                   : Input_gnss_vel.obj (.const:_ZTVN9Pa_blocks14Input_gnss_velE)
                  000a2104    0000000a                   : Input_static_pressure.obj (.const:_ZTVN9Pa_blocks21Input_static_pressureE)
                  000a210e    0000000a     vpgnc.lib : Vpu.obj (.const:_ZZN8Midlevel11Default_cfg18get_default_can_inIN4Base11CANin_suiteILj6EEEEERKT_bbE6ap_cfg)
                  000a2118    0000000a     base.lib : CANin_p.obj (.const:cfg$1)
                  000a2122    00000009     midlevel.lib : Sys_status_mgr.obj (.const:bits$4)
                  000a212b    00000001     --HOLE-- [fill = 0]
                  000a212c    00000008     rts2800_fpu64_eabi.lib : typeinfo.c.obj (.const:_ZTVN10__cxxabiv117__class_type_infoE)
                  000a2134    00000008                            : typeinfo.c.obj (.const:_ZTVN10__cxxabiv119__pointer_type_infoE)
                  000a213c    00000008                            : typeinfo.c.obj (.const:_ZTVN10__cxxabiv120__si_class_type_infoE)
                  000a2144    00000008                            : typeinfo.c.obj (.const:_ZTVN10__cxxabiv121__vmi_class_type_infoE)
                  000a214c    00000008                            : typeinfo.c.obj (.const:_ZTVN10__cxxabiv123__fundamental_type_infoE)
                  000a2154    00000008     geomodel.lib : Apos.obj (.const:_ZTVN3Geo16Iheight_computerE)
                  000a215c    00000008                  : Apos.obj (.const:_ZTVN3Geo31_GLOBAL__N__8_Apos_cpp_ad6fc63620Height_computer_nullE)
                  000a2164    00000008     first.lib : Endian16_big.obj (.const:_ZTVN4Base12Endian16_bigE)
                  000a216c    00000008               : Endian32_big.obj (.const:_ZTVN4Base12Endian32_bigE)
                  000a2174    00000008               : Endian64_big.obj (.const:_ZTVN4Base12Endian64_bigE)
                  000a217c    00000008     media.lib : Cfgmgr.obj (.const:_ZTVN4Base14Itunable_asyncE)
                  000a2184    00000008     veronte.lib : Hxcfield_cpu2.obj (.const:_ZTVN4Base14Twraptun_asyncINS_9Tuntraits10Cxet_asyncINS_12Ftelemetryod5FsvodEEERS4_EE)
                  000a218c    00000008                 : Hxcfield_cpu2.obj (.const:_ZTVN4Base14Twraptun_asyncINS_9Tuntraits10Cxet_asyncINS_9FieldsvecINS_6TmvdatELj20EEEEERS5_EE)
                  000a2194    00000008     first.lib : Endian16_little.obj (.const:_ZTVN4Base15Endian16_littleE)
                  000a219c    00000008               : Endian32_little.obj (.const:_ZTVN4Base15Endian32_littleE)
                  000a21a4    00000008               : Endian64_little.obj (.const:_ZTVN4Base15Endian64_littleE)
                  000a21ac    00000008     vpgnc.lib : Vpu.obj (.const:_ZTVN4Base5RngitIN12Dsp28335_ent6Pwmdev5PWMidEEE)
                  000a21b4    00000008               : Vpu.obj (.const:_ZTVN4Base5RngitINS_3FidEEE)
                  000a21bc    00000008     veronte.lib : Copystep.obj (.const:_ZTVN4Base5RngitINS_4RvarEEE)
                  000a21c4    00000008     first.lib : Endian3.obj (.const:_ZTVN4Base9Iendian16E)
                  000a21cc    00000008               : Endian3.obj (.const:_ZTVN4Base9Iendian32E)
                  000a21d4    00000008               : Endian3.obj (.const:_ZTVN4Base9Iendian64E)
                  000a21dc    00000008     vpgnc.lib : Vpu.obj (.const:_ZTVN4Base9IiteratorIN12Dsp28335_ent6Pwmdev5PWMidEEE)
                  000a21e4    00000008               : Vpu.obj (.const:_ZTVN4Base9IiteratorINS_3FidEEE)
                  000a21ec    00000008     veronte.lib : Copystep.obj (.const:_ZTVN4Base9IiteratorINS_4RvarEEE)
                  000a21f4    00000008     media.lib : Cfgmgr.obj (.const:_ZTVN5Media34_GLOBAL__N__10_Cfgmgr_cpp_be3311b217Itunable_as_asyncE)
                  000a21fc    00000008               : Cfgmgr.obj (.const:_ZTVN5Media6Cfgmgr12Itundes_wrapE)
                  000a2204    00000008     vblocks.lib : Blockfactory_amz.obj (.const:_ZTVN5Vpgnc6ImarksE)
                  000a220c    00000008     midlevel.lib : Cy_msg_id_gen.obj (.const:_ZTVN6Cyphal13Cy_msg_id_genE)
                  000a2214    00000008     media.lib : Cfgmgr.obj (.const:_ZTVN6Stanag13Stanag_msg_txE)
                  000a221c    00000008     Blockfactory_par.obj (.const:_ZTVN6Stanag14IStanag_msg_txE)
                  000a2224    00000008     Blockfactory_par.obj (.const:_ZTVN6Stanag14IStanag_rx_pktE)
                  000a222c    00000008     vblocks.lib : Blockfactory_amz.obj (.const:_ZTVN7Vblocks8No_marksE)
                  000a2234    00000008     rts2800_fpu64_eabi.lib : e_pow.c.obj (.const:bp)
                  000a223c    00000008                            : e_pow.c.obj (.const:dp_h)
                  000a2244    00000008                            : e_pow.c.obj (.const:dp_l)
                  000a224c    00000008     midlevel.lib : Default_cfg.obj (.const:rx_cfg$2)
                  000a2254    00000006                  : CyphalStanag_rx_hnd.obj (.const:$P$T19$1)
                  000a225a    00000006     pa_blocks.lib : Command_response.obj (.const:$P$T33$1)
                  000a2260    00000006     Blockfactory_par.obj (.const:$P$T37$1)
                  000a2266    00000006     rts2800_fpu64_eabi.lib : typeinfo.c.obj (.const:.typeinfo:_ZTIN10__cxxabiv117__class_type_infoE)
                  000a226c    00000006                            : typeinfo.c.obj (.const:.typeinfo:_ZTIN10__cxxabiv117__pbase_type_infoE)
                  000a2272    00000006                            : typeinfo.c.obj (.const:.typeinfo:_ZTIN10__cxxabiv119__pointer_type_infoE)
                  000a2278    00000006                            : typeinfo.c.obj (.const:.typeinfo:_ZTIN10__cxxabiv120__si_class_type_infoE)
                  000a227e    00000002                            : typeinfo.c.obj (.const:.typeinfo:_ZTSe)
                  000a2280    00000006                            : typeinfo.c.obj (.const:.typeinfo:_ZTIN10__cxxabiv121__vmi_class_type_infoE)
                  000a2286    00000006                            : typeinfo.c.obj (.const:.typeinfo:_ZTIN10__cxxabiv123__fundamental_type_infoE)
                  000a228c    00000006     geomodel.lib : Apos.obj (.const:.typeinfo:_ZTIN3Geo31_GLOBAL__N__8_Apos_cpp_ad6fc63620Height_computer_nullE)
                  000a2292    00000006                  : Fmemcmd.obj (.const:.typeinfo:_ZTIN3Geo7FmemcmdE)
                  000a2298    00000006     veronte.lib : Static_cfg.obj (.const:.typeinfo:_ZTIN3Ver10Static_cfgE)
                  000a229e    00000006                 : Pwm_suite.obj (.const:.typeinfo:_ZTIN3Ver9Pwm_suiteE)
                  000a22a4    00000006     base.lib : Field_cfg.obj (.const:.typeinfo:_ZTIN4Base10Cksum_modnE)
                  000a22aa    00000006     vpgnc.lib : Vpu.obj (.const:.typeinfo:_ZTIN4Base11Errors_dualE)
                  000a22b0    00000006               : Vpu.obj (.const:.typeinfo:_ZTIN4Base11Vpktsend_xcE)
                  000a22b6    00000006     media.lib : Cfgmgr.obj (.const:.typeinfo:_ZTIN4Base12Chk_blk_implE)
                  000a22bc    00000004               : Cfgmgr.obj (.const:$P$T11)
                  000a22c0    00000006     first.lib : Endian16_big.obj (.const:.typeinfo:_ZTIN4Base12Endian16_bigE)
                  000a22c6    00000006               : Endian32_big.obj (.const:.typeinfo:_ZTIN4Base12Endian32_bigE)
                  000a22cc    00000006               : Endian64_big.obj (.const:.typeinfo:_ZTIN4Base12Endian64_bigE)
                  000a22d2    00000006     base.lib : Errors_single.obj (.const:.typeinfo:_ZTIN4Base13Errors_singleE)
                  000a22d8    00000006              : Field_cfg.obj (.const:.typeinfo:_ZTIN4Base14Cksum_sagetechE)
                  000a22de    00000006     media.lib : Cfgmgr.obj (.const:.typeinfo:_ZTIN4Base14Itunable_asyncE)
                  000a22e4    00000006     veronte.lib : Hxcfield_cpu2.obj (.const:.typeinfo:_ZTIN4Base14Twraptun_asyncINS_9Tuntraits10Cxet_asyncINS_12Ftelemetryod5FsvodEEERS4_EE)
                  000a22ea    00000006                 : Hxcfield_cpu2.obj (.const:.typeinfo:_ZTIN4Base14Twraptun_asyncINS_9Tuntraits10Cxet_asyncINS_9FieldsvecINS_6TmvdatELj20EEEEERS5_EE)
                  000a22f0    00000006     first.lib : Endian16_little.obj (.const:.typeinfo:_ZTIN4Base15Endian16_littleE)
                  000a22f6    00000006               : Endian32_little.obj (.const:.typeinfo:_ZTIN4Base15Endian32_littleE)
                  000a22fc    00000004     media.lib : Cfgmgr.obj (.const:$P$T12)
                  000a2300    00000006     first.lib : Endian64_little.obj (.const:.typeinfo:_ZTIN4Base15Endian64_littleE)
                  000a2306    00000006     base.lib : Message_received_hnd.obj (.const:.typeinfo:_ZTIN4Base20Message_received_hnd6ParserE)
                  000a230c    00000006              : CRC.obj (.const:.typeinfo:_ZTIN4Base3CRCE)
                  000a2312    00000006              : Varmgr.obj (.const:.typeinfo:_ZTIN4Base4IsetE)
                  000a2318    00000006              : Spkt.obj (.const:.typeinfo:_ZTIN4Base5CRC32E)
                  000a231e    00000006              : Spkt.obj (.const:.typeinfo:_ZTIN4Base5CksumE)
                  000a2324    00000006              : Limit.obj (.const:.typeinfo:_ZTIN4Base5LimitE)
                  000a232a    00000006     vpgnc.lib : Vpu.obj (.const:.typeinfo:_ZTIN4Base5RngitIN12Dsp28335_ent6Pwmdev5PWMidEEE)
                  000a2330    00000006               : Vpu.obj (.const:.typeinfo:_ZTIN4Base5RngitINS_3FidEEE)
                  000a2336    00000006     veronte.lib : Copystep.obj (.const:.typeinfo:_ZTIN4Base5RngitINS_4RvarEEE)
                  000a233c    00000004     media.lib : Cfgmgr.obj (.const:$P$T13)
                  000a2340    00000006     base.lib : CRCmav.obj (.const:.typeinfo:_ZTIN4Base6CRCmavE)
                  000a2346    00000006              : Cmdvar.obj (.const:.typeinfo:_ZTIN4Base6CmdvarE)
                  000a234c    00000006              : Xcfile.obj (.const:.typeinfo:_ZTIN4Base6XcfileE)
                  000a2352    00000006     veronte.lib : Xcrdsuite.obj (.const:.typeinfo:_ZTIN4Base6XcmvarINS_3FidENS_9Tuntraits10U16strCxetINS_7FeatureEEEE6ParserE)
                  000a2358    00000006                 : Xcrdsuite.obj (.const:.typeinfo:_ZTIN4Base6XcmvarINS_4BvarENS_9Tuntraits10U16bool_16IbEEE6ParserE)
                  000a235e    00000006                 : Xcrdsuite.obj (.const:.typeinfo:_ZTIN4Base6XcmvarINS_4RvarENS_9Tuntraits12U16str_floatEE6ParserE)
                  000a2364    00000006                 : Xcrdsuite.obj (.const:.typeinfo:_ZTIN4Base6XcmvarINS_4UvarENS_9Tuntraits9U16str_16IjEEE6ParserE)
                  000a236a    00000006                 : Xcrdsuite.obj (.const:.typeinfo:_ZTIN4Base6XcmvarINS_8Bvar_mapENS_9Tuntraits10U16strCxetINS_8Hbmapvar4TypeEEEE6ParserE)
                  000a2370    00000006     base.lib : Session.obj (.const:.typeinfo:_ZTIN4Base7SessionE)
                  000a2376    00000006     Vmain_cpu2.obj (.const:.typeinfo:_ZTIN4Base7TimevarE)
                  000a237c    00000004     media.lib : Cfgmgr.obj (.const:$P$T14)
                  000a2380    00000006     vpgnc.lib : Vpu.obj (.const:.typeinfo:_ZTIN4Base8TwrapdesINS_9Tuntraits10DesdefaultIN5Vpgnc7VarinitEEERS4_EE)
                  000a2386    00000006               : Evtmgr.obj (.const:.typeinfo:_ZTIN4Base8TwrapdesINS_9Tuntraits10DesdefaultIN5Vpgnc7VlimitsEEERS4_EE)
                  000a238c    00000006     veronte.lib : Tunsuite_pa.obj (.const:.typeinfo:_ZTIN4Base8TwrapdesINS_9Tuntraits10DesdefaultIN8Midlevel19Radio_sync_cfg_type6ParamsEEERS5_EE)
                  000a2392    00000006                 : Tunsuite_pa.obj (.const:.typeinfo:_ZTIN4Base8TwrapdesINS_9Tuntraits10DesdefaultIN9Pa_blocks10DComms_cfg6StaticEEERS5_EE)
                  000a2398    00000006                 : Tunsuite_pa.obj (.const:.typeinfo:_ZTIN4Base8TwrapdesINS_9Tuntraits10DesdefaultIN9Pa_blocks22Activated_knob_version6ConfigEEERS5_EE)
                  000a239e    00000006                 : Tunsuite_pa.obj (.const:.typeinfo:_ZTIN4Base8TwrapdesINS_9Tuntraits10DesdefaultINS_11TnarrayreszIN6Stanag11Stanag_port8Port_cfgELm6EEEEERS7_EE)
                  000a23a4    00000006                 : Tunsuite_pa.obj (.const:.typeinfo:_ZTIN4Base8TwrapdesINS_9Tuntraits10DesdefaultINS_18Routing_table_dataILj2ELj16EEEEERS4_EE)
                  000a23aa    00000006     vpgnc.lib : Opranges.obj (.const:.typeinfo:_ZTIN4Base8TwrapdesINS_9Tuntraits10DesdefaultINS_8ArraymskIN5Vpgnc8Opranges3RngELj40EEEEERS7_EE)
                  000a23b0    00000006               : Opmgr.obj (.const:.typeinfo:_ZTIN4Base8TwrapdesINS_9Tuntraits10DesdefaultINS_8TuncacheIN5Vpgnc14Rvar_op_commit7RoptypeEEEEERS7_EE)
                  000a23b6    00000006     veronte.lib : Tunsuite_pa.obj (.const:.typeinfo:_ZTIN4Base8TwrapdesINS_9Tuntraits15Arraytun_nosizeINS1_15Arraytun_size16INS1_8TupletunINS1_9Cset_onlyIN6Stanag14Subsystem_data8Key_dataEEENS1_7Lossy16INS_4UvarEEEEENS_11TnarrayreszINS_5TupleIS8_SB_EELm64EEENS1_8No_checkISH_EEEENS_7TnarrayISH_Lm32EEENSI_ISM_EEEERSM_EE)
                  000a23bc    00000004     media.lib : Cfgmgr.obj (.const:$P$T15)
                  000a23c0    00000006     veronte.lib : Tunsuite_pa.obj (.const:.typeinfo:_ZTIN4Base8TwrapdesINS_9Tuntraits15Arraytun_size16INS1_7Lossy16IjEENS_11TnarrayreszIjLm32EEENS_13Order_checker9AscendingIS6_EEEERS6_EE)
                  000a23c6    00000006                 : Hxcfield_cpu2.obj (.const:.typeinfo:_ZTIN4Base8TwrapdesINS_9Tuntraits9Cset_onlyINS_9FieldsvecIN6Stanag7StgvdatELj0EEEEERS6_EE)
                  000a23cc    00000006                 : Hxcfield_cpu2.obj (.const:.typeinfo:_ZTIN4Base8TwrapdesINS_9Tuntraits9Cset_onlyINS_9FieldsvecINS_11SniffervdatELj0EEEEERS5_EE)
                  000a23d2    00000006                 : Hxcfield_cpu2.obj (.const:.typeinfo:_ZTIN4Base8TwrapdesINS_9Tuntraits9Cset_onlyINS_9FieldsvecINS_6TmvdatELj0EEEEERS5_EE)
                  000a23d8    00000006                 : Hxcfield_cpu2.obj (.const:.typeinfo:_ZTIN4Base8TwrapdesINS_9Tuntraits9Cset_onlyINS_9FieldsvecINS_9FmsetvdatELj0EEEEERS5_EE)
                  000a23de    00000006                 : Tunsuite_pa.obj (.const:.typeinfo:_ZTIN4Base8TwrapdesINS_9Tuntraits9Cset_onlyIRNS_10Cfgid_modeEEES4_EE)
                  000a23e4    00000006                 : Tunsuite_pa.obj (.const:.typeinfo:_ZTIN4Base8TwrapdesINS_9Tuntraits9Wsync_desINS_6TdsyncIN12Dsp28335_ent10CAN_FD_cfgENS_12Tdsynctraits11Rd_blockingIS5_NS_8Cptraits6PodrawIVS5_EEEENS6_15Disabled_structEEENS1_10DesdefaultIS5_EEEERSE_EE)
                  000a23ea    00000006                 : Tunsuite_pa.obj (.const:.typeinfo:_ZTIN4Base8TwrapdesINS_9Tuntraits9Wsync_desINS_6TdsyncIN12Dsp28335_ent6CANcfgENS_12Tdsynctraits11Rd_blockingIS5_NS_8Cptraits6PodrawIVS5_EEEENS6_15Disabled_structEEENS1_10DesdefaultIS5_EEEERSE_EE)
                  000a23f0    00000006                 : Tunsuite_pa.obj (.const:.typeinfo:_ZTIN4Base8TwrapdesINS_9Tuntraits9Wsync_desINS_6TdsyncIN12Dsp28335_ent6SCIcfgENS_12Tdsynctraits11Rd_blockingIS5_NS_8Cptraits6PodrawIVS5_EEEENS6_15Disabled_structEEENS1_10DesdefaultIS5_EEEERSE_EE)
                  000a23f6    00000006                 : Tunsuite_pa.obj (.const:.typeinfo:_ZTIN4Base8TwrapdesINS_9Tuntraits9Wsync_desINS_6TdsyncIN3Ver11Ext_nav_cfgENS_12Tdsynctraits11Rd_blockingIS5_NS_8Cptraits6PodrawIVS5_EEEENS6_15Disabled_structEEENS1_10DesdefaultIS5_EEEERSE_EE)
                  000a23fc    00000004     midlevel.lib : Cy_msg_id_gen.obj (.const:$P$T2$1)
                  000a2400    00000006     veronte.lib : Tunsuite_pa.obj (.const:.typeinfo:_ZTIN4Base8TwrapdesINS_9Tuntraits9Wsync_desINS_6TdsyncIN3Ver9Xfreqmgr0ENS_12Tdsynctraits11Rd_blockingIS5_NS_8Cptraits6PodrawIVS5_EEEENS6_15Disabled_structEEENS1_10DesdefaultIS5_EEEERSE_EE)
                  000a2406    00000006                 : Tunsuite_pa.obj (.const:.typeinfo:_ZTIN4Base8TwrapdesINS_9Tuntraits9Wsync_desINS_6TdsyncIN6Stanag17Stanag_period_cfgENS_12Tdsynctraits11Rd_blockingIS5_NS_8Cptraits6PodrawIVS5_EEEENS6_15Disabled_structEEENS1_10DesdefaultIS5_EEEERSE_EE)
                  000a240c    00000006                 : Tunsuite_pa.obj (.const:.typeinfo:_ZTIN4Base8TwrapdesINS_9Tuntraits9Wsync_desINS_6TdsyncIN6Stanag22Vehicle_identifier_cfgENS_12Tdsynctraits11Rd_blockingIS5_NS_8Cptraits6PodrawIVS5_EEEENS6_15Disabled_structEEENS1_10DesdefaultIS5_EEEERSE_EE)
                  000a2412    00000006                 : Tunsuite_pa.obj (.const:.typeinfo:_ZTIN4Base8TwrapdesINS_9Tuntraits9Wsync_desINS_6TdsyncIN7Devices14Adis165053_cfgENS_12Tdsynctraits11Rd_blockingIS5_NS_8Cptraits6PodrawIVS5_EEEENS6_15Disabled_structEEENS1_10DesdefaultIS5_EEEERSE_EE)
                  000a2418    00000006                 : Tunsuite_pa.obj (.const:.typeinfo:_ZTIN4Base8TwrapdesINS_9Tuntraits9Wsync_desINS_6TdsyncIN7Devices14Dev_common_cfgENS_12Tdsynctraits11Rd_blockingIS5_NS_8Cptraits6PodrawIVS5_EEEENS6_15Disabled_structEEENS1_10DesdefaultIS5_EEEERSE_EE)
                  000a241e    00000006                 : Tunsuite_pa.obj (.const:.typeinfo:_ZTIN4Base8TwrapdesINS_9Tuntraits9Wsync_desINS_6TdsyncIN7Devices3Ubx10UbxcfgdataENS_12Tdsynctraits11Rd_blockingIS6_NS_8Cptraits6PodrawIVS6_EEEENS7_15Disabled_structEEENS1_10DesdefaultIS6_EEEERSF_EE)
                  000a2424    00000006                 : Tunsuite_pa.obj (.const:.typeinfo:_ZTIN4Base8TwrapdesINS_9Tuntraits9Wsync_desINS_6TdsyncIN8Maverick13Notch_lpf_cfgENS_12Tdsynctraits11Rd_blockingIS5_NS_8Cptraits6PodrawIVS5_EEEENS6_15Disabled_structEEENS1_10DesdefaultIS5_EEEERSE_EE)
                  000a242a    00000006                 : Tunsuite_pa.obj (.const:.typeinfo:_ZTIN4Base8TwrapdesINS_9Tuntraits9Wsync_desINS_6TdsyncIN8Midlevel10Lights_cfgENS_12Tdsynctraits11Rd_blockingIS5_NS_8Cptraits6PodrawIVS5_EEEENS6_15Disabled_structEEENS1_10DesdefaultIS5_EEEERSE_EE)
                  000a2430    00000006                 : Tunsuite_pa.obj (.const:.typeinfo:_ZTIN4Base8TwrapdesINS_9Tuntraits9Wsync_desINS_6TdsyncINS_10Xcomstats0ENS_12Tdsynctraits11Rd_blockingIS4_NS_8Cptraits6PodrawIVS4_EEEENS5_15Disabled_structEEENS1_10DesdefaultIS4_EEEERSD_EE)
                  000a2436    00000006                 : Tunsuite_pa.obj (.const:.typeinfo:_ZTIN4Base8TwrapdesINS_9Tuntraits9Wsync_desINS_6TdsyncINS_11CANin_suiteILj6EEENS_12Tdsynctraits11Rd_blockingIS5_NS_8Cptraits6PodrawIVS5_EEEENS6_15Disabled_structEEENS1_10DesdefaultIS5_EEEERSE_EE)
                  000a243c    00000004     midlevel.lib : Sys_status_mgr.obj (.const:$P$T28$2)
                  000a2440    00000006     veronte.lib : Tunsuite_pa.obj (.const:.typeinfo:_ZTIN4Base8TwrapdesINS_9Tuntraits9Wsync_desINS_6TdsyncINS_11CANsc_suiteILj6EEENS_12Tdsynctraits11Rd_blockingIS5_NS_8Cptraits6PodrawIVS5_EEEENS6_15Disabled_structEEENS1_10DesdefaultIS5_EEEERSE_EE)
                  000a2446    00000006                 : Hxcfield_cpu2.obj (.const:.typeinfo:_ZTIN4Base8TwrapdesINS_9Tuntraits9Wsync_desINS_6TdsyncINS_11Fstr1fieldsENS_12Tdsynctraits11Rd_blockingIS4_NS_8Cptraits6PodrawIVS4_EEEENS5_15Disabled_structEEENS1_10DesdefaultIS4_EEEERSD_EE)
                  000a244c    00000006                 : Hxcfield_cpu2.obj (.const:.typeinfo:_ZTIN4Base8TwrapdesINS_9Tuntraits9Wsync_desINS_6TdsyncINS_11FstrtfieldsENS_12Tdsynctraits11Rd_blockingIS4_NS_8Cptraits6PodrawIVS4_EEEENS5_15Disabled_structEEENS1_10DesdefaultIS4_EEEERSD_EE)
                  000a2452    00000006                 : Hxcfield_cpu2.obj (.const:.typeinfo:_ZTIN4Base8TwrapdesINS_9Tuntraits9Wsync_desINS_6TdsyncINS_11Pfields_cfgENS_12Tdsynctraits11Rd_blockingIS4_NS_8Cptraits6PodrawIVS4_EEEENS5_15Disabled_structEEENS1_10DesdefaultIS4_EEEERSD_EE)
                  000a2458    00000006                 : Hstick_cpu2.obj (.const:.typeinfo:_ZTIN4Base8TwrapdesINS_9Tuntraits9Wsync_desINS_6TdsyncINS_11StickppmcfgENS_12Tdsynctraits11Rd_blockingIS4_NS_8Cptraits6PodrawIVS4_EEEENS5_15Disabled_structEEENS1_10DesdefaultIS4_EEEERSD_EE)
                  000a245e    00000006                 : Hstick_cpu2.obj (.const:.typeinfo:_ZTIN4Base8TwrapdesINS_9Tuntraits9Wsync_desINS_6TdsyncINS_11StickvarcfgENS_12Tdsynctraits11Rd_blockingIS4_NS_8Cptraits6PodrawIVS4_EEEENS5_15Disabled_structEEENS1_10DesdefaultIS4_EEEERSD_EE)
                  000a2464    00000006                 : Tunsuite_pa.obj (.const:.typeinfo:_ZTIN4Base8TwrapdesINS_9Tuntraits9Wsync_desINS_6TdsyncINS_11TnarrayreszIN6Stanag15Stanag_msg_cfgs9Cfg_entryELm20EEENS_12Tdsynctraits11Rd_blockingIS8_NS_8Cptraits6PodrawIVS8_EEEENS9_15Disabled_structEEENS1_15Arraytun_size16INS1_9Cset_onlyIS7_EES8_NS1_8No_checkIS8_EEEEEERSH_EE)
                  000a246a    00000006                 : Hxcfield_cpu2.obj (.const:.typeinfo:_ZTIN4Base8TwrapdesINS_9Tuntraits9Wsync_desINS_6TdsyncINS_11TnarrayreszIN6Stanag7FstgcfgELm40EEENS_12Tdsynctraits11Rd_blockingIS7_NS_8Cptraits6PodrawIVS7_EEEENS8_15Disabled_structEEENS1_15Arraytun_size16INS1_9Cset_onlyIS6_EES7_NS1_8No_checkIS7_EEEEEERSG_EE)
                  000a2470    00000006                 : Hxcfield_cpu2.obj (.const:.typeinfo:_ZTIN4Base8TwrapdesINS_9Tuntraits9Wsync_desINS_6TdsyncINS_11TnarrayreszINS_5TupleIjNS4_INS_8Fmsg_cfgELm32EEEEELm2EEENS_12Tdsynctraits11Rd_blockingIS9_NS_8Cptraits6PodrawIVS9_EEEENSA_15Disabled_structEEENS1_15Arraytun_size16INS1_8TupletunINS1_7Lossy16IjEENSJ_INS1_9Cset_onlyIS6_EES7_NS1_8No_checkIS7_EEEEEES9_NSP_IS9_EEEEEERSI_EE)
                  000a2476    00000006                 : Hxcfield_cpu2.obj (.const:.typeinfo:_ZTIN4Base8TwrapdesINS_9Tuntraits9Wsync_desINS_6TdsyncINS_11TnarrayreszINS_5TupleIjNS4_INS_8Fmsg_cfgELm32EEEEELm3EEENS_12Tdsynctraits11Rd_blockingIS9_NS_8Cptraits6PodrawIVS9_EEEENSA_15Disabled_structEEENS1_15Arraytun_size16INS1_8TupletunINS1_7Lossy16IjEENSJ_INS1_9Cset_onlyIS6_EES7_NS1_8No_checkIS7_EEEEEES9_NSP_IS9_EEEEEERSI_EE)
                  000a247c    00000004     pa_blocks.lib : Command_contingency_wrapper.obj (.const:$P$T37$1)
                  000a2480    00000006     veronte.lib : Tunsuite_pa.obj (.const:.typeinfo:_ZTIN4Base8TwrapdesINS_9Tuntraits9Wsync_desINS_6TdsyncINS_11TnarrayreszINS_7Xpcmap0ELm19EEENS_12Tdsynctraits11Rd_blockingIS6_NS_8Cptraits6PodrawIVS6_EEEENS7_15Disabled_structEEENS1_15Arraytun_size16INS_3XpcIN3Ver15Xpccantrait_verEE9Tuntrait0ES6_NS1_8No_checkIS6_EEEEEERSF_EE)
                  000a2486    00000006                 : Tunsuite_pa.obj (.const:.typeinfo:_ZTIN4Base8TwrapdesINS_9Tuntraits9Wsync_desINS_6TdsyncINS_11TnarrayreszINS_7Xpcmap0ELm45EEENS_12Tdsynctraits11Rd_blockingIS6_NS_8Cptraits6PodrawIVS6_EEEENS7_15Disabled_structEEENS1_15Arraytun_size16INS_3XpcIN3Ver11Xpcu8_traitEE9Tuntrait0ES6_NS1_8No_checkIS6_EEEEEERSF_EE)
                  000a248c    00000006                 : Tunsuite_pa.obj (.const:.typeinfo:_ZTIN4Base8TwrapdesINS_9Tuntraits9Wsync_desINS_6TdsyncINS_12CANout_suiteILj6EEENS_12Tdsynctraits11Rd_blockingIS5_NS_8Cptraits6PodrawIVS5_EEEENS6_15Disabled_structEEENS1_10DesdefaultIS5_EEEERSE_EE)
                  000a2492    00000006                 : Tunsuite_pa.obj (.const:.typeinfo:_ZTIN4Base8TwrapdesINS_9Tuntraits9Wsync_desINS_6TdsyncINS_13CANgpio_suiteILj2ELh55EEENS_12Tdsynctraits11Rd_blockingIS5_NS_8Cptraits6PodrawIVS5_EEEENS6_15Disabled_structEEENS1_10DesdefaultIS5_EEEERSE_EE)
                  000a2498    00000006                 : Tunsuite_pa.obj (.const:.typeinfo:_ZTIN4Base8TwrapdesINS_9Tuntraits9Wsync_desINS_6TdsyncINS_13ChannelmgrcfgENS_12Tdsynctraits11Rd_blockingIS4_NS_8Cptraits6PodrawIVS4_EEEENS5_15Disabled_structEEENS1_10DesdefaultIS4_EEEERSD_EE)
                  000a249e    00000006                 : Tunsuite_pa.obj (.const:.typeinfo:_ZTIN4Base8TwrapdesINS_9Tuntraits9Wsync_desINS_6TdsyncINS_13Varsens1D_cfgENS_12Tdsynctraits11Rd_blockingIS4_NS_8Cptraits6PodrawIVS4_EEEENS5_15Disabled_structEEENS1_10DesdefaultIS4_EEEERSD_EE)
                  000a24a4    00000006                 : Tunsuite_pa.obj (.const:.typeinfo:_ZTIN4Base8TwrapdesINS_9Tuntraits9Wsync_desINS_6TdsyncINS_13Varsens3D_cfgENS_12Tdsynctraits11Rd_blockingIS4_NS_8Cptraits6PodrawIVS4_EEEENS5_15Disabled_structEEENS1_10DesdefaultIS4_EEEERSD_EE)
                  000a24aa    00000006                 : Tunsuite_pa.obj (.const:.typeinfo:_ZTIN4Base8TwrapdesINS_9Tuntraits9Wsync_desINS_6TdsyncINS_5Xcal0ILj12EEENS_12Tdsynctraits11Rd_blockingIS5_NS_8Cptraits6PodrawIVS5_EEEENS6_15Disabled_structEEENS1_10DesdefaultIS5_EEEERSE_EE)
                  000a24b0    00000006                 : Tunsuite_pa.obj (.const:.typeinfo:_ZTIN4Base8TwrapdesINS_9Tuntraits9Wsync_desINS_6TdsyncINS_5Xcal0ILj2EEENS_12Tdsynctraits11Rd_blockingIS5_NS_8Cptraits6PodrawIVS5_EEEENS6_15Disabled_structEEENS1_10DesdefaultIS5_EEEERSE_EE)
                  000a24b6    00000006                 : Tunsuite_pa.obj (.const:.typeinfo:_ZTIN4Base8TwrapdesINS_9Tuntraits9Wsync_desINS_6TdsyncINS_7TnarrayIN12Dsp28335_ent8TGPIOtunINS5_9GPIOmux16EEELm20EEENS_12Tdsynctraits11Rd_blockingIS9_NS_8Cptraits6PodrawIVS9_EEEENSA_15Disabled_structEEENS1_15Arraytun_nosizeINS1_9Cset_onlyIS8_EES9_NS1_8No_checkIS9_EEEEEERSI_EE)
                  000a24bc    00000004     base.lib : Sysver.obj (.const:$P$T4$3)
                  000a24c0    00000006     veronte.lib : Tunsuite_pa.obj (.const:.typeinfo:_ZTIN4Base8TwrapdesINS_9Tuntraits9Wsync_desINS_6TdsyncINS_7TnarrayINS_11TnarrayreszINS_4BvarELm20EEELm3EEENS_12Tdsynctraits11Rd_blockingIS8_NS_8Cptraits6PodrawIVS8_EEEENS9_15Disabled_structEEENS1_15Arraytun_nosizeINS1_15Arraytun_size16INS1_7Lossy16IS6_EES7_NS1_8No_checkIS7_EEEES8_NSM_IS8_EEEEEERSH_EE)
                  000a24c6    00000006                 : Hevact_cpu2.obj (.const:.typeinfo:_ZTIN4Base8TwrapdesINS_9Tuntraits9Wsync_desINS_6TdsyncINS_8ArraymskINS_6ActionELj120EEENS_12Tdsynctraits11Rd_blockingIS6_NS_8Cptraits6PodrawIVS6_EEEENS7_15Disabled_structEEENS1_11TunarraymskIS5_Lj120EEEEERSF_EE)
                  000a24cc    00000006                 : Hevact_cpu2.obj (.const:.typeinfo:_ZTIN4Base8TwrapdesINS_9Tuntraits9Wsync_desINS_6TdsyncINS_8ArraymskINS_9Evactcfg0ELj100EEENS_12Tdsynctraits11Rd_blockingIS6_NS_8Cptraits6PodrawIVS6_EEEENS7_15Disabled_structEEENS1_11TunarraymskIS5_Lj100EEEEERSF_EE)
                  000a24d2    00000006                 : Hxcfield_cpu2.obj (.const:.typeinfo:_ZTIN4Base8TwrapdesINS_9Tuntraits9Wsync_desINS_6TdsyncINS_8FstrFastENS_12Tdsynctraits11Rd_blockingIS4_NS_8Cptraits6PodrawIVS4_EEEENS5_15Disabled_structEEENS1_10DesdefaultIS4_EEEERSD_EE)
                  000a24d8    00000006                 : Tunsuite_pa.obj (.const:.typeinfo:_ZTIN4Base8TwraptunINS_9Tuntraits10TundefaultIN9Pa_blocks10DComms_cfg7DynamicEEERS5_EE)
                  000a24de    00000006                 : Tunsuite_pa.obj (.const:.typeinfo:_ZTIN4Base8TwraptunINS_9Tuntraits10TundefaultIN9Pa_blocks11Site_config6ConfigEEERS5_EE)
                  000a24e4    00000006     vpgnc.lib : Evtmgr.obj (.const:.typeinfo:_ZTIN4Base8TwraptunINS_9Tuntraits10TundefaultINS_7UclkmgrEEERS3_EE)
                  000a24ea    00000006               : Rvar_op_commit.obj (.const:.typeinfo:_ZTIN4Base8TwraptunINS_9Tuntraits11Lossy_floatEfEE)
                  000a24f0    00000006     base.lib : Checklist.obj (.const:.typeinfo:_ZTIN4Base9ChecklistE)
                  000a24f6    00000006              : Xcfilecli.obj (.const:.typeinfo:_ZTIN4Base9XcfilecliE)
                  000a24fc    00000004     first.lib : Lossy.obj (.const:$P$T6)
                  000a2500    00000006     media.lib : Updatable_null.obj (.const:.typeinfo:_ZTIN5Media14Updatable_nullE)
                  000a2506    00000006               : Cfgmgr.obj (.const:.typeinfo:_ZTIN5Media34_GLOBAL__N__10_Cfgmgr_cpp_be3311b210Meta_asyncE)
                  000a250c    00000006               : Cfgmgr.obj (.const:.typeinfo:_ZTIN5Media34_GLOBAL__N__10_Cfgmgr_cpp_be3311b217Itunable_as_asyncE)
                  000a2512    00000006               : Cfgmgr.obj (.const:.typeinfo:_ZTIN5Media34_GLOBAL__N__10_Cfgmgr_cpp_be3311b224Ideserializable_as_asyncE)
                  000a2518    00000006               : Cfgmgr.obj (.const:.typeinfo:_ZTIN5Media6Cfgmgr12Itundes_wrapE)
                  000a251e    00000006               : Cfgcrcpub.obj (.const:.typeinfo:_ZTIN5Media9CfgcrcpubE)
                  000a2524    00000006     vpgnc.lib : Evt_wp_groups.obj (.const:.typeinfo:_ZTIN5Vpgnc13Evt_wp_groupsE)
                  000a252a    00000006               : Rvar_op_commit.obj (.const:.typeinfo:_ZTIN5Vpgnc14Rvar_op_commitE)
                  000a2530    00000006               : Vpu.obj (.const:.typeinfo:_ZTIN5Vpgnc3VpuE)
                  000a2536    00000006               : Opranges.obj (.const:.typeinfo:_ZTIN5Vpgnc8OprangesE)
                  000a253c    00000004     media.lib : Cfgmgr.obj (.const:$P$T84$1)
                  000a2540    00000006     vpgnc.lib : Ftsactcmd.obj (.const:.typeinfo:_ZTIN5Vpgnc9FtsactcmdE)
                  000a2546    00000006     midlevel.lib : Cy_msg_id_gen.obj (.const:.typeinfo:_ZTIN6Cyphal13Cy_msg_id_genE)
                  000a254c    00000006                  : CyphalStanag_rx_hnd.obj (.const:.typeinfo:_ZTIN6Cyphal19CyphalStanag_rx_hndE)
                  000a2552    00000006                  : CyphalStanag_tx_hnd.obj (.const:.typeinfo:_ZTIN6Cyphal19CyphalStanag_tx_hndE)
                  000a2558    00000006                  : Stanag_cyphal_wrap.obj (.const:.typeinfo:_ZTIN6Cyphal46_GLOBAL__N__22_Stanag_cyphal_wrap_cpp_031033ee12Dummy_senderE)
                  000a255e    00000006     media.lib : Cfgmgr.obj (.const:.typeinfo:_ZTIN6Stanag13Stanag_msg_rxE)
                  000a2564    00000006               : Cfgmgr.obj (.const:.typeinfo:_ZTIN6Stanag13Stanag_msg_txE)
                  000a256a    00000006     Blockfactory_par.obj (.const:.typeinfo:_ZTIN6Stanag14IStanag_rx_pktE)
                  000a2570    00000006     stanag.lib : Acknowledgement.obj (.const:.typeinfo:_ZTIN6Stanag15AcknowledgementE)
                  000a2576    00000006                : Stanag_msg_push_pkt.obj (.const:.typeinfo:_ZTIN6Stanag19Stanag_msg_rx_asyncE)
                  000a257c    00000004     media.lib : Cfgmgr.obj (.const:$P$T9)
                  000a2580    00000006     stanag.lib : Stanag_status_msgs.obj (.const:.typeinfo:_ZTIN6Stanag23Special_conversion_nullE)
                  000a2586    00000006     Blockfactory_par.obj (.const:.typeinfo:_ZTIN7Vblocks13Null_autotuneE)
                  000a258c    00000006     vblocks.lib : Multi_interpolator_tun.obj (.const:.typeinfo:_ZTIN7Vblocks22Multi_interpolator_tun8Pdi_dataE)
                  000a2592    00000006                 : Blockfactory_amz.obj (.const:.typeinfo:_ZTIN7Vblocks8No_marksE)
                  000a2598    00000006     midlevel.lib : Errors_irx.obj (.const:.typeinfo:_ZTIN8Midlevel10Errors_irxE)
                  000a259e    00000006                  : CAN_term_cfg.obj (.const:.typeinfo:_ZTIN8Midlevel12CAN_term_cfgE)
                  000a25a4    00000006                  : Xstanag_notifier.obj (.const:.typeinfo:_ZTIN8Midlevel16Xstanag_notifierE)
                  000a25aa    00000006     vpgnc.lib : Vpu.obj (.const:.typeinfo:_ZTIN8Midlevel17Routing_table_cmdIN4Base18Routing_table_dataILj2ELj16EEEEE)
                  000a25b0    00000006     Blockfactory_par.obj (.const:.typeinfo:_ZTIN8Midlevel19Cyphal_cget_wrapperE)
                  000a25b6    00000006     pa_blocks.lib : Nav_builder.obj (.const:.typeinfo:_ZTIN9Pa_blocks11Nav_builderE)
                  000a25bc    00000004     veronte.lib : Pwm_suite.obj (.const:.typeinfo:_ZTIN12Dsp28335_ent8IdisableE)
                  000a25c0    00000006     pa_blocks.lib : Site_config.obj (.const:.typeinfo:_ZTIN9Pa_blocks11Site_config6GetterE)
                  000a25c6    00000006                   : Site_config.obj (.const:.typeinfo:_ZTIN9Pa_blocks11Site_config6SetterE)
                  000a25cc    00000006                   : Measurements.obj (.const:.typeinfo:_ZTIN9Pa_blocks12Measurements16Time_sync_offsetE)
                  000a25d2    00000006                   : Input_heading.obj (.const:.typeinfo:_ZTIN9Pa_blocks13Input_headingE)
                  000a25d8    00000006                   : Cy_msg_wrapper.obj (.const:.typeinfo:_ZTIN9Pa_blocks14Cy_msg_wrapperE)
                  000a25de    00000006                   : Input_gnss_pos.obj (.const:.typeinfo:_ZTIN9Pa_blocks14Input_gnss_posE)
                  000a25e4    00000006                   : Input_gnss_vel.obj (.const:.typeinfo:_ZTIN9Pa_blocks14Input_gnss_velE)
                  000a25ea    00000006                   : State_estimate.obj (.const:.typeinfo:_ZTIN9Pa_blocks14State_estimateE)
                  000a25f0    00000006                   : Blk_pa_nav_base.obj (.const:.typeinfo:_ZTIN9Pa_blocks19Cyphal_cset_wrapperINS_12Measurements14Uplink_headingEEE)
                  000a25f6    00000006                   : Blk_pa_nav_base.obj (.const:.typeinfo:_ZTIN9Pa_blocks19Cyphal_cset_wrapperINS_21Mission_reset_commandEEE)
                  000a25fc    00000004     geomodel.lib : Apos.obj (.const:.typeinfo:_ZTIN3Geo16Iheight_computerE)
                  000a2600    00000006     pa_blocks.lib : Blk_pa_nav_base.obj (.const:.typeinfo:_ZTIN9Pa_blocks19Cyphal_cset_wrapperINS_24Onground_controller_infoEEE)
                  000a2606    00000006                   : Blk_pa_nav_base.obj (.const:.typeinfo:_ZTIN9Pa_blocks19Cyphal_cset_wrapperINS_33Recovery_mission_readiness_signalEEE)
                  000a260c    00000006                   : Vsdk_params.obj (.const:.typeinfo:_ZTIN9Pa_blocks20Vsdk_recovery_paramsE)
                  000a2612    00000006                   : Input_static_pressure.obj (.const:.typeinfo:_ZTIN9Pa_blocks21Input_static_pressureE)
                  000a2618    00000006                   : Diverse_comms_telemetry.obj (.const:.typeinfo:_ZTIN9Pa_blocks23Diverse_comms_telemetryE)
                  000a261e    00000006                   : In_flight_speed_change_cmd.obj (.const:.typeinfo:_ZTIN9Pa_blocks26In_flight_speed_change_cmdE)
                  000a2624    00000006                   : Command_contingency_wrapper.obj (.const:.typeinfo:_ZTIN9Pa_blocks31Command_contingency_wrapper_serE)
                  000a262a    00000006                   : Environ_params.obj (.const:_ZN9Pa_blocks14Environ_params5Earth29gravity_ned_ecef2ned_m_per_s2E)
                  000a2630    00000006                   : Environ_params.obj (.const:_ZN9Pa_blocks14Environ_params5Earth29w_ecef_inertial2ned_rad_per_sE)
                  000a2636    00000006                   : Vehicle_params.obj (.const:_ZN9Pa_blocks14Vehicle_params6Frames20rpy_vtol_from_vf_radE)
                  000a263c    00000006     veronte.lib : Pwm_suite.obj (.const:_ZTVN12Dsp28335_ent8IdisableE)
                  000a2642    00000006                 : Vfspermission.obj (.const:_ZTVN4Base10Ihas_valueE)
                  000a2648    00000006     vpgnc.lib : Vpu.obj (.const:_ZTVN4Base11Errors_dualE)
                  000a264e    00000006     base.lib : Errors_single.obj (.const:_ZTVN4Base13Errors_singleE)
                  000a2654    00000006     vpgnc.lib : Vpu.obj (.const:_ZTVN4Base13IserializableINS_5LossyEEE)
                  000a265a    00000006     Blockfactory_par.obj (.const:_ZTVN4Base13IserializableINS_9U8ostreamEEE)
                  000a2660    00000006     base.lib : Session.obj (.const:_ZTVN4Base13ItimeproviderE)
                  000a2666    00000006     vpgnc.lib : Vpu.obj (.const:_ZTVN4Base15IdeserializableE)
                  000a266c    00000006     Blockfactory_par.obj (.const:_ZTVN4Base18Ideserializable_u8E)
                  000a2672    00000006     base.lib : Message_received_hnd.obj (.const:_ZTVN4Base20Message_received_hnd6ParserE)
                  000a2678    00000006     media.lib : Cfgmgr.obj (.const:_ZTVN4Base21Ideserializable_asyncE)
                  000a267e    00000006     Vmain_cpu2.obj (.const:_ZTVN4Base5IstepE)
                  000a2684    00000006     Blockfactory_par.obj (.const:_ZTVN4Base5ItaskE)
                  000a268a    00000006     base.lib : Limit.obj (.const:_ZTVN4Base5LimitE)
                  000a2690    00000006     vpgnc.lib : Vpu.obj (.const:_ZTVN4Base6IcheckE)
                  000a2696    00000006     veronte.lib : Xcrdsuite.obj (.const:_ZTVN4Base6XcmvarINS_3FidENS_9Tuntraits10U16strCxetINS_7FeatureEEEE6ParserE)
                  000a269c    00000006                 : Xcrdsuite.obj (.const:_ZTVN4Base6XcmvarINS_4BvarENS_9Tuntraits10U16bool_16IbEEE6ParserE)
                  000a26a2    00000006                 : Xcrdsuite.obj (.const:_ZTVN4Base6XcmvarINS_4RvarENS_9Tuntraits12U16str_floatEE6ParserE)
                  000a26a8    00000006                 : Xcrdsuite.obj (.const:_ZTVN4Base6XcmvarINS_4UvarENS_9Tuntraits9U16str_16IjEEE6ParserE)
                  000a26ae    00000006                 : Xcrdsuite.obj (.const:_ZTVN4Base6XcmvarINS_8Bvar_mapENS_9Tuntraits10U16strCxetINS_8Hbmapvar4TypeEEEE6ParserE)
                  000a26b4    00000006     vpgnc.lib : Vpu.obj (.const:_ZTVN4Base7IerrorsE)
                  000a26ba    00000006     veronte.lib : Pwm_suite.obj (.const:_ZTVN4Base7IsetterIfEE)
                  000a26c0    00000006     base.lib : Session.obj (.const:_ZTVN4Base7SessionE)
                  000a26c6    00000006     Vmain_cpu2.obj (.const:_ZTVN4Base7TimevarE)
                  000a26cc    00000006     vpgnc.lib : Vpu.obj (.const:_ZTVN4Base8TwrapdesINS_9Tuntraits10DesdefaultIN5Vpgnc7VarinitEEERS4_EE)
                  000a26d2    00000006               : Evtmgr.obj (.const:_ZTVN4Base8TwrapdesINS_9Tuntraits10DesdefaultIN5Vpgnc7VlimitsEEERS4_EE)
                  000a26d8    00000006     veronte.lib : Tunsuite_pa.obj (.const:_ZTVN4Base8TwrapdesINS_9Tuntraits10DesdefaultIN8Midlevel19Radio_sync_cfg_type6ParamsEEERS5_EE)
                  000a26de    00000006                 : Tunsuite_pa.obj (.const:_ZTVN4Base8TwrapdesINS_9Tuntraits10DesdefaultIN9Pa_blocks10DComms_cfg6StaticEEERS5_EE)
                  000a26e4    00000006                 : Tunsuite_pa.obj (.const:_ZTVN4Base8TwrapdesINS_9Tuntraits10DesdefaultIN9Pa_blocks22Activated_knob_version6ConfigEEERS5_EE)
                  000a26ea    00000006                 : Tunsuite_pa.obj (.const:_ZTVN4Base8TwrapdesINS_9Tuntraits10DesdefaultINS_11TnarrayreszIN6Stanag11Stanag_port8Port_cfgELm6EEEEERS7_EE)
                  000a26f0    00000006                 : Tunsuite_pa.obj (.const:_ZTVN4Base8TwrapdesINS_9Tuntraits10DesdefaultINS_18Routing_table_dataILj2ELj16EEEEERS4_EE)
                  000a26f6    00000006     vpgnc.lib : Opranges.obj (.const:_ZTVN4Base8TwrapdesINS_9Tuntraits10DesdefaultINS_8ArraymskIN5Vpgnc8Opranges3RngELj40EEEEERS7_EE)
                  000a26fc    00000006               : Opmgr.obj (.const:_ZTVN4Base8TwrapdesINS_9Tuntraits10DesdefaultINS_8TuncacheIN5Vpgnc14Rvar_op_commit7RoptypeEEEEERS7_EE)
                  000a2702    00000006     veronte.lib : Tunsuite_pa.obj (.const:_ZTVN4Base8TwrapdesINS_9Tuntraits15Arraytun_nosizeINS1_15Arraytun_size16INS1_8TupletunINS1_9Cset_onlyIN6Stanag14Subsystem_data8Key_dataEEENS1_7Lossy16INS_4UvarEEEEENS_11TnarrayreszINS_5TupleIS8_SB_EELm64EEENS1_8No_checkISH_EEEENS_7TnarrayISH_Lm32EEENSI_ISM_EEEERSM_EE)
                  000a2708    00000006                 : Tunsuite_pa.obj (.const:_ZTVN4Base8TwrapdesINS_9Tuntraits15Arraytun_size16INS1_7Lossy16IjEENS_11TnarrayreszIjLm32EEENS_13Order_checker9AscendingIS6_EEEERS6_EE)
                  000a270e    00000006                 : Hxcfield_cpu2.obj (.const:_ZTVN4Base8TwrapdesINS_9Tuntraits9Cset_onlyINS_9FieldsvecIN6Stanag7StgvdatELj0EEEEERS6_EE)
                  000a2714    00000006                 : Hxcfield_cpu2.obj (.const:_ZTVN4Base8TwrapdesINS_9Tuntraits9Cset_onlyINS_9FieldsvecINS_11SniffervdatELj0EEEEERS5_EE)
                  000a271a    00000006                 : Hxcfield_cpu2.obj (.const:_ZTVN4Base8TwrapdesINS_9Tuntraits9Cset_onlyINS_9FieldsvecINS_6TmvdatELj0EEEEERS5_EE)
                  000a2720    00000006                 : Hxcfield_cpu2.obj (.const:_ZTVN4Base8TwrapdesINS_9Tuntraits9Cset_onlyINS_9FieldsvecINS_9FmsetvdatELj0EEEEERS5_EE)
                  000a2726    00000006                 : Tunsuite_pa.obj (.const:_ZTVN4Base8TwrapdesINS_9Tuntraits9Cset_onlyIRNS_10Cfgid_modeEEES4_EE)
                  000a272c    00000006                 : Tunsuite_pa.obj (.const:_ZTVN4Base8TwrapdesINS_9Tuntraits9Wsync_desINS_6TdsyncIN12Dsp28335_ent10CAN_FD_cfgENS_12Tdsynctraits11Rd_blockingIS5_NS_8Cptraits6PodrawIVS5_EEEENS6_15Disabled_structEEENS1_10DesdefaultIS5_EEEERSE_EE)
                  000a2732    00000006                 : Tunsuite_pa.obj (.const:_ZTVN4Base8TwrapdesINS_9Tuntraits9Wsync_desINS_6TdsyncIN12Dsp28335_ent6CANcfgENS_12Tdsynctraits11Rd_blockingIS5_NS_8Cptraits6PodrawIVS5_EEEENS6_15Disabled_structEEENS1_10DesdefaultIS5_EEEERSE_EE)
                  000a2738    00000006                 : Tunsuite_pa.obj (.const:_ZTVN4Base8TwrapdesINS_9Tuntraits9Wsync_desINS_6TdsyncIN12Dsp28335_ent6SCIcfgENS_12Tdsynctraits11Rd_blockingIS5_NS_8Cptraits6PodrawIVS5_EEEENS6_15Disabled_structEEENS1_10DesdefaultIS5_EEEERSE_EE)
                  000a273e    00000006                 : Tunsuite_pa.obj (.const:_ZTVN4Base8TwrapdesINS_9Tuntraits9Wsync_desINS_6TdsyncIN3Ver11Ext_nav_cfgENS_12Tdsynctraits11Rd_blockingIS5_NS_8Cptraits6PodrawIVS5_EEEENS6_15Disabled_structEEENS1_10DesdefaultIS5_EEEERSE_EE)
                  000a2744    00000006                 : Tunsuite_pa.obj (.const:_ZTVN4Base8TwrapdesINS_9Tuntraits9Wsync_desINS_6TdsyncIN3Ver9Xfreqmgr0ENS_12Tdsynctraits11Rd_blockingIS5_NS_8Cptraits6PodrawIVS5_EEEENS6_15Disabled_structEEENS1_10DesdefaultIS5_EEEERSE_EE)
                  000a274a    00000006                 : Tunsuite_pa.obj (.const:_ZTVN4Base8TwrapdesINS_9Tuntraits9Wsync_desINS_6TdsyncIN6Stanag17Stanag_period_cfgENS_12Tdsynctraits11Rd_blockingIS5_NS_8Cptraits6PodrawIVS5_EEEENS6_15Disabled_structEEENS1_10DesdefaultIS5_EEEERSE_EE)
                  000a2750    00000006                 : Tunsuite_pa.obj (.const:_ZTVN4Base8TwrapdesINS_9Tuntraits9Wsync_desINS_6TdsyncIN6Stanag22Vehicle_identifier_cfgENS_12Tdsynctraits11Rd_blockingIS5_NS_8Cptraits6PodrawIVS5_EEEENS6_15Disabled_structEEENS1_10DesdefaultIS5_EEEERSE_EE)
                  000a2756    00000006                 : Tunsuite_pa.obj (.const:_ZTVN4Base8TwrapdesINS_9Tuntraits9Wsync_desINS_6TdsyncIN7Devices14Adis165053_cfgENS_12Tdsynctraits11Rd_blockingIS5_NS_8Cptraits6PodrawIVS5_EEEENS6_15Disabled_structEEENS1_10DesdefaultIS5_EEEERSE_EE)
                  000a275c    00000006                 : Tunsuite_pa.obj (.const:_ZTVN4Base8TwrapdesINS_9Tuntraits9Wsync_desINS_6TdsyncIN7Devices14Dev_common_cfgENS_12Tdsynctraits11Rd_blockingIS5_NS_8Cptraits6PodrawIVS5_EEEENS6_15Disabled_structEEENS1_10DesdefaultIS5_EEEERSE_EE)
                  000a2762    00000006                 : Tunsuite_pa.obj (.const:_ZTVN4Base8TwrapdesINS_9Tuntraits9Wsync_desINS_6TdsyncIN7Devices3Ubx10UbxcfgdataENS_12Tdsynctraits11Rd_blockingIS6_NS_8Cptraits6PodrawIVS6_EEEENS7_15Disabled_structEEENS1_10DesdefaultIS6_EEEERSF_EE)
                  000a2768    00000006                 : Tunsuite_pa.obj (.const:_ZTVN4Base8TwrapdesINS_9Tuntraits9Wsync_desINS_6TdsyncIN8Maverick13Notch_lpf_cfgENS_12Tdsynctraits11Rd_blockingIS5_NS_8Cptraits6PodrawIVS5_EEEENS6_15Disabled_structEEENS1_10DesdefaultIS5_EEEERSE_EE)
                  000a276e    00000006                 : Tunsuite_pa.obj (.const:_ZTVN4Base8TwrapdesINS_9Tuntraits9Wsync_desINS_6TdsyncIN8Midlevel10Lights_cfgENS_12Tdsynctraits11Rd_blockingIS5_NS_8Cptraits6PodrawIVS5_EEEENS6_15Disabled_structEEENS1_10DesdefaultIS5_EEEERSE_EE)
                  000a2774    00000006                 : Tunsuite_pa.obj (.const:_ZTVN4Base8TwrapdesINS_9Tuntraits9Wsync_desINS_6TdsyncINS_10Xcomstats0ENS_12Tdsynctraits11Rd_blockingIS4_NS_8Cptraits6PodrawIVS4_EEEENS5_15Disabled_structEEENS1_10DesdefaultIS4_EEEERSD_EE)
                  000a277a    00000006                 : Tunsuite_pa.obj (.const:_ZTVN4Base8TwrapdesINS_9Tuntraits9Wsync_desINS_6TdsyncINS_11CANin_suiteILj6EEENS_12Tdsynctraits11Rd_blockingIS5_NS_8Cptraits6PodrawIVS5_EEEENS6_15Disabled_structEEENS1_10DesdefaultIS5_EEEERSE_EE)
                  000a2780    00000006                 : Tunsuite_pa.obj (.const:_ZTVN4Base8TwrapdesINS_9Tuntraits9Wsync_desINS_6TdsyncINS_11CANsc_suiteILj6EEENS_12Tdsynctraits11Rd_blockingIS5_NS_8Cptraits6PodrawIVS5_EEEENS6_15Disabled_structEEENS1_10DesdefaultIS5_EEEERSE_EE)
                  000a2786    00000006                 : Hxcfield_cpu2.obj (.const:_ZTVN4Base8TwrapdesINS_9Tuntraits9Wsync_desINS_6TdsyncINS_11Fstr1fieldsENS_12Tdsynctraits11Rd_blockingIS4_NS_8Cptraits6PodrawIVS4_EEEENS5_15Disabled_structEEENS1_10DesdefaultIS4_EEEERSD_EE)
                  000a278c    00000006                 : Hxcfield_cpu2.obj (.const:_ZTVN4Base8TwrapdesINS_9Tuntraits9Wsync_desINS_6TdsyncINS_11FstrtfieldsENS_12Tdsynctraits11Rd_blockingIS4_NS_8Cptraits6PodrawIVS4_EEEENS5_15Disabled_structEEENS1_10DesdefaultIS4_EEEERSD_EE)
                  000a2792    00000006                 : Hxcfield_cpu2.obj (.const:_ZTVN4Base8TwrapdesINS_9Tuntraits9Wsync_desINS_6TdsyncINS_11Pfields_cfgENS_12Tdsynctraits11Rd_blockingIS4_NS_8Cptraits6PodrawIVS4_EEEENS5_15Disabled_structEEENS1_10DesdefaultIS4_EEEERSD_EE)
                  000a2798    00000006                 : Hstick_cpu2.obj (.const:_ZTVN4Base8TwrapdesINS_9Tuntraits9Wsync_desINS_6TdsyncINS_11StickppmcfgENS_12Tdsynctraits11Rd_blockingIS4_NS_8Cptraits6PodrawIVS4_EEEENS5_15Disabled_structEEENS1_10DesdefaultIS4_EEEERSD_EE)
                  000a279e    00000006                 : Hstick_cpu2.obj (.const:_ZTVN4Base8TwrapdesINS_9Tuntraits9Wsync_desINS_6TdsyncINS_11StickvarcfgENS_12Tdsynctraits11Rd_blockingIS4_NS_8Cptraits6PodrawIVS4_EEEENS5_15Disabled_structEEENS1_10DesdefaultIS4_EEEERSD_EE)
                  000a27a4    00000006                 : Tunsuite_pa.obj (.const:_ZTVN4Base8TwrapdesINS_9Tuntraits9Wsync_desINS_6TdsyncINS_11TnarrayreszIN6Stanag15Stanag_msg_cfgs9Cfg_entryELm20EEENS_12Tdsynctraits11Rd_blockingIS8_NS_8Cptraits6PodrawIVS8_EEEENS9_15Disabled_structEEENS1_15Arraytun_size16INS1_9Cset_onlyIS7_EES8_NS1_8No_checkIS8_EEEEEERSH_EE)
                  000a27aa    00000006                 : Hxcfield_cpu2.obj (.const:_ZTVN4Base8TwrapdesINS_9Tuntraits9Wsync_desINS_6TdsyncINS_11TnarrayreszIN6Stanag7FstgcfgELm40EEENS_12Tdsynctraits11Rd_blockingIS7_NS_8Cptraits6PodrawIVS7_EEEENS8_15Disabled_structEEENS1_15Arraytun_size16INS1_9Cset_onlyIS6_EES7_NS1_8No_checkIS7_EEEEEERSG_EE)
                  000a27b0    00000006                 : Hxcfield_cpu2.obj (.const:_ZTVN4Base8TwrapdesINS_9Tuntraits9Wsync_desINS_6TdsyncINS_11TnarrayreszINS_5TupleIjNS4_INS_8Fmsg_cfgELm32EEEEELm2EEENS_12Tdsynctraits11Rd_blockingIS9_NS_8Cptraits6PodrawIVS9_EEEENSA_15Disabled_structEEENS1_15Arraytun_size16INS1_8TupletunINS1_7Lossy16IjEENSJ_INS1_9Cset_onlyIS6_EES7_NS1_8No_checkIS7_EEEEEES9_NSP_IS9_EEEEEERSI_EE)
                  000a27b6    00000006                 : Hxcfield_cpu2.obj (.const:_ZTVN4Base8TwrapdesINS_9Tuntraits9Wsync_desINS_6TdsyncINS_11TnarrayreszINS_5TupleIjNS4_INS_8Fmsg_cfgELm32EEEEELm3EEENS_12Tdsynctraits11Rd_blockingIS9_NS_8Cptraits6PodrawIVS9_EEEENSA_15Disabled_structEEENS1_15Arraytun_size16INS1_8TupletunINS1_7Lossy16IjEENSJ_INS1_9Cset_onlyIS6_EES7_NS1_8No_checkIS7_EEEEEES9_NSP_IS9_EEEEEERSI_EE)
                  000a27bc    00000006                 : Tunsuite_pa.obj (.const:_ZTVN4Base8TwrapdesINS_9Tuntraits9Wsync_desINS_6TdsyncINS_11TnarrayreszINS_7Xpcmap0ELm19EEENS_12Tdsynctraits11Rd_blockingIS6_NS_8Cptraits6PodrawIVS6_EEEENS7_15Disabled_structEEENS1_15Arraytun_size16INS_3XpcIN3Ver15Xpccantrait_verEE9Tuntrait0ES6_NS1_8No_checkIS6_EEEEEERSF_EE)
                  000a27c2    00000006                 : Tunsuite_pa.obj (.const:_ZTVN4Base8TwrapdesINS_9Tuntraits9Wsync_desINS_6TdsyncINS_11TnarrayreszINS_7Xpcmap0ELm45EEENS_12Tdsynctraits11Rd_blockingIS6_NS_8Cptraits6PodrawIVS6_EEEENS7_15Disabled_structEEENS1_15Arraytun_size16INS_3XpcIN3Ver11Xpcu8_traitEE9Tuntrait0ES6_NS1_8No_checkIS6_EEEEEERSF_EE)
                  000a27c8    00000006                 : Tunsuite_pa.obj (.const:_ZTVN4Base8TwrapdesINS_9Tuntraits9Wsync_desINS_6TdsyncINS_12CANout_suiteILj6EEENS_12Tdsynctraits11Rd_blockingIS5_NS_8Cptraits6PodrawIVS5_EEEENS6_15Disabled_structEEENS1_10DesdefaultIS5_EEEERSE_EE)
                  000a27ce    00000006                 : Tunsuite_pa.obj (.const:_ZTVN4Base8TwrapdesINS_9Tuntraits9Wsync_desINS_6TdsyncINS_13CANgpio_suiteILj2ELh55EEENS_12Tdsynctraits11Rd_blockingIS5_NS_8Cptraits6PodrawIVS5_EEEENS6_15Disabled_structEEENS1_10DesdefaultIS5_EEEERSE_EE)
                  000a27d4    00000006                 : Tunsuite_pa.obj (.const:_ZTVN4Base8TwrapdesINS_9Tuntraits9Wsync_desINS_6TdsyncINS_13ChannelmgrcfgENS_12Tdsynctraits11Rd_blockingIS4_NS_8Cptraits6PodrawIVS4_EEEENS5_15Disabled_structEEENS1_10DesdefaultIS4_EEEERSD_EE)
                  000a27da    00000006                 : Tunsuite_pa.obj (.const:_ZTVN4Base8TwrapdesINS_9Tuntraits9Wsync_desINS_6TdsyncINS_13Varsens1D_cfgENS_12Tdsynctraits11Rd_blockingIS4_NS_8Cptraits6PodrawIVS4_EEEENS5_15Disabled_structEEENS1_10DesdefaultIS4_EEEERSD_EE)
                  000a27e0    00000006                 : Tunsuite_pa.obj (.const:_ZTVN4Base8TwrapdesINS_9Tuntraits9Wsync_desINS_6TdsyncINS_13Varsens3D_cfgENS_12Tdsynctraits11Rd_blockingIS4_NS_8Cptraits6PodrawIVS4_EEEENS5_15Disabled_structEEENS1_10DesdefaultIS4_EEEERSD_EE)
                  000a27e6    00000006                 : Tunsuite_pa.obj (.const:_ZTVN4Base8TwrapdesINS_9Tuntraits9Wsync_desINS_6TdsyncINS_5Xcal0ILj12EEENS_12Tdsynctraits11Rd_blockingIS5_NS_8Cptraits6PodrawIVS5_EEEENS6_15Disabled_structEEENS1_10DesdefaultIS5_EEEERSE_EE)
                  000a27ec    00000006                 : Tunsuite_pa.obj (.const:_ZTVN4Base8TwrapdesINS_9Tuntraits9Wsync_desINS_6TdsyncINS_5Xcal0ILj2EEENS_12Tdsynctraits11Rd_blockingIS5_NS_8Cptraits6PodrawIVS5_EEEENS6_15Disabled_structEEENS1_10DesdefaultIS5_EEEERSE_EE)
                  000a27f2    00000006                 : Tunsuite_pa.obj (.const:_ZTVN4Base8TwrapdesINS_9Tuntraits9Wsync_desINS_6TdsyncINS_7TnarrayIN12Dsp28335_ent8TGPIOtunINS5_9GPIOmux16EEELm20EEENS_12Tdsynctraits11Rd_blockingIS9_NS_8Cptraits6PodrawIVS9_EEEENSA_15Disabled_structEEENS1_15Arraytun_nosizeINS1_9Cset_onlyIS8_EES9_NS1_8No_checkIS9_EEEEEERSI_EE)
                  000a27f8    00000006                 : Tunsuite_pa.obj (.const:_ZTVN4Base8TwrapdesINS_9Tuntraits9Wsync_desINS_6TdsyncINS_7TnarrayINS_11TnarrayreszINS_4BvarELm20EEELm3EEENS_12Tdsynctraits11Rd_blockingIS8_NS_8Cptraits6PodrawIVS8_EEEENS9_15Disabled_structEEENS1_15Arraytun_nosizeINS1_15Arraytun_size16INS1_7Lossy16IS6_EES7_NS1_8No_checkIS7_EEEES8_NSM_IS8_EEEEEERSH_EE)
                  000a27fe    00000006                 : Hevact_cpu2.obj (.const:_ZTVN4Base8TwrapdesINS_9Tuntraits9Wsync_desINS_6TdsyncINS_8ArraymskINS_6ActionELj120EEENS_12Tdsynctraits11Rd_blockingIS6_NS_8Cptraits6PodrawIVS6_EEEENS7_15Disabled_structEEENS1_11TunarraymskIS5_Lj120EEEEERSF_EE)
                  000a2804    00000006                 : Hevact_cpu2.obj (.const:_ZTVN4Base8TwrapdesINS_9Tuntraits9Wsync_desINS_6TdsyncINS_8ArraymskINS_9Evactcfg0ELj100EEENS_12Tdsynctraits11Rd_blockingIS6_NS_8Cptraits6PodrawIVS6_EEEENS7_15Disabled_structEEENS1_11TunarraymskIS5_Lj100EEEEERSF_EE)
                  000a280a    00000006                 : Hxcfield_cpu2.obj (.const:_ZTVN4Base8TwrapdesINS_9Tuntraits9Wsync_desINS_6TdsyncINS_8FstrFastENS_12Tdsynctraits11Rd_blockingIS4_NS_8Cptraits6PodrawIVS4_EEEENS5_15Disabled_structEEENS1_10DesdefaultIS4_EEEERSD_EE)
                  000a2810    00000006     base.lib : Checklist.obj (.const:_ZTVN4Base9ChecklistE)
                  000a2816    00000006     veronte.lib : Xcrdsuite.obj (.const:_ZTVN4Base9IstrparseE)
                  000a281c    00000006     base.lib : Xcfilecli.obj (.const:_ZTVN4Base9XcfilecliE)
                  000a2822    00000006     media.lib : Cfgmgr.obj (.const:_ZTVN5Media34_GLOBAL__N__10_Cfgmgr_cpp_be3311b210Meta_asyncE)
                  000a2828    00000006               : Cfgmgr.obj (.const:_ZTVN5Media34_GLOBAL__N__10_Cfgmgr_cpp_be3311b224Ideserializable_as_asyncE)
                  000a282e    00000006               : Cfgcrcpub.obj (.const:_ZTVN5Media9CfgcrcpubE)
                  000a2834    00000006     vpgnc.lib : Evt_wp_groups.obj (.const:_ZTVN5Vpgnc13Evt_wp_groupsE)
                  000a283a    00000006               : Rvar_op_commit.obj (.const:_ZTVN5Vpgnc14Rvar_op_commitE)
                  000a2840    00000006               : Opranges.obj (.const:_ZTVN5Vpgnc8OprangesE)
                  000a2846    00000006     Blockfactory_par.obj (.const:_ZTVN6Stanag14IStanag_msg_rxE)
                  000a284c    00000006     vblocks.lib : Multi_interpolator_tun.obj (.const:_ZTVN7Vblocks22Multi_interpolator_tun8Pdi_dataE)
                  000a2852    00000006     midlevel.lib : CAN_term_cfg.obj (.const:_ZTVN8Midlevel12CAN_term_cfgE)
                  000a2858    00000006                  : Xstanag_notifier.obj (.const:_ZTVN8Midlevel16Xstanag_notifierE)
                  000a285e    00000006     pa_blocks.lib : Nav_builder.obj (.const:_ZTVN9Pa_blocks11Nav_builderE)
                  000a2864    00000006                   : Time_in_tai.obj (.const:_ZTVN9Pa_blocks11Time_in_taiE)
                  000a286a    00000006                   : Measurements.obj (.const:_ZTVN9Pa_blocks12Measurements16Time_sync_offsetE)
                  000a2870    00000006                   : Cy_msg_wrapper.obj (.const:_ZTVN9Pa_blocks14Cy_msg_wrapperE)
                  000a2876    00000006                   : State_estimate.obj (.const:_ZTVN9Pa_blocks14State_estimateE)
                  000a287c    00000006                   : Vsdk_params.obj (.const:_ZTVN9Pa_blocks20Vsdk_recovery_paramsE)
                  000a2882    00000006                   : In_flight_speed_change_cmd.obj (.const:_ZTVN9Pa_blocks26In_flight_speed_change_cmdE)
                  000a2888    00000004     veronte.lib : Vfspermission.obj (.const:.typeinfo:_ZTIN4Base10Ihas_valueE)
                  000a288c    00000004     midlevel.lib : Irxfw.obj (.const:.typeinfo:_ZTIN4Base11Imsg_senderE)
                  000a2890    00000004     vpgnc.lib : Vpu.obj (.const:.typeinfo:_ZTIN4Base11Ipkt_senderE)
                  000a2894    00000004     main_cpu2.obj (.const:.typeinfo:_ZTIN4Base12Interface_nvE)
                  000a2898    00000004     vpgnc.lib : Vpu.obj (.const:.typeinfo:_ZTIN4Base13IserializableINS_5LossyEEE)
                  000a289c    00000004     Blockfactory_par.obj (.const:.typeinfo:_ZTIN4Base13IserializableINS_9U8ostreamEEE)
                  000a28a0    00000004     base.lib : Session.obj (.const:.typeinfo:_ZTIN4Base13ItimeproviderE)
                  000a28a4    00000004     vpgnc.lib : Vpu.obj (.const:.typeinfo:_ZTIN4Base15IdeserializableE)
                  000a28a8    00000004     Blockfactory_par.obj (.const:.typeinfo:_ZTIN4Base18Ideserializable_u8E)
                  000a28ac    00000004     media.lib : Cfgmgr.obj (.const:.typeinfo:_ZTIN4Base21Ideserializable_asyncE)
                  000a28b0    00000004     base.lib : Varmgr.obj (.const:.typeinfo:_ZTIN4Base4IgetE)
                  000a28b4    00000004     main_cpu2.obj (.const:.typeinfo:_ZTIN4Base5ArrayINS_8Msg_dataEEE)
                  000a28b8    00000004     base.lib : Taskmgr.obj (.const:.typeinfo:_ZTIN4Base5ArrayINS_9TaskentryEEE)
                  000a28bc    00000004     vpgnc.lib : Vpu.obj (.const:.typeinfo:_ZTIN4Base5IfileE)
                  000a28c0    00000004     Vmain_cpu2.obj (.const:.typeinfo:_ZTIN4Base5IstepE)
                  000a28c4    00000004     Blockfactory_par.obj (.const:.typeinfo:_ZTIN4Base5ItaskE)
                  000a28c8    00000004     vpgnc.lib : Vpu.obj (.const:.typeinfo:_ZTIN4Base6IcheckE)
                  000a28cc    00000004               : Vpu.obj (.const:.typeinfo:_ZTIN4Base7IerrorsE)
                  000a28d0    00000004     veronte.lib : Pwm_suite.obj (.const:.typeinfo:_ZTIN4Base7IsetterIfEE)
                  000a28d4    00000004     base.lib : Taskmgr.obj (.const:.typeinfo:_ZTIN4Base8ItaskmgrE)
                  000a28d8    00000004     media.lib : Cfgmgr.obj (.const:.typeinfo:_ZTIN4Base9IchecksumE)
                  000a28dc    00000004     first.lib : Endian3.obj (.const:.typeinfo:_ZTIN4Base9Iendian16E)
                  000a28e0    00000004               : Endian3.obj (.const:.typeinfo:_ZTIN4Base9Iendian32E)
                  000a28e4    00000004               : Endian3.obj (.const:.typeinfo:_ZTIN4Base9Iendian64E)
                  000a28e8    00000004     vpgnc.lib : Vpu.obj (.const:.typeinfo:_ZTIN4Base9IiteratorIN12Dsp28335_ent6Pwmdev5PWMidEEE)
                  000a28ec    00000004               : Vpu.obj (.const:.typeinfo:_ZTIN4Base9IiteratorINS_3FidEEE)
                  000a28f0    00000004     veronte.lib : Copystep.obj (.const:.typeinfo:_ZTIN4Base9IiteratorINS_4RvarEEE)
                  000a28f4    00000004                 : Xcrdsuite.obj (.const:.typeinfo:_ZTIN4Base9IstrparseE)
                  000a28f8    00000004     media.lib : Updatable_null.obj (.const:.typeinfo:_ZTIN5Media10IupdatableE)
                  000a28fc    00000004     veronte.lib : Vfspermission.obj (.const:.typeinfo:_ZTIN5Media13IfspermissionE)
                  000a2900    00000004     media.lib : Cfgmgr.obj (.const:.typeinfo:_ZTIN5Media7IcfgcrcE)
                  000a2904    00000004     vblocks.lib : Blockfactory_amz.obj (.const:.typeinfo:_ZTIN5Vpgnc6ImarksE)
                  000a2908    00000004     Blockfactory_par.obj (.const:.typeinfo:_ZTIN6Stanag14IStanag_msg_rxE)
                  000a290c    00000004     Blockfactory_par.obj (.const:.typeinfo:_ZTIN6Stanag14IStanag_msg_txE)
                  000a2910    00000004     stanag.lib : Stanag_status_msgs.obj (.const:.typeinfo:_ZTIN6Stanag19Ispecial_conversionE)
                  000a2914    00000004     Blockfactory_par.obj (.const:.typeinfo:_ZTIN7Vblocks9IautotuneE)
                  000a2918    00000004     vpgnc.lib : Vpu.obj (.const:.typeinfo:_ZTIN8Midlevel14Sys_status_mgr14Istatus_getterE)
                  000a291c    00000004     pa_blocks.lib : Time_in_tai.obj (.const:.typeinfo:_ZTIN9Pa_blocks11Time_in_taiE)
                  000a2920    00000004                   : Input_heading.obj (.const:.typeinfo:_ZTIN9Pa_blocks12Iekf_updaterE)
                  000a2924    00000004     rts2800_fpu64_eabi.lib : typeinfo.c.obj (.const:.typeinfo:_ZTISt9type_info)
                  000a2928    00000004                            : typeinfo.c.obj (.const:.typeinfo:_ZTIe)
                  000a292c    00000004                            : typeinfo.c.obj (.const:.typeinfo:_ZTSPKe)
                  000a2930    00000004     base.lib : Field.obj (.const)
                  000a2934    00000004     rts2800_fpu64_eabi.lib : e_powf.c.obj (.const:bp)
                  000a2938    00000004     vpgnc.lib : CAN_cfg_maint_astro.obj (.const:comser$6)
                  000a293c    00000004               : CAN_cfg_maint_astro.obj (.const:cos$3)
                  000a2940    00000004               : CAN_cfg_maint_astro.obj (.const:cyp_p$4)
                  000a2944    00000004     rts2800_fpu64_eabi.lib : e_powf.c.obj (.const:dp_h)
                  000a2948    00000004                            : e_powf.c.obj (.const:dp_l)
                  000a294c    00000004                            : e_expf.c.obj (.const:halF)
                  000a2950    00000004                            : k_rem_pio2.c.obj (.const:init_jk)
                  000a2954    00000004                            : e_expf.c.obj (.const:ln2HI)
                  000a2958    00000004                            : e_expf.c.obj (.const:ln2LO)
                  000a295c    00000004     vpgnc.lib : CAN_cfg_maint_astro.obj (.const:sercom$7)
                  000a2960    00000004               : CAN_cfg_maint_astro.obj (.const:soc$2)
                  000a2964    00000004     base.lib : Spkt_hdr.obj (.const:szs$1)
                  000a2968    00000004     vpgnc.lib : Vpu.obj (.const:usb_com0$9)
                  000a296c    00000004               : Vpu.obj (.const:usb_com1$10)
                  000a2970    00000003               : CAN_cfg_maint_astro.obj (.const:_ZN5Vpgnc47_GLOBAL__N__23_CAN_cfg_maint_astro_cpp_2770a0d020cfgs_to_be_load_rec0E)
                  000a2973    00000002     DSP2838x_ent.lib : Pwmdev_2838x.obj (.const)
                  000a2975    00000001     --HOLE-- [fill = 0]
                  000a2976    00000002     Vmain_cpu2.obj (.const)
                  000a2978    00000002     vpgnc.lib : CAN_cfg_maint_astro.obj (.const:_ZN5Vpgnc47_GLOBAL__N__23_CAN_cfg_maint_astro_cpp_2770a0d019cfgs_to_be_load_monE)

.init_array 
*          0    000a297c    0000006e     
                  000a297c    00000002     base.lib : CRCmav.obj (.init_array)
                  000a297e    00000002     pa_blocks.lib : Aee.obj (.init_array)
                  000a2980    00000002                   : Maneuver_coordinate.obj (.init_array)
                  000a2982    00000002                   : Waypoint_msg.obj (.init_array)
                  000a2984    00000002                   : Rph_from_q.obj (.init_array)
                  000a2986    00000002     veronte.lib : Hx_imu_rec0.obj (.init_array)
                  000a2988    00000002     pa_blocks.lib : Pa_profiling.obj (.init_array)
                  000a298a    00000002                   : Tllh_cs_64.obj (.init_array)
                  000a298c    00000002     veronte.lib : Hstate_estimate.obj (.init_array)
                  000a298e    00000002                 : Hnav_inputs.obj (.init_array)
                  000a2990    00000002     midlevel.lib : Sys_status_mgr.obj (.init_array)
                  000a2992    00000002     devices.lib : Adis165053_cfg.obj (.init_array)
                  000a2994    00000002     stanag.lib : Stanag_status_msgs.obj (.init_array)
                  000a2996    00000002                : Stanag_msg_cfgs.obj (.init_array)
                  000a2998    00000002     geomodel.lib : Apos.obj (.init_array)
                  000a299a    00000002     vpgnc.lib : CAN_cfg_maint_astro.obj (.init_array)
                  000a299c    00000002               : Polymgr_impl_amz.obj (.init_array)
                  000a299e    00000002     veronte.lib : Herrors_ver_pa.obj (.init_array)
                  000a29a0    00000002     base.lib : Stickrawtrans.obj (.init_array)
                  000a29a2    00000002     veronte.lib : Hcfg_mode_cpu2.obj (.init_array)
                  000a29a4    00000002                 : Hstick_cpu2.obj (.init_array)
                  000a29a6    00000002                 : Hevact_cpu2.obj (.init_array)
                  000a29a8    00000002                 : Tunsuite_pa.obj (.init_array)
                  000a29aa    00000002                 : Hxcfield.obj (.init_array)
                  000a29ac    00000002                 : Hxcfield_cpu2.obj (.init_array)
                  000a29ae    00000002                 : Hlicense.obj (.init_array)
                  000a29b0    00000002                 : Hxcygen_cpu2.obj (.init_array)
                  000a29b2    00000002                 : Hxcfile_cpu2.obj (.init_array)
                  000a29b4    00000002                 : Hxcfg.obj (.init_array)
                  000a29b6    00000002                 : Hxcff.obj (.init_array)
                  000a29b8    00000002                 : Hauth_connections_cpu2.obj (.init_array)
                  000a29ba    00000002     vpgnc.lib : Vpu.obj (.init_array)
                  000a29bc    00000002     DSP28x.lib : Absolute_time.obj (.init_array)
                  000a29be    00000002     veronte.lib : Sysuid.obj (.init_array)
                  000a29c0    00000002     media.lib : Cfgmgr.obj (.init_array)
                  000a29c2    00000002     first.lib : PDIcheck.obj (.init_array)
                  000a29c4    00000002     base.lib : Herrors.obj (.init_array)
                  000a29c6    00000002     veronte.lib : Hd_vector.obj (.init_array)
                  000a29c8    00000002                 : Hregvars.obj (.init_array)
                  000a29ca    00000002                 : Hmeas.obj (.init_array)
                  000a29cc    00000002                 : Hxcfg_cpu2.obj (.init_array)
                  000a29ce    00000002                 : Hsys.obj (.init_array)
                  000a29d0    00000002                 : Xcd_cpu2.obj (.init_array)
                  000a29d2    00000002                 : Hstate_estimate_compact_cpu2.obj (.init_array)
                  000a29d4    00000002                 : Hnav_introspect_compact_cpu2.obj (.init_array)
                  000a29d6    00000002     crypto_c28.lib : Compute_hash.obj (.init_array)
                  000a29d8    00000002     veronte.lib : Code_hash_amz.obj (.init_array)
                  000a29da    00000002                 : Hx_nav_msg_cpu2.obj (.init_array)
                  000a29dc    00000002                 : Sysaddr_ver2.obj (.init_array)
                  000a29de    00000002     DSP2838x_ent.lib : Htime_2838x.obj (.init_array)
                  000a29e0    00000002     veronte.lib : Hvar.obj (.init_array)
                  000a29e2    00000002                 : Hvar_cpu2.obj (.init_array)
                  000a29e4    00000002     Blockfactory_par.obj (.init_array)
                  000a29e6    00000002     Vmain_cpu2.obj (.init_array)
                  000a29e8    00000002     main_cpu2.obj (.init_array)

.switch    0    000a29ec    0000002c     
                  000a29ec    0000002c     base.lib : Field.obj (.switch:_ZNK4Base5Field8compressERNS_5LossyERKNS_4IgetE)

.cinit     0    000a2a18    00000052     
                  000a2a18    00000019     (.cinit..data.load) [load image, compression = lzss]
                  000a2a31    0000000b     (.cinit.RTS_data.load) [load image, compression = lzss]
                  000a2a3c    00000006     (__TI_handler_table)
                  000a2a42    00000004     (.cinit..bss.load) [load image, compression = zero_init]
                  000a2a46    00000004     (.cinit.MEMMGR_EXT.load) [load image, compression = zero_init]
                  000a2a4a    00000004     (.cinit.MEMMGR_INT.load) [load image, compression = zero_init]
                  000a2a4e    00000004     (.cinit.RTS_bss.load) [load image, compression = zero_init]
                  000a2a52    00000018     (__TI_cinit_table)

.binit     0    000a2aa8    00000008     
                  000a2aa8    00000008     (.binit)

.stack     1    00008000    00001000     UNINITIALIZED
                  00008000    00001000     --HOLE--

RTS_data   1    00009060    00000010     UNINITIALIZED
                  00009060    00000006     rts2800_fpu64_eabi.lib : exit.c.obj (.data)
                  00009066    00000002                            : _lock.c.obj (.data:_lock)
                  00009068    00000002                            : _lock.c.obj (.data:_unlock)
                  0000906a    00000002                            : dtor_list.c.obj (.data)
                  0000906c    00000002                            : vars.c.obj (.data)
                  0000906e    00000001                            : errno.c.obj (.data)
                  0000906f    00000001                            : memory.c.obj (.data)

RTS_bss    1    0000ce70    00000006     UNINITIALIZED
                  0000ce70    00000002     rts2800_fpu64_eabi.lib : dtor_list.c.obj (.bss)
                  0000ce72    00000002                            : memory.c.obj (.bss)
                  0000ce74    00000002                            : typeinfo.c.obj (.bss)

.sysmem    1    0000ce76    00000004     UNINITIALIZED
                  0000ce76    00000004     rts2800_fpu64_eabi.lib : memory.c.obj (.sysmem)

XcCPU1RegsFile 
*          1    0001bdc0    00000000     NOLOAD SECTION

XcCPU2RegsFile 
*          1    00100000    00000000     NOLOAD SECTION

.bss       1    002ca380    00000845     UNINITIALIZED
                  002ca380    000000c6     pa_blocks.lib : Knobs.obj (.bss:ret$2)
                  002ca446    0000002e     veronte.lib : Hxcfile_cpu2.obj (.bss:_ZZN3Ver7Hxcfile13get_xcfilecliEvE5xfile)
                  002ca474    0000000c     pa_blocks.lib : Waypoint_msg.obj (.bss)
                  002ca480    00000096     veronte.lib : Hx_imu_rec0.obj (.bss:_ZZN9Pa_blocks12Measurements12get_imu_measERNS0_3ImuEE11acc_filters)
                  002ca516    00000026     vpgnc.lib : Vpu.obj (.bss:_ZZN8Midlevel11Default_cfg18get_default_can_scIN4Base11CANsc_suiteILj6EEEEERKT_fbE3cfg)
                  002ca53c    00000004     DSP2838x_ent.lib : Pwmdev_2838x.obj (.bss)
                  002ca540    00000096     veronte.lib : Hx_imu_rec0.obj (.bss:_ZZN9Pa_blocks12Measurements12get_imu_measERNS0_3ImuEE11gyr_filters)
                  002ca5d6    00000026                 : Copystep.obj (.bss:single$2)
                  002ca5fc    00000004     DSP28x.lib : Absolute_time.obj (.bss:_ZN4Base41_GLOBAL__N__17_Absolute_time_cpp_c899679512tics_at_initE)
                  002ca600    00000080     veronte.lib : Copystep.obj (.bss:_ZZN3Ver36_GLOBAL__N__12_Copystep_cpp_e59cf1d56HrangeIN3Bsp5HbvarEE12build_rangesEvE3cp0)
                  002ca680    00000068                 : Copystep.obj (.bss:_ZZN3Ver36_GLOBAL__N__12_Copystep_cpp_e59cf1d56HrangeIN3Bsp5HrvarEE12build_rangesEvE3cp0)
                  002ca6e8    00000018     base.lib : Herrors.obj (.bss:ff$2)
                  002ca700    00000044     veronte.lib : Hxcfield_cpu2.obj (.bss:_ZZN3Ver41_GLOBAL__N__17_Hxcfield_cpu2_cpp_b4af5a3213get_htun_tmodEvE6helper)
                  002ca744    00000022     pa_blocks.lib : Covariance_ud.obj (.bss:delta_state$2)
                  002ca766    0000001a     Vmain_cpu2.obj (.bss)
                  002ca780    00000040     veronte.lib : Copystep.obj (.bss:_ZZN3Ver36_GLOBAL__N__12_Copystep_cpp_e59cf1d56HrangeIN3Bsp5HuvarEE12build_rangesEvE3cp0)
                  002ca7c0    0000003e     vpgnc.lib : Vpu.obj (.bss:_ZZN8Midlevel11Default_cfg18get_default_can_inIN4Base11CANin_suiteILj6EEEEERKT_bbE3cfg)
                  002ca7fe    00000002     geomodel.lib : Apos.obj (.bss:_ZN3Geo31_GLOBAL__N__8_Apos_cpp_ad6fc63612hhelper_nullE)
                  002ca800    00000022     veronte.lib : Vpuposrd_ver_pa.obj (.bss:single$2)
                  002ca822    0000001c                 : Hxcfield_cpu2.obj (.bss:fsv$10)
                  002ca83e    00000002     media.lib : Cfgmgr.obj (.bss:_ZN5Media34_GLOBAL__N__10_Cfgmgr_cpp_be3311b28meta_hndE)
                  002ca840    00000020     veronte.lib : Hxcfield_cpu2.obj (.bss:_ZZN3Ver8Hxcfield12get_stgfmsetEvE6helper)
                  002ca860    00000020                 : Hxcfield_cpu2.obj (.bss:_ZZN3Ver8Hxcfield7get_ftmEvE6helper)
                  002ca880    00000020                 : Hxcfield_cpu2.obj (.bss:_ZZN3Ver8Hxcfield8get_fsnfEvE6helper)
                  002ca8a0    00000020                 : Hxcfield_cpu2.obj (.bss:_ZZN3Ver8Hxcfield8get_ftmcEvE6helper)
                  002ca8c0    00000020                 : Hxcfield_cpu2.obj (.bss:_ZZN3Ver8Hxcfield9get_fmsetEvE6helper)
                  002ca8e0    0000001c                 : Hxcfile_cpu2.obj (.bss:xffast$3)
                  002ca8fc    00000004     DSP2837x_ent.lib : Sysuid_cpu2.obj (.bss:_ZZN3Bsp7get_uidEbE3uid)
                  002ca900    00000020     crypto_c28.lib : sha256_casm_C28.obj (.bss)
                  002ca920    0000001a     base.lib : Stepmgr_dsp.obj (.bss:_ZZN4Base7Stepmgr12get_instanceEvE4inst)
                  002ca93a    00000006              : Stickrawtrans.obj (.bss:_ZN4Base6tr_oneE)
                  002ca940    00000018              : Herrors.obj (.bss:ff$4)
                  002ca958    00000018     veronte.lib : Herrors_ver_pa.obj (.bss:ff$4)
                  002ca970    00000010                 : Hxcfield_cpu2.obj (.bss)
                  002ca980    00000014     pa_blocks.lib : Aee.obj (.bss:_ZN9Pa_blocks3Aee9log_data_E)
                  002ca994    00000014     first.lib : Endian3.obj (.bss:_ZZN4Base8E3helper12get_instanceEvE1h)
                  002ca9a8    00000014     base.lib : Kfieldset.obj (.bss:_ZZNK4Base9Kfieldset14get_hash_asyncERmRjE4tcrc)
                  002ca9bc    00000004     veronte.lib : Code_hash_amz.obj (.bss:_ZZN3Ver17compute_code_hashEmmE1m)
                  002ca9c0    00000014     base.lib : Kfieldset.obj (.bss:_ZZNK4Base9Kfieldset14get_hash_asyncERmRjE8tcrc_buf)
                  002ca9d4    00000014     pa_blocks.lib : Input_static_pressure.obj (.bss)
                  002ca9e8    00000014     base.lib : Ftelemetryod.obj (.bss:tcrc_buf$2)
                  002ca9fc    00000004     veronte.lib : Hevact_cpu2.obj (.bss:_ZZN3Ver6Hevact11get_actionsEvE3tun)
                  002caa00    00000012     pa_blocks.lib : Out_nav_pa_base.obj (.bss)
                  002caa12    0000000e     veronte.lib : Hvar_cpu2.obj (.bss:features$3)
                  002caa20    0000000c                 : Hxcff.obj (.bss:xr$2)
                  002caa2c    0000000a     base.lib : CRCmav.obj (.bss:_ZN4Base10crcmav_cfgE)
                  002caa36    0000000a              : CRCpreset.obj (.bss)
                  002caa40    0000000a              : Herrors.obj (.bss)
                  002caa4a    0000000a              : CRCpreset.obj (.bss:crc32$8)
                  002caa54    0000000a     vpgnc.lib : Vpu.obj (.bss)
                  002caa5e    0000000a     veronte.lib : Hxcff.obj (.bss:xw$4)
                  002caa68    00000008     DSP28x.lib : SCIcfg.obj (.bss)
                  002caa70    00000008     pa_blocks.lib : Rph_from_q.obj (.bss:_ZN9Pa_blocks10Rph_from_q9t_vf_vf2xE)
                  002caa78    00000008     veronte.lib : Hvar_cpu2.obj (.bss:_ZZN4Base3JidINS_8FidtraitEE10get_gsizesEvE7idsizes)
                  002caa80    00000008     vpgnc.lib : Vpu.obj (.bss:_ZZN8Midlevel11Default_cfg19get_default_can_outIN4Base12CANout_suiteILj6EEEEERKT_NS2_7CANport4PortEE3cfg)
                  002caa88    00000008     base.lib : Herrors.obj (.bss:buff$7)
                  002caa90    00000008     first.lib : Memmgr_c2000.obj (.bss:external_alloc$5)
                  002caa98    00000008               : Ttime.obj (.bss)
                  002caaa0    00000008     midlevel.lib : Irxfw.obj (.bss:hdr$2)
                  002caaa8    00000008     first.lib : Memmgr_c2000.obj (.bss:internal_alloc$4)
                  002caab0    00000008     pa_blocks.lib : Tllh_cs_64.obj (.bss)
                  002caab8    00000006     base.lib : Stickrawtrans.obj (.bss:_ZN4Base7tr_middE)
                  002caabe    00000002     vpgnc.lib : Polymgr_impl_amz.obj (.bss:_ZN5Vpgnc9data_instE)
                  002caac0    00000006     base.lib : Stickrawtrans.obj (.bss:_ZN4Base7tr_zeroE)
                  002caac6    00000006     pa_blocks.lib : Input_gnss_pos.obj (.bss:_ZZN9Pa_blocks14Nav_replay_log12get_instanceEvE9singleton)
                  002caacc    00000006     base.lib : Fid.obj (.bss)
                  002caad2    00000006     first.lib : Endian3.obj (.bss:e3$2)
                  002caad8    00000006               : Endian3.obj (.bss:e3$4)
                  002caade    00000006               : Memmgr_c2000.obj (.bss:mgr$6)
                  002caae4    00000006     veronte.lib : Hstick_cpu2.obj (.bss)
                  002caaea    00000004                 : Hevact_cpu2.obj (.bss:_ZZN3Ver6Hevact9get_evactEvE3tun)
                  002caaee    00000004                 : Hstick_cpu2.obj (.bss:_ZZN3Ver6Hstick15get_stickvarcfgEvE3tun)
                  002caaf2    00000004                 : Hstick_cpu2.obj (.bss:_ZZN3Ver6Hstick16get_stickppm0cfgEvE3tun)
                  002caaf6    00000004                 : Hstick_cpu2.obj (.bss:_ZZN3Ver6Hstick16get_stickppm1cfgEvE3tun)
                  002caafa    00000004                 : Hstick_cpu2.obj (.bss:_ZZN3Ver6Hstick16get_stickppm2cfgEvE3tun)
                  002caafe    00000002     stanag.lib : Stanag_status_msgs.obj (.bss:_ZN6Stanag18Stanag_status_msgs15null_conversionE)
                  002cab00    00000004     veronte.lib : Hstick_cpu2.obj (.bss:_ZZN3Ver6Hstick16get_stickppm3cfgEvE3tun)
                  002cab04    00000004                 : Hxcfield_cpu2.obj (.bss:_ZZN3Ver8Hxcfield12get_fstrfastEvE3tun)
                  002cab08    00000004                 : Hxcfield_cpu2.obj (.bss:_ZZN3Ver8Hxcfield14get_fstgmsgvecEvE3tun)
                  002cab0c    00000004                 : Hxcfield_cpu2.obj (.bss:_ZZN3Ver8Hxcfield15get_fstrpfieldsEvE3tun)
                  002cab10    00000004                 : Hxcfield_cpu2.obj (.bss:_ZZN3Ver8Hxcfield17get_fmsg8consumerEvE3tun)
                  002cab14    00000004                 : Hxcfield_cpu2.obj (.bss:_ZZN3Ver8Hxcfield17get_fmsg8producerEvE3tun)
                  002cab18    00000004                 : Hxcfield_cpu2.obj (.bss:_ZZN3Ver8Hxcfield9get_fstr1EvE3tun)
                  002cab1c    00000004                 : Hxcfield_cpu2.obj (.bss:_ZZN3Ver8Hxcfield9get_fstrtEvE3tun)
                  002cab20    00000004     base.lib : Varmgr.obj (.bss:_ZZN4Base6Varmgr12get_instanceEvE6single)
                  002cab24    00000004     veronte.lib : Hx_imu_rec0.obj (.bss:_ZZN9Pa_blocks12Measurements12get_imu_measERNS0_3ImuEE2rd)
                  002cab28    00000004     vpgnc.lib : Vpu.obj (.bss:app_bits_mb$15)
                  002cab2c    00000004     devices.lib : Adis165053_cfg.obj (.bss)
                  002cab30    00000004     geomodel.lib : Apos.obj (.bss)
                  002cab34    00000004     pa_blocks.lib : Heading.obj (.bss:head$2)
                  002cab38    00000004     main_cpu2.obj (.bss)
                  002cab3c    00000004     midlevel.lib : Sys_status_mgr.obj (.bss:mb$6)
                  002cab40    00000004     vpgnc.lib : Vpu.obj (.bss:mb_entries$18)
                  002cab44    00000004     pa_blocks.lib : Estimator.obj (.bss)
                  002cab48    00000004                   : Maneuver_coordinate.obj (.bss)
                  002cab4c    00000004                   : Pa_profiling.obj (.bss)
                  002cab50    00000004                   : Process_lidar.obj (.bss)
                  002cab54    00000004                   : Propagate_covariance.obj (.bss)
                  002cab58    00000004                   : State_estimate_logic.obj (.bss)
                  002cab5c    00000004                   : Vsdk_params.obj (.bss)
                  002cab60    00000004                   : Out_nav_pa_base.obj (.bss:pps_ok$21)
                  002cab64    00000004     Vmain_cpu2.obj (.bss:steps$9)
                  002cab68    00000004     base.lib : Sysver.obj (.bss:sysver$2)
                  002cab6c    00000004     veronte.lib : Copystep.obj (.bss)
                  002cab70    00000004     vpgnc.lib : Varinit.obj (.bss)
                  002cab74    00000004     pa_blocks.lib : Gnss_time_monotonic.obj (.bss:week_s$2)
                  002cab78    00000003     first.lib : Endian3.obj (.bss)
                  002cab7b    00000003               : Memmgr_c2000.obj (.bss)
                  002cab7e    00000002     midlevel.lib : Sys_status_mgr.obj (.bss:_ZN8Midlevel42_GLOBAL__N__18_Sys_status_mgr_cpp_2a0467ea11dst_addressE)
                  002cab80    00000003     veronte.lib : Hx_imu_rec0.obj (.bss)
                  002cab83    00000001     DSP2837x_ent.lib : Sysuid_cpu2.obj (.bss)
                  002cab84    00000002     media.lib : Updatable_null.obj (.bss:_ZZN5Media14Updatable_null12get_instanceEvE9singleton)
                  002cab86    00000002     vblocks.lib : Blockfactory_amz.obj (.bss:_ZZN7Vblocks12Blockfactory13get_marks_mgrEvE3ret)
                  002cab88    00000002     base.lib : Cfgid_mode.obj (.bss)
                  002cab8a    00000002     pa_blocks.lib : Out_nav_pa_base.obj (.bss:cy_id$15)
                  002cab8c    00000002                   : Out_nav_pa_base.obj (.bss:cy_id$19)
                  002cab8e    00000002                   : Out_nav_pa_rec.obj (.bss:cy_id$3)
                  002cab90    00000002                   : Out_nav_pa_base.obj (.bss:cy_id$6)
                  002cab92    00000002     midlevel.lib : Sys_status_mgr.obj (.bss)
                  002cab94    00000002     pa_blocks.lib : Out_nav_pa_rec.obj (.bss)
                  002cab96    00000002     veronte.lib : Herrors_ver_pa.obj (.bss)
                  002cab98    00000002                 : Hevact_cpu2.obj (.bss)
                  002cab9a    00000002                 : Hxcff.obj (.bss)
                  002cab9c    00000002                 : Hxcfile_cpu2.obj (.bss)
                  002cab9e    00000001                 : Hvar_cpu2.obj (.bss:_ZGVZN4Base3JidINS_8FidtraitEE10get_gsizesEvE7idsizes)
                  002cab9f    00000001     vpgnc.lib : Vpu.obj (.bss:_ZGVZN8Midlevel11Default_cfg19get_default_can_outIN4Base12CANout_suiteILj6EEEEERKT_NS2_7CANport4PortEE3cfg)
                  002caba0    00000001     pa_blocks.lib : Input_gnss_pos.obj (.bss:_ZGVZN9Pa_blocks14Nav_replay_log12get_instanceEvE9singleton)
                  002caba1    00000001     first.lib : PDIcheck.obj (.bss:_ZN4Base8PDIcheck7opecodeE)
                  002caba2    00000001               : PDIcheck.obj (.bss:_ZN4Base8PDIcheck7pdicodeE)
                  002caba3    00000001               : PDIcheck.obj (.bss:_ZN4Base8PDIcheck7pdimodeE)
                  002caba4    00000001               : PDIcheck.obj (.bss:_ZN4Base8PDIcheck8op_errorE)
                  002caba5    00000001               : PDIcheck.obj (.bss:_ZN4Base8PDIcheck8pdierrorE)
                  002caba6    00000001     vpgnc.lib : Event_inside_checker_amz.obj (.bss:_ZN5Vpgnc9data_instE)
                  002caba7    00000001     base.lib : Kfieldset.obj (.bss)
                  002caba8    00000001              : Stepmgr_dsp.obj (.bss)
                  002caba9    00000001              : Sysver.obj (.bss)
                  002cabaa    00000001              : Varmgr.obj (.bss)
                  002cabab    00000001     Vmain_cpu2.obj (.bss:c2_cnt$2)
                  002cabac    00000001     vpgnc.lib : Vpu.obj (.bss:cap_47$5)
                  002cabad    00000001     first.lib : Dsync.obj (.bss:dsnull$2)
                  002cabae    00000001               : Dsync.obj (.bss)
                  002cabaf    00000001     Vmain_cpu2.obj (.bss:hdt$26)
                  002cabb0    00000001     Vmain_cpu2.obj (.bss:hdt_max$27)
                  002cabb1    00000001     Vmain_cpu2.obj (.bss:hok$28)
                  002cabb2    00000001     vpgnc.lib : Event.obj (.bss:hwp$2)
                  002cabb3    00000001     media.lib : Updatable_null.obj (.bss)
                  002cabb4    00000001     midlevel.lib : Irxfw.obj (.bss)
                  002cabb5    00000001     pa_blocks.lib : Mrs_received.obj (.bss:mrs_received$2)
                  002cabb6    00000001                   : Covariance_ud.obj (.bss)
                  002cabb7    00000001                   : Gnss_time_monotonic.obj (.bss)
                  002cabb8    00000001                   : Heading.obj (.bss)
                  002cabb9    00000001                   : Knobs.obj (.bss)
                  002cabba    00000001                   : Mrs_received.obj (.bss)
                  002cabbb    00000001     Vmain_cpu2.obj (.bss:step_ravg$22)
                  002cabbc    00000001     Vmain_cpu2.obj (.bss:step_rmax$23)
                  002cabbd    00000001     Vmain_cpu2.obj (.bss:step_tavg$24)
                  002cabbe    00000001     Vmain_cpu2.obj (.bss:step_tmax$25)
                  002cabbf    00000001     vblocks.lib : Blockfactory_amz.obj (.bss)
                  002cabc0    00000001     veronte.lib : Code_hash_amz.obj (.bss)
                  002cabc1    00000001                 : Hvar_cpu2.obj (.bss)
                  002cabc2    00000001                 : Tunsuite_pa.obj (.bss)
                  002cabc3    00000001                 : Vpuposrd_ver_pa.obj (.bss)
                  002cabc4    00000001     vpgnc.lib : Event.obj (.bss)

.data      1    002cabc6    00000032     UNINITIALIZED
                  002cabc6    00000010     veronte.lib : Kclk.obj (.data)
                  002cabd6    00000006     pa_blocks.lib : Nav_introspect_compact.obj (.data)
                  002cabdc    00000004     DSP28x.lib : Absolute_time.obj (.data)
                  002cabe0    00000004     pa_blocks.lib : State_estimate.obj (.data)
                  002cabe4    00000004     midlevel.lib : Irxfw.obj (.data:tstamp$3)
                  002cabe8    00000004     veronte.lib : Hvar_cpu2.obj (.data)
                  002cabec    00000002     base.lib : Field.obj (.data)
                  002cabee    00000002              : Xcfile.obj (.data)
                  002cabf0    00000002     first.lib : PDIcheck.obj (.data)
                  002cabf2    00000002     midlevel.lib : Cy_msg_id_gen.obj (.data)
                  002cabf4    00000002     pa_blocks.lib : On_ground.obj (.data)
                  002cabf6    00000002     vpgnc.lib : Oprvar.obj (.data)

MEMMGR_INT 
*          1    00009070    00003e00     UNINITIALIZED
                  00009070    00003e00     veronte.lib : Memm_cfg_amz.obj (MEMMGR_INT:retain)

MEMMGR_EXT 
*          1    00153360    00177000     UNINITIALIZED
                  00153360    00177000     veronte.lib : Memm_cfg_amz.obj (MEMMGR_EXT:retain)

.reset     0    003fffc0    00000000     DSECT

GETBUFFER 
*          0    0003a000    00000000     DSECT

GETWRITEIDX 
*          0    0003a000    00000000     DSECT

PUTREADIDX 
*          0    0003a000    00000000     DSECT

.TI.ramfunc.load 
*          0    000a2a6a    0000003d     
                  000a2a6a    0000003d     (.TI.ramfunc.load) [load image, compression = lzss]

MODULE SUMMARY

       Module                                  code     ro data   rw data
       ------                                  ----     -------   -------
    .\
       Blockfactory_par.obj                    882      516       0      
       DSP28x_CodeStartBranch.obj              10       0         0      
    +--+---------------------------------------+--------+---------+---------+
       Total:                                  892      516       0      
                                                                         
    .\source\
       Vmain_cpu2.obj                          1164     56        38     
       main_cpu2.obj                           61       155       4      
    +--+---------------------------------------+--------+---------+---------+
       Total:                                  1225     211       42     
                                                                         
    C:/Emb7.3.269/Amazon-PrimeAir/items/ASTRO/items/sw/sw_Astro/code/pa_blocks/code/project/vpgen_ccs/amzr0_2838x/pa_blocks.lib
       State_estimate_logic.obj                2620     136       4      
       Blk_pa_nav.obj                          2196     0         0      
       Estimator.obj                           1924     0         4      
       Irmatrix3_sub.obj                       1517     0         0      
       Out_nav_pa_base.obj                     1413     0         28     
       Blk_pa_nav_base.obj                     1063     370       0      
       Knobs.obj                               1114     0         199    
       Input_gnss_pos.obj                      1225     45        7      
       Tllh_cs_64.obj                          1247     2         8      
       Command_contingency_wrapper.obj         1140     68        0      
       State_history.obj                       1164     0         0      
       Propagate_covariance.obj                1087     0         4      
       Covariance_ud.obj                       1019     0         35     
       Input_static_pressure.obj               883      52        20     
       Diverse_comms_telemetry.obj             868      62        0      
       Input_gnss_vel.obj                      884      45        0      
       Vsdk_params.obj                         841      47        4      
       Nav_params.obj                          0        884       0      
       Site_config.obj                         758      114       0      
       DComms_cfg.obj                          871      0         0      
       Cy_maint_action.obj                     787      78        0      
       State_estimate.obj                      782      41        4      
       State_transition_matrix.obj             804      0         0      
       On_ground.obj                           661      0         2      
       Process_lidar.obj                       643      0         4      
       Input_measurements.obj                  640      0         0      
       Input_dyn_pressure.obj                  605      0         0      
       Initializer.obj                         569      0         0      
       Vsdk_navigation_params.obj              534      0         0      
       Pa_irquat.obj                           510      0         0      
       Controllers_state_estimate.obj          462      0         0      
       Knob_initializer.obj                    453      0         0      
       Cy_dcomms_site_config.obj               387      64        0      
       Input_heading.obj                       340      85        0      
       State_estimate_compact.obj              414      0         0      
       Checks_gnss.obj                         410      0         0      
       Navigation.obj                          383      0         0      
       Initializer_pitch_roll.obj              376      0         0      
       Initializer_bias.obj                    370      0         0      
       Measurements.obj                        313      57        0      
       State.obj                               368      0         0      
       Detect_pseudo_jerk.obj                  321      0         0      
       Nav_builder.obj                         282      38        0      
       Command_response.obj                    210      87        0      
       Gnc_transformation.obj                  296      0         0      
       Aiding_sensors_info.obj                 273      0         0      
       Time_in_tai.obj                         237      36        0      
       Nav_introspect_compact.obj              223      0         6      
       Cy_msg_wrapper.obj                      176      41        0      
       State_estimate_status_logic.obj         215      0         0      
       Pa_profiling.obj                        204      2         4      
       In_flight_speed_change_cmd.obj          142      53        0      
       Out_nav_pa_rec.obj                      175      0         4      
       Input_uplink_heading.obj                169      0         0      
       Sep.obj                                 147      0         0      
       Maneuver_coordinate.obj                 126      2         4      
       Rph_from_q.obj                          121      2         8      
       Atcg.obj                                130      0         0      
       Vsdk_rccp_param.obj                     115      0         0      
       Gnss_time_monotonic.obj                 105      0         5      
       Recovery_mission_phase_of_flight.obj    97       0         0      
       Quiescence_detector.obj                 94       0         0      
       State_machines.obj                      92       0         0      
       Update_gps_time_offset.obj              90       0         0      
       Is_gnss_ready_to_process.obj            84       0         0      
       Time_cache.obj                          81       0         0      
       Tcg.obj                                 76       0         0      
       Aee.obj                                 52       2         20     
       Environ_params.obj                      0        68        0      
       Onground_controller_info.obj            67       0         0      
       Waypoint_msg.obj                        41       2         12     
       Mission_reset_command.obj               52       0         0      
       Recovery_mission_readiness_signal.obj   51       0         0      
       Model_dynamic.obj                       48       0         0      
       Tsc.obj                                 47       0         0      
       Waca.obj                                44       0         0      
       Heading.obj                             36       0         5      
       Controller_introspect.obj               36       0         0      
       Vector_saturation.obj                   35       0         0      
       Evasive_maneuver_status.obj             31       0         0      
       Persistent_pdi.obj                      31       0         0      
       Aacg.obj                                29       0         0      
       Ttcg.obj                                25       0         0      
       Fifo_imu.obj                            0        24        0      
       On_ground_inputs.obj                    24       0         0      
       Mrs_received.obj                        20       0         2      
       Recovery_route_constructor.obj          21       0         0      
       Track_spline_manager.obj                21       0         0      
       Delta_state.obj                         20       0         0      
       Dyn_pa_interpolator_cat_2.obj           20       0         0      
       Cm.obj                                  19       0         0      
       Waypoint_coordinate.obj                 18       0         0      
       Polynomial_coeffs.obj                   17       0         0      
       Message_id.obj                          16       0         0      
       Tp_vsdk_param.obj                       14       0         0      
       Land_manager.obj                        11       0         0      
       Latch_on_first_true.obj                 10       0         0      
       Takeoff_manager.obj                     6        0         0      
       Vehicle_params.obj                      0        6         0      
       Vsdk_common_params.obj                  5        0         0      
    +--+---------------------------------------+--------+---------+---------+
       Total:                                  39793    2513      393    
                                                                         
    C:/Emb7.3.269/Amazon-PrimeAir/items/ASTRO/items/sw/sw_Astro/items/_sw_Veronte/code/vblocks/code/project/vpgen_ccs/amzr0_2838x/vblocks.lib
       Multi_interpolator_tun.obj              72       56        0      
       Blockfactory_amz.obj                    40       62        3      
    +--+---------------------------------------+--------+---------+---------+
       Total:                                  112      118       3      
                                                                         
    C:/Emb7.3.269/Amazon-PrimeAir/items/ASTRO/items/sw/sw_Astro/items/_sw_Veronte/code/veronte/code/project/vpgen_ccs/cpu2_amzr0_2838x/veronte.lib
       Memm_cfg_amz.obj                        0        0         1551872
       Tunsuite_pa.obj                         4987     7125      1      
       Hxcfield_cpu2.obj                       3400     2308      300    
       Copystep.obj                            3280     80        338    
       Hx_imu_rec0.obj                         575      2         307    
       Hevact_cpu2.obj                         411      443       10     
       Hvar_cpu2.obj                           818      2         28     
       Vfspermission.obj                       644      193       0      
       Xcrdsuite.obj                           391      426       0      
       Pwm_suite.obj                           591      194       0      
       Hstick_cpu2.obj                         267      396       26     
       Static_cfg.obj                          219      35        0      
       Hvar.obj                                225      2         0      
       Hxcfile_cpu2.obj                        129      2         76     
       Hxcff.obj                               159      2         24     
       Vpuposrd_ver_pa.obj                     126      0         35     
       Herrors_ver_pa.obj                      60       2         26     
       Ext_nav_cfg.obj                         54       0         0      
       Pa_node_ids.obj                         53       0         0      
       Code_hash_amz.obj                       37       2         5      
       Hsys.obj                                36       2         0      
       Xfreqmgr0.obj                           33       0         0      
       Hxcfield.obj                            25       2         0      
       Kclk.obj                                0        0         16     
       Hcfg_mode_cpu2.obj                      9        2         0      
       Hd_vector.obj                           9        2         0      
       Hnav_introspect_compact_cpu2.obj        9        2         0      
       Hstate_estimate_compact_cpu2.obj        9        2         0      
       Hx_nav_msg_cpu2.obj                     9        2         0      
       GPIOname_util.obj                       10       0         0      
       Hlicense.obj                            8        2         0      
       Hmeas.obj                               8        2         0      
       Hnav_inputs.obj                         8        2         0      
       Hregvars.obj                            8        2         0      
       Hstate_estimate.obj                     8        2         0      
       Hxcfg.obj                               8        2         0      
       Hxcfg_cpu2.obj                          8        2         0      
       Hxcygen_cpu2.obj                        8        2         0      
       Xcd_cpu2.obj                            7        2         0      
       Hauth_connections_cpu2.obj              5        2         0      
       Sysaddr_ver2.obj                        5        2         0      
       Activated_knob_version.obj              6        0         0      
       Sysuid.obj                              4        2         0      
    +--+---------------------------------------+--------+---------+---------+
       Total:                                  16666    11252     1553064
                                                                         
    C:/Emb7.3.269/Amazon-PrimeAir/items/ASTRO/items/sw/sw_Astro/items/_sw_Veronte/code/vpgnc/code/project/vpgen_ccs/amzr0_2838x/vpgnc.lib
       Vpu.obj                                 4240     1349      128    
       Evtmgr.obj                              1397     224       0      
       Event.obj                               692      0         2      
       CAN_cfg_maint_astro.obj                 579      45        0      
       Opranges.obj                            461      134       0      
       Rvar_op_commit.obj                      278      104       0      
       Opmgr.obj                               224      110       0      
       Evt_wp_groups.obj                       278      36        0      
       Varinit.obj                             249      0         4      
       Vlimits.obj                             159      0         0      
       Vpu_dsp.obj                             143      0         0      
       Oprvar.obj                              134      0         2      
       Ftsactcmd.obj                           46       39        0      
       Meta.obj                                20       30        0      
       Polymgr_impl_amz.obj                    13       2         2      
       Event_inside_checker_amz.obj            8        0         1      
       Airframe_action_wp_publish.obj          2        0         0      
    +--+---------------------------------------+--------+---------+---------+
       Total:                                  8923     2073      139    
                                                                         
    C:/Emb7.3.269/Amazon-PrimeAir/items/ASTRO/items/sw/sw_Astro/items/_sw_Veronte/items/_Vlibs/DSP2837x_ent/code/project/vpgen_ccs/cpu2_2838x/DSP2837x_ent.lib
       Pwmdev.obj                              651      0         0      
       Emif1.obj                               97       0         0      
       GPIO.obj                                63       0         0      
       System_cpu2.obj                         63       0         0      
       Flash_2837x.obj                         57       0         0      
       Piectrl.obj                             41       0         0      
       Sysuid_cpu2.obj                         36       0         5      
       ISRmgr.obj                              30       0         0      
       Wipe_memory_c2_2838x.obj                30       0         0      
       Cpusys.obj                              26       0         0      
       Delay.obj                               17       0         0      
       Default_isr_cpu2.obj                    9        0         0      
       GPIOvalid.obj                           6        0         0      
       Hdual.obj                               1        0         0      
    +--+---------------------------------------+--------+---------+---------+
       Total:                                  1127     0         5      
                                                                         
    C:/Emb7.3.269/Amazon-PrimeAir/items/ASTRO/items/sw/sw_Astro/items/_sw_Veronte/items/_Vlibs/DSP2838x_ent/code/project/vpgen_ccs/cpu2_2838x/DSP2838x_ent.lib
       CAN_FD_cfg.obj                          280      0         0      
       Ipc_2838x.obj                           68       0         0      
       Pwmdev_2838x.obj                        32       2         4      
       Htime_2838x.obj                         32       2         0      
       Emif1_2838x.obj                         6        0         0      
    +--+---------------------------------------+--------+---------+---------+
       Total:                                  418      4         4      
                                                                         
    C:/Emb7.3.269/Amazon-PrimeAir/items/ASTRO/items/sw/sw_Astro/items/_sw_Veronte/items/_Vlibs/DSP28x/code/project/vpgen_ccs/2838x/DSP28x.lib
       SCIcfg.obj                              136      0         8      
       CANcfg.obj                              108      0         0      
       Stackchk.obj                            77       0         0      
       Absolute_time.obj                       45       2         8      
       DSP28x_DisInt.obj                       7        0         0      
       Warning.obj                             2        0         0      
    +--+---------------------------------------+--------+---------+---------+
       Total:                                  375      2         16     
                                                                         
    C:/Emb7.3.269/Amazon-PrimeAir/items/ASTRO/items/sw/sw_Astro/items/_sw_Veronte/items/_Vlibs/base/code/project/vpgen_ccs/2838x/base.lib
       Field.obj                               1764     48        2      
       Ftelemetryod.obj                        1422     58        20     
       Xcfilecli.obj                           1384     38        0      
       Cfgsync.obj                             737      0         0      
       Cyphal_common_types.obj                 636      0         0      
       Spkt.obj                                489      64        0      
       Field_cfg.obj                           460      80        0      
       CRC32.obj                               26       512       0      
       Sticktypes.obj                          486      0         0      
       Varmgr.obj                              273      151       5      
       Taskmgr.obj                             289      119       0      
       Stepmgr.obj                             350      28        0      
       Xcfile.obj                              311      59        2      
       Kfieldset.obj                           307      0         41     
       Herrors.obj                             276      2         66     
       Feature.obj                             333      0         0      
       Cmdvar.obj                              279      35        0      
       Xclk.obj                                313      0         0      
       Fsniffer.obj                            309      0         0      
       Cyphal.obj                              300      8         0      
       Presence_vec.obj                        295      0         0      
       Stickrawtrans.obj                       269      2         18     
       Xclkcfg.obj                             281      0         0      
       Xcmqrd.obj                              268      0         0      
       CRC.obj                                 235      30        0      
       Message_received_hnd.obj                215      49        0      
       Evactcfg.obj                            262      0         0      
       Uclkmgr.obj                             230      0         0      
       Uclk.obj                                208      0         0      
       Tllhcompressed.obj                      205      0         0      
       Session.obj                             129      61        0      
       Field_real_dec_ASCII.obj                181      0         0      
       Spkt_hdr.obj                            173      4         0      
       Msg_data.obj                            172      0         0      
       CANgpio_p.obj                           147      24        0      
       Fref.obj                                168      0         0      
       Action.obj                              160      0         0      
       Flogic.obj                              153      0         0      
       Field_BCD.obj                           149      0         0      
       Cfgid_mode.obj                          146      0         2      
       CRCmav.obj                              93       35        10     
       Tmvdat.obj                              137      0         0      
       Espkt.obj                               134      0         0      
       Channelmgrcfg.obj                       132      0         0      
       Meastypes.obj                           114      0         0      
       CPUrc_all.obj                           112      0         0      
       Rtaskrc.obj                             112      0         0      
       Rvarsensor3D_cfg.obj                    112      0         0      
       Field_real_hex_ASCII.obj                109      0         0      
       Fid.obj                                 56       46        6      
       Limit.obj                               79       26        0      
       Pchrono.obj                             99       0         0      
       Sync.obj                                98       0         0      
       Errors_single.obj                       62       35        0      
       Sysver.obj                              78       4         5      
       Int_decimator.obj                       85       0         0      
       Auth_connection.obj                     82       0         0      
       Fmsg_cfg.obj                            77       0         0      
       Pdiver.obj                              74       0         0      
       Checklist.obj                           43       30        0      
       CANin_p.obj                             60       10        0      
       Tllcs.obj                               70       0         0      
       Vref_wr.obj                             70       0         0      
       Xpcmap0.obj                             69       0         0      
       Rvarsensor1D_cfg.obj                    66       0         0      
       CRCpreset.obj                           45       0         20     
       Stepmgr_dsp.obj                         33       0         27     
       Tmovdat.obj                             56       0         0      
       Routing_table_entry.obj                 51       0         0      
       Fheader.obj                             50       0         0      
       Stimestamp.obj                          50       0         0      
       Fmsetvdat.obj                           49       0         0      
       Fieldset.obj                            47       0         0      
       Tcal3D.obj                              44       0         0      
       Vref_wr_tun.obj                         44       0         0      
       Async_transfer_data.obj                 38       0         0      
       CANid.obj                               36       0         0      
       Stanag_msg_type.obj                     31       0         0      
       Varsens1D_cfg.obj                       30       0         0      
       Varsens3D_Cfg.obj                       30       0         0      
       SerialCAN.obj                           28       0         0      
       Xcomstats0.obj                          26       0         0      
       Hashers.obj                             24       0         0      
       Chk_blk_impl.obj                        22       0         0      
       CANid_filter.obj                        14       0         0      
       Tllh.obj                                14       0         0      
       Apos_data.obj                           13       0         0      
       Xcrd.obj                                11       0         0      
       Cfg_utils.obj                           9        0         0      
    +--+---------------------------------------+--------+---------+---------+
       Total:                                  17808    1558      224    
                                                                         
    C:/Emb7.3.269/Amazon-PrimeAir/items/ASTRO/items/sw/sw_Astro/items/_sw_Veronte/items/_Vlibs/devices/code/project/vpgen_ccs/2838x/devices.lib
       Ubxcfgdata.obj                          350      0         0      
       Ubxcfgnav5.obj                          159      0         0      
       Adis165053_cfg.obj                      141      2         4      
       Ubxcfgnavx5.obj                         131      0         0      
       Ubxcfgtmode3.obj                        99       0         0      
       Ubxcfgport.obj                          78       0         0      
       Adis165053.obj                          41       34        0      
       Ubxcfgmsgrate.obj                       75       0         0      
       Ubxcfgrate.obj                          51       0         0      
       Ubxcfgsbas.obj                          42       0         0      
       Dev_press_cfg.obj                       34       0         0      
       Ubxcfgitfm.obj                          16       0         0      
    +--+---------------------------------------+--------+---------+---------+
       Total:                                  1217     36        4      
                                                                         
    C:/Emb7.3.269/Amazon-PrimeAir/items/ASTRO/items/sw/sw_Astro/items/_sw_Veronte/items/_Vlibs/first/code/project/vpgen_ccs/2838x/first.lib
       Lossy.obj                               1711     8         0      
       Strutil.obj                             716      0         0      
       U8ostream.obj                           415      0         0      
       PDIcheck.obj                            370      2         7      
       U8istream.obj                           282      0         0      
       Endian3.obj                             152      90        35     
       Endian16_big.obj                        207      36        0      
       Vref.obj                                193      0         0      
       Endian16_little.obj                     138      39        0      
       Memmgr_c2000.obj                        134      0         25     
       Ttime.obj                               148      0         8      
       Endian64_little.obj                     97       39        0      
       Endian64_big.obj                        97       36        0      
       Endian32_little.obj                     86       39        0      
       Timeout.obj                             125      0         0      
       Endian32_big.obj                        86       36        0      
       Vstring.obj                             121      0         0      
       Rvar.obj                                103      0         0      
       Error.obj                               100      0         0      
       U8pkmblock.obj                          88       0         0      
       Bitutils.obj                            51       33        0      
       Atunarray.obj                           81       0         0      
       Real16.obj                              80       0         0      
       Bvar.obj                                75       0         0      
       Allocator.obj                           73       0         0      
       U16stream_r.obj                         69       0         0      
       Bitmblock.obj                           53       0         0      
       Uvar.obj                                52       0         0      
       Mutex.obj                               42       0         0      
       Tmem.obj                                30       0         0      
       Dsync.obj                               24       0         2      
       Chrono.obj                              22       0         0      
       Rfun.obj                                22       0         0      
       Memcpy32.obj                            11       0         0      
    +--+---------------------------------------+--------+---------+---------+
       Total:                                  6054     358       77     
                                                                         
    C:/Emb7.3.269/Amazon-PrimeAir/items/ASTRO/items/sw/sw_Astro/items/_sw_Veronte/items/_Vlibs/geomodel/code/project/vpgen_ccs/2838x/geomodel.lib
       Apos.obj                                607      115       6      
       Gellipsoid.obj                          546      0         0      
       Fmemcmd.obj                             240      35        0      
       Geomodel.obj                            232      0         0      
       Fidcache.obj                            221      0         0      
       Rpos.obj                                76       0         0      
       Tecef.obj                               18       0         0      
    +--+---------------------------------------+--------+---------+---------+
       Total:                                  1940     150       6      
                                                                         
    C:/Emb7.3.269/Amazon-PrimeAir/items/ASTRO/items/sw/sw_Astro/items/_sw_Veronte/items/_Vlibs/maverick/code/project/vpgen_ccs/2838x/maverick.lib
       Irmatrix3.obj                           1532     0         0      
       Irquat.obj                              829      0         0      
       Irvector3.obj                           353      0         0      
       Moving_average.obj                      118      0         0      
       Rvector.obj                             117      0         0      
       Notch_cfg.obj                           57       0         0      
       Nllpfcfg.obj                            56       0         0      
       Rmatrix.obj                             30       0         0      
       IIR_2cfg.obj                            16       0         0      
       Rvector3.obj                            16       0         0      
       Notch_lpf_cfg.obj                       14       0         0      
    +--+---------------------------------------+--------+---------+---------+
       Total:                                  3138     0         0      
                                                                         
    C:/Emb7.3.269/Amazon-PrimeAir/items/ASTRO/items/sw/sw_Astro/items/_sw_Veronte/items/_Vlibs/media/code/project/vpgen_ccs/2838x/media.lib
       Cfgmgr.obj                              5385     716       2      
       Fstrfast.obj                            784      84        0      
       Cfgcrc_async.obj                        166      0         0      
       Updatable_null.obj                      48       80        3      
       Cfgcrcpub.obj                           86       31        0      
       PDI_loader.obj                          97       0         0      
    +--+---------------------------------------+--------+---------+---------+
       Total:                                  6566     911       5      
                                                                         
    C:/Emb7.3.269/Amazon-PrimeAir/items/ASTRO/items/sw/sw_Astro/items/_sw_Veronte/items/_Vlibs/midlevel/code/project/vpgen_ccs/2838x/midlevel.lib
       Irxfw.obj                               1235     131       13     
       Sys_status_mgr.obj                      931      102       8      
       Cy_msg_id_gen.obj                       223      43        2      
       Stanag_cyphal_wrap.obj                  176      88        0      
       Errors_irx.obj                          164      54        0      
       CyphalStanag_rx_hnd.obj                 93       61        0      
       Default_cfg.obj                         128      8         0      
       Xstanag_notifier.obj                    85       42        0      
       CAN_term_cfg.obj                        80       38        0      
       CyphalStanag_tx_hnd.obj                 68       49        0      
       Synchronized_time.obj                   94       0         0      
       Radio_sync_cfg.obj                      90       0         0      
       Monotonic_time.obj                      55       0         0      
    +--+---------------------------------------+--------+---------+---------+
       Total:                                  3422     616       23     
                                                                         
    C:/Emb7.3.269/Amazon-PrimeAir/items/ASTRO/items/sw/sw_Astro/items/_sw_Veronte/items/_Vlibs/stanag/code/project/vpgen_ccs/2838x/stanag.lib
       Vehicle_identifier_cfg.obj              301      0         0      
       Acknowledgement.obj                     208      57        0      
       Stanag_msg_cfgs.obj                     177      2         0      
       Stanag_status_msgs.obj                  30       102       2      
       Fstgcfg.obj                             119      0         0      
       Stanag_msg_push_pkt.obj                 65       51        0      
       Stanag_ack_mgr.obj                      98       0         0      
       Stanag_pulling.obj                      68       0         0      
       U8istream_pvec.obj                      61       0         0      
       Subsystem_status.obj                    32       0         0      
       IStanag_msg_push.obj                    13       0         0      
       IStanag_msg_pull.obj                    10       0         0      
    +--+---------------------------------------+--------+---------+---------+
       Total:                                  1182     212       2      
                                                                         
    C:/Emb7.3.269/Amazon-PrimeAir/items/ASTRO/items/sw/sw_Astro/items/_sw_Veronte/items/_Vlibs/ti/code/crypto/project/vpgen_ccs/2838x/crypto_c28.lib
       sha256_casm_C28.obj                     584      0         32     
       sha256.obj                              356      128       0      
       Compute_hash.obj                        87       54        0      
    +--+---------------------------------------+--------+---------+---------+
       Total:                                  1027     182       32     
                                                                         
    C:/Emb7.3.269/Amazon-PrimeAir/items/ASTRO/items/sw/sw_Astro/items/_sw_Veronte/items/_Vlibs/ti/code/dsp/FPU/project/vpgen_ccs/2838x/FPU.lib
       rnd_SP_RS.obj                           22       0         0      
       memcpy_fast.obj                         7        0         0      
       memset_fast.obj                         6        0         0      
    +--+---------------------------------------+--------+---------+---------+
       Total:                                  35       0         0      
                                                                         
    C:/ti/ccs920/ccs/tools/compiler/ti-cgt-c2000_22.6.2.LTS/lib/rts2800_fpu64_eabi.lib
       e_pow.c.obj                             1399     24        0      
       k_rem_pio2.c.obj                        1116     168       0      
       e_powf.c.obj                            921      12        0      
       e_rem_pio2.c.obj                        711      0         0      
       memory.c.obj                            664      0         3      
       typeinfo.c.obj                          79       330       2      
       s_atan.c.obj                            327      76        0      
       vec_newdel.c.obj                        367      0         0      
       e_atan2.c.obj                           364      0         0      
       s_expm1f.c.obj                          361      0         0      
       e_expf.c.obj                            285      12        0      
       s_floor.c.obj                           217      0         0      
       e_asinf.c.obj                           200      16        0      
       s_scalbn.c.obj                          160      0         0      
       k_sin.c.obj                             139      0         0      
       fs_div28.asm.obj                        136      0         0      
       dtor_list.c.obj                         125      0         4      
       k_cos.c.obj                             119      0         0      
       s_cos.c.obj                             111      0         0      
       s_sin.c.obj                             107      0         0      
       s_scalbnf.c.obj                         89       0         0      
       autoinit.c.obj                          65       0         0      
       cpy_tbl.c.obj                           48       0         0      
       exit.c.obj                              41       0         6      
       copy_decompress_lzss.c.obj              46       0         0      
       e_sqrt.c.obj                            43       0         0      
       s_copysign.c.obj                        40       0         0      
       e_sqrtf.c.obj                           39       0         0      
       i_div28.asm.obj                         34       0         0      
       new.c.obj                               33       0         0      
       ll_cmp28.asm.obj                        30       0         0      
       memcpy.c.obj                            29       0         0      
       boot28.asm.obj                          25       0         0      
       s_fabs.c.obj                            25       0         0      
       ll_aox28.asm.obj                        24       0         0      
       ll_mpy28.asm.obj                        20       0         0      
       s_copysignf.c.obj                       17       0         0      
       _lock.c.obj                             9        0         4      
       args_main.c.obj                         12       0         0      
       guard.c.obj                             11       0         0      
       copy_decompress_none.c.obj              8        0         0      
       memset.c.obj                            7        0         0      
       copy_zero_init.c.obj                    6        0         0      
       delete.c.obj                            5        0         0      
       pure_virt.c.obj                         4        0         0      
       error.c.obj                             3        0         0      
       vars.c.obj                              0        0         2      
       errno.c.obj                             0        0         1      
       newhandler.c.obj                        1        0         0      
       placenew.c.obj                          1        0         0      
    +--+---------------------------------------+--------+---------+---------+
       Total:                                  8623     638       22     
                                                                         
       Heap:                                   0        0         4      
       Stack:                                  0        0         4096   
       Linker Generated:                       0        151       0      
    +--+---------------------------------------+--------+---------+---------+
       Grand Total:                            120543   21501     1558161


LINKER GENERATED COPY TABLES

__TI_cinit_table @ 000a2a52 records: 6, size/record: 4, table size: 24
	.data: load addr=000a2a18, load size=00000019 bytes, run addr=002cabc6, run size=00000032 bytes, compression=lzss
	RTS_data: load addr=000a2a31, load size=0000000b bytes, run addr=00009060, run size=00000010 bytes, compression=lzss
	.bss: load addr=000a2a42, load size=00000004 bytes, run addr=002ca380, run size=00000845 bytes, compression=zero_init
	MEMMGR_EXT: load addr=000a2a46, load size=00000004 bytes, run addr=00153360, run size=00177000 bytes, compression=zero_init
	MEMMGR_INT: load addr=000a2a4a, load size=00000004 bytes, run addr=00009070, run size=00003e00 bytes, compression=zero_init
	RTS_bss: load addr=000a2a4e, load size=00000004 bytes, run addr=0000ce70, run size=00000006 bytes, compression=zero_init
binit @ 000a2aa8 records: 1, size/record: 6, table size: 8
	.TI.ramfunc: load addr=000a2a6a, load size=0000003d, run addr=00009000, run size=00000040, compression=lzss


LINKER GENERATED HANDLER TABLE

__TI_handler_table @ 000a2a3c records: 3, size/record: 2, table size: 6
	index: 0, handler: __TI_zero_init
	index: 1, handler: __TI_decompress_lzss
	index: 2, handler: __TI_decompress_none


GLOBAL DATA SYMBOLS: SORTED BY DATA PAGE

address     data page           name
--------    ----------------    ----
00008000     200 (00008000)     __stack

00009060     241 (00009040)     __TI_enable_exit_profile_output
00009062     241 (00009040)     __TI_cleanup_ptr
00009064     241 (00009040)     __TI_dtors_ptr
00009066     241 (00009040)     _lock
00009068     241 (00009040)     _unlock
0000906c     241 (00009040)     _new_handler
0000906e     241 (00009040)     errno
00009070     241 (00009040)     _ZN7Project14memmgr_int_bufE

0000ce70     339 (0000ce40)     __dso_handle
0000ce74     339 (0000ce40)     _ZSt16__dummy_typeinfo
0000ce76     339 (0000ce40)     _sys_memory

00080004    2000 (00080000)     _ZN4Base16App_blr_hdr_instILm1556335341ELm524288ELN3Bsp6SysappE3ELh1EE8instanceE

0009d6d8    275b (0009d6c0)     _ZN4Base11CRC32_table5tableE

0009d8d8    2763 (0009d8c0)     _ZTSN10__cxxabiv123__fundamental_type_infoE

0009d900    2764 (0009d900)     _ZN9Pa_blocks10Nav_params2Ic2Ud1UE

0009dac2    276b (0009dac0)     _ZTSN3Geo31_GLOBAL__N__8_Apos_cpp_ad6fc63620Height_computer_nullE

0009db00    276c (0009db00)     _ZN9Pa_blocks10Nav_params21trigger_cov_prop_rec0E
0009db01    276c (0009db00)     _ZN9Pa_blocks10Nav_params20trigger_cov_prop_monE
0009db02    276c (0009db00)     _ZN9Pa_blocks10Nav_params22trigger_cov_prop_splitE
0009db03    276c (0009db00)     _ZN9Pa_blocks10Nav_params27trigger_state_estimate_rec0E
0009db04    276c (0009db00)     _ZN9Pa_blocks10Nav_params26trigger_state_estimate_monE
0009db05    276c (0009db00)     _ZN9Pa_blocks10Nav_params26trigger_input_heading_rec0E
0009db06    276c (0009db00)     _ZN9Pa_blocks10Nav_params25trigger_input_heading_monE
0009db07    276c (0009db00)     _ZN9Pa_blocks10Nav_params2Ic7Navinit4biasE
0009db08    276c (0009db00)     _ZN9Pa_blocks10Nav_params2Ic7Navinit4gnssE
0009db09    276c (0009db00)     _ZN9Pa_blocks10Nav_params2Ic7Navinit7headingE
0009db0a    276c (0009db00)     _ZN9Pa_blocks10Nav_params2Ic7Navinit5lidarE
0009db0b    276c (0009db00)     _ZN9Pa_blocks10Nav_params2Ic22Navintrospectestimator9On_ground7cmd_velE
0009db0c    276c (0009db00)     _ZN9Pa_blocks10Nav_params2Ic22Navintrospectestimator9On_ground4landE
0009db0d    276c (0009db00)     _ZN9Pa_blocks10Nav_params2Ic22Navintrospectestimator9On_ground10pseudojerkE
0009db0e    276c (0009db00)     _ZN9Pa_blocks10Nav_params2Ic22Navintrospectestimator13State_nominal19Aiding_sensors_info12Dyn_pressure7healthyE
0009db0f    276c (0009db00)     _ZN9Pa_blocks10Nav_params2Ic22Navintrospectestimator13State_nominal19Aiding_sensors_info8Gnss_pos7healthyE
0009db10    276c (0009db00)     _ZN9Pa_blocks10Nav_params2Ic22Navintrospectestimator13State_nominal19Aiding_sensors_info8Gnss_vel7healthyE
0009db11    276c (0009db00)     _ZN9Pa_blocks10Nav_params2Ic22Navintrospectestimator13State_nominal19Aiding_sensors_info5Lidar7healthyE
0009db12    276c (0009db00)     _ZN9Pa_blocks10Nav_params2Ic22Navintrospectestimator13State_nominal19Aiding_sensors_info15Static_pressure7healthyE
0009db13    276c (0009db00)     _ZN9Pa_blocks10Nav_params2Ic22Navintrospectestimator13State_nominal10Nav_status9agl_validE
0009db14    276c (0009db00)     _ZN9Pa_blocks10Nav_params2Ic22Navintrospectestimator13State_nominal10Nav_status19horiz_channel_validE
0009db15    276c (0009db00)     _ZN9Pa_blocks10Nav_params2Ic22Navintrospectestimator13State_nominal10Nav_status13imu_saturatedE
0009db16    276c (0009db00)     _ZN9Pa_blocks10Nav_params2Ic22Navintrospectestimator13State_nominal10Nav_status22in_imu_saturation_modeE
0009db17    276c (0009db00)     _ZN9Pa_blocks10Nav_params2Ic22Navintrospectestimator13State_nominal10Nav_status11initializedE
0009db18    276c (0009db00)     _ZN9Pa_blocks10Nav_params2Ic22Navintrospectestimator13State_nominal10Nav_status22need_reset_gnss_posvelE
0009db19    276c (0009db00)     _ZN9Pa_blocks10Nav_params2Ic22Navintrospectestimator13State_nominal10Nav_status18vert_channel_validE
0009db1a    276c (0009db00)     _ZN9Pa_blocks10Nav_params2Ic22Navintrospectestimator13State_nominal13Timesync_info37ptp_gps_minus_monotonic_latched_validE
0009db1b    276c (0009db00)     _ZN9Pa_blocks10Nav_params2Ic22Navintrospectestimator13State_nominal13Timesync_info36soc_gps_minus_monotonic_moving_validE
0009db1c    276c (0009db00)     _ZN9Pa_blocks10Nav_params2Ic9Navstatus9agl_validE
0009db1d    276c (0009db00)     _ZN9Pa_blocks10Nav_params2Ic9Navstatus19horiz_channel_validE
0009db1e    276c (0009db00)     _ZN9Pa_blocks10Nav_params2Ic9Navstatus13imu_saturatedE
0009db1f    276c (0009db00)     _ZN9Pa_blocks10Nav_params2Ic9Navstatus22in_imu_saturation_modeE
0009db20    276c (0009db00)     _ZN9Pa_blocks10Nav_params2Ic9Navstatus11initializedE
0009db21    276c (0009db00)     _ZN9Pa_blocks10Nav_params2Ic9Navstatus22need_reset_gnss_posvelE
0009db22    276c (0009db00)     _ZN9Pa_blocks10Nav_params2Ic9Navstatus18vert_channel_validE
0009db23    276c (0009db00)     _ZN9Pa_blocks10Nav_params2Ic9Navstatus14need_reset_aglE
0009db24    276c (0009db00)     _ZN9Pa_blocks10Nav_params2Ic8Onground7cmd_velE
0009db25    276c (0009db00)     _ZN9Pa_blocks10Nav_params2Ic8Onground7low_aglE
0009db26    276c (0009db00)     _ZN9Pa_blocks10Nav_params2Ic8Onground10pseudojerkE
0009db27    276c (0009db00)     _ZN9Pa_blocks10Nav_params2Ic8Onground10roll_pitchE
0009db28    276c (0009db00)     _ZN9Pa_blocks10Nav_params2Ic8Onground8vel_highE
0009db29    276c (0009db00)     _ZN9Pa_blocks10Nav_params2Ic8Onground10vel_mediumE
0009db2a    276c (0009db00)     _ZN9Pa_blocks10Nav_params2Ic8Onground13imu_saturatedE
0009db2b    276c (0009db00)     _ZN9Pa_blocks10Nav_params2Ic13Stateestimate9on_groundE
0009db2c    276c (0009db00)     _ZN9Pa_blocks10Nav_params2Ic13Stateestimate6Status11initializedE
0009db2d    276c (0009db00)     _ZN9Pa_blocks10Nav_params2Ic12Statenominal23lidar_consistency_countE
0009db2e    276c (0009db00)     _ZN9Pa_blocks10Nav_params2Ic12Statenominal19Aiding_sensors_info12Dyn_pressure7healthyE
0009db2f    276c (0009db00)     _ZN9Pa_blocks10Nav_params2Ic12Statenominal19Aiding_sensors_info8Gnss_pos7healthyE
0009db30    276c (0009db00)     _ZN9Pa_blocks10Nav_params2Ic12Statenominal19Aiding_sensors_info8Gnss_vel7healthyE
0009db31    276c (0009db00)     _ZN9Pa_blocks10Nav_params2Ic12Statenominal19Aiding_sensors_info5Lidar7healthyE
