******************************************************************************
             TMS320C2000 Linker PC v22.6.2                     
******************************************************************************
>> Linked Thu Oct 23 10:52:11 2025

OUTPUT FILE NAME:   <1x_cpu1_pam.out>
ENTRY POINT SYMBOL: "_c_int00"  address: 000ae9eb


MEMORY CONFIGURATION

         name            origin    length      used     unused   attr    fill
----------------------  --------  ---------  --------  --------  ----  --------
PAGE 0:
  RAMLS_PRG             00008000   00000040  00000040  00000000  RWIX
  BOOTLOADER_RSV        00080000   00010000  00000000  00010000  RWIX
  APP_BEGIN             00090000   00000004  00000002  00000002  RWIX
  APP_BLDR_HDR          00090004   00000034  00000034  00000000  RWIX
  FLASH_PRG             00090038   0002ffc8  0002680c  000097bc  RWIX

PAGE 1:
  BOOT_RSVD             00000000   00000010  00000000  00000010  RWIX
  RAMM                  00000010   000007f0  00000460  00000390  RWIX
  STACK                 00008040   00001000  00001000  00000000  RWIX
  IRAM                  00009040   000128f0  00011f7e  00000972  RWIX
  DMABUF                0001b930   00000150  0000013c  00000014  RWIX
  XCCPU1                0001ba80   00001580  00001492  000000ee  RWIX
  CMTOCPURAM            00038000   00000800  00000000  00000800  RWIX
  CPUTOCMRAM            00039000   00000800  0000044c  000003b4  RWIX
  CPU1TOCPU2RAM         0003a000   00000800  00000800  00000000  RWIX
  CPU2TOCPU1RAM         0003b000   00000800  00000000  00000800  RWIX
  XCCPU2                00100000   0005335e  00031678  00021ce6  RWIX
  ERAM_CPU2             0015335e   001acca2  00000000  001acca2  RWIX


SECTION ALLOCATION MAP

 output                                  attributes/
section   page    origin      length       input sections
--------  ----  ----------  ----------   ----------------
.TI.ramfunc 
*          0    00008000    00000040     UNINITIALIZED
                  00008000    00000039     DSP2837x_ent.lib : Flash_2837x.obj (.text:_ZN12Dsp28335_ent5Flash4initEv)
                  00008039    00000007     DSP28x.lib : DSP28x_DisInt.obj (.TI.ramfunc)

codestart 
*          0    00090000    00000002     
                  00090000    00000002     DSP28x_CodeStartBranch.obj (codestart)

.const:*App_blr_hdr_inst*instance* 
*          0    00090004    00000034     
                  00090004    00000034     main_cpu1.obj (.const:_ZN4Base16App_blr_hdr_instILm1858909791ELm458752ELN3Bsp6SysappE3ELh0EE8instanceE)

.text      0    00090038    00021c2f     
                  00090038    000009e9     veronte.lib : Veronte.obj (.text:_ZN3Ver7VeronteC1ERN4DFS27DFS2_fsERN4Base7SessionE)
                  00090a21    00000890                 : Halsuite.obj (.text:_ZN3Ver8HalsuiteC1Ev)
                  000912b1    000005b5                 : Halsuite_amz.obj (.text:_ZN3Ver12Halsuite_amzC1Ev)
                  00091866    0000045d                 : Rtaskio_amz.obj (.text:_ZN3Ver7Rtaskio13Rtaskio_pimplC1ERN4Base11ImsgcheckerERNS_11DevsimsuiteERN6Stanag14Stanag_msg_mgrERN8Midlevel6CmdmgrERNS2_10Pkt_routerERNSA_8SysresetE)
                  00091cc3    00000423     devices.lib : Adis165053.obj (.text:_ZN7Devices10Adis1650535step0Ev)
                  000920e6    0000039a     stanag.lib : Stanag_suite.obj (.text:_ZN6Stanag12Stanag_suiteC1ERN4Base7StepmgrERNS1_14Irouting_tableERNS1_9IcomstatsEjRKNS_22Vehicle_identifier_cfgERVNS1_8Address0ERNS1_16IAddress_handlerERNS1_13Istg_msg_rcvdERNS1_7TnarrayINS1_15Auth_connectionELm5EEE)
                  00092480    00000399     rts2800_fpu64_eabi.lib : e_powf.c.obj (.text)
                  00092819    0000034f     veronte.lib : Xpccansuite.obj (.text:_ZN3Ver11XpccansuiteC1ERN12Dsp28335_ent6CAN_FDERNS1_3CANES5_RN4Base11ImsgcheckerERNS6_5IFMCPESA_RN6Cyphal12Cyphal_suiteE)
                  00092b68    000002df     media.lib : Logctrl.obj (.text:_ZN5Media7Logctrl17cache_index_asyncEv)
                  00092e47    000002d0     base.lib : Fmsgconsumer.obj (.text:_ZN4Base12Fmsgconsumer4stepERNS_7FMCPmgrE)
                  00093117    000002cd              : Field.obj (.text:_ZNK4Base5Field10uncompressERNS_11Lossy_errorERNS_4IsetERKNS_4IgetE)
                  000933e4    000002be              : Field.obj (.text:_ZN4Base5Field4csetERNS_11Lossy_errorE)
                  000936a2    00000279     midlevel.lib : CyphalCAN_out.obj (.text:_ZN6Cyphal13CyphalCAN_out4readERN4Base8CANframeE)
                  0009391b    00000274     veronte.lib : Xpcu8suite.obj (.text:_ZN3Ver10Xpcu8suiteC1ERN4Base5IFMCPES3_S3_RNS_8DevsuiteERNS_11XpccansuiteERNS1_11ImsgcheckerERN6Stanag14Stanag_msg_mgrERN6Cyphal12Cyphal_suiteE)
                  00093b8f    00000262                 : Halsuite_bits_amz.obj (.text:_ZN3Ver45_GLOBAL__N__21_Halsuite_bits_amz_cpp_4018dca910Bitshelper7computeEv)
                  00093df1    00000248     crypto_c28.lib : sha256_casm_C28.obj (.text)
                  00094039    00000244     devices.lib : Adis165053.obj (.text:_ZN7Devices10Adis1650538set_dataERKN4Base6MblockIjEERNS1_15Imu_output_dataE)
                  0009427d    00000229     base.lib : Fmsgproducer.obj (.text:_ZN4Base12Fmsgproducer4readERh)
                  000944a6    00000204     veronte.lib : Veronte_amz.obj (.text:_ZN3Ver7Veronte13Veronte_pimplC1ERS0_)
                  000946aa    000001e6                 : Devsimsuite.obj (.text:_ZN3Ver11Devsimsuite4csetERN4Base5LossyE)
                  00094890    000001dd     DFS2.lib : DSF2_file.obj (.text:_ZN4DFS24File11write_asyncERKN4Base12U8pkmblock_kERm)
                  00094a6d    000001d7     midlevel.lib : CyphalCAN_in.obj (.text:_ZN6Cyphal12CyphalCAN_in5writeERKN4Base8CANframeE)
                  00094c44    000001bf     pa_blocks.lib : Fifo_imu.obj (.text:_ZN9Pa_blocks8Fifo_imu6Writer4stepEv)
                  00094e03    000001b4     veronte.lib : Xpccansuite.obj (.text:_ZN4Base12FcanconsumerINS_8Xcfg_desINS_15Xfmsgcanc0arrayILj0ELj0EEENS_9Tuntraits15Arraytun_size16INS4_9Cset_onlyINS_10Xfmsgcanc0ILj0EEEEES3_NS4_8No_checkIS3_EEEEEEE5writeERKNS_8CANframeE)
                  00094fb7    000001b2     midlevel.lib : Comstats.obj (.text:_ZN8Midlevel8Comstats4stepEv)
                  00095169    000001b1                  : Cy_soft_conf_check.obj (.text:_ZN6Cyphal18Cy_soft_conf_check22Cy_soft_check_response4cgetERN4Base9U8ostreamE)
                  0009531a    000001a9     veronte.lib : Xcd.obj (.text:_ZN3Ver2Xc8Xcd_cpu24initERVKNS0_8Xcd_cpu1E)
                  000954c3    000001a5     stanag.lib : Auth_request.obj (.text:_ZN6Stanag12Auth_request5on_rxERNS_14IStanag_msg_rx9Rx_paramsE)
                  00095668    000001a3     base.lib : Field.obj (.text:_ZNK4Base5Field8compressERNS_5LossyERKNS_4IgetE)
                  0009580b    0000019d     stanag.lib : Alert_msg.obj (.text:_ZN6Stanag9Alert_msg5on_txERNS_14IStanag_msg_tx9Tx_paramsE)
                  000959a8    0000019b     veronte.lib : Licmgr.obj (.text:_ZN3Ver6Licmgr5checkEv)
                  00095b43    00000196                 : Devsuite_amz.obj (.text:_ZN3Ver8Devsuite13Devsuite_privC1ERNS_11DevsimsuiteERN4Base6IcmdfwERN6Cyphal13Cyphal_tx_mgrE)
                  00095cd9    00000183     DSP2838x_ent.lib : pmbus.obj (.text:PMBus_configBusClock)
                  00095e5c    0000017d     stanag.lib : Auth_handover_req.obj (.text:_ZN6Stanag17Auth_handover_req5on_rxERNS_14IStanag_msg_rx9Rx_paramsE)
                  00095fd9    00000175     media.lib : Filecom.obj (.text:_ZN5Media7Filecom5on_rxERN6Stanag14IStanag_msg_rx9Rx_paramsE)
                  0009614e    00000171     veronte.lib : Rtaskio.obj (.text:_ZN3Ver7RtaskioC1ERN8Midlevel6CmdmgrERN4Base11ImsgcheckerERbRN6Stanag14Stanag_msg_mgrERNS4_10Pkt_routerERNS1_8SysresetE)
                  000962bf    0000016f     rts2800_fpu64_eabi.lib : vec_newdel.c.obj (.text)
                  0009642e    0000016d     veronte.lib : Logbook.obj (.text:_ZN3Ver7Logbook4stepEv)
                  0009659b    00000169     DSP2837x_ent.lib : CAN.obj (.text:_ZN12Dsp28335_ent3CAN6configERKNS_6CANcfgE)
                  00096704    00000167     base.lib : Xclogsvc.obj (.text:_ZN4Base8Xclogsvc5writeEv)
                  0009686b    0000015c     devices.lib : ADC121C021Q.obj (.text:_ZN7Devices11ADC121C021Q7do_stepEv)
                  000969c7    00000159     veronte.lib : Devsimsuite.obj (.text:_ZN3Ver11DevsimsuiteC1EffffffN7Devices9Sim_noise9NoiseTypeE)
                  00096b20    00000157                 : Veronte_dsp.obj (.text:_ZN3Ver7Veronte14boot_mode_initEb)
                  00096c77    00000156     DSP2838x_ent.lib : CAN_FD_ioctl.obj (.text:_ZN12Dsp28335_ent13config_memoryEm)
                  00096dcd    00000155     veronte.lib : Ubxdev.obj (.text:_ZN3Ver6Ubxdev11publish_PVTERKN7Devices3Ubx6UbxpvtE)
                  00096f22    00000151     Vmain_cpu1.obj (.text:_ZN7Project10Vmain_cpu115publish_cm_varsEv)
                  00097073    0000014e     base.lib : Field_cfg.obj (.text:_ZNK4Base9Field_cfg8Checksum5putckENS_6CktypeERNS_5LossyE)
                  000971c1    0000014b     DSP2838x_ent.lib : PLL_2838x.obj (.text:_ZN12Dsp28335_ent3PLL12pll_sys_initEv)
                  0009730c    00000149     devices.lib : MX66L.obj (.text:_ZN7Devices5MX66L18write_sector_endedEv)
                  00097455    00000147     DSP2837x_ent.lib : ADC.obj (.text:_ZN12Dsp28335_ent3ADC4initENS0_9Vref_typeE)
                  0009759c    00000146     midlevel.lib : Cmdmgr.obj (.text:_ZN8Midlevel6Cmdmgr9on_rx_pktERN6Stanag14IStanag_rx_pkt6ParamsE)
                  000976e2    00000144     DFS2.lib : DSF2_file.obj (.text:_ZN4DFS24File10read_asyncERN4Base10U8pkmblockERm)
                  00097826    00000141     media.lib : Logctrl.obj (.text:_ZN5Media7Logctrl5writeERKN4Base9KfieldsetERKNS1_12U8pkmblock_kERm)
                  00097967    0000013e     DFS2.lib : DSF2_file.obj (.text:_ZN4DFS24File10open_asyncEN4Base5Ifile3UidENS2_9Open_modeE)
                  00097aa5    0000013b     devices.lib : Adis165053.obj (.text:_ZN7Devices10Adis165053C1ERN4Base10Itport_blkIjjEERN12Dsp28335_ent4GPIOES7_RVbRKNS_10Imu_paramsERVjRNS1_5IGpioEbNS0_9Adis_typeE)
                  00097be0    00000135     midlevel.lib : Cyphal_tx_mgr.obj (.text:_ZN6Cyphal13Cyphal_tx_mgr4sendERN4Base5EspktE)
                  00097d15    00000132     stanag.lib : Auth_handover_grant.obj (.text:_ZN6Stanag19Auth_handover_grant5on_rxERNS_14IStanag_msg_rx9Rx_paramsE)
                  00097e47    00000130     DSP2837x_ent.lib : DMA.obj (.text:_ZN12Dsp28335_ent3DMA6configERKNS_6DMAcfgE)
                  00097f77    0000012f     stanag.lib : Stanag_msg_mgr.obj (.text:_ZN6Stanag14Stanag_msg_mgr4stepERNS_8Msg_fifoERN4Base3MapINS3_15Stanag_msg_type8Msg_typeEPNS_14IStanag_msg_txEEEjRj)
                  000980a6    0000012e     pa_blocks.lib : Cy_maint_dcomms.obj (.text:_ZN9Pa_blocks15Cy_maint_dcomms13processed_reqEv)
                  000981d4    0000012d     midlevel.lib : Cy_soft_conf_check.obj (.text:_ZN6Cyphal18Cy_soft_conf_check22Cy_soft_check_response17get_hw_rev_stringERN4Base7VstringEb)
                  00098301    0000012c                  : Secure_CAN.obj (.text:_ZN7Devices10Secure_CAN13configure_canERNS_8ICAN_drvERKN4Base11TnarrayreszINS0_3CmdELm6EEE)
                  0009842d    0000012c     rts2800_fpu64_eabi.lib : e_logf.c.obj (.text)
                  00098559    0000012b     pa_blocks.lib : Cyphal_com_stats.obj (.text:_ZN9Pa_blocks16Cyphal_com_stats7step_hiEv)
                  00098684    00000120     veronte.lib : Pfields.obj (.text:_ZN3Ver7Pfields14restore_fieldsEv)
                  000987a4    00000117     DSP2838x_ent.lib : CAN_FD_ioctl.obj (.text:_ZN12Dsp28335_ent9init_mcanEmbb)
                  000988bb    00000116     DSP2837x_ent.lib : CAN.obj (.text:_ZN12Dsp28335_ent3CAN5writeERKN4Base8CANframeE)
                  000989d1    00000116     DSP2838x_ent.lib : CAN_FD.obj (.text:_ZN12Dsp28335_ent6CAN_FD5writeERKN4Base8CANframeE)
                  00098ae7    00000111     veronte.lib : Rtaskio.obj (.text:_ZN3Ver7Rtaskio4stepEv)
                  00098bf8    00000110                 : Devsuite_amz.obj (.text:_ZN3Ver8DevsuiteC1ERNS_11DevsimsuiteERN4Base6IcmdfwEPN6Cyphal13Cyphal_tx_mgrE)
                  00098d08    0000010f     media.lib : Filecom.obj (.text:_ZN5Media7FilecomC1ERNS_13IfspermissionERN4Base11Imsg_senderEjm)
                  00098e17    0000010f     midlevel.lib : Sysreset.obj (.text:_ZN8Midlevel8Sysreset5on_rxERN6Stanag14IStanag_msg_rx9Rx_paramsE)
                  00098f26    00000103     DFS2.lib : File_descr.obj (.text:_ZN4DFS210File_descr4csetERN4Base9U8istreamE)
                  00099029    00000103     midlevel.lib : Cmdmgr.obj (.text:_ZN8Midlevel6Cmdmgr10fw_commandEhN4Base3Cfg2IdERKNS1_8ItunableE)
                  0009912c    00000102     maverick.lib : Biquad_notch_lpf_3d.obj (.text:_ZN8Maverick19Biquad_notch_lpf_3d4stepERNS_9Irvector3E)
                  0009922e    00000102     base.lib : Field.obj (.text:_ZNK4Base5Field4cgetERNS_5LossyE)
                  00099330    00000101     Vmain_cpu1.obj (.text:_ZN7Project10Vmain_cpu14stepEv)
                  00099431    00000100     veronte.lib : Arbiter.obj (.text:_ZN3Ver7ArbiterC1Ev)
                  00099531    00000100                 : Xpccansuite.obj (.text:_ZN4Base12FcanproducerINS_8Xcfg_desINS_15Xfmsgcanp0arrayILj0EEENS_9Tuntraits10DesdefaultIS3_EEEEE7read_txERNS_8CANframeE)
                  00099631    000000ff     DSP2838x_ent.lib : FSI_tx.obj (.text:_ZN12Dsp28335_ent6FSI_txC1ENS0_6ParamsE)
                  00099730    000000fd     base.lib : Fstr.obj (.text:_ZN4Base4Fstr6sampleERKNS_6TdsyncINS_8FstrbaseENS_12Tdsynctraits11Rd_blockingIS2_NS_8Cptraits6PodrawIVS2_EEEENS3_15Disabled_structEE7Rdsafe0E)
                  0009982d    000000f9     veronte.lib : Ubxdev.obj (.text:_ZN3Ver6Ubxdev7set_posEbmRKN4Base4TllhERKNS1_7TnarrayIfLm3EEE)
                  00099926    000000f9     stanag.lib : Auth_response.obj (.text:_ZN6Stanag13Auth_response5on_txERNS_14IStanag_msg_tx9Tx_paramsE)
                  00099a1f    000000f7     DSP2838x_ent.lib : FSI_rx.obj (.text:_ZN12Dsp28335_ent6FSI_rxC1ERKNS0_6ParamsE)
                  00099b16    000000f7     main_cpu1.obj (.text:main)
                  00099c0d    000000f5     DSP2838x_ent.lib : CAN_FD.obj (.text:_ZN12Dsp28335_ent6CAN_FD4readERN4Base8CANframeE)
                  00099d02    000000f5     veronte.lib : Xpcu8suite.obj (.text:_ZN4Base3XpcIN3Ver11Xpcu8_traitEE6configERKNS_11TnarrayreszINS_7Xpcmap0ELm45EEE)
                  00099df7    000000f1     DSP2837x_ent.lib : Mcbsp.obj (.text:_ZN12Dsp28335_ent5Mcbsp6configERKNS_6SPIcfgE)
                  00099ee8    000000f1     Vmain_cpu1.obj (.text:_ZN7Project10Vmain_cpu1C1Ev)
                  00099fd9    000000ef     veronte.lib : Xpccansuite.obj (.text:_ZN4Base3XpcIN3Ver15Xpccantrait_verEE6configERKNS_11TnarrayreszINS_7Xpcmap0ELm19EEE)
                  0009a0c8    000000ef     base.lib : Xcmqwr.obj (.text:_ZN4Base6Xcmqwr5writeENS_7XcmsgidERKNS_9IstrbuildE)
                  0009a1b7    000000e9     geomodel.lib : Gellipsoid.obj (.text:_ZN3Geo10Gellipsoid9ecef2geo3ERKN8Maverick9Irvector3ERN4Base4TllhE)
                  0009a2a0    000000e8     midlevel.lib : Comstats.obj (.text:_ZN8Midlevel8ComstatsC1EjRVKN4Base8Address0ERNS1_11Imsg_senderERKNS1_11TnarrayreszIPNS1_9Ipkt_portELm16EEERVNS1_3VarINS1_4RvarEE8RegarrayILSE_2000ELSE_2005EEENS1_6MblockIVfEENSK_IVjEE)
                  0009a388    000000e6     DSP2838x_ent.lib : CM_helpers.obj (.text:_ZN12Dsp28335_ent10CM_helpers13cm_init_startERKNS0_10Pinout_miiE)
                  0009a46e    000000e6     veronte.lib : Arbiter.obj (.text:_ZN3Ver7Arbiter14update_fts_fbsEv)
                  0009a554    000000e5     DSP2838x_ent.lib : CAN_FD_ioctl.obj (.text:_ZN12Dsp28335_ent17config_rx_filtersEmRKN4Base11TnarrayreszINS_6CANcfg5RxcfgELm32EEE)
                  0009a639    000000e3     midlevel.lib : Sniffer.obj (.text:_ZN8Midlevel7Sniffer5on_rxERN6Stanag14IStanag_msg_rx9Rx_paramsE)
                  0009a71c    000000e0     veronte.lib : Arbiter.obj (.text:_ZN3Ver7Arbiter4stepEv)
                  0009a7fc    000000e0     base.lib : Stanag_parser.obj (.text:_ZN4Base13Stanag_parser10parse_privEv)
                  0009a8dc    000000df     geomodel.lib : Apos.obj (.text:_ZN3Geo4Apos8move_drnERKN8Maverick9Irvector3E)
                  0009a9bb    000000dd     base.lib : Pkt_router.obj (.text:_ZN4Base10Pkt_router14packet_from_meERNS_5EspktEPKNS_9Ipkt_portE)
                  0009aa98    000000da     veronte.lib : Can4x.obj (.text:_ZN3Ver5Can4x12read_consensERN4Base8CANframeE)
                  0009ab72    000000d9     DSP28x.lib : SCI.obj (.text:_ZN12Dsp28335_ent3SCI6configERKNS_6SCIcfgE)
                  0009ac4b    000000d9     veronte.lib : Xpcu8suite.obj (.text:_ZN4Base7Fmsgmgr6configILj3ELj32ENS_12FmsgconsumerEEEPNS_5ArrayIT1_EERKNS4_6ConfigERKNS_6MblockIVKNS_14Fmsg_cfg_entryIXT0_EE4TypeEEEjNS_8ErrorsrcE)
                  0009ad24    000000d8     midlevel.lib : CyphalCAN_in.obj (.text:_ZN6Cyphal12CyphalCAN_in11send_cy_msgENS_8CyCAN_idERNS_15Cyphal_msg_dataERNS_13Cyphal_rx_mgrE)
                  0009adfc    000000d7     veronte.lib : Sysuid_cpu1_amz.obj (.text:_ZN3Bsp43_GLOBAL__N__19_Sysuid_cpu1_amz_cpp_2021f1ce11get_uid_auxEv)
                  0009aed3    000000d7     media.lib : HformatSD.obj (.text:_ZN5Media9HformatSD4csetERN4Base11Lossy_errorE)
                  0009afaa    000000d5     base.lib : Bootlog.obj (.text:_ZN4Base7Bootlog10save_asyncENS_6LoadstE)
                  0009b07f    000000d4     veronte.lib : ADCsuite.obj (.text:_ZN3Ver8ADCsuite4stepEv)
                  0009b153    000000d1                 : Xpcu8suite.obj (.text:_ZNK3Ver10Xpcu8suite12check_xpcmapEv)
                  0009b224    000000ce                 : Devsimsuite.obj (.text:_ZN3Ver11Devsimsuite17extract_noise_cfgERN4Base5LossyE)
                  0009b2f2    000000cc                 : Xpcu8suite.obj (.text:_ZN3Ver10Xpcu8suite12config_fmsgsERN4Base11ImsgcheckerE)
                  0009b3be    000000cc     media.lib : Filecom.obj (.text:_ZN5Media7Filecom9open_taskEv)
                  0009b48a    000000ca     veronte.lib : Tmsuite.obj (.text:_ZN4Base9TelemetryINS_12FtelemetryodEE5on_txERN6Stanag14IStanag_msg_tx9Tx_paramsE)
                  0009b554    000000c9     DSP2837x_ent.lib : CAN.obj (.text:_ZN12Dsp28335_ent3CAN4readERN4Base8CANframeE)
                  0009b61d    000000c9     veronte.lib : Bitmgr.obj (.text:_ZN3Ver6Bitmgr4stepEv)
                  0009b6e6    000000c9     DFS2.lib : DSF2_file.obj (.text:_ZN4DFS24File15crc_check_asyncEv)
                  0009b7af    000000c3     veronte.lib : Licmgr.obj (.text:_ZN3Ver6Licmgr9step_taskEv)
                  0009b872    000000c3     base.lib : Espkt_parser.obj (.text:_ZN4Base12Espkt_parser10parse_privEv)
                  0009b935    000000c3              : Actmgr.obj (.text:_ZN4Base6Actmgr4stepEv)
                  0009b9f8    000000c3              : Bootlog.obj (.text:_ZN4Base7Bootlog4loadEv)
                  0009babb    000000c0     DSP2837x_ent.lib : Pwmdev.obj (.text:_ZN12Dsp28335_ent6Pwmdev15set_module_freqEj)
                  0009bb7b    000000bb     veronte.lib : Tmsuite.obj (.text:_ZN4Base9TelemetryINS_12FtelemetryodEE4stepERNS_11Imsg_senderENS_15Stanag_msg_type8Msg_typeE)
                  0009bc36    000000ba     stanag.lib : Stanag_msg_mgr.obj (.text:_ZN6Stanag14Stanag_msg_mgr4sendERN4Base5EspktE)
                  0009bcf0    000000b9     midlevel.lib : Cyphal_rx_mgr.obj (.text:_ZN6Cyphal13Cyphal_rx_mgr4stepEv)
                  0009bda9    000000b8     media.lib : Logctrl.obj (.text:_ZN5Media7LogctrlC1EjRN4DFS27DFS2_fsERN4Base7SessionEfNS4_5Ifile3UidERVjSA_RVKNS4_8Address0EPNS4_5IstepE)
                  0009be61    000000b7     stanag.lib : Schedule_msg_updt.obj (.text:_ZN6Stanag17Schedule_msg_updt5on_rxERNS_14IStanag_msg_rx9Rx_paramsE)
                  0009bf18    000000b6     veronte.lib : Rtaskio_amz.obj (.text:_ZN3Ver7Rtaskio13Rtaskio_pimpl4stepEb)
                  0009bfce    000000b4     first.lib : Strutil.obj (.text:_ZN4Base7Strutil9as_stringEfhchcbcRNS_7VstringE)
                  0009c082    000000b3     maverick.lib : Notch_cfg.obj (.text:_ZNK8Maverick9Notch_cfg14compute_coeffsEfjRNS_5IIR_26CoeffsERN4Base5ErrorE)
                  0009c135    000000af     base.lib : CANout_mgr.obj (.text:_ZN4Base10CANout_mgr7step_hiEv)
                  0009c1e4    000000af              : Fstrt.obj (.text:_ZN4Base5Fstrt4stepEv)
                  0009c293    000000ae     DSP2838x_ent.lib : CAN_FD_ioctl.obj (.text:_ZN12Dsp28335_ent12CAN_FD_ioctl6configERNS_6CAN_FDERKNS_10CAN_FD_cfgE)
                  0009c341    000000ad     DSP2837x_ent.lib : GPIOioctl.obj (.text:_ZN12Dsp28335_ent9GPIOioctl5applyENS_6GPIOidERKNS_8TGPIOtunINS_9GPIOmux16EEENS0_11Core_selectE)
                  0009c3ee    000000ad     veronte.lib : Xpccansuite.obj (.text:_ZN4Base12FcanproducerINS_8Xcfg_desINS_15Xfmsgcanp0arrayILj0EEENS_9Tuntraits10DesdefaultIS3_EEEEE8read_iniERNS_8CANframeE)
                  0009c49b    000000ac     DSP2837x_ent.lib : CAN.obj (.text:_ZN12Dsp28335_ent11Regshandler13setCANBitRateEmm)
                  0009c547    000000ac     DSP28x.lib : I2Cdevice.obj (.text:_ZN12Dsp28335_ent9I2Cdevice10set_periodERKf)
                  0009c5f3    000000ac     devices.lib : Adis165053.obj (.text:_ZN7Devices10Adis1650539step_readERN4Base15Imu_output_dataE)
                  0009c69f    000000a9     veronte.lib : Bitmgr.obj (.text:_ZN3Ver6BitmgrC1ERKNS_8ADCsuiteEb)
                  0009c748    000000a9     base.lib : CANframe_fifo32.obj (.text:_ZN4Base15CANframe_fifo324readERNS_8CANframeE)
                  0009c7f1    000000a6     DFS2.lib : DFS2_fs.obj (.text:_ZN4DFS27DFS2_fs11format_partEjRKNS_9PartitionE)
                  0009c897    000000a6     pa_blocks.lib : Cy_maint_action.obj (.text:_ZN9Pa_blocks15Cy_maint_action10on_tx_implERN6Stanag14IStanag_msg_tx9Tx_paramsE)
                  0009c93d    000000a3     midlevel.lib : Cyphal_suite.obj (.text:_ZN6Cyphal12Cyphal_suiteC1ERN4Base8Imsg_mgrENS_13Cyphal_tx_mgr6ConfigES5_jjjjjjPNS_15Cyphal_msg_trigE)
                  0009c9e0    000000a3     veronte.lib : Isensimrx.obj (.text:_ZNK3Ver9Isensimrx14is_sim_enabledEv)
                  0009ca83    000000a2     media.lib : Filecom.obj (.text:_ZN5Media7Filecom9read_taskEv)
                  0009cb25    000000a1     veronte.lib : Arbiter.obj (.text:_ZN3Ver7Arbiter4initEv)
                  0009cbc6    000000a1                 : Tmsuite.obj (.text:_ZN4Base9TelemetryINS_8FvecdataINS_6TmvdatELm600ELj4EEEE5on_txERN6Stanag14IStanag_msg_tx9Tx_paramsE)
                  0009cc67    000000a1     DFS2.lib : DFS2_fs.obj (.text:_ZN4DFS27DFS2_fs4initEv)
                  0009cd08    000000a0     midlevel.lib : Sysreset.obj (.text:_ZN8Midlevel8Sysreset9step_taskEv)
                  0009cda8    0000009f     veronte.lib : Xpcu8suite.obj (.text:_ZN4Base7Fmsgmgr6configILj2ELj32ENS_12FmsgproducerEEEPNS_5ArrayIT1_EERKNS4_6ConfigERKNS_6MblockIVKNS_14Fmsg_cfg_entryIXT0_EE4TypeEEEjNS_8ErrorsrcE)
                  0009ce47    0000009f     devices.lib : Sxp.obj (.text:_ZN7Devices3SxpC1ENS0_6ParamsE)
                  0009cee6    0000009e     veronte.lib : Xpccansuite.obj (.text:_ZN4Base12FcanproducerINS_8Xcfg_desINS_15Xfmsgcanp0arrayILj0EEENS_9Tuntraits10DesdefaultIS3_EEEEE5buildERKNS_10KfieldsvecINS_9FmsetvdatEE6ReaderERVKNS_10Xfmsgcanp0ILj0EEERNS_8CANframeE)
                  0009cf84    0000009e     stanag.lib : Stanag_port.obj (.text:_ZN6Stanag11Stanag_port5writeERN4Base5EspktE)
                  0009d022    0000009e     veronte.lib : Rtaskio.obj (.text:__sti___11_Rtaskio_cpp_d66b4f8f)
                  0009d0c0    0000009d                 : Maps_updater.obj (.text:_ZN3Ver12Maps_updater4initEv)
                  0009d15d    0000009c                 : Halsuite.obj (.text:_ZN3Ver8Halsuite14set_hw_versionENS_13HWversion_ver2IdE)
                  0009d1f9    0000009b                 : Hvar_cpu1.obj (.text:_ZNK3Bsp5Hfvar3getERN4Base7FeatureE)
                  0009d294    0000009b     maverick.lib : Rtable.obj (.text:_ZNK8Maverick6Rtable15interp1_linear0EfRNS_7RvectorEm)
                  0009d32f    00000099     veronte.lib : Licmgr.obj (.text:_ZN3Ver6LicmgrC1ERVN4Base10PermissionERKNS_7LogbookERNS1_7SessionERKNS1_5Ifile7HandlerE)
                  0009d3c8    00000099     midlevel.lib : Cyphal_tx_mgr.obj (.text:_ZN6Cyphal13Cyphal_tx_mgr4stepEv)
                  0009d461    00000099     stanag.lib : Auth_handover_grant.obj (.text:_ZN6Stanag19Auth_handover_grant5on_txERNS_14IStanag_msg_tx9Tx_paramsE)
                  0009d4fa    00000098     veronte.lib : Can4x.obj (.text:_ZN3Ver5Can4x5writeERKN4Base8CANframeE)
                  0009d592    00000097                 : Tmsuite.obj (.text:_ZN4Base9TelemetryINS_8FvecdataINS_6TmvdatELm600ELj4EEEE4stepERNS_11Imsg_senderENS_15Stanag_msg_type8Msg_typeE)
                  0009d629    00000097     DFS2.lib : DSF2_file.obj (.text:_ZN4DFS24File12remove_asyncEN4Base5Ifile3UidE)
                  0009d6c0    00000096     veronte.lib : Logbook.obj (.text:_ZN3Ver7LogbookC1ERVfS2_N4Base5Ifile7HandlerE)
                  0009d756    00000095     base.lib : SerialCAN.obj (.text:_ZN4Base9SerialCAN4readERNS_8CANframeE)
                  0009d7eb    00000095     stanag.lib : Auth_handover_req.obj (.text:_ZN6Stanag17Auth_handover_req5on_txERNS_14IStanag_msg_tx9Tx_paramsE)
                  0009d880    00000094     base.lib : Fmsg.obj (.text:_ZN4Base6Fmsgtx10time_checkEf)
                  0009d914    00000094     veronte.lib : Veronte_dsp.obj (.text:_ZN6Stanag12Stanag_portsILj6EE6configIN3Ver11Xpcu8_traitEEEvN4Base5RngitINT_2XP3IdxEEENS6_INS7_2XC3IdxEEERNS5_3XpcIS7_EENS5_6Memmgr4TypeERNS5_10Pkt_routerERKNS5_11TnarrayreszINS_11Stanag_port8Port_cfgELm6EEE)
                  0009d9a8    00000093     base.lib : Freq_checker.obj (.text:_ZN4Base12Freq_checker6updateEb)
                  0009da3b    00000093     devices.lib : PMIC_TPS65381A.obj (.text:_ZN7Devices14PMIC_TPS65381AC1EN12Dsp28335_ent6GPIOidES2_S2_S2_RNS1_3SPIES2_)
                  0009dace    00000092     base.lib : Stepmgr.obj (.text:_ZN4Base7Stepmgr6step_iEj)
                  0009db60    00000092     midlevel.lib : CyphalCAN_in.obj (.text:_ZN6Cyphal12CyphalCAN_in8fill_msgERNS_15Cyphal_msg_dataERN4Base9U8ostreamE)
                  0009dbf2    00000091     veronte.lib : Xcd.obj (.text:_ZN3Ver2Xc8Xcd_cpu14initERVKNS0_8Xcd_cpu2E)
                  0009dc83    00000091     pa_blocks.lib : Cy_maint_action.obj (.text:_ZN9Pa_blocks15Cy_maint_action5on_rxERN6Stanag14IStanag_msg_rx9Rx_paramsE)
                  0009dd14    0000008e     base.lib : Spkt.obj (.text:_ZN4Base4Spkt7end_pktEv)
                  0009dda2    0000008e              : Xcfilesvc.obj (.text:_ZN4Base8XcbufferILm512EE6Writer14get_xcf_bufferEm)
                  0009de30    0000008e     media.lib : Discovery.obj (.text:_ZN5Media9Discovery5on_txERN6Stanag14IStanag_msg_tx9Tx_paramsE)
                  0009debe    0000008d     base.lib : Field_cfg.obj (.text:_ZNK4Base9Field_cfg8Checksum5checkENS_6CktypeERNS_5LossyE)
                  0009df4b    0000008c     veronte.lib : Arbiter4x_fb.obj (.text:_ZN3Ver12Arbiter4x_fb4stepEv)
                  0009dfd7    0000008c     stanag.lib : Message_request.obj (.text:_ZN6Stanag15Message_request5on_rxERNS_14IStanag_msg_rx9Rx_paramsE)
                  0009e063    0000008b     DSP28x.lib : I2Carbiter.obj (.text:_ZN12Dsp28335_ent10I2Carbiter4stepEv)
                  0009e0ee    0000008b     base.lib : CANframe_fifo32.obj (.text:_ZN4Base15CANframe_fifo325writeERKNS_8CANframeE)
                  0009e179    0000008b              : Xcfilesvc.obj (.text:_ZN4Base9Xcfilesvc4stepEv)
                  0009e204    0000008b              : Xcfilesvc.obj (.text:_ZN4Base9XcfilesvcC1ERVKNS_6TdsyncINS_9XcfilereqENS_12Tdsynctraits11Rd_blockingIS2_NS_8Cptraits6PodrawIVS2_EEEENS3_2WrIS2_NS5_8OperatorIS2_S2_EEEEEERNS_10XcfilectrlERNS_8XcbufferILm512EEERVKSK_RNS_5IfileE)
                  0009e28f    0000008b     stanag.lib : Stanag_msg_mgr.obj (.text:_ZN6Stanag14Stanag_msg_mgrC1ERVKN4Base8Address0ERNS_18IConnection_getterERNS1_10Pkt_routerERNS1_13Istg_msg_rcvdE)
                  0009e31a    00000089     veronte.lib : Devsimsuite.obj (.text:_ZN3Ver11Devsimsuite22extract_all_sens_noiseERN4Base5LossyE)
                  0009e3a3    00000089     base.lib : Flogic.obj (.text:_ZNVK4Base6Flogic7computeERKNS_8BitarrayILj500EEERPVKjc)
                  0009e42c    00000088     veronte.lib : Halsuite_amz.obj (.text:_ZN3Ver40_GLOBAL__N__16_Halsuite_amz_cpp_59f313fb14get_sxp_paramsERNS_12Halsuite_amzE)
                  0009e4b4    00000088                 : License.obj (.text:_ZN3Ver7License4csetERN4Base5LossyE)
                  0009e53c    00000088     midlevel.lib : Cyphal_tx_mgr.obj (.text:_ZN6Cyphal13Cyphal_tx_mgr4sendERKNS_10Cyphal_msgE)
                  0009e5c4    00000088     stanag.lib : Auth_request.obj (.text:_ZN6Stanag12Auth_request13override_connERKN4Base15Auth_connectionENS_4Defs10Access_req4TypeERNS_14IStanag_msg_rx9Rx_paramsE)
                  0009e64c    00000088     rts2800_fpu64_eabi.lib : fs_div28.asm.obj (.text)
                  0009e6d4    00000087     base.lib : Xclogsvc.obj (.text:_ZN4Base8Xclogsvc4stepEv)
                  0009e75b    00000086              : Espkt.obj (.text:_ZN4Base5EspktC1Ev)
                  0009e7e1    00000086     midlevel.lib : Cmdmgr.obj (.text:_ZN8Midlevel6Cmdmgr7executeERKN4Base6ActionE)
                  0009e867    00000086     base.lib : Msg_data.obj (.text:_ZNK4Base8Msg_data4cgetERNS_11U16stream_wE)
                  0009e8ed    00000085              : Fmsgproducer.obj (.text:_ZN4Base12Fmsgproducer14compute_buf_szERKNS_6MblockIVKNS_8Fmsg_cfgEEERKNS_10KfieldsvecINS_9FmsetvdatEE6ReaderE)
                  0009e972    00000085     veronte.lib : Rtaskio_amz.obj (.text:_ZN9Pa_blocks17Cyphal_rx_msg_xcdILm267EE5on_rxEN6Cyphal8CyCAN_idERN4Base9U8istreamE)
                  0009e9f7    00000084     base.lib : Fmsgconsumer.obj (.text:_ZN4Base12Fmsgconsumer14compute_buf_szERKNS_6MblockIVKNS_8Fmsg_cfgEEERKNS_10KfieldsvecINS_9FmsetvdatEE6ReaderE)
                  0009ea7b    00000084     DFS2.lib : DFS2_fs.obj (.text:_ZN4DFS27DFS2_fs10format_allEv)
                  0009eaff    00000084     veronte.lib : Rtaskio_amz.obj (.text:_ZN9Pa_blocks17Cyphal_rx_msg_xcdILm0EE5on_rxEN6Cyphal8CyCAN_idERN4Base9U8istreamE)
                  0009eb83    00000084                 : Rtaskio_amz.obj (.text:_ZN9Pa_blocks17Cyphal_rx_msg_xcdILm100EE5on_rxEN6Cyphal8CyCAN_idERN4Base9U8istreamE)
                  0009ec07    00000084                 : Rtaskio_amz.obj (.text:_ZN9Pa_blocks17Cyphal_rx_msg_xcdILm11EE5on_rxEN6Cyphal8CyCAN_idERN4Base9U8istreamE)
                  0009ec8b    00000084                 : Rtaskio_amz.obj (.text:_ZN9Pa_blocks17Cyphal_rx_msg_xcdILm12EE5on_rxEN6Cyphal8CyCAN_idERN4Base9U8istreamE)
                  0009ed0f    00000084                 : Rtaskio_amz.obj (.text:_ZN9Pa_blocks17Cyphal_rx_msg_xcdILm13EE5on_rxEN6Cyphal8CyCAN_idERN4Base9U8istreamE)
                  0009ed93    00000084                 : Rtaskio_amz.obj (.text:_ZN9Pa_blocks17Cyphal_rx_msg_xcdILm197EE5on_rxEN6Cyphal8CyCAN_idERN4Base9U8istreamE)
                  0009ee17    00000084                 : Rtaskio_amz.obj (.text:_ZN9Pa_blocks17Cyphal_rx_msg_xcdILm1EE5on_rxEN6Cyphal8CyCAN_idERN4Base9U8istreamE)
                  0009ee9b    00000084                 : Rtaskio_amz.obj (.text:_ZN9Pa_blocks17Cyphal_rx_msg_xcdILm4EE5on_rxEN6Cyphal8CyCAN_idERN4Base9U8istreamE)
                  0009ef1f    00000084                 : Rtaskio_amz.obj (.text:_ZN9Pa_blocks17Cyphal_rx_msg_xcdILm65EE5on_rxEN6Cyphal8CyCAN_idERN4Base9U8istreamE)
                  0009efa3    00000084                 : Rtaskio_amz.obj (.text:_ZN9Pa_blocks17Cyphal_rx_msg_xcdILm69EE5on_rxEN6Cyphal8CyCAN_idERN4Base9U8istreamE)
                  0009f027    00000084                 : Rtaskio_amz.obj (.text:_ZN9Pa_blocks17Cyphal_rx_msg_xcdILm76EE5on_rxEN6Cyphal8CyCAN_idERN4Base9U8istreamE)
                  0009f0ab    00000084                 : Rtaskio_amz.obj (.text:_ZN9Pa_blocks17Cyphal_rx_msg_xcdILm7EE5on_rxEN6Cyphal8CyCAN_idERN4Base9U8istreamE)
                  0009f12f    00000084                 : Rtaskio_amz.obj (.text:_ZN9Pa_blocks17Cyphal_rx_msg_xcdILm82EE5on_rxEN6Cyphal8CyCAN_idERN4Base9U8istreamE)
                  0009f1b3    00000083     base.lib : Datalink_receiver.obj (.text:_ZN4Base17Datalink_receiver5writeERKNS_12U8pkmblock_kE)
                  0009f236    00000083     DFS2.lib : Indexsector.obj (.text:_ZN4DFS211Indexsector4csetERN4Base9U8istreamE)
                  0009f2b9    00000083     devices.lib : Adis165053.obj (.text:_ZN7Devices10Adis1650538read_regERj)
                  0009f33c    00000083     maverick.lib : Butterw_2.obj (.text:_ZN8Maverick9Butterw_214compute_coeffsEffRNS_5IIR_26CoeffsERN4Base5ErrorE)
                  0009f3bf    00000083     veronte.lib : License.obj (.text:_ZNK3Ver7License4cgetERN4Base5LossyE)
                  0009f442    00000083     DFS2.lib : File_descr.obj (.text:_ZNK4DFS210File_descr4cgetERN4Base9U8ostreamE)
                  0009f4c5    00000083     veronte.lib : ADCsuite.obj (.text:__sti___12_ADCsuite_cpp_d10a27e8)
                  0009f548    00000083     main_cpu1.obj (.text:_system_pre_init)
                  0009f5cb    00000081     media.lib : Filecom.obj (.text:_ZN5Media7Filecom4stepEv)
                  0009f64c    00000080     first.lib : Call_stat.obj (.text:_ZN4Base9Call_stat4stepEv)
                  0009f6cc    00000080     stanag.lib : Acknowledgement.obj (.text:_ZN6Stanag15Acknowledgement5on_rxERNS_14IStanag_msg_rx9Rx_paramsE)
                  0009f74c    00000080     devices.lib : Adis165053.obj (.text:_ZN7Devices10Adis1650539write_regEv)
                  0009f7cc    0000007f     media.lib : Discovery.obj (.text:_ZN5Media9DiscoveryC1ERVN4Base7SystimeERKNS_7IlicsrcERKNS1_7SessionE)
                  0009f84b    0000007f     midlevel.lib : CyphalCAN_out.obj (.text:_ZN6Cyphal13CyphalCAN_outC1ERN4Base9AllocatorEb)
                  0009f8ca    0000007f                  : Cyphal_rx_mgr.obj (.text:_ZN6Cyphal13Cyphal_rx_mgr7processERKNS_10Cyphal_msgE)
                  0009f949    0000007f     devices.lib : Xr20m1172.obj (.text:_ZN7Devices9Xr20m117213set_dl_valuesEm)
                  0009f9c8    0000007d     veronte.lib : CPU1_CM_shared.obj (.text:_ZN3Ver14CPU1_CM_sharedC1ERVKNS_14CM_CPU1_sharedE)
                  0009fa45    0000007d                 : Licmgr.obj (.text:_ZN3Ver6Licmgr6fcheckEv)
                  0009fac2    0000007d     rts2800_fpu64_eabi.lib : dtor_list.c.obj (.text)
                  0009fb3f    0000007b     DSP28x.lib : I2Cif.obj (.text:_ZN12Dsp28335_ent5I2Cif6finishEv)
                  0009fbba    0000007a     midlevel.lib : Cyphal_tx_mgr.obj (.text:_ZN6Cyphal13Cyphal_tx_mgr3MsgC1Ev)
                  0009fc34    0000007a     devices.lib : MX66L.obj (.text:_ZN7Devices5MX66L11init_mediumEv)
                  0009fcae    00000079     DFS2.lib : DSF2_file.obj (.text:_ZN4DFS24File11close_asyncEv)
                  0009fd27    00000079     midlevel.lib : Cyphal_tx_mgr.obj (.text:_ZN6Cyphal13Cyphal_tx_mgr5writeEh)
                  0009fda0    00000079     pa_blocks.lib : Fifo_imu.obj (.text:_ZN9Pa_blocks8Fifo_imu6WriterC1EfRVKN4Base6TdsyncINS2_15Imu_output_dataENS2_12Tdsynctraits11Rd_blockingIS4_NS2_8Cptraits6PodrawIVS4_EEEENS5_8Wr_mutexIS4_NS7_8OperatorIS4_S4_EEEEEE)
                  0009fe19    00000078     veronte.lib : Devsuite_amz.obj (.text:_ZN3Ver8Devsuite7step_hiEv)
                  0009fe91    00000077     DSP2838x_ent.lib : CAN_FD_ioctl.obj (.text:_ZN12Dsp28335_ent11config_bdrtEmRKNS_10CAN_FD_cfg7TimingsES3_)
                  0009ff08    00000076     veronte.lib : Maps_updater.obj (.text:_ZN3Ver12Maps_updater9step_taskEv)
                  0009ff7e    00000076     base.lib : Vargpscfg.obj (.text:_ZN4Base9Vargpscfg4initEv)
                  0009fff4    00000076     midlevel.lib : CyphalCAN_in.obj (.text:_ZN6Cyphal12CyphalCAN_inC1EjjjRN4Base9AllocatorERNS_13Cyphal_rx_mgrEPNS1_8Imsg_mgrE)
                  000a006a    00000076     base.lib : Field_BCD.obj (.text:_ZNK4Base9Field_BCD8compressERNS_5LossyEm)
                  000a00e0    00000076     pa_blocks.lib : Cy_meas_accel_gyro.obj (.text:_ZNK9Pa_blocks18Cy_meas_accel_gyro4cgetERN4Base9U8ostreamE)
                  000a0156    00000075     geomodel.lib : Geomodel.obj (.text:_ZN3Geo8Geomodel8ecef2nedERKN4Base5TllcsERKN8Maverick9Irvector3ERS6_)
                  000a01cb    00000075     veronte.lib : Gpssimdev.obj (.text:_ZN3Ver10Gps_simdev4csetERN4Base5LossyE)
                  000a0240    00000075     first.lib : Strutil.obj (.text:_ZN4Base7Strutil23as_string_padding_rightEmhhRNS_7VstringE)
                  000a02b5    00000075     DFS2.lib : DFS2_fs.obj (.text:_ZN4DFS27DFS2_fs19update_index_sectorERKNS0_11Format_partEN4Base10U8pkmblockE)
                  000a032a    00000075              : DFS2_fs.obj (.text:_ZN4DFS27DFS2_fs4openEN4Base5Ifile3UidEb)
                  000a039f    00000075     midlevel.lib : Cy_mode_transition.obj (.text:_ZN8Midlevel18Cy_mode_transition13check_pa_modeEv)
                  000a0414    00000073     DSP2837x_ent.lib : GPIOioctl.obj (.text:_ZN12Dsp28335_ent9GPIOioctl9apply_muxENS_6GPIOidENS_9GPIOmux168Type_muxE)
                  000a0487    00000073     geomodel.lib : Geomodel.obj (.text:_ZN3Geo8Geomodel8ned2ecefERKN4Base5TllcsERKN8Maverick9Irvector3ERS6_)
                  000a04fa    00000073     midlevel.lib : Synchronized_time.obj (.text:_ZN8Midlevel17Synchronized_time4cgetERN4Base9U8ostreamE)
                  000a056d    00000072     base.lib : Espkt.obj (.text:_ZN4Base5Espkt7end_pktEv)
                  000a05df    00000072     DFS2.lib : DFS2_fs.obj (.text:_ZN4DFS27DFS2_fsC1ERN4Base13Iblock_deviceERKNS1_13ItimeproviderENS1_4UvarENS1_4BvarE)
                  000a0651    00000072     midlevel.lib : Comstats.obj (.text:_ZN8Midlevel8Comstats9Pktpersec7computeEf)
                  000a06c3    00000071     media.lib : Filecom.obj (.text:_ZN5Media7Filecom10close_taskEv)
                  000a0734    00000071     base.lib : Field.obj (.text:_ZNK4Base5Field8get_sizeEv)
                  000a07a5    00000070              : CPUrc_all.obj (.text:_ZN4Base9CPUrc_all7computeEff)
                  000a0815    00000070     pa_blocks.lib : Cy_mon_perf_cons.obj (.text:_ZN9Pa_blocks16Cy_mon_perf_cons5on_rxEN6Cyphal8CyCAN_idERN4Base9U8istreamE)
                  000a0885    0000006f     DSP2837x_ent.lib : System_cpu1.obj (.text:_ZN12Dsp28335_ent18post_init_sys_cpu1Ebb)
                  000a08f4    0000006f     DSP28x.lib : SPI.obj (.text:_ZN12Dsp28335_ent3SPI6configERKNS_6SPIcfgE)
                  000a0963    0000006f     veronte.lib : Gpssimdev.obj (.text:_ZN3Ver10Gps_simdev11cset_commitERN4Base5LossyE)
                  000a09d2    0000006f     base.lib : Xcfilesvc.obj (.text:_ZN4Base9Xcfilesvc11xcf_closingEv)
                  000a0a41    0000006f              : Xcfilesvc.obj (.text:_ZN4Base9Xcfilesvc19process_new_requestENS_9XcfilereqE)
                  000a0ab0    0000006f     DFS2.lib : DFS2_fs.obj (.text:_ZN4DFS27DFS2_fs13format_fdescrEN4Base5Ifile3UidENS1_10U8pkmblockE)
                  000a0b1f    0000006f     midlevel.lib : Comstats.obj (.text:_ZN8Midlevel8Comstats5on_rxERN6Stanag14IStanag_msg_rx9Rx_paramsE)
                  000a0b8e    0000006e     DSP2838x_ent.lib : PMbusdrv_drv.obj (.text:_ZN12Dsp28335_ent9PMbus_drv4stepEv)
                  000a0bfc    0000006e     base.lib : Vrefdstbuff.obj (.text:_ZN4Base11VrefdstbuffC1EjjjjjNS_6Memmgr4TypeE)
                  000a0c6a    0000006e              : Sticktypes.obj (.text:_ZN4Base12Stickppmcfg04initEv)
                  000a0cd8    0000006e              : Rangedeltacheck3_nv.obj (.text:_ZN4Base19Rangedeltacheck3_nv9check_varERKN8Maverick9Irvector3Eb)
                  000a0d46    0000006e     veronte.lib : Vpuposrd_ver_pa.obj (.text:_ZN4Base8Vpuposrd7get_posEv)
                  000a0db4    0000006e     media.lib : Fdr.obj (.text:_ZN5Media3Fdr9on_rx_pktERN6Stanag14IStanag_rx_pkt6ParamsE)
                  000a0e22    0000006e               : Filecom.obj (.text:_ZN5Media7Filecom5on_txERN6Stanag14IStanag_msg_tx9Tx_paramsE)
                  000a0e90    0000006e     veronte.lib : Vfspermission.obj (.text:_ZNK3Ver13Vfspermission13is_wr_allowedEN4Base5Ifile3UidE)
                  000a0efe    0000006e     devices.lib : Adis165053.obj (.text:_ZNK7Devices10Adis16505311get_cfg_regENS0_5StateERjS2_)
                  000a0f6c    0000006d     veronte.lib : Xpcu8trait_ver_pa.obj (.text:_ZN3Ver11Xpcu8_trait18connection_allowedEjjj)
                  000a0fd9    0000006d                 : Xpccansuite.obj (.text:_ZN4Base10FcanmsgmgrINS_12Xfmsgcan_hdlILj0ELj0ELj0EE14Xfmsgcan_arrayINS_8Xcfg_desINS_15Xfmsgcanp0arrayILj0EEENS_9Tuntraits10DesdefaultIS6_EEEEEENS3_INS4_INS_15Xfmsgcanc0arrayILj0ELj0EEENS7_15Arraytun_size16INS7_9Cset_onlyINS_10Xfmsgcanc0ILj0EEEEESD_NS7_8No_checkISD_EEEEEEEEEC1ERNS_4IgetERNS_4IsetERKNS_10KfieldsvecINS_9FmsetvdatEEERNS_11ImsgcheckerERVKSB_RVKSN_RNS_5IFMCPES15_)
                  000a1046    0000006d     first.lib : Strutil.obj (.text:_ZN4Base7Strutil22as_string_padding_leftEmhhRNS_7VstringE)
                  000a10b3    0000006d               : File_sync.obj (.text:_ZN4Base9File_sync4readERNS_10U8pkmblockE)
                  000a1120    0000006d               : File_sync.obj (.text:_ZN4Base9File_sync5writeERKNS_12U8pkmblock_kE)
                  000a118d    0000006d     base.lib : Pkt_router.obj (.text:_ZNK4Base10Pkt_router12packet_to_meERNS_5EspktE)
                  000a11fa    0000006c              : Field_real_dec_ASCII.obj (.text:_ZN4Base7Strutil14parse_real_auxIfEEbRNS_5LossyEhT_RS4_b)
                  000a1266    0000006c     devices.lib : Adis165053.obj (.text:_ZN7Devices10Adis1650537set_accERN4Base15Imu_output_dataE)
                  000a12d2    0000006c                 : Adis165053.obj (.text:_ZN7Devices10Adis1650538set_gyroERN4Base15Imu_output_dataE)
                  000a133e    0000006b     veronte.lib : Veronte_dsp.obj (.text:_ZN3Ver7Veronte13post_cfg_readEb)
                  000a13a9    0000006b     DFS2.lib : Indexsector.obj (.text:_ZN4DFS211Indexsector4cgetERN4Base9U8ostreamE)
                  000a1414    0000006b     base.lib : Xcfilesvc.obj (.text:_ZNK4Base8XcbufferILm512EE6Reader14get_xcf_bufferEm)
                  000a147f    0000006b     midlevel.lib : Cy_compute_unit_status.obj (.text:_ZNK8Midlevel22Cy_compute_unit_status4cgetERN4Base9U8ostreamE)
                  000a14ea    0000006a     crypto_c28.lib : sha256.obj (.text:SHA256_finalizeWordWise)
                  000a1554    0000006a     veronte.lib : Hstats.obj (.text:_ZN3Ver6Hstats8set_devsERKN4Base9CPUrc_all4DataE)
                  000a15be    0000006a     base.lib : Pkt_router.obj (.text:_ZN4Base10Pkt_router4stepEv)
                  000a1628    0000006a     DFS2.lib : DSF2_file.obj (.text:_ZN4DFS24File26read_file_descriptor_asyncERNS_10File_descrE)
                  000a1692    0000006a     midlevel.lib : Conf_check_query.obj (.text:_ZN6Cyphal16Conf_check_query8on_rx_cyENS_17Cyphal_stg_fieldsERN6Stanag14IStanag_msg_rx9Rx_paramsE)
                  000a16fc    0000006a     devices.lib : MX66L.obj (.text:_ZN7Devices5MX66L11read_sectorEmRN4Base10U8pkmblockE)
                  000a1766    0000006a     maverick.lib : Rtable.obj (.text:_ZNK8Maverick6Rtable14interp1_linearEfRNS_7RvectorE)
                  000a17d0    00000069     veronte.lib : Arbiter_reset.obj (.text:_ZN3Ver7Arbiter5resetEv)
                  000a1839    00000069     base.lib : Datalink_buffer.obj (.text:_ZN4Base15Datalink_bufferC1Ehm)
                  000a18a2    00000069              : Evact.obj (.text:_ZN4Base5Evact9step_taskEv)
                  000a190b    00000069     media.lib : Fdr.obj (.text:_ZN5Media3FdrC1ERN4Base11IlogcontrolES3_S3_RNS1_11Ipkt_senderERNS1_7SessionERVKNS1_6TdsyncINS1_11FstrtfieldsENS1_12Tdsynctraits11Rd_blockingIS9_NS1_8Cptraits6PodrawIVS9_EEEENSA_15Disabled_structEEERVKNS8_INS1_11Fstr1fieldsENSB_ISL_NSD_IVSL_EEEESH_EERNS1_12Ispkt_senderERNS1_11Imsg_senderE)
                  000a1974    00000069               : Logctrl.obj (.text:_ZN5Media7Logctrl8del_logsEjjRj)
                  000a19dd    00000069               : Discovery.obj (.text:_ZN5Media9Discovery5on_rxERN6Stanag14IStanag_msg_rx9Rx_paramsE)
                  000a1a46    00000069     veronte.lib : Apos_serializator.obj (.text:_ZNK3Ver17Apos_serializator16compress_abs_llhEjeRN4Base5LossyE)
                  000a1aaf    00000068                 : Halsuite_amz.obj (.text:_ZN3Ver12Halsuite_amz4pollEv)
                  000a1b17    00000068                 : Xpcu8suite.obj (.text:_ZN3Ver38_GLOBAL__N__14_Xpcu8suite_cpp_f871dbeb17get_consumer_comsEv)
                  000a1b7f    00000068                 : Hxcff_cpu1.obj (.text:_ZN3Ver5Hxcff10get_xcmqwrEv)
                  000a1be7    00000068     devices.lib : MX66L.obj (.text:_ZN7Devices5MX66L12write_sectorEmRKN4Base12U8pkmblock_kE)
                  000a1c4f    00000068     midlevel.lib : Default_cfg.obj (.text:_ZN8Midlevel11Default_cfg18set_default_can_rxERN4Base11TnarrayreszIN12Dsp28335_ent6CANcfg5RxcfgELm32EEEbb)
                  000a1cb7    00000068     first.lib : Endian16_big.obj (.text:_ZNK4Base12Endian16_big10get_uint16ERjPKjRmi)
                  000a1d1f    00000068     midlevel.lib : Comstats.obj (.text:_ZNK8Midlevel8Comstats8Mapstats8compressERN4Base9U8ostreamE)
                  000a1d87    00000067     base.lib : Fmsgconsumer.obj (.text:_ZN4Base12FmsgconsumerC1ERNS0_6ConfigERKNS_6MblockIVKNS_8Fmsg_cfgEEE)
                  000a1dee    00000067     midlevel.lib : Cyphal_tx_mgr.obj (.text:_ZN6Cyphal13Cyphal_tx_mgrC1ENS0_6ConfigEN4Base6Memmgr4TypeEj)
                  000a1e55    00000067     first.lib : Endian16_big.obj (.text:_ZNK4Base12Endian16_big10put_uint16ERKjPjRmi)
                  000a1ebc    00000067     pa_blocks.lib : Cy_maint_dcomms.obj (.text:_ZNK9Pa_blocks15Cy_maint_dcomms4cgetERN4Base9U8ostreamE)
                  000a1f23    00000066     geomodel.lib : Apos.obj (.text:_ZN3Geo4Apos8llh_diffERKN4Base4TllhES4_RNS1_12Tllh_low_resE)
                  000a1f89    00000066     veronte.lib : Vfspermission.obj (.text:_ZN3Ver13VfspermissionC1ERVKN4Base10Cfgid_modeERN5Media10IupdatableE)
                  000a1fef    00000066                 : Xpccantrait_ver_pa.obj (.text:_ZN3Ver15Xpccantrait_ver18connection_allowedEjjj)
                  000a2055    00000066                 : Vfspermission.obj (.text:_ZN4Base8Hash_mapINS_7Hashers11Element_u16EE4pushERKS2_)
                  000a20bb    00000066     base.lib : CANserial.obj (.text:_ZN4Base9CANserial5writeERKNS_8CANframeE)
                  000a2121    00000066     first.lib : U8ostream.obj (.text:_ZN4Base9U8ostream13put_uint64_leEy)
                  000a2187    00000065     veronte.lib : Xpccansuite.obj (.text:_ZN3Ver11Xpccansuite8get_varsEv)
                  000a21ec    00000065     base.lib : Fmsgproducer.obj (.text:_ZN4Base12FmsgproducerC1ERKNS0_6ConfigERKNS_6MblockIVKNS_8Fmsg_cfgEEE)
                  000a2251    00000065     stanag.lib : Auth_request.obj (.text:_ZN6Stanag12Auth_requestC1ERKNS_22Vehicle_identifier_cfgERVN4Base8Address0ERNS_13Auth_responseENS4_6MblockINS4_15Auth_connectionEEE)
                  000a22b6    00000064     DSP2838x_ent.lib : Ipc_2838x.obj (.text:_ZN12Dsp28335_ent3Ipc20cpu1_wait_for_unlockEv)
                  000a231a    00000064     DSP28x.lib : I2Cif.obj (.text:_ZN12Dsp28335_ent5I2Cif11start_writeEjRKN4Base12U8pkmblock_kEb)
                  000a237e    00000064     base.lib : CANout_mgr.obj (.text:_ZN4Base10CANout_mgrC1ENS_6MblockIPNS_10ItconsumerINS_8CANframeEEEEERNS_5ArrayINS_8CANout_cEEEjNS1_INS0_14CAN_rates_varsEEE)
                  000a23e2    00000063     veronte.lib : Vcfchecker.obj (.text:_ZN3Ver10Vcfchecker4stepEv)
                  000a2445    00000063                 : Logbook.obj (.text:_ZN3Ver7Logbook4initEv)
                  000a24a8    00000063     media.lib : Fdr.obj (.text:_ZN5Media3Fdr9step_taskEv)
                  000a250b    00000063     midlevel.lib : Irxfw.obj (.text:_ZNK8Midlevel32_GLOBAL__N__9_Irxfw_cpp_16a35c0e12Irxfwbuilder5buildERN4Base11U16stream_wE)
                  000a256e    00000062     DSP2838x_ent.lib : Ipc_2838x_cm.obj (.text:_ZN12Dsp28335_ent3Ipc16wait_for_cm_flagEmf)
                  000a25d0    00000062     DSP2837x_ent.lib : System_cpu1.obj (.text:_ZN12Dsp28335_ent41setup_emif1_pinmux_async_16bit_20_21_addrENS_6GPIOidENS_9GPIOmux168Type_muxES0_)
                  000a2632    00000062     DSP28x.lib : I2Cif.obj (.text:_ZN12Dsp28335_ent5I2Cif10start_readEjRN4Base10U8pkmblockEb)
                  000a2694    00000062     DSP2837x_ent.lib : Pwmdev.obj (.text:_ZN12Dsp28335_ent6Pwmdev14apply_settingsEv)
                  000a26f6    00000062     geomodel.lib : Apos.obj (.text:_ZN3Geo4Apos7relthisERKN4Base9Apos_dataES4_RN8Maverick9Irvector3E)
                  000a2758    00000062     veronte.lib : Xpccansuite.obj (.text:_ZN3Ver11Xpccansuite6configERKN4Base11CANsc_suiteILj6EEE)
                  000a27ba    00000062     stanag.lib : Stanag_ack_mgr.obj (.text:_ZN6Stanag14Stanag_ack_mgr10manage_ackEN4Base8Msg_data8Ack_typeERNS1_8Spkt_hdrERKNS1_10StimestampEjRNS_8Msg_fifoEPNS_14IStanag_rx_pktE)
                  000a281c    00000062     midlevel.lib : Synchronized_time.obj (.text:_ZN8Midlevel17Synchronized_time4csetERN4Base9U8istreamE)
                  000a287e    00000062     pa_blocks.lib : Cy_maint_action.obj (.text:_ZN9Pa_blocks15Cy_maint_actionC1ERN4Base11Imsg_senderEPN6Stanag14IStanag_rx_pktE)
                  000a28e0    00000062     rts2800_fpu64_eabi.lib : s_tanf.c.obj (.text)
                  000a2942    00000061     veronte.lib : Xpcu8suite.obj (.text:_ZN3Ver38_GLOBAL__N__14_Xpcu8suite_cpp_f871dbeb17get_producer_comsEv)
                  000a29a3    00000061     base.lib : Field_real_dec_ASCII.obj (.text:_ZN4Base7Strutil10parse_realIfEEbRNS_5LossyEhhcbRT_b)
                  000a2a04    00000061     DFS2.lib : DSF2_file.obj (.text:_ZN4DFS24File10check_toutEv)
                  000a2a65    00000061              : DSF2_file.obj (.text:_ZN4DFS24FileC1ERNS_7DFS2_fsE)
                  000a2ac6    00000061     midlevel.lib : CyphalCAN_in.obj (.text:_ZN6Cyphal12CyphalCAN_in7step_hiEv)
                  000a2b27    00000060     veronte.lib : Can4x.obj (.text:_ZN3Ver5Can4x4stepEv)
                  000a2b87    00000060                 : Hxcfile_cpu1.obj (.text:_ZN3Ver7Hxcfile14get_xcffastsvcERN4Base11IlogcontrolERNS1_7SessionERVKNS1_6TdsyncINS1_8FstrFastENS1_12Tdsynctraits11Rd_blockingIS7_NS1_8Cptraits6PodrawIVS7_EEEENS8_15Disabled_structEEE)
                  000a2be7    00000060                 : Halsuite.obj (.text:_ZN3Ver8Halsuite9post_initEb)
                  000a2c47    00000060     base.lib : Meastypes.obj (.text:_ZN4Base4Meas14set_meas_valueENS_4RvarEf)
                  000a2ca7    00000060              : Cyphal.obj (.text:_ZN6Cyphal10Cyphal_msgC1EN4Base10U8pkmblockE)
                  000a2d07    0000005f     crypto_c28.lib : sha256.obj (.text:SHA256_addDataWordWiseSwapped)
                  000a2d66    0000005f     base.lib : Freqmetric.obj (.text:_ZN4Base10Freqmetric4stepEv)
                  000a2dc5    0000005f              : Taskmgr.obj (.text:_ZN4Base7Taskmgr8add_taskERNS_5ItaskEf)
                  000a2e24    0000005f     midlevel.lib : CyphalCAN_in.obj (.text:_ZN6Cyphal12CyphalCAN_in13write_to_fifoERNS_15Cyphal_msg_dataE)
                  000a2e83    0000005f     base.lib : Field_real_dec_ASCII.obj (.text:_ZNK4Base20Field_real_dec_ASCII8compressERNS_5LossyERKNS_4IgetERKj)
                  000a2ee2    0000005e     veronte.lib : Varsensor3D.obj (.text:_ZN3Ver11Varsensor3D4stepEv)
                  000a2f40    0000005e                 : Maps_updater.obj (.text:_ZN3Ver12Maps_updater5on_rxERN6Stanag14IStanag_msg_rx9Rx_paramsE)
                  000a2f9e    0000005e     base.lib : Pkt_router.obj (.text:_ZN4Base10Pkt_routerC1ERNS_16IAddress_handlerERNS_14Irouting_tableERNS_11Ipkt_senderERNS_9IcomstatsEjRVKb)
                  000a2ffc    0000005e     veronte.lib : Xpcu8suite.obj (.text:_ZN4Base3XpcIN3Ver11Xpcu8_traitEE4stepENS2_5GroupE)
                  000a305a    0000005e                 : Xpcu8suite.obj (.text:_ZN4Base7Fmsgmgr6configILj2ELj32ELj3ELj32EEEvRKNS_12Fmsgproducer6ConfigERKNS_6MblockIVKNS_14Fmsg_cfg_entryIXT0_EE4TypeEEEjRKNS_12Fmsgconsumer6ConfigERKNS6_IVKNS7_IXT2_EE4TypeEEEj)
                  000a30b8    0000005e     first.lib : Ubxtime.obj (.text:_ZN4Base7Ubxtime11add_secondsEf)
                  000a3116    0000005e     midlevel.lib : Cyphal_msg_trig.obj (.text:_ZN6Cyphal15Cyphal_msg_trig4stepEv)
                  000a3174    0000005d     DSP28x.lib : I2Cif.obj (.text:_ZN12Dsp28335_ent5I2Cif9set_speedENS0_5SpeedE)
                  000a31d1    0000005d     DSP2838x_ent.lib : PMbusdrv_drv.obj (.text:_ZN12Dsp28335_ent9PMbus_drvC1Ev)
                  000a322e    0000005d     veronte.lib : Ubxdev.obj (.text:_ZN3Ver6Ubxdev10set_velnedEbmffff)
                  000a328b    0000005d                 : Xpcu8suite.obj (.text:_ZN4Base9Allocator24allocate_new_array_arrayINS_12FmsgproducerENS2_6ConfigENS_6MblockIPVKNS_11TnarrayreszINS_8Fmsg_cfgELm32EEEEEEEPT_mT0_T1_)
                  000a32e8    0000005d     first.lib : File_sync.obj (.text:_ZN4Base9File_sync5existENS_5Ifile3UidE)
                  000a3345    0000005d     maverick.lib : Biquad_notch_lpf_3d.obj (.text:_ZN8Maverick19Biquad_notch_lpf_3d10set_coeffsEv)
                  000a33a2    0000005d     base.lib : Session.obj (.text:_ZNK4Base7Session16get_current_timeEv)
                  000a33ff    0000005c     DSP2837x_ent.lib : Pwmdev.obj (.text:_ZN12Dsp28335_ent6Pwmdev15compute_dep_cfgEv)
                  000a345b    0000005c     veronte.lib : Can4x.obj (.text:_ZN3Ver5Can4x4readERN4Base8CANframeE)
                  000a34b7    0000005c     first.lib : Lossy.obj (.text:_ZN4Base5Lossy15put_float_ibitsEfjffll)
                  000a3513    0000005c               : Lossy.obj (.text:_ZN4Base5Lossy15put_float_ubitsEfjffmm)
                  000a356f    0000005c     veronte.lib : Veronte.obj (.text:_ZN4Base9Fifo_portINS_11Fifo_sharedINS_11Spkt_bufferELj2EE6WriterENS3_6ReaderEE5writeERNS_5EspktE)
                  000a35cb    0000005c     DFS2.lib : DFS2_fs.obj (.text:_ZN4DFS27DFS2_fs5closeEN4Base5Ifile3UidE)
                  000a3627    0000005c     media.lib : Filecom.obj (.text:_ZN5Media7Filecom16send_open_resultENS_11Filecom_ids9Result_idEbmRN4Base9U8ostreamE)
                  000a3683    0000005c     devices.lib : Adis165053.obj (.text:_ZN7Devices10Adis16505318read_burst_requestEv)
                  000a36df    0000005c                 : PMIC_TPS65381A.obj (.text:_ZN7Devices14PMIC_TPS65381A15generate_signalEv)
                  000a373b    0000005b     DSP28x.lib : I2Cif.obj (.text:_ZN12Dsp28335_ent5I2CifC1EN4Base6II2Cif2IdENS_6GPIOidES4_NS0_5SpeedE)
                  000a3796    0000005b     geomodel.lib : Gellipsoid.obj (.text:_ZN3Geo10Gellipsoid7geoevolEfffRKN8Maverick9Irvector3ERN4Base12Tllh_low_resE)
                  000a37f1    0000005b     veronte.lib : Veronte_amz.obj (.text:_ZN3Ver7Veronte19maintenance_actionsEv)
                  000a384c    0000005b     base.lib : Freqmetric.obj (.text:_ZN4Base10Freqmetric5countEv)
                  000a38a7    0000005b              : Rtaskrc.obj (.text:_ZN4Base7Rtaskrc7computeEf)
                  000a3902    0000005b     DFS2.lib : DSF2_file.obj (.text:_ZN4DFS24File11flush_asyncEv)
                  000a395d    0000005b     stanag.lib : Alert_msg.obj (.text:_ZN6Stanag9Alert_msg16Alert_data_arrayILj3EE3addENS_8Alert_idERKNS0_9Alert_reqE)
                  000a39b8    0000005b     devices.lib : Ntcs0603.obj (.text:_ZNK7Devices8Ntcs06038get_tempEf)
                  000a3a13    0000005a     veronte.lib : Xpcu8suite.obj (.text:_ZN4Base3XpcIN3Ver11Xpcu8_traitEEC1ERKNS_7TnarrayIPNS_11Iconnect_txELm45EEERKNS4_IPNS_11Iconnect_rxELm46EEE)
                  000a3a6d    0000005a     base.lib : Xcfilesvc.obj (.text:_ZN4Base9Xcfilesvc11xcf_openingEv)
                  000a3ac7    0000005a     stanag.lib : Auth_request.obj (.text:_ZN6Stanag12Auth_request23check_fly_mode_and_updtEN4Base8Fly_mode4ModeENS_4Defs10Access_req4TypeERNS_14IStanag_msg_rx9Rx_paramsE)
                  000a3b21    0000005a                : Fly_term_cmd.obj (.text:_ZN6Stanag12Fly_term_cmd5on_rxERNS_14IStanag_msg_rx9Rx_paramsE)
                  000a3b7b    0000005a                : Stanag_periodic_msgs.obj (.text:_ZN6Stanag20Stanag_periodic_msgs4stepEv)
                  000a3bd5    0000005a     devices.lib : Xr20m1172.obj (.text:_ZN7Devices9Xr20m11728read_regEhRh)
                  000a3c2f    00000059     DSP2838x_ent.lib : ADC_2838x.obj (.text:_ZN12Dsp28335_ent3ADC12adc_set_modeENS0_6ModuleENS0_10ResolutionENS0_11Signal_modeE)
                  000a3c88    00000059     veronte.lib : Xcd_cpu1.obj (.text:_ZN3Ver2Xc8Xcd_cpu2C1Ev)
                  000a3ce1    00000059                 : Tmsuite.obj (.text:_ZN3Ver7TmsuiteC1ERN6Stanag14Stanag_msg_mgrE)
                  000a3d3a    00000059                 : Rtaskio_amz.obj (.text:_ZN6Cyphal20Cy_tdsync_can_senderILj153EE4stepEv)
                  000a3d93    00000059                 : Rtaskio_amz.obj (.text:_ZN6Cyphal20Cy_tdsync_can_senderILj185EE4stepEv)
                  000a3dec    00000059                 : Rtaskio_amz.obj (.text:_ZN6Cyphal20Cy_tdsync_can_senderILj187EE4stepEv)
                  000a3e45    00000059                 : Rtaskio_amz.obj (.text:_ZN6Cyphal20Cy_tdsync_can_senderILj194EE4stepEv)
                  000a3e9e    00000059                 : Rtaskio_amz.obj (.text:_ZN6Cyphal20Cy_tdsync_can_senderILj1EE4stepEv)
                  000a3ef7    00000059                 : Rtaskio_amz.obj (.text:_ZN6Cyphal20Cy_tdsync_can_senderILj32EE4stepEv)
                  000a3f50    00000059                 : Rtaskio_amz.obj (.text:_ZN6Cyphal20Cy_tdsync_can_senderILj68EE4stepEv)
                  000a3fa9    00000059                 : Rtaskio_amz.obj (.text:_ZN6Cyphal20Cy_tdsync_can_senderILj6EE4stepEv)
                  000a4002    00000059     midlevel.lib : Meas_GPS_raw_time.obj (.text:_ZNK8Midlevel17Meas_GPS_raw_time4cgetERN4Base9U8ostreamE)
                  000a405b    00000059     rts2800_fpu64_eabi.lib : s_scalbnf.c.obj (.text)
                  000a40b4    00000058     veronte.lib : Can4x.obj (.text:_ZN3Ver5Can4xC1ERVNS_11Xapsel_cpu1ERVKNS_11Xapsel_cpu2E)
                  000a410c    00000058                 : Pfields.obj (.text:_ZN3Ver7Pfields10parse_dataERN4Base11Lossy_errorES3_RmRj)
                  000a4164    00000058     base.lib : CANserial.obj (.text:_ZN4Base10WindowbuffINS_7CANdataEE5writeEhRKS1_)
                  000a41bc    00000058              : Spkt.obj (.text:_ZN4Base4Spkt4copyERKNS_11Spkt_bufferE)
                  000a4214    00000058     first.lib : File_sync.obj (.text:_ZN4Base9File_sync4openENS_5Ifile3UidENS1_9Open_modeE)
                  000a426c    00000058     midlevel.lib : Secure_CAN.obj (.text:_ZN7Devices10Secure_CAN18enable_transceiverERN12Dsp28335_ent3CANERKN4Base11TnarrayreszINS0_3CmdELm6EEE)
                  000a42c4    00000058     veronte.lib : Licmgr.obj (.text:_ZNK3Ver6Licmgr11get_licdataERN5Media7LicdataE)
                  000a431c    00000058     base.lib : Presence_vec.obj (.text:_ZNK4Base12Presence_vec9read_dataEj)
                  000a4374    00000058     rts2800_fpu64_eabi.lib : s_ceilf.c.obj (.text)
                  000a43cc    00000057     veronte.lib : Cy_com_metrics.obj (.text:_ZN3Ver16get_cy_com_statsEv)
                  000a4423    00000057     base.lib : Datalink_transmitter.obj (.text:_ZN4Base20Datalink_transmitter14set_status_msgERNS_5LossyE)
                  000a447a    00000057     veronte.lib : Xpccansuite.obj (.text:_ZN4Base3XpcIN3Ver15Xpccantrait_verEE4stepENS2_5GroupE)
                  000a44d1    00000057     first.lib : PDIcheck.obj (.text:_ZN4Base8PDIcheck7commit0ERKNS_5ErrorE)
                  000a4528    00000057               : Endian16_little.obj (.text:_ZNK4Base15Endian16_little10put_uint16ERKjPjRmi)
                  000a457f    00000056     crypto_c28.lib : Compute_hash.obj (.text:_ZN10Crypto_c2812compute_hashERKN4Base8Mblock_sERNS0_7TnarrayImLm8EEE)
                  000a45d5    00000056     DSP28x.lib : I2Cif.obj (.text:_ZN12Dsp28335_ent5I2Cif4initEv)
                  000a462b    00000056     base.lib : Actmgr.obj (.text:_ZN4Base6ActmgrC1ERNS_9IexecuterERVKNS_7TnarrayINS_9Eventout0ELm500EEERVKNS_6TdsyncINS_8ArraymskINS_9Evactcfg0ELj100EEENS_12Tdsynctraits11Rd_blockingISB_NS_8Cptraits6PodrawIVSB_EEEENSC_15Disabled_structEEERVKNS8_INS9_INS_6ActionELj120EEENSD_ISO_NSF_IVSO_EEEESJ_EERVKb)
                  000a4681    00000056              : Xclogsvc.obj (.text:_ZN4Base8XclogsvcC1ERVKNS_6TdsyncINS_8XclogreqENS_12Tdsynctraits11Rd_blockingIS2_NS_8Cptraits6PodrawIVS2_EEEENS3_2WrIS2_NS5_8OperatorIS2_S2_EEEEEERNS_9XclogctrlERNS_11IlogcontrolERNS_6XcffrdIjEERNS_12Xcffwr_cvrefIjEERVKNS1_INS_8FstrFastENS4_ISR_NS6_IVSR_EEEENS3_15Disabled_structEEERNS_7SessionE)
                  000a46d7    00000056     veronte.lib : Xpcu8suite.obj (.text:_ZN4Base9Allocator24allocate_new_array_arrayINS_12FmsgconsumerENS2_6ConfigENS_6MblockIPVKNS_11TnarrayreszINS_8Fmsg_cfgELm32EEEEEEEPT_mT0_T1_)
                  000a472d    00000055                 : Halsuite_amz.obj (.text:_ZN12Dsp28335_ent9DMApm_blkIjEC1ENS_3DMA2IdERKNS_10DMAtriggerEN4Base6MblockIjEE)
                  000a4782    00000055     DSP2838x_ent.lib : PMbusdrv_drv.obj (.text:_ZN12Dsp28335_ent9PMbus_drv10start_readEjRN4Base10U8pkmblockEb)
                  000a47d7    00000055     geomodel.lib : Fidcache.obj (.text:_ZN3Geo8Fidcache13compute_path0EN4Base3FidE)
                  000a482c    00000055     first.lib : Strutil.obj (.text:_ZN4Base7Strutil6to_hexEmhRNS_7VstringE)
                  000a4881    00000055     base.lib : CANin_mgr.obj (.text:_ZN4Base9CANin_mgr5writeENS_6CANpidERKNS_8CANframeE)
                  000a48d6    00000055     DFS2.lib : DSF2_file.obj (.text:_ZN4DFS24File8open_prvEN4Base5Ifile9Open_modeE)
                  000a492b    00000055     midlevel.lib : Cy_soft_conf_check.obj (.text:_ZN6Cyphal18Cy_soft_conf_check22Cy_soft_check_responseC1ERKN4Base7TnarrayImLm8EEES6_RKNS2_7VersionERKhmRKbRNS_16Conf_check_queryEPNS0_12Icpu_handlerE)
                  000a4980    00000055     devices.lib : MX66L.obj (.text:_ZN7Devices5MX66L11read_statusEv)
                  000a49d5    00000055     midlevel.lib : TP_sync.obj (.text:_ZN8Midlevel7TP_sync4stepEv)
                  000a4a2a    00000054     DSP28x.lib : SPI.obj (.text:_ZN12Dsp28335_ent3SPI4xmitEj)
                  000a4a7e    00000054     veronte.lib : Halsuite_amz.obj (.text:_ZN12Dsp28335_ent9DMAmp_blkIjEC1ENS_3DMA2IdERKNS_10DMAtriggerEN4Base6MblockIjEE)
                  000a4ad2    00000054                 : Xpccansuite.obj (.text:_ZN3Ver11Xpccansuite6configERKN4Base11CANin_suiteILj6EEE)
                  000a4b26    00000054                 : Veronte.obj (.text:_ZN4Base7Xcfgmgr5TxcfgINS_8Xcfg_desIN12Dsp28335_ent10CAN_FD_cfgENS_9Tuntraits10DesdefaultIS4_EEEENS3_6CAN_FDEE4stepEv)
                  000a4b7a    00000054                 : Veronte.obj (.text:_ZN4Base7Xcfgmgr5TxcfgINS_8Xcfg_desIN12Dsp28335_ent6CANcfgENS_9Tuntraits10DesdefaultIS4_EEEENS3_3CANEE4stepEv)
                  000a4bce    00000054                 : Xpcu8suite.obj (.text:_ZN4Base7Xcfgmgr5TxcfgINS_8Xcfg_desINS_11TnarrayreszINS_7Xpcmap0ELm45EEENS_9Tuntraits15Arraytun_size16INS_3XpcIN3Ver11Xpcu8_traitEE9Tuntrait0ES5_NS6_8No_checkIS5_EEEEEENS9_10Xpcu8suiteEE4stepEv)
                  000a4c22    00000054                 : Xpccansuite.obj (.text:_ZN4Base9Allocator24allocate_new_array_arrayINS_12FcanconsumerINS_8Xcfg_desINS_15Xfmsgcanc0arrayILj0ELj0EEENS_9Tuntraits15Arraytun_size16INS6_9Cset_onlyINS_10Xfmsgcanc0ILj0EEEEES5_NS6_8No_checkIS5_EEEEEEEEPNS_4IsetEPNS_4IgetEPKNS_10KfieldsvecINS_9FmsetvdatEEEPNS_11ImsgcheckerEPNS_7FMCPmgrENS_6MblockIVKNS_6TdsyncIS5_NS_12Tdsynctraits11Rd_blockingIS5_NS_8Cptraits6PodrawIVS5_EEEENSW_15Disabled_structEEEEEEEPT_mT0_T1_T2_T3_T4_T5_)
                  000a4c76    00000054     first.lib : Real16.obj (.text:_ZN6Real1614half_to_singleEj)
                  000a4cca    00000054     midlevel.lib : Sniffer.obj (.text:_ZN8Midlevel7Sniffer17get_enabled_indexERKN4Base10KfieldsvecINS1_11SniffervdatEE6ReaderERKNS1_8Spkt_hdrEm)
                  000a4d1e    00000053     base.lib : Stanag_parser.obj (.text:_ZN4Base13Stanag_parser5parseEh)
                  000a4d71    00000053     stanag.lib : Alert_msg.obj (.text:_ZN6Stanag9Alert_msg16Alert_data_arrayILj3EE3delENS_8Alert_idE)
                  000a4dc4    00000053     midlevel.lib : Secure_CAN.obj (.text:_ZN7Devices10Secure_CAN14get_cfg_secureEj)
                  000a4e17    00000053                  : Secure_CAN.obj (.text:_ZN7Devices10Secure_CAN18enable_transceiverERN12Dsp28335_ent6CAN_FDERKN4Base11TnarrayreszINS0_3CmdELm6EEE)
                  000a4e6a    00000053     pa_blocks.lib : Cy_maint_dcomms.obj (.text:_ZN9Pa_blocks15Cy_maint_dcomms11append_nameENS0_8CommandsE)
                  000a4ebd    00000052     veronte.lib : Xpcu8suite.obj (.text:_ZN4Base5ArrayINS_12FmsgconsumerEEC1INS1_6ConfigEPVKNS_11TnarrayreszINS_8Fmsg_cfgELm32EEEEEmNS_6Memmgr4TypeET_NS_6MblockIT0_EE)
                  000a4f0f    00000052     first.lib : Strutil.obj (.text:_ZN4Base7Strutil21upper_hex_str_to_realERKNS_9U8pkarrayILm8EEERf)
                  000a4f61    00000052     midlevel.lib : Cy_msg_id_gen.obj (.text:_ZN6Cyphal41_GLOBAL__N__17_Cy_msg_id_gen_cpp_833419e712get_m_prefixEv)
                  000a4fb3    00000052     devices.lib : Adis165053.obj (.text:_ZN7Devices10Adis1650536configERKNS_14Adis165053_cfgE)
                  000a5005    00000052     pa_blocks.lib : Cy_maint_dcomms.obj (.text:_ZNK9Pa_blocks15Cy_maint_dcomms15fill_res_paramsERNS_22Cy_maint_action_consts12Result_codesERNS1_13Payload_typesERN4Base12U8pkrszarrayILm256EEE)
                  000a5057    00000051     veronte.lib : Halsuite.obj (.text:_ZN4Base11Port_bufferINS_13Port_stats_txIN12Dsp28335_ent3SCIEEENS_13Port_stats_rxIS3_EEE4stepEv)
                  000a50a8    00000051     first.lib : Lossy.obj (.text:_ZN4Base5Lossy15get_float_ubitsERfjffmm)
                  000a50f9    00000051     DFS2.lib : DSF2_file.obj (.text:_ZN4DFS24File10seek_asyncElN4Base5Ifile9Seek_modeE)
                  000a514a    00000051     stanag.lib : Stanag_port.obj (.text:_ZN6Stanag11Stanag_portC1ERKNS0_5ParamE)
                  000a519b    00000051                : Fly_term_report.obj (.text:_ZN6Stanag15Fly_term_report11execute_cmdENS_4Defs12Fly_term_cmd4TypeERNS_14IStanag_msg_rx9Rx_paramsE)
                  000a51ec    00000051                : Schedule_msg_updt.obj (.text:_ZN6Stanag17Schedule_msg_updt4stepEv)
                  000a523d    00000051                : Alert_msg.obj (.text:_ZN6Stanag9Alert_msg14generate_alertERKN4Base15Auth_connectionERKNS1_10StimestampERNS1_11Imsg_senderERKNS0_10Alert_infoE)
                  000a528e    00000051     midlevel.lib : Cyphal_tx_mgr.obj (.text:_ZN8Midlevel13Cy_msg_helperILm200EEC1EN4Base15Stanag_msg_type8Msg_typeERKNS2_13IserializableINS2_9U8ostreamEEEN6Cyphal8PriorityE)
                  000a52df    00000051     veronte.lib : Rtaskio_amz.obj (.text:_ZN8Midlevel13Cy_msg_helperILm50EEC1EN4Base15Stanag_msg_type8Msg_typeERKNS2_13IserializableINS2_9U8ostreamEEEN6Cyphal8PriorityE)
                  000a5330    00000051     first.lib : Ttime.obj (.text:_ZNK4Base5Ttime9get_msecsEv)
                  000a5381    00000050     base.lib : Fmsgconsumer.obj (.text:_ZN4Base12Fmsgconsumer15rx_discard_bitsEmj)
                  000a53d1    00000050     first.lib : Lossy.obj (.text:_ZN4Base5Lossy15get_float_ibitsERfjffll)
                  000a5421    00000050     veronte.lib : FormatSD_amz.obj (.text:_ZN4DFS27DFS2_fs26get_filesystem_descriptionERKS0_RNS0_11Format_partE)
                  000a5471    00000050     first.lib : Real16.obj (.text:_ZN6Real1614single_to_halfEf)
                  000a54c1    00000050     maverick.lib : Irvector3.obj (.text:_ZN8Maverick9Irvector37matthisERKNS_9Irmatrix3E)
                  000a5511    00000050     pa_blocks.lib : Gnss_raw_meas_fifo.obj (.text:_ZN9Pa_blocks18Gnss_raw_meas_fifo6Writer5on_rxEN6Cyphal8CyCAN_idERN4Base9U8istreamE)
                  000a5561    00000050     media.lib : Logctrl.obj (.text:_ZNK5Media7Logctrl12Session_data4cgetERN4Base9U8ostreamE)
                  000a55b1    0000004f     DSP2838x_ent.lib : FSI_rx.obj (.text:_ZN12Dsp28335_ent6FSI_rx7sync_rxEv)
                  000a5600    0000004f     veronte.lib : Xpccansuite.obj (.text:_ZN3Ver11Xpccansuite6configERKN4Base12CANout_suiteILj6EEE)
                  000a564f    0000004f                 : Can4x.obj (.text:_ZN3Ver5Can4x6configERKNS_10Can_4x_cfgE)
                  000a569e    0000004f     base.lib : Datalink_buffer.obj (.text:_ZN4Base15Datalink_buffer4readERNS_10U8pkmblockE)
                  000a56ed    0000004f              : Datalink_transmitter.obj (.text:_ZN4Base20Datalink_transmitter11read_windowEv)
                  000a573c    0000004f     first.lib : Lossy.obj (.text:_ZN4Base5Lossy6get_ckERNS_9IchecksumEjjNS_10EndiannessE)
                  000a578b    0000004f     veronte.lib : Veronte.obj (.text:_ZN4Base7Xcfgmgr5TxcfgINS_8Xcfg_desINS_7TnarrayINS_11TnarrayreszINS_4BvarELm20EEELm3EEENS_9Tuntraits15Arraytun_nosizeINS8_15Arraytun_size16INS8_7Lossy16IS5_EES6_NS8_8No_checkIS6_EEEES7_NSD_IS7_EEEEEEN3Ver6BitmgrEE4stepEv)
                  000a57da    0000004f     first.lib : File_sync.obj (.text:_ZN4Base9File_sync5closeEv)
                  000a5829    0000004f     rts2800_fpu64_eabi.lib : typeinfo.c.obj (.text)
                  000a5878    0000004e     geomodel.lib : Gellipsoid.obj (.text:_ZN3Geo10Gellipsoid8geo2ecefERKN4Base5TllcsEfRNS_5TecefE)
                  000a58c6    0000004e     base.lib : Espkt_parser.obj (.text:_ZN4Base12Espkt_parserC1Ev)
                  000a5914    0000004e              : Meastypes.obj (.text:_ZN4Base13GNSS_week_tow12set_total_msEx)
                  000a5962    0000004e              : Spkt.obj (.text:_ZN4Base4Spkt15update_raw_dataEv)
                  000a59b0    0000004e     first.lib : Strutil.obj (.text:_ZN4Base7Strutil21real_to_upper_hex_strEfRNS_9U8pkarrayILm8EEE)
                  000a59fe    0000004e               : Endian3.obj (.text:_ZN4Base8E3helper12get_instanceEv)
                  000a5a4c    0000004e               : U8istream.obj (.text:_ZN4Base9U8istream13get_uint64_leEv)
                  000a5a9a    0000004e     pa_blocks.lib : Cy_maint_dcomms.obj (.text:_ZN9Pa_blocks15Cy_maint_dcommsC1ERN4Base6ItportIhhEENS1_4BvarEN12Dsp28335_ent6GPIOidES7_)
                  000a5ae8    0000004d     veronte.lib : Maps_updater.obj (.text:_ZN3Ver12Maps_updaterC1ERN4Base5IfileE)
                  000a5b35    0000004d                 : Xpccansuite.obj (.text:_ZN4Base7Xcfgmgr5TxcfgINS_8Xcfg_desINS_11CANin_suiteILj6EEENS_9Tuntraits10DesdefaultIS4_EEEEN3Ver11XpccansuiteEE4stepEv)
                  000a5b82    0000004d                 : Xpccansuite.obj (.text:_ZN4Base7Xcfgmgr5TxcfgINS_8Xcfg_desINS_11TnarrayreszINS_7Xpcmap0ELm19EEENS_9Tuntraits15Arraytun_size16INS_3XpcIN3Ver15Xpccantrait_verEE9Tuntrait0ES5_NS6_8No_checkIS5_EEEEEENS9_11XpccansuiteEE4stepEv)
                  000a5bcf    0000004d                 : Xpccansuite.obj (.text:_ZN4Base7Xcfgmgr5TxcfgINS_8Xcfg_desINS_12CANout_suiteILj6EEENS_9Tuntraits10DesdefaultIS4_EEEEN3Ver11XpccansuiteEE4stepEv)
                  000a5c1c    0000004d     media.lib : Logctrl.obj (.text:_ZN5Media7Logctrl13start_sessionEv)
                  000a5c69    0000004d     pa_blocks.lib : Cy_maint_action.obj (.text:_ZN9Pa_blocks15Cy_maint_action9step_taskEv)
                  000a5cb6    0000004c     DSP2837x_ent.lib : System_cpu1.obj (.text:_ZN12Dsp28335_ent10init_emif1ENS_6System12Ext_mem_sizeE)
                  000a5d02    0000004c     base.lib : Cyphal_common_types.obj (.text:_ZN19Cyphal_common_types16serialize_stringERN4Base5LossyERKNS0_12U8pkrszarrayILm256EEE)
                  000a5d4e    0000004c              : Cyphal_common_types.obj (.text:_ZN19Cyphal_common_types16serialize_stringERN4Base9U8ostreamERKNS0_12U8pkrszarrayILm256EEE)
                  000a5d9a    0000004c     midlevel.lib : Cmdmgr.obj (.text:_ZN4Base12Data_mutatorINS_11Lossy_error15Mutator_traits8ENS_9U8istream12Data_traits8EEC1ERS3_)
                  000a5de6    0000004c     base.lib : Field.obj (.text:_ZN4Rfun11safe_divideIeEET_S1_S1_S1_)
                  000a5e32    0000004c     stanag.lib : Acknowledgement.obj (.text:_ZN6Stanag15Acknowledgement5on_txERNS_14IStanag_msg_tx9Tx_paramsE)
                  000a5e7e    0000004c     devices.lib : Xr20m1172.obj (.text:_ZN7Devices9Xr20m11729write_regEhh)
                  000a5eca    0000004c     midlevel.lib : GPIOicnt_check.obj (.text:_ZN8Midlevel14GPIOicnt_check21check_inter_connectedEN12Dsp28335_ent6GPIOidES2_)
                  000a5f16    0000004c     pa_blocks.lib : Cyphal_com_stats.obj (.text:_ZN9Pa_blocks16Cyphal_com_statsC1ERKN6Cyphal12Cyphal_suiteEfNS0_4VarsE)
                  000a5f62    0000004c     veronte.lib : Bitmgr.obj (.text:_ZNK3Ver6Bitmgr18compute_power_bitsERbS1_)
                  000a5fae    0000004c     base.lib : Tmvdat.obj (.text:_ZNK4Base6Tmvdat5buildERKNS_9KfieldsetERNS_11Lossy_errorE)
                  000a5ffa    0000004b              : Stanag_parser.obj (.text:_ZN4Base13Stanag_parser11parse_asyncEv)
                  000a6045    0000004b     veronte.lib : Xpccansuite.obj (.text:_ZN4Base9Allocator24allocate_new_array_arrayINS_12FcanproducerINS_8Xcfg_desINS_15Xfmsgcanp0arrayILj0EEENS_9Tuntraits10DesdefaultIS5_EEEEEEPNS_4IgetEPKNS_10KfieldsvecINS_9FmsetvdatEEENS_6MblockIVKNS_6TdsyncIS5_NS_12Tdsynctraits11Rd_blockingIS5_NS_8Cptraits6PodrawIVS5_EEEENSK_15Disabled_structEEEEEEEPT_mT0_T1_T2_)
                  000a6090    0000004b     devices.lib : Xr20m1172.obj (.text:_ZN7Devices9Xr20m117212set_lc_valueEN12Dsp28335_ent6SCIcfg6LengthENS2_4StopENS2_11Parity_bitsE)
                  000a60db    0000004a     first.lib : Memmgr_c2000.obj (.text:_ZN4Base6Memmgr12get_instanceEv)
                  000a6125    0000004a     midlevel.lib : Cyphal_rx_hnd.obj (.text:_ZN6Cyphal13Cyphal_rx_hnd5on_rxERN4Base9U8istreamE)
                  000a616f    0000004a                  : Conf_check_query.obj (.text:_ZN6Cyphal16Conf_check_queryC1EjRNS_12Check_senderERKb)
                  000a61b9    0000004a     devices.lib : MX66L.obj (.text:_ZN7Devices5MX66L20read_sector_get_dataERN4Base10U8pkmblockE)
                  000a6203    00000049     DSP2838x_ent.lib : CAN_FD.obj (.text:_ZN12Dsp28335_ent6CAN_FDC1EN4Base6CANpidE)
                  000a624c    00000049     base.lib : CANserial.obj (.text:_ZN4Base10WindowbuffINS_7CANdataEE10discard_toEh)
                  000a6295    00000049              : Field_real_hex_ASCII.obj (.text:_ZNK4Base20Field_real_hex_ASCII10uncompressERNS_5LossyERNS_4IsetERKj)
                  000a62de    00000048     DSP2837x_ent.lib : Emif1.obj (.text:_ZN12Dsp28335_ent5Emif125set_async_cs2_cr_veronte4Ev)
                  000a6326    00000048     DSP28x.lib : I2Cdevice.obj (.text:_ZN12Dsp28335_ent9I2Cdevice11set_enabledEb)
                  000a636e    00000048     geomodel.lib : Gellipsoid.obj (.text:_ZN3Geo10Gellipsoid9geoevol_1EfffRKN4Base12Tllh_low_resERN8Maverick9Irvector3E)
                  000a63b6    00000048     veronte.lib : Rtaskio_amz.obj (.text:_ZN3Ver7Rtaskio13tmr2_interrutEv)
                  000a63fe    00000048                 : Xpcu8suite.obj (.text:_ZN4Base3XpcIN3Ver11Xpcu8_traitEE12disable_comsEv)
                  000a6446    00000048     base.lib : Tmeas3D.obj (.text:_ZN4Base7Tmeas3D5writeERKN8Maverick9Irvector3E)
                  000a648e    00000048     devices.lib : MX66L.obj (.text:_ZN7Devices5MX66LC1ERN4Base6ItportIjjEERNS1_5IGpioE)
                  000a64d6    00000048     DSP28x.lib : SCIcfg.obj (.text:_ZNK12Dsp28335_ent6SCIcfg8validateEv)
                  000a651e    00000047     base.lib : Ipkt_parser.obj (.text:_ZN4Base11Ipkt_parser12shift_nbytesERNS_9U8ostreamEj)
                  000a6565    00000047              : Fmsgconsumer.obj (.text:_ZN4Base12Fmsgconsumer5writeEh)
                  000a65ac    00000047              : Fmsgchecker.obj (.text:_ZN4Base9Allocator21allocate_new_array_itINS_3VarINS_4BvarEE4RcwdENS_5RngitIS3_EEEEPT_mT0_)
                  000a65f3    00000047     veronte.lib : Veronte.obj (.text:_ZN4Base9Fifo_portINS_11Fifo_sharedINS_11Spkt_bufferELj2EE6WriterENS3_6ReaderEE4stepEv)
                  000a663a    00000047     base.lib : Cfgid_mode.obj (.text:_ZNVK4Base10Cfgid_mode10wr_allowedENS_3Cfg2IdE)
                  000a6681    00000046     DSP2838x_ent.lib : FSI_rx.obj (.text:_ZN12Dsp28335_ent6FSI_rx4initEb)
                  000a66c7    00000046     geomodel.lib : Apos.obj (.text:_ZN3Geo4Apos7move_rnERKN8Maverick9Irvector3E)
                  000a670d    00000046     veronte.lib : Halsuite_amz.obj (.text:_ZN3Ver8Halsuite13get_fs_driverEv)
                  000a6753    00000046     base.lib : Spkt.obj (.text:_ZN4Base4SpktC1ENS_10U8pkmblockEb)
                  000a6799    00000046              : CANin_mgr.obj (.text:_ZN4Base9CANin_mgrC1ENS_6MblockIPNS_10ItproducerINS_8CANframeEEEEERNS_5ArrayINS_7CANin_pEEEj)
                  000a67df    00000046              : SerialCAN.obj (.text:_ZN4Base9SerialCANC1Ev)
                  000a6825    00000046     midlevel.lib : Cyphal_tx_mgr.obj (.text:_ZN6Cyphal13Cyphal_tx_mgr11register_txEN4Base15Stanag_msg_type8Msg_typeERNS1_13IserializableINS1_9U8ostreamEEEfNS_8PriorityE)
                  000a686b    00000046     stanag.lib : Alert_msg.obj (.text:_ZN6Stanag9Alert_msgC1ERKNS_22Vehicle_identifier_cfgERNS_12Auth_requestE)
                  000a68b1    00000046     DFS2.lib : Indexsector.obj (.text:_ZNK4DFS211Indexsector23check_partition_sectorsENS_9PartitionES1_)
                  000a68f7    00000045     DSP2837x_ent.lib : SCI_2837x.obj (.text:_ZN12Dsp28335_ent3SCI8get_regsENS0_2IdE)
                  000a693c    00000045     base.lib : Vrefdstbuff.obj (.text:_ZN4Base11Vrefdstbuff6commitERNS_4IsetE)
                  000a6981    00000044     DSP2837x_ent.lib : CAN.obj (.text:_ZN12Dsp28335_ent3CANC1EN4Base6CANpidE)
                  000a69c5    00000044     veronte.lib : Rtaskio_amz.obj (.text:_ZN3Ver7Rtaskio10step_pimplEv)
                  000a6a09    00000044                 : Isensimrx.obj (.text:_ZN3Ver9Isensimrx5on_rxERN6Stanag14IStanag_msg_rx9Rx_paramsE)
                  000a6a4d    00000044     base.lib : CANserial.obj (.text:_ZN4Base10WindowbuffINS_7CANdataEE4readERS1_)
                  000a6a91    00000044     veronte.lib : Xpccansuite.obj (.text:_ZN4Base12Data_mutatorINS_5Lossy15Mutator_traits8IS1_EENS_12U8pkrszarrayILm64EE12Data_traits8EEC1ERS5_)
                  000a6ad5    00000044     base.lib : Datalink_buffer.obj (.text:_ZN4Base15Datalink_buffer5writeERKNS_12U8pkmblock_kE)
                  000a6b19    00000044              : Tcal3D.obj (.text:_ZN4Base6Tcal3D8set_tempEf)
                  000a6b5d    00000044     veronte.lib : Xpccansuite.obj (.text:_ZN4Base9Allocator18allocate_new_arrayINS_7CANin_pEjNS_6Memmgr4TypeEEEPT_mRT0_RT1_)
                  000a6ba1    00000044     base.lib : Xcfilesvc.obj (.text:_ZN4Base9Xcfilesvc14xcf_wait_writeEv)
                  000a6be5    00000044     midlevel.lib : CyphalStanag_tx_hnd.obj (.text:_ZN6Cyphal19CyphalStanag_tx_hnd5on_txERN6Stanag14IStanag_msg_tx9Tx_paramsE)
                  000a6c29    00000044     stanag.lib : Stanag_pulling.obj (.text:_ZN6Stanag17Stanag_serializer5on_txEPNS_14IStanag_msg_txERN4Base4SpktERKNS3_7AddressERKNS3_8Msg_dataERNS1_9Tx_paramsE)
                  000a6c6d    00000044     devices.lib : ADC121C021Q.obj (.text:_ZN7Devices11ADC121C021QC1ERN12Dsp28335_ent5I2CifEhRVfRVjfff)
                  000a6cb1    00000044     maverick.lib : Moving_average.obj (.text:_ZN9Pa_blocks14Moving_average4stepEf)
                  000a6cf5    00000044     veronte.lib : ADCsuite.obj (.text:_ZNK3Ver8ADCsuite9get_valueENS0_7ADCnameE)
                  000a6d39    00000044                 : Veronte.obj (.text:_ZNK4Base13Routing_tableILj2ELj16EE11get_routingENS_8Address0ERNS_8BitarrayILj16EEE)
                  000a6d7d    00000043     DSP2838x_ent.lib : SPI_2838x.obj (.text:_ZN12Dsp28335_ent3SPI8get_regsENS0_2IdE)
                  000a6dc0    00000043     pring.lib : gaussian.obj (.text:_ZN12Random_nmspc8Gaussian10box_mullerEv)
                  000a6e03    00000043     veronte.lib : Logbook.obj (.text:_ZN3Ver7Logbook11set_runningEb)
                  000a6e46    00000043                 : Devsuite_amz.obj (.text:_ZN3Ver8Devsuite13sync_imu_edgeEf)
                  000a6e89    00000043     first.lib : Ttime.obj (.text:_ZN4Base32_GLOBAL__N__9_Ttime_cpp_8429a5a816get_msecs_factorEv)
                  000a6ecc    00000043     base.lib : Fheader.obj (.text:_ZN4Base7Fheader5writeERKNS_9KfieldsetERNS_7SessionERNS_5LossyENS_7AddressE)
                  000a6f0f    00000043              : Fmsgmgr.obj (.text:_ZN4Base7FmsgmgrC1ERNS_5IFMCPES2_S2_)
                  000a6f52    00000043     veronte.lib : Veronte.obj (.text:_ZN4Base7Xcfgmgr5TxcfgINS_8Xcfg_desIN12Dsp28335_ent6SCIcfgENS_9Tuntraits10DesdefaultIS4_EEEENS3_3SCIEE4stepEv)
                  000a6f95    00000043     devices.lib : Lidarsimdev.obj (.text:_ZN7Devices11Lidar_array4csetERN4Base5LossyENS_11Sim_cset_idE)
                  000a6fd8    00000043     veronte.lib : Vfspermission.obj (.text:_ZNK4Base8Hash_mapINS_7Hashers11Element_u16EE3getERKj)
                  000a701b    00000042     DSP2838x_ent.lib : CAN_FD.obj (.text:_ZN12Dsp28335_ent6CAN_FD13check_tx_toutEv)
                  000a705d    00000042     base.lib : CANout_mgr.obj (.text:_ZN4Base10CANout_mgr4stepEv)
                  000a709f    00000042     veronte.lib : Xpccansuite.obj (.text:_ZN4Base3XpcIN3Ver15Xpccantrait_verEEC1Ev)
                  000a70e1    00000042     first.lib : Timeout.obj (.text:_ZN4Base7TimeoutC1Ef)
                  000a7123    00000042     midlevel.lib : Cyphal_tx_mgr.obj (.text:_ZN6Cyphal13Cyphal_tx_mgr12get_free_msgEv)
                  000a7165    00000042                  : Cy_mode_transition_allowed.obj (.text:_ZN8Midlevel26Cy_mode_transition_allowed5on_rxEN6Cyphal8CyCAN_idERN4Base9U8istreamE)
                  000a71a7    00000042     pa_blocks.lib : Cy_maint_action.obj (.text:_ZN9Pa_blocks15Cy_maint_action9on_rx_pktERN6Stanag14IStanag_rx_pkt6ParamsE)
                  000a71e9    00000042     first.lib : Vref.obj (.text:_ZNK4Base4Vref4kgetEv)
                  000a722b    00000042     base.lib : Field_cfg.obj (.text:_ZNK4Base9Field_cfg8Checksum10check_privERNS_9IchecksumERNS_5LossyE)
                  000a726d    00000041     DSP28x.lib : I2Cdevice.obj (.text:_ZN12Dsp28335_ent9I2CdeviceC1ERN4Base6II2CifEhhRVb)
                  000a72ae    00000041     first.lib : Lossy.obj (.text:_ZN4Base5Lossy9put_floatEfffh)
                  000a72ef    00000041     veronte.lib : Veronte.obj (.text:_ZN4Base7Xcfgmgr5TxcfgINS_8Xcfg_desINS_10Xcomstats0ENS_9Tuntraits10DesdefaultIS3_EEEEN8Midlevel8ComstatsEE4stepEv)
                  000a7330    00000041     base.lib : CANserial.obj (.text:_ZN4Base9CANserialC1Eh)
                  000a7371    00000041     midlevel.lib : Cy_soft_conf_check.obj (.text:_ZN6Cyphal18Cy_soft_conf_check22Cy_soft_check_response18get_app_ver_stringERN4Base7VstringE)
                  000a73b2    00000041     stanag.lib : Stanag_status_msgs.obj (.text:_ZN6Stanag18Stanag_status_msgs4stepEN4Base8IteratorINS_17Stanag_decimation3CfgEEERNS1_11Imsg_senderE)
                  000a73f3    00000041                : Stanag_msg_push_pkt.obj (.text:_ZN6Stanag19Stanag_msg_rx_async9on_rx_pktERNS_14IStanag_rx_pkt6ParamsE)
                  000a7434    00000041     devices.lib : Rtksimdev.obj (.text:_ZN7Devices9Rtksimdev4csetERN4Base5LossyE)
                  000a7475    00000041     rts2800_fpu64_eabi.lib : autoinit.c.obj (.text:__TI_auto_init)
                  000a74b6    00000040     DSP2837x_ent.lib : CAN.obj (.text:_ZN12Dsp28335_ent3CAN12clear_tx_mbsEv)
                  000a74f6    00000040                      : Mcbsp.obj (.text:_ZN12Dsp28335_ent5McbspC1ENS0_2IdE)
                  000a7536    00000040     veronte.lib : Isensimrx.obj (.text:_ZN4Base12Data_mutatorINS_5Lossy15Mutator_traits8IS1_EENS_9U8istream12Data_traits8EEC1ERS4_)
                  000a7576    00000040     base.lib : Xclk.obj (.text:_ZN4Base4Xclk4stepEv)
                  000a75b6    00000040     first.lib : Lossy.obj (.text:_ZN4Base5Lossy10put_uint16Ejjj)
                  000a75f6    00000040     veronte.lib : Rtaskio.obj (.text:_ZN4Base7Xcfgmgr5TxcfgINS_8Xcfg_desIN3Ver10ArbiterCfg6ConfigENS_9Tuntraits10DesdefaultIS5_EEEES4_E4stepEv)
                  000a7636    00000040                 : Xpccansuite.obj (.text:_ZN4Base7Xcfgmgr5TxcfgINS_8Xcfg_desIN3Ver10Can_4x_cfgENS_9Tuntraits10DesdefaultIS4_EEEENS3_5Can4xEE4stepEv)
                  000a7676    00000040                 : Rtaskio.obj (.text:_ZN4Base7Xcfgmgr5TxcfgINS_8Xcfg_desIN3Ver9Xfreqmgr0ENS_9Tuntraits10DesdefaultIS4_EEEENS3_7RtaskioEE4stepEv)
                  000a76b6    00000040                 : Devsuite_amz.obj (.text:_ZN4Base7Xcfgmgr5TxcfgINS_8Xcfg_desIN7Devices14Adis165053_cfgENS_9Tuntraits10DesdefaultIS4_EEEENS3_10Adis165053EE4stepEv)
                  000a76f6    00000040                 : Devsuite_amz.obj (.text:_ZN4Base7Xcfgmgr5TxcfgINS_8Xcfg_desIN8Maverick13Notch_lpf_cfgENS_9Tuntraits10DesdefaultIS4_EEEENS3_19Biquad_notch_lpf_3dEE4stepEv)
                  000a7736    00000040                 : Xpccansuite.obj (.text:_ZN4Base7Xcfgmgr5TxcfgINS_8Xcfg_desINS_11CANsc_suiteILj6EEENS_9Tuntraits10DesdefaultIS4_EEEEN3Ver11XpccansuiteEE4stepEv)
                  000a7776    00000040     midlevel.lib : Comstats.obj (.text:_ZN4Base9Allocator18allocate_new_arrayIN8Midlevel8Comstats6StdataEEEPT_m)
                  000a77b6    00000040     base.lib : CANserial.obj (.text:_ZN4Base9CANserial4readERh)
                  000a77f6    00000040     midlevel.lib : Cy_mode_transition.obj (.text:_ZN8Midlevel18Cy_mode_transitionC1ERN6Cyphal13Cyphal_rx_mgrERNS_8SysresetE)
                  000a7836    00000040     pa_blocks.lib : Cyphal_com_stats.obj (.text:_ZN9Pa_blocks16Cyphal_com_stats8Occ_ewma4stepEff)
                  000a7876    00000040     base.lib : Xclk.obj (.text:_ZNK4Base4Xclk3tocEv)
                  000a78b6    00000040              : Field_BCD.obj (.text:_ZNK4Base9Field_BCD10uncompressERNS_5LossyERm)
                  000a78f6    0000003f     veronte.lib : Hxcfile_cpu1.obj (.text:_ZN3Ver7Hxcfile13get_xcfilesvcERN4Base5IfileE)
                  000a7935    0000003f     base.lib : Xclk.obj (.text:_ZN4Base4Xclk3ticEf)
                  000a7974    0000003f     first.lib : Lossy.obj (.text:_ZN4Base5Lossy10put_uint32Emmm)
                  000a79b3    0000003f     base.lib : FMCPmgr.obj (.text:_ZN4Base7FMCPmgrC1ERNS_5IFMCPES2_S2_)
                  000a79f2    0000003f     DFS2.lib : DSF2_file.obj (.text:_ZN4DFS24File11exist_asyncEN4Base5Ifile3UidERb)
                  000a7a31    0000003f     stanag.lib : Fly_term_report.obj (.text:_ZN6Stanag15Fly_term_report5on_txERNS_14IStanag_msg_tx9Tx_paramsE)
                  000a7a70    0000003f     veronte.lib : Hvar_cpu1.obj (.text:_ZNK4Base6XcmvarINS_4RvarENS_9Tuntraits12U16str_floatEE7Builder5buildERNS_11U16stream_wE)
                  000a7aaf    0000003f     midlevel.lib : Cyphal_tx_mgr.obj (.text:_ZNK6Cyphal13Cyphal_tx_mgr10get_tx_occEv)
                  000a7aee    0000003f     first.lib : Systime.obj (.text:_ZNV4Base7Systime4initERKNS_7UbxtimeE)
                  000a7b2d    0000003f     DFS2.lib : DSF2_file.obj (.text:__sti___13_DSF2_file_cpp_5acf50d0)
                  000a7b6c    0000003e     first.lib : U16stream_w.obj (.text:_ZN4Base11U16stream_w10put_uint64Ey)
                  000a7baa    0000003e     veronte.lib : Tmsuite.obj (.text:_ZN4Base12Data_mutatorINS_11Lossy_error15Mutator_traits8ENS_9U8ostream12Data_traits8IS3_EEEC1ERS3_)
                  000a7be8    0000003e     base.lib : Presence_vec.obj (.text:_ZN4Base12Presence_vec10initializeEy)
                  000a7c26    0000003e     first.lib : Lossy.obj (.text:_ZN4Base5Lossy9get_floatERfffh)
                  000a7c64    0000003e     base.lib : Xcmqwr.obj (.text:_ZN4Base6Xcmqwr6write0Ej)
                  000a7ca2    0000003e     first.lib : Strutil.obj (.text:_ZN4Base7Strutil17dec_str_to_uint32ERNS_5LossyEhRm)
                  000a7ce0    0000003e     veronte.lib : Hvar.obj (.text:_ZN4Base8Hbmapvar3getERNS0_4TypeE)
                  000a7d1e    0000003e     midlevel.lib : Cyphal_tx_mgr.obj (.text:_ZN6Cyphal13Cyphal_tx_mgr7step_hiEv)
                  000a7d5c    0000003e     maverick.lib : Biquad_notch_lpf_3d.obj (.text:_ZN8Maverick19Biquad_notch_lpf_3d6configERKNS_13Notch_lpf_cfgE)
                  000a7d9a    0000003d     midlevel.lib : Secure_CAN.obj (.text:_ZN4Base12Data_mutatorINS_9U8ostream15Mutator_traits8ENS_12U8pkrszarrayILm64EE12Data_traits8EEC1ERS4_)
                  000a7dd7    0000003d     first.lib : U8pkfifospsc.obj (.text:_ZN4Base12U8pkfifospsc5writeERKNS_12U8pkmblock_kE)
                  000a7e14    0000003d     base.lib : Spkt.obj (.text:_ZN4Base4Spkt7set_hdrERKNS_8Spkt_hdrE)
                  000a7e51    0000003d     first.lib : U8ostream.obj (.text:_ZN4Base9U8ostream13put_uint32_beEm)
                  000a7e8e    0000003d               : U8ostream.obj (.text:_ZN4Base9U8ostream13put_uint32_leEm)
                  000a7ecb    0000003d     base.lib : Spkt.obj (.text:_ZNK4Base4Spkt11get_payloadEv)
                  000a7f08    0000003d     midlevel.lib : Cy_msg_id_gen.obj (.text:_ZNK6Cyphal13Cy_msg_id_gen4cgetERN4Base5LossyE)
                  000a7f45    0000003d     first.lib : U8pkmblock.obj (.text:_ZNV4Base10U8pkmblock5writeERKNS_12U8pkmblock_kE)
                  000a7f82    0000003c     DSP2838x_ent.lib : Ipc_2838x.obj (.text:_ZN12Dsp28335_ent37_GLOBAL__N__13_Ipc_2838x_cpp_c12a5b5219cpu1_boot_cpu2_privENS0_5BmodeEPvj)
                  000a7fbe    0000003c     veronte.lib : Xcd_cpu1.obj (.text:_ZN3Ver2Xc12get_xcd_cpu1Ev)
                  000a7ffa    0000003c     base.lib : Spkt_hdr.obj (.text:_ZN4Base8Spkt_hdr4csetERNS_9U8istreamE)
                  000a8036    0000003c     stanag.lib : Auth_request.obj (.text:_ZN6Stanag12Auth_request17remove_connectionEN4Base7AddressERNS_14IStanag_msg_rx9Rx_paramsE)
                  000a8072    0000003c     midlevel.lib : Cmdmgr.obj (.text:_ZN8Midlevel6CmdmgrC1ERNS_5Irxfw2FwE)
                  000a80ae    0000003c                  : Comstats.obj (.text:_ZN8Midlevel8Comstats8Mapstats13get_or_createERKN4Base8Address0E)
                  000a80ea    0000003c     base.lib : Field_real_hex_ASCII.obj (.text:_ZNK4Base20Field_real_hex_ASCII8compressERNS_5LossyERKNS_4IgetERKj)
                  000a8126    0000003b              : Pkt_router.obj (.text:_ZN4Base10Pkt_router15clean_ident_mapEv)
                  000a8161    0000003b              : Fmsgchecker.obj (.text:_ZN4Base11Fmsgchecker5checkEjj)
                  000a819c    0000003b              : Bootlog.obj (.text:_ZN4Base5save0ERNS_7Bootlog12Booting_infoERNS_9File_syncENS_5Ifile3UidE)
                  000a81d7    0000003b     veronte.lib : Herrors_ver_pa.obj (.text:_ZN4Base7Herrors19get_xcerr_wr_remoteEv)
                  000a8212    0000003b     first.lib : Timeout.obj (.text:_ZN4Base7Timeout13set_timeout_sEf)
                  000a824d    0000003b     base.lib : CANin_mgr.obj (.text:_ZN4Base9CANin_mgr7step_hiEv)
                  000a8288    0000003b              : Xcfilesvc.obj (.text:_ZN4Base9Xcfilesvc11xcf_readingEv)
                  000a82c3    0000003b     DFS2.lib : DFS2_fs.obj (.text:_ZN4DFS27DFS2_fs12format_part0EjN4Base10U8pkmblockE)
                  000a82fe    0000003b     midlevel.lib : CyphalCAN_in.obj (.text:_ZN6Cyphal12CyphalCAN_in12rd_availableEv)
                  000a8339    0000003b                  : Cyphal_rx_mgr.obj (.text:_ZN6Cyphal13Cyphal_rx_mgr11register_rxEbjRNS_13Cyphal_rx_hndE)
                  000a8374    0000003b     geomodel.lib : Fidcache.obj (.text:_ZNK3Geo8Fidcache10compute_rnERN8Maverick9Irvector3E)
                  000a83af    0000003b     DFS2.lib : DFS2_fs.obj (.text:_ZNK4DFS27DFS2_fs21get_descriptor_sectorEN4Base5Ifile3UidE)
                  000a83ea    0000003a     crypto_c28.lib : sha256.obj (.text:SHA256_startWordWise)
                  000a8424    0000003a     DSP2837x_ent.lib : CAN.obj (.text:_ZN12Dsp28335_ent3CAN13check_tx_toutEv)
                  000a845e    0000003a     DSP28x.lib : SPI.obj (.text:_ZN12Dsp28335_ent3SPI10set_speed0Em)
                  000a8498    0000003a     veronte.lib : Xpccansuite.obj (.text:_ZN4Base11Xpccanutils12check_can_inIN3Ver15Xpccantrait_verEEEvRNS_5ArrayINS_7CANin_pEEERNS_3XpcIT_EEmNS9_2XP3IdxESD_)
                  000a84d2    0000003a                 : Xpcu8suite.obj (.text:_ZN4Base3XpcIN3Ver11Xpcu8_traitEE7connectEjj)
                  000a850c    0000003a                 : Xpccansuite.obj (.text:_ZN4Base5ArrayINS_12FcanconsumerINS_8Xcfg_desINS_15Xfmsgcanc0arrayILj0ELj0EEENS_9Tuntraits15Arraytun_size16INS5_9Cset_onlyINS_10Xfmsgcanc0ILj0EEEEES4_NS5_8No_checkIS4_EEEEEEEEEC1IPNS_4IsetEPNS_4IgetEPKNS_10KfieldsvecINS_9FmsetvdatEEEPNS_11ImsgcheckerEPNS_7FMCPmgrEVKNS_6TdsyncIS4_NS_12Tdsynctraits11Rd_blockingIS4_NS_8Cptraits6PodrawIVS4_EEEENSW_15Disabled_structEEEEEmNS_6Memmgr4TypeET_T0_T1_T2_T3_NS_6MblockIT4_EE)
                  000a8546    0000003a     base.lib : Xcmqwr.obj (.text:_ZN4Base6Xcmqwr17set_occupied_percEv)
                  000a8580    0000003a              : Vrefdstbuff.obj (.text:_ZN4Base9Allocator18allocate_new_arrayINS_7Vref_wrEEEPT_m)
                  000a85ba    0000003a     veronte.lib : Xpccansuite.obj (.text:_ZN4Base9Allocator18allocate_new_arrayINS_8CANout_cEjNS_6Memmgr4TypeEEEPT_mRT0_RT1_)
                  000a85f4    0000003a     base.lib : CAN_stats.obj (.text:_ZN4Base9CAN_stats4stepEv)
                  000a862e    0000003a     media.lib : Filecom.obj (.text:_ZN5Media7Filecom13check_new_srcEN4Base7AddressE)
                  000a8668    0000003a     midlevel.lib : Cyphal_tx_mgr.obj (.text:_ZN6Cyphal13Cyphal_tx_mgr12get_next_msgEv)
                  000a86a2    0000003a     stanag.lib : Stanag_port.obj (.text:_ZN6Stanag11Stanag_port4stepEv)
                  000a86dc    0000003a     midlevel.lib : Msg_sender_action.obj (.text:_ZN8Midlevel17Msg_sender_action4csetERN4Base11Lossy_errorE)
                  000a8716    0000003a     first.lib : Endian64_big.obj (.text:_ZNK4Base12Endian64_big10get_uint64ERyPKjRmi)
                  000a8750    0000003a               : Endian64_little.obj (.text:_ZNK4Base15Endian64_little10get_uint64ERyPKjRmi)
                  000a878a    00000039     DSP2837x_ent.lib : Reset_2837x.obj (.text:_ZN12Dsp28335_ent5Reset6reset0Ev)
                  000a87c3    00000039     DSP28x.lib : I2Cdevice.obj (.text:_ZN12Dsp28335_ent9I2Cdevice4readEh)
                  000a87fc    00000039                : I2Cdevice.obj (.text:_ZN12Dsp28335_ent9I2Cdevice9send_privEmb)
                  000a8835    00000039     base.lib : Tllhcompressed.obj (.text:_ZN4Base14Tllhcompressed3setERKNS_4TllhE)
                  000a886e    00000039              : Spkt.obj (.text:_ZN4Base4Spkt7get_crcERKNS_8Spkt_hdrE)
                  000a88a7    00000039              : Sysver.obj (.text:_ZN4Base6Sysver14publish_sysverEv)
                  000a88e0    00000039     first.lib : Strutil.obj (.text:_ZN4Base7Strutil23upper_hex_str_to_uint32ERNS_5LossyEhRm)
                  000a8919    00000039     base.lib : Vrefdst.obj (.text:_ZN4Base7Vrefdst3setENS_4BvarEb)
                  000a8952    00000039              : Vrefdst.obj (.text:_ZN4Base7Vrefdst3setENS_4UvarEj)
                  000a898b    00000039     midlevel.lib : CyphalCAN_in.obj (.text:_ZN6Cyphal13Cyphal_in_hnd7get_newEv)
                  000a89c4    00000039     devices.lib : MX66L.obj (.text:_ZN7Devices5MX66L17read_sector_startEm)
                  000a89fd    00000039                 : Xr20m1172.obj (.text:_ZN7Devices9Xr20m1172C1ENS0_6ParamsE)
                  000a8a36    00000038     veronte.lib : Xpccansuite.obj (.text:_ZN4Base3XpcIN3Ver15Xpccantrait_verEE7connectEjj)
                  000a8a6e    00000038     base.lib : Evact.obj (.text:_ZN4Base5Evact4stepERKNS_8BitarrayILj500EEE)
                  000a8aa6    00000038              : Pchrono.obj (.text:_ZN4Base7Pchrono3ticEv)
                  000a8ade    00000038              : Taskmgr.obj (.text:_ZN4Base7Taskmgr4stepEv)
                  000a8b16    00000038     first.lib : Vstring.obj (.text:_ZN4Base7Vstring3setEPKcmm)
                  000a8b4e    00000038     base.lib : Xcfilesvc.obj (.text:_ZN4Base9Xcfilesvc13xcf_wait_readEv)
                  000a8b86    00000038     stanag.lib : Auth_request.obj (.text:_ZN6Stanag12Auth_request14add_connectionERKN4Base15Auth_connectionENS_4Defs10Access_req4TypeERNS_14IStanag_msg_rx9Rx_paramsE)
                  000a8bbe    00000038     maverick.lib : Biquad_notch_lpf_3d.obj (.text:_ZN8Maverick19Biquad_notch_lpf_3dC1Ef)
                  000a8bf6    00000038     base.lib : Presence_vec.obj (.text:_ZNK4Base12Presence_vec4cgetERNS_11U16stream_wE)
                  000a8c2e    00000037     DSP28x.lib : SPI_port_util.obj (.text:_ZN12Dsp28335_ent13SPI_port_util13read_blockingERj)
                  000a8c65    00000037     DSP2837x_ent.lib : DMA.obj (.text:_ZN12Dsp28335_ent3DMA19assert_valid_memoryEPKvj)
                  000a8c9c    00000037     DSP2838x_ent.lib : FSI_tx.obj (.text:_ZN12Dsp28335_ent6FSI_tx4initEb)
                  000a8cd3    00000037     base.lib : Cyphal_common_types.obj (.text:_ZN19Cyphal_common_types11fill_stringERKN4Base7KstringERNS0_12U8pkrszarrayILm256EEE)
                  000a8d0a    00000037     first.lib : U8pkfifospsc.obj (.text:_ZN4Base12U8pkfifospscC1EmNS_6Memmgr4TypeE)
                  000a8d41    00000037     base.lib : Stanag_parser.obj (.text:_ZN4Base13Stanag_parserC1ENS_11Ipkt_parser8ProtocolE)
                  000a8d78    00000037              : Espkt.obj (.text:_ZN4Base5Espkt12decrease_ttlEv)
                  000a8daf    00000037     pa_blocks.lib : Fifo_imu.obj (.text:_ZN4Base9Allocator18allocate_new_arrayIN8Maverick23Weighted_average_filterILh6EEENS_7TnarrayIfLm6EEES6_EEPT_mRT0_RT1_)
                  000a8de6    00000037     base.lib : Xcfilesvc.obj (.text:_ZN4Base9Xcfilesvc11xcf_writingEv)
                  000a8e1d    00000037     media.lib : Logctrl.obj (.text:_ZN5Media7Logctrl11cache_indexEf)
                  000a8e54    00000037     stanag.lib : Auth_request.obj (.text:_ZN6Stanag17Flight_modes_ctrlILj256EE5clearEN4Base8Fly_mode4ModeE)
                  000a8e8b    00000037     veronte.lib : Hvar_cpu1.obj (.text:_ZNK4Base6XcmvarINS_8Bvar_mapENS_9Tuntraits10U16strCxetINS_8Hbmapvar4TypeEEEE7Builder5buildERNS_11U16stream_wE)
                  000a8ec2    00000037     midlevel.lib : Cy_msg_id_gen.obj (.text:_ZNK6Cyphal13Cy_msg_id_gen4cgetERN4Base9U8ostreamE)
                  000a8ef9    00000037     pa_blocks.lib : Cy_maint_action.obj (.text:_ZThn4_N9Pa_blocks15Cy_maint_action16get_cyphal_flagsEv)
                  000a8f30    00000036     veronte.lib : Arbiter4x_fb.obj (.text:_ZN3Ver12Arbiter4x_fbC1ERKNS0_6ConfigE)
                  000a8f66    00000036                 : Rtaskio_amz.obj (.text:_ZN3Ver7Rtaskio5buildERN4Base11ImsgcheckerERNS_11DevsimsuiteERN6Stanag14Stanag_msg_mgrERN8Midlevel6CmdmgrERNS1_10Pkt_routerERNS9_8SysresetE)
                  000a8f9c    00000036     base.lib : Tllhcompressed.obj (.text:_ZN4Base14Tllhcompressed4csetERNS_11Lossy_errorE)
                  000a8fd2    00000036              : Bootlog.obj (.text:_ZN4Base14read_boot_infoERNS_7Bootlog12Booting_infoERNS_5IfileE)
                  000a9008    00000036     first.lib : Chrono.obj (.text:_ZN4Base6Chrono4stepEv)
                  000a903e    00000036               : U8str_stream.obj (.text:_ZN4Base9U8ostream10put_mblockIKcEEvRKNS_6MblockINS_9Enable_ifIXeqstT_Lj1EES5_E4typeEEE)
                  000a9074    00000036     midlevel.lib : Cy_soft_conf_check.obj (.text:_ZN6Cyphal18Cy_soft_conf_checkC1ERKN4Base7TnarrayImLm8EEES5_RKNS1_7VersionERKhmRKbjRNS_16Conf_check_queryEPNS0_12Icpu_handlerE)
                  000a90aa    00000036     devices.lib : Noisegen3D.obj (.text:_ZN7Devices10Noisegen3D9gen_noiseERKN8Maverick9Irvector3ERKNS_9Sim_noiseERS2_)
                  000a90e0    00000036     midlevel.lib : Cmdmgr.obj (.text:_ZN8Midlevel6Cmdmgr5on_txERN6Stanag14IStanag_msg_tx9Tx_paramsE)
                  000a9116    00000036     stanag.lib : Auth_request.obj (.text:_ZNK4Base8BitarrayILj256EE9all_zerosILj256EEENS_9Enable_ifIXgtT_Lj32EEbE4typeEv)
                  000a914c    00000036                : Auth_request.obj (.text:_ZThn4_N6Stanag12Auth_request17get_conn_iteratorEv)
                  000a9182    00000035     DSP2838x_ent.lib : 2838x_device.obj (.text:Device_initGPIO)
                  000a91b7    00000035     DSP28x.lib : SPI_port_util.obj (.text:_ZN12Dsp28335_ent13SPI_port_util8read_rawEN4Base10U8pkmblockE)
                  000a91ec    00000035     DSP2838x_ent.lib : CAN_FD_ioctl.obj (.text:_ZN12Dsp28335_ent17set_mcan_cfg_lockEmb)
                  000a9221    00000035     DSP28x.lib : I2Cif.obj (.text:_ZN12Dsp28335_ent5I2Cif11recover_arbEv)
                  000a9256    00000035     veronte.lib : Halsuite_bits_amz.obj (.text:_ZN3Ver45_GLOBAL__N__21_Halsuite_bits_amz_cpp_4018dca910BitshelperC1Ev)
                  000a928b    00000035                 : Pa_node_ids.obj (.text:_ZN3Ver6Stab_a11get_node_idEv)
                  000a92c0    00000035                 : Pa_node_ids.obj (.text:_ZN3Ver6Stab_b11get_node_idEv)
                  000a92f5    00000035                 : Pa_node_ids.obj (.text:_ZN3Ver7Fastbus11get_node_idEv)
                  000a932a    00000035     base.lib : Tllcs.obj (.text:_ZN4Base5Tllcs7computeERKNS_6LonlatE)
                  000a935f    00000035     first.lib : U8ostream.obj (.text:_ZN4Base9U8ostream13put_uint64_beEyj)
                  000a9394    00000035     base.lib : Xcfilesvc.obj (.text:_ZN4Base9Xcfilesvc11xcf_seekingEv)
                  000a93c9    00000035     stanag.lib : Stanag_decimation.obj (.text:_ZN6Stanag17Stanag_decimation17find_msg_or_emptyEN4Base8IteratorINS0_3CfgEEENS1_15Stanag_msg_type8Msg_typeEj)
                  000a93fe    00000035     devices.lib : Noisegen.obj (.text:_ZN7Devices8Noisegen9gen_noiseEfRKNS_9Sim_noiseE)
                  000a9433    00000035     veronte.lib : Vfspermission.obj (.text:_ZNK3Ver13Vfspermission15is_cset_allowedEN4Base3Cfg2IdE)
                  000a9468    00000035     DFS2.lib : Indexsector.obj (.text:_ZNK4DFS211Indexsector21check_initial_sectorsEv)
                  000a949d    00000035     base.lib : Stickrawtrans.obj (.text:__sti___17_Stickrawtrans_cpp_75c19331)
                  000a94d2    00000034     DSP28x.lib : SPI.obj (.text:_ZN12Dsp28335_ent3SPIC1ENS0_2IdE)
                  000a9506    00000034     DSP2837x_ent.lib : I2Cif_2837x.obj (.text:_ZN12Dsp28335_ent5I2Cif8get_regsEv)
                  000a953a    00000034                      : Timer_2837x.obj (.text:_ZN12Dsp28335_ent5Timer8get_regsENS0_2IdE)
                  000a956e    00000034                      : Pwmdev.obj (.text:_ZN12Dsp28335_ent6PwmdevC1ENS0_5PWMidE)
                  000a95a2    00000034     DSP28x.lib : Stackchk.obj (.text:_ZN12Dsp28335_ent8Stackchk5checkEv)
                  000a95d6    00000034     veronte.lib : Devsimsuite.obj (.text:_ZN3Ver11Devsimsuite19extract_xplane_dataERN4Base5LossyE)
                  000a960a    00000034     base.lib : Field_real_dec_ASCII.obj (.text:_ZN4Base20Field_real_dec_ASCII4csetERNS_11Lossy_errorE)
                  000a963e    00000034     stanag.lib : Alert_msg.obj (.text:_ZN4Base9Allocator18allocate_new_arrayIN6Stanag9Alert_msg16Alert_data_arrayILj3EEEEEPT_m)
                  000a9672    00000034     media.lib : Licdata.obj (.text:_ZN5Media7LicdataC1Ev)
                  000a96a6    00000034     veronte.lib : Apos_serializator.obj (.text:_ZNK3Ver17Apos_serializator16compress_abs_ftrEjRN4Base5LossyE)
                  000a96da    00000034     base.lib : Espkt.obj (.text:_ZNK4Base5Espkt15get_payload_lenEv)
                  000a970e    00000034     veronte.lib : Hvar_cpu1.obj (.text:_ZNK4Base6XcmvarINS_4BvarENS_9Tuntraits10U16bool_16IbEEE7Builder5buildERNS_11U16stream_wE)
                  000a9742    00000033     DSP2838x_ent.lib : CAN_FD_ioctl.obj (.text:_ZN12Dsp28335_ent20set_mcan_mode_normalEm)
                  000a9775    00000033     veronte.lib : Devsimsuite.obj (.text:_ZN3Ver11Devsimsuite11set_all_accERN4Base5LossyE)
                  000a97a8    00000033                 : Devsimsuite.obj (.text:_ZN3Ver11Devsimsuite11set_all_magERN4Base5LossyE)
                  000a97db    00000033                 : Devsimsuite.obj (.text:_ZN3Ver11Devsimsuite12set_all_gyroERN4Base5LossyE)
                  000a980e    00000033                 : Pfields.obj (.text:_ZN3Ver7Pfields12parse_headerERjRmS2_RN4Base11Lossy_errorE)
                  000a9841    00000033                 : Xpccansuite.obj (.text:_ZN4Base12FcanproducerINS_8Xcfg_desINS_15Xfmsgcanp0arrayILj0EEENS_9Tuntraits10DesdefaultIS3_EEEEE4readERNS_8CANframeE)
                  000a9874    00000033                 : Xpccansuite.obj (.text:_ZN4Base12FcanproducerINS_8Xcfg_desINS_15Xfmsgcanp0arrayILj0EEENS_9Tuntraits10DesdefaultIS3_EEEEEC1EPNS_4IgetEPKNS_10KfieldsvecINS_9FmsetvdatEEERVKNS_6TdsyncIS3_NS_12Tdsynctraits11Rd_blockingIS3_NS_8Cptraits6PodrawIVS3_EEEENSH_15Disabled_structEEE)
                  000a98a7    00000033     base.lib : Deltacheck_nv.obj (.text:_ZN4Base13Deltacheck_nv9check_varEfb)
                  000a98da    00000033              : Pkt_router.obj (.text:_ZN4Base3MapINS_8Address0ENS_10Pkt_router10Ident_dataEE3delERKS1_)
                  000a990d    00000033     devices.lib : Xr20m1172.obj (.text:_ZN7Devices9Xr20m11726configENS0_7ChannelEN12Dsp28335_ent6SCIcfgE)
                  000a9940    00000033     midlevel.lib : Sniffer.obj (.text:_ZN8Midlevel7SnifferC1ERKN4Base10KfieldsvecINS1_11SniffervdatEEERNS1_11ImsgcheckerE)
                  000a9973    00000033     first.lib : Endian16_little.obj (.text:_ZNK4Base15Endian16_little10get_uint16ERjPKjRmi)
                  000a99a6    00000033     base.lib : Espkt.obj (.text:_ZNK4Base5Espkt15compute_hdr_crcEv)
                  000a99d9    00000033     veronte.lib : Xpccansuite.obj (.text:_ZNK4Base8CANout_c12wr_availableEv)
                  000a9a0c    00000033     DFS2.lib : Indexsector.obj (.text:_ZNK4DFS211Indexsector24check_format_part_sectorENS_9PartitionEj)
                  000a9a3f    00000032     DSP2838x_ent.lib : PMbusdrv_drv.obj (.text:_ZN12Dsp28335_ent9PMbus_drv11start_writeEjRKN4Base12U8pkmblock_kEb)
                  000a9a71    00000032     veronte.lib : Pfields.obj (.text:_ZN3Ver7Pfields10uncompressERN4Base5ArrayIKNS1_6PFieldEEERNS1_5FieldERNS1_11Lossy_errorE)
                  000a9aa3    00000032                 : Isensimrx.obj (.text:_ZN3Ver9IsensimrxC1ERNS_11DevsimsuiteE)
                  000a9ad5    00000032     midlevel.lib : Cmdmgr.obj (.text:_ZN4Base12Data_mutatorINS_11Lossy_error15Mutator_traits8ENS_9U8istream12Data_traits8EED1Ev)
                  000a9b07    00000032     veronte.lib : Isensimrx.obj (.text:_ZN4Base12Data_mutatorINS_5Lossy15Mutator_traits8IS1_EENS_9U8istream12Data_traits8EED1Ev)
                  000a9b39    00000032     media.lib : Discovery.obj (.text:_ZN4Base12Data_mutatorINS_5Lossy15Mutator_traits8IS1_EENS_9U8ostream12Data_traits8IS4_EEEC1ERS4_)
                  000a9b6b    00000032     base.lib : Field.obj (.text:_ZN4Base5Field14check_overflowEmj)
                  000a9b9d    00000032     first.lib : Lossy.obj (.text:_ZN4Base5Lossy9put_ubitsERKyj)
                  000a9bcf    00000032     DFS2.lib : DSF2_file.obj (.text:_ZN4DFS24File20update_file_at_startEm)
                  000a9c01    00000032     base.lib : Cyphal.obj (.text:_ZN6Cyphal8CyCAN_id9build_msgEhjh)
                  000a9c33    00000032     veronte.lib : Veronte.obj (.text:_ZN6Stanag14Stanag_msg_mgr13add_rx_tx_hdlEN4Base15Stanag_msg_type8Msg_typeERNS_10Stanag_msgE)
                  000a9c65    00000032     maverick.lib : Moving_average.obj (.text:_ZN9Pa_blocks14Moving_averageC1Ej)
                  000a9c97    00000032     base.lib : Rangedeltacheck3_nv.obj (.text:_ZNK4Base19Rangedeltacheck3_nv6get_nvEv)
                  000a9cc9    00000032              : Field_cfg.obj (.text:_ZNK4Base9Field_cfg8Checksum26bits_required_for_encodingEh)
                  000a9cfb    00000032     media.lib : Licdata.obj (.text:_ZNK5Media7Licdata4cgetERN4Base5LossyE)
                  000a9d2d    00000031     DSP28x.lib : SCI.obj (.text:_ZN12Dsp28335_ent3SCIC1ENS0_2IdE)
                  000a9d5e    00000031     geomodel.lib : Gellipsoid.obj (.text:_ZN3Geo10ecoradius2EfRfS0_)
                  000a9d8f    00000031     veronte.lib : Hxcfield_cpu1.obj (.text:_ZN3Ver8Hxcfield10get_kftmodEv)
                  000a9dc0    00000031                 : Hxcfield_cpu1.obj (.text:_ZN3Ver8Hxcfield9get_kftmcEv)
                  000a9df1    00000031                 : Xcd.obj (.text:_ZN4Base18Routing_table_dataILj2ELj16EE11set_defaultEv)
                  000a9e22    00000031     stanag.lib : Auth_response.obj (.text:_ZN4Base3MapINS_7AddressEN6Stanag13Auth_response15Response_fieldsEE3delERKS1_)
                  000a9e53    00000031     pa_blocks.lib : Fifo_imu.obj (.text:_ZN4Base5ArrayIN8Maverick23Weighted_average_filterILh6EEEEC1INS_7TnarrayIfLm6EEES7_EEmNS_6Memmgr4TypeET_T0_)
                  000a9e84    00000031     veronte.lib : Xpcu8suite.obj (.text:_ZN4Base5ArrayINS_12FmsgproducerEEC1INS1_6ConfigEPVKNS_11TnarrayreszINS_8Fmsg_cfgELm32EEEEEmNS_6Memmgr4TypeET_NS_6MblockIT0_EE)
                  000a9eb5    00000031     base.lib : Evact.obj (.text:_ZN4Base5Evact13compute_delayEv)
                  000a9ee6    00000031              : Fmsgmgr.obj (.text:_ZN4Base7Fmsgmgr4csetERNS_11Lossy_errorE)
                  000a9f17    00000031              : Stepmgr.obj (.text:_ZN4Base7StepmgrC1Ev)
                  000a9f48    00000031     midlevel.lib : CyphalCAN_in.obj (.text:_ZN6Cyphal15Cyphal_msg_dataC1Ev)
                  000a9f79    00000031     devices.lib : Internestsimdev.obj (.text:_ZN7Devices16Internest_simdev4csetERN4Base5LossyE)
                  000a9faa    00000031     midlevel.lib : Cy_maintenance_port_status.obj (.text:_ZN8Midlevel26Cy_maintenance_port_status5on_rxEN6Cyphal8CyCAN_idERN4Base9U8istreamE)
                  000a9fdb    00000031     veronte.lib : Hvar_cpu1.obj (.text:_ZNK4Base6XcmvarINS_4UvarENS_9Tuntraits9U16str_16IjEEE7Builder5buildERNS_11U16stream_wE)
                  000aa00c    00000030     crypto_c28.lib : sha256.obj (.text:SHA256_finalizeWordWiseSwapped)
                  000aa03c    00000030     DSP28x.lib : I2Carbiter.obj (.text:_ZN12Dsp28335_ent10I2Carbiter3regERNS_9I2CdeviceE)
                  000aa06c    00000030     veronte.lib : Halsuite_amz.obj (.text:_ZN3Ver12Halsuite_amz16set_sci_expanderEm)
                  000aa09c    00000030                 : Xpccansuite.obj (.text:_ZN4Base12Data_mutatorINS_5Lossy15Mutator_traits8IS1_EENS_12U8pkrszarrayILm64EE12Data_traits8EED1Ev)
                  000aa0cc    00000030     devices.lib : Sxp.obj (.text:_ZN4Base9Allocator18allocate_new_arrayINS_12U8pkfifospscEjNS_6Memmgr4TypeEEEPT_mRT0_RT1_)
                  000aa0fc    00000030     midlevel.lib : CyphalStanag_rx_hnd.obj (.text:_ZN6Cyphal19CyphalStanag_rx_hnd9on_rx_pktERN6Stanag14IStanag_rx_pkt6ParamsE)
                  000aa12c    00000030     DSP28x.lib : I2Cdevice.obj (.text:_ZNK12Dsp28335_ent9I2Cdevice19get_default_period0Ejf)
                  000aa15c    00000030     base.lib : Fsniffer.obj (.text:_ZNK4Base11Sniffervdat10Vmap_array3getENS_10Vmap_entry5TypesEjRj)
                  000aa18c    00000030              : Tllhcompressed.obj (.text:_ZNK4Base14Tllhcompressed3getERNS_4TllhE)
                  000aa1bc    00000030              : Message_received_hnd.obj (.text:_ZNK4Base20Message_received_hnd7Builder5buildERNS_11U16stream_wE)
                  000aa1ec    00000030     rts2800_fpu64_eabi.lib : cpy_tbl.c.obj (.text)
                  000aa21c    0000002f     DSP28x.lib : SPI_port_util.obj (.text:_ZN12Dsp28335_ent13SPI_port_util10write_byteEh)
                  000aa24b    0000002f     DSP2837x_ent.lib : I2Cif_2837x.obj (.text:_ZN12Dsp28335_ent5I2Cif11config_gpioEb)
                  000aa27a    0000002f                      : Pwmdev.obj (.text:_ZN12Dsp28335_ent6Pwmdev3setEf)
                  000aa2a9    0000002f     DSP28x.lib : I2Cdevice.obj (.text:_ZN12Dsp28335_ent9I2Cdevice4stepEv)
                  000aa2d8    0000002f     veronte.lib : Halsuite_amz.obj (.text:_ZN3Ver12Halsuite_amz17setup_sync_signalEv)
                  000aa307    0000002f                 : Hxcff_cpu1.obj (.text:_ZN3Ver5Hxcff11get_xcpktrdEv)
                  000aa336    0000002f                 : Hxcfield_cpu1.obj (.text:_ZN3Ver8Hxcfield10get_kfmsetEv)
                  000aa365    0000002f                 : Hxcfield_cpu1.obj (.text:_ZN3Ver8Hxcfield8get_kftmEv)
                  000aa394    0000002f                 : Hxcfield_cpu1.obj (.text:_ZN3Ver8Hxcfield9get_kfsnfEv)
                  000aa3c3    0000002f     base.lib : Feature.obj (.text:_ZN4Base7Feature4csetERNS_11Lossy_errorE)
                  000aa3f2    0000002f              : Vrefdst.obj (.text:_ZN4Base7Vrefdst3setENS_4RvarEf)
                  000aa421    0000002f     DSP28x.lib : I2Carbiter.obj (.text:_ZN4Base9Allocator18allocate_new_arrayIN12Dsp28335_ent10I2Carbiter12Handler_infoEEEPT_m)
                  000aa450    0000002f     midlevel.lib : CyphalCAN_out.obj (.text:_ZN6Cyphal13CyphalCAN_out5writeERKNS_10Cyphal_msgE)
                  000aa47f    0000002f                  : Irxfw.obj (.text:_ZN8Midlevel5Irxfw2FwC1ERN4Base6XcmqwrERN6Stanag14Stanag_msg_mgrE)
                  000aa4ae    0000002f     veronte.lib : Gpssimdev.obj (.text:_ZNVK4Base6TdsyncIN7Devices3Ubx6UbxpvtENS_12Tdsynctraits11Rd_blockingIS3_NS_8Cptraits6PodrawIVS3_EEEENS4_8Wr_mutexIS3_NS6_8OperatorIS3_S3_EEEEE4readERS3_)
                  000aa4dd    0000002e     devices.lib : MX66L.obj (.text:_ZN12Dsp28335_ent13SPI_port_util10write_readERKN4Base12U8pkmblock_kENS1_10U8pkmblockE)
                  000aa50b    0000002e     base.lib : CANserial.obj (.text:_ZN4Base10WindowbuffINS_7CANdataEEC1Eh)
                  000aa539    0000002e              : Fmsgchecker.obj (.text:_ZN4Base11FmsgcheckerC1ENS_4BvarEj)
                  000aa567    0000002e              : Presence_vec.obj (.text:_ZN4Base12Presence_vecC1ERKS0_j)
                  000aa595    0000002e     first.lib : U8str_stream.obj (.text:_ZN4Base12U8str_stream10write_privERKNS_7KstringEmRNS_9U8ostreamE)
                  000aa5c3    0000002e     veronte.lib : Absolute_time.obj (.text:_ZN4Base13Absolute_time10get_utc_msEv)
                  000aa5f1    0000002e     base.lib : Fstr1.obj (.text:_ZN4Base5Fstr14stepEv)
                  000aa61f    0000002e              : Fstrt.obj (.text:_ZN4Base5FstrtC1ERNS_11IlogcontrolERNS_7SessionERVKNS_6TdsyncINS_11FstrtfieldsENS_12Tdsynctraits11Rd_blockingIS6_NS_8Cptraits6PodrawIVS6_EEEENS7_15Disabled_structEEE)
                  000aa64d    0000002e     first.lib : Allocator.obj (.text:_ZN4Base9Allocator16Allocator_buffer8allocateEmm)
                  000aa67b    0000002e     midlevel.lib : Cyphal_tx_mgr.obj (.text:_ZN4Base9Allocator18allocate_new_arrayIN6Cyphal13Cyphal_tx_mgr6Msg_txEEEPT_m)
                  000aa6a9    0000002e     veronte.lib : Xpccansuite.obj (.text:_ZN4Base9TtransferINS_10ItproducerINS_8CANframeEEENS_10ItconsumerIS2_EEE12Until_full_nILj28EE8transferERS3_RS5_)
                  000aa6d7    0000002e     media.lib : HformatSD.obj (.text:_ZN5Media9HformatSD5on_rxERN6Stanag14IStanag_msg_rx9Rx_paramsE)
                  000aa705    0000002e     base.lib : Cyphal.obj (.text:_ZN6Cyphal10Cyphal_msg7MutatorC1ERS0_)
                  000aa733    0000002e     stanag.lib : Stanag_msgs.obj (.text:_ZN6Stanag11Stanag_msgs7get_msgENS0_6Msg_idEj)
                  000aa761    0000002e     veronte.lib : Veronte.obj (.text:_ZN6Stanag14Stanag_msg_mgr13add_rx_tx_hdlEN4Base15Stanag_msg_type8Msg_typeERNS_14IStanag_rx_pktERNS_14IStanag_msg_txE)
                  000aa78f    0000002e     stanag.lib : Stanag_msg_mgr.obj (.text:_ZN6Stanag14Stanag_msg_mgr4stepEv)
                  000aa7bd    0000002e     devices.lib : PMIC_TPS65381A.obj (.text:_ZN7Devices14PMIC_TPS65381A10enable_pwrEbb)
                  000aa7eb    0000002e     midlevel.lib : Cy_compute_unit_status.obj (.text:_ZN8Midlevel22Cy_compute_unit_statusC1ERN6Cyphal13Cyphal_tx_mgrE)
                  000aa819    0000002e     pa_blocks.lib : Cy_maint_dcomms.obj (.text:_ZN9Pa_blocks15Cy_maint_dcomms8send_cmdERKN4Base7KstringE)
                  000aa847    0000002e     base.lib : Varmgr.obj (.text:_ZNK4Base6Varmgr3getENS_3FidERNS_7FeatureE)
                  000aa875    0000002e              : Cyphal.obj (.text:_ZNK6Cyphal10Cyphal_msg6get_idEv)
                  000aa8a3    0000002e     devices.lib : LMT86.obj (.text:_ZNK7Devices5LMT868get_tempEf)
                  000aa8d1    0000002e     rts2800_fpu64_eabi.lib : copy_decompress_lzss.c.obj (.text:decompress:lzss)
                  000aa8ff    0000002d     veronte.lib : Xpccansuite.obj (.text:_ZN3Ver11Xpccansuite6configERKN4Base11TnarrayreszINS1_7Xpcmap0ELm19EEE)
                  000aa92c    0000002d     base.lib : Xclk.obj (.text:_ZN4Base4Xclk14on_change_typeEv)
                  000aa959    0000002d              : Varmgr.obj (.text:_ZN4Base6Varmgr3setENS_3FidERKNS_7FeatureE)
                  000aa986    0000002d     veronte.lib : Tmsuite.obj (.text:_ZN4Base9Allocator18allocate_new_arrayINS_6ChronoEEEPT_m)
                  000aa9b3    0000002d     base.lib : CANout_mgr.obj (.text:_ZN4Base9Allocator18allocate_new_arrayINS_9Call_statEfEEPT_mRT0_)
                  000aa9e0    0000002d              : CRCpreset.obj (.text:_ZN4Base9get_crc32Ev)
                  000aaa0d    0000002d     DFS2.lib : DFS2_fs.obj (.text:_ZN4DFS27DFS2_fs11Format_part19set_initial_sectorsEm)
                  000aaa3a    0000002d     media.lib : Logctrl.obj (.text:_ZN5Media7Logctrl4initEf)
                  000aaa67    0000002d     midlevel.lib : Cy_drone_mode.obj (.text:_ZN8Midlevel13Cy_drone_mode5on_rxEN6Cyphal8CyCAN_idERN4Base9U8istreamE)
                  000aaa94    0000002d                  : Cy_mode_transition_allowed.obj (.text:_ZN8Midlevel26Cy_mode_transition_allowedC1ERNS_14Icheck_pa_modeEb)
                  000aaac1    0000002d     pa_blocks.lib : Cy_maint_action.obj (.text:_ZN9Pa_blocks15Cy_maint_action16get_cyphal_flagsEv)
                  000aaaee    0000002d     veronte.lib : Bitmgr.obj (.text:_ZNK3Ver6Bitmgr17compute_user_cbitEv)
                  000aab1b    0000002d     first.lib : Endian32_big.obj (.text:_ZNK4Base12Endian32_big10get_uint32ERmPKjS1_i)
                  000aab48    0000002d               : Endian32_little.obj (.text:_ZNK4Base15Endian32_little10get_uint32ERmPKjS1_i)
                  000aab75    0000002d     base.lib : Session.obj (.text:_ZNK4Base7Session18get_pctime_currentEv)
                  000aaba2    0000002d              : Session.obj (.text:_ZNK4Base7Session19get_session_currentEv)
                  000aabcf    0000002c     DSP2838x_ent.lib : fsi_ti.obj (.text:FSI_performTxInitialization)
                  000aabfb    0000002c     DSP28x.lib : I2Cif.obj (.text:_ZN12Dsp28335_ent5I2Cif10check_toutEv)
                  000aac27    0000002c     base.lib : CRC.obj (.text:_ZN4Base3CRC11update_byteEh)
                  000aac53    0000002c     first.lib : Lossy.obj (.text:_ZN4Base5Lossy10compute_ckERNS_9IchecksumEjj)
                  000aac7f    0000002c     base.lib : Vardst.obj (.text:_ZN4Base6Vardst4set0INS_4RvarEfLNS_10Vmap_entry5TypesE0EEEvT_T0_)
                  000aacab    0000002c              : Xcmqwr.obj (.text:_ZN4Base6XcmqwrC1ERNS_17Fifospscwr_commitIVjNS_10SPSCtraits8ExternalENS3_12Internal_refEEERVfRb)
                  000aacd7    0000002c              : Actmgr.obj (.text:_ZN4Base9Allocator18allocate_new_arrayINS_5EvactENS2_7BuilderEEEPT_mRT0_)
                  000aad03    0000002c     veronte.lib : Xpccansuite.obj (.text:_ZN4Base9Allocator18allocate_new_arrayINS_9CANserialEhEEPT_mRT0_)
                  000aad2f    0000002c     base.lib : Taskmgr.obj (.text:_ZN4Base9Allocator18allocate_new_arrayINS_9TaskentryEEEPT_m)
                  000aad5b    0000002c     veronte.lib : Tmsuite.obj (.text:_ZN4Base9TelemetryINS_12FtelemetryodEEC1ERKNS_10KfieldsvecINS_8TmodvdatEEE)
                  000aad87    0000002c                 : Tmsuite.obj (.text:_ZN4Base9TelemetryINS_8FvecdataINS_6TmvdatELm600ELj4EEEEC1ERKNS_10KfieldsvecIS2_EE)
                  000aadb3    0000002c     devices.lib : Lidarsimdev.obj (.text:_ZN7Devices11Lidar_arrayC1EfNS_9Sim_noise9NoiseTypeE)
                  000aaddf    0000002c     base.lib : Tcal3D.obj (.text:_ZN8Maverick8Ivector3IfE6vecresERKS1_S3_)
                  000aae0b    0000002c     midlevel.lib : Cy_mode_transition_allowed.obj (.text:_ZNK8Midlevel26Cy_mode_transition_allowed4cgetERN4Base9U8ostreamE)
                  000aae37    0000002b     DSP28x.lib : I2Cif.obj (.text:_ZN12Dsp28335_ent5I2Cif4stepEv)
                  000aae62    0000002b     veronte.lib : Vfspermission.obj (.text:_ZN3Ver13Vfspermission8fill_mapEN4Base6MblockIKNS1_3Cfg2IdEEERNS1_8Hash_mapINS1_7Hashers11Element_u16EEE)
                  000aae8d    0000002b     base.lib : Feature.obj (.text:_ZN4Base12Data_mutatorINS_5Lossy16Mutator_traits16IS1_EENS_11U16stream_w13Data_traits16EEC1ERS4_)
                  000aaeb8    0000002b     midlevel.lib : Secure_CAN.obj (.text:_ZN4Base12Data_mutatorINS_9U8ostream15Mutator_traits8ENS_12U8pkrszarrayILm64EE12Data_traits8EED1Ev)
                  000aaee3    0000002b     veronte.lib : Xpccansuite.obj (.text:_ZN4Base5ArrayINS_12FcanproducerINS_8Xcfg_desINS_15Xfmsgcanp0arrayILj0EEENS_9Tuntraits10DesdefaultIS4_EEEEEEEC1IPNS_4IgetEPKNS_10KfieldsvecINS_9FmsetvdatEEEVKNS_6TdsyncIS4_NS_12Tdsynctraits11Rd_blockingIS4_NS_8Cptraits6PodrawIVS4_EEEENSK_15Disabled_structEEEEEmNS_6Memmgr4TypeET_T0_NS_6MblockIT1_EE)
                  000aaf0e    0000002b                 : Hvar_cpu1.obj (.text:_ZN4Base6JarrayIVNS_6TdsyncINS_7FeatureENS_12Tdsynctraits11Rd_blockingIS2_NS_8Cptraits6PodrawIVS2_EEEENS3_2WrIS2_NS5_8OperatorIS2_S2_EEEEEEE7sub_addEj)
                  000aaf39    0000002b                 : Devsuite_amz.obj (.text:_ZN4Base6MblockINS_6TdsyncINS_7TnarrayIfLm3EEENS_12Tdsynctraits11Rd_blockingIS3_NS_8Cptraits6PodrawIVS3_EEEENS4_8Wr_mutexIS3_NS6_8OperatorIS3_S3_EEEEEEE24sub_mblock_with_start_atEm)
                  000aaf64    0000002b                 : Ubxdev.obj (.text:_ZN4Base6MblockIVfE24sub_mblock_with_start_atEm)
                  000aaf8f    0000002b     base.lib : Fmsgchecker.obj (.text:_ZN4Base9Allocator18allocate_new_arrayINS_7TimeoutEfEEPT_mRT0_)
                  000aafba    0000002b     media.lib : Logctrl.obj (.text:_ZN5Media7Logctrl12stop_sessionEv)
                  000aafe5    0000002b     base.lib : Cyphal.obj (.text:_ZN6Cyphal17Cyphal_stg_fields5buildEhbby)
                  000ab010    0000002b     stanag.lib : Auth_request.obj (.text:_ZN6Stanag12Auth_request17get_conn_iteratorEv)
                  000ab03b    0000002b     midlevel.lib : Imu_reader_filter.obj (.text:_ZN8Midlevel17Imu_reader_filter4stepERN8Maverick9Irvector3E)
                  000ab066    0000002b                  : Irxfw.obj (.text:_ZN8Midlevel5Irxfw2Fw3addEN4Base15Stanag_msg_type8Msg_typeE)
                  000ab091    0000002b     maverick.lib : Rtable.obj (.text:_ZNK4Base6MblockIKfE24sub_mblock_with_start_atEm)
                  000ab0bc    0000002b     base.lib : Feature.obj (.text:_ZNK4Base7Feature4cgetERNS_5LossyE)
                  000ab0e7    0000002b              : Pchrono.obj (.text:_ZNK4Base7Pchrono3tocEv)
                  000ab112    0000002a              : Cyphal_common_types.obj (.text:_ZN19Cyphal_common_types14put_array_sizeEmRN4Base9U8ostreamEm)
                  000ab13c    0000002a     geomodel.lib : Fidcache.obj (.text:_ZN3Geo8Fidcache11refresh_posERNS_4AposE)
                  000ab166    0000002a     veronte.lib : Devsimsuite.obj (.text:_ZN3Ver11Devsimsuite11set_all_stpERN4Base5LossyE)
                  000ab190    0000002a                 : Halsuite_amz.obj (.text:_ZN3Ver12Halsuite_amz12get_instanceEv)
                  000ab1ba    0000002a     first.lib : Lossy.obj (.text:_ZN4Base5Lossy6put_ckEmiNS_10EndiannessE)
                  000ab1e4    0000002a               : Lossy.obj (.text:_ZN4Base5Lossy8put_charEc)
                  000ab20e    0000002a               : Lossy.obj (.text:_ZN4Base5Lossy9put_bool1Eb)
                  000ab238    0000002a               : Lossy.obj (.text:_ZN4Base5Lossy9put_uint8Eh)
                  000ab262    0000002a     base.lib : Vardst.obj (.text:_ZN4Base6Vardst4set0INS_3FidERKNS_7FeatureELNS_10Vmap_entry5TypesE11EEEvT_T0_)
                  000ab28c    0000002a              : Varmgr.obj (.text:_ZN4Base6Varmgr12get_instanceEv)
                  000ab2b6    0000002a     midlevel.lib : Cyphal_tx_mgr.obj (.text:_ZN4Base9Allocator18allocate_new_arrayIN6Cyphal13Cyphal_tx_mgr3MsgEEEPT_m)
                  000ab2e0    0000002a     stanag.lib : Stanag_suite.obj (.text:_ZN4Base9Allocator18allocate_new_arrayIN6Stanag13Auth_response15Response_fieldsEEEPT_m)
                  000ab30a    0000002a     midlevel.lib : Imu_reader_filter.obj (.text:_ZN4Base9Allocator18allocate_new_arrayIN9Pa_blocks14Moving_averageEjEEPT_mRT0_)
                  000ab334    0000002a                  : CyphalCAN_in.obj (.text:_ZN4Base9Allocator18allocate_new_arrayINS_10Memmgr_dynINS_7CANdataEE5MnodeEEEPT_m)
                  000ab35e    0000002a     base.lib : Pkt_router.obj (.text:_ZN4Base9Allocator18allocate_new_arrayINS_10Pkt_router10Ident_dataEEEPT_m)
                  000ab388    0000002a     veronte.lib : Xpccansuite.obj (.text:_ZN4Base9Allocator18allocate_new_arrayINS_4FmsgEEEPT_m)
                  000ab3b2    0000002a     base.lib : Vrefdstbuff.obj (.text:_ZN4Base9Allocator18allocate_new_arrayINS_4FrefEEEPT_m)
                  000ab3dc    0000002a              : Vrefdstbuff.obj (.text:_ZN4Base9Allocator18allocate_new_arrayINS_4Iset4DataINS_6R64varEeEEEEPT_m)
                  000ab406    0000002a              : Fmsgconsumer.obj (.text:_ZN4Base9Allocator18allocate_new_arrayINS_6FmsgrxEEEPT_m)
                  000ab430    0000002a     stanag.lib : Stanag_suite.obj (.text:_ZN4Base9Allocator18allocate_new_arrayINS_7AddressEEEPT_m)
                  000ab45a    0000002a     base.lib : CANserial.obj (.text:_ZN4Base9Allocator18allocate_new_arrayINS_7CANdataEEEPT_m)
                  000ab484    0000002a              : Stepmgr.obj (.text:_ZN4Base9Allocator18allocate_new_arrayINS_7Stepmgr5Step0EEEPT_m)
                  000ab4ae    0000002a     veronte.lib : Xpccansuite.obj (.text:_ZN4Base9Allocator18allocate_new_arrayINS_9SerialCANEEEPT_m)
                  000ab4d8    0000002a     maverick.lib : Rvector.obj (.text:_ZN4Base9Allocator18allocate_new_arrayIfEEPT_m)
                  000ab502    0000002a     base.lib : CRCpreset.obj (.text:_ZN4Base9CRCpreset10for_cyphalEv)
                  000ab52c    0000002a     veronte.lib : Xpcu8suite.obj (.text:_ZN4Base9TtransferINS_10ItproducerIhEENS_10ItconsumerIhEEE12Until_full_nILj300EE8transferERS2_RS4_)
                  000ab556    0000002a     DFS2.lib : Partition.obj (.text:_ZN4DFS29Partition4csetERN4Base9U8istreamE)
                  000ab580    0000002a     media.lib : Filecom.obj (.text:_ZN5Media7Filecom17close_if_not_doneEv)
                  000ab5aa    0000002a     midlevel.lib : Check_sender.obj (.text:_ZN6Cyphal12Check_sender11enqueue_allERN6Stanag14IStanag_msg_rx9Rx_paramsE)
                  000ab5d4    0000002a     stanag.lib : Auth_request.obj (.text:_ZN6Stanag17Flight_modes_ctrlILj256EE3setEN4Base8Fly_mode4ModeE)
                  000ab5fe    0000002a     Vmain_cpu1.obj (.text:_ZN7Project10Vmain_cpu112get_instanceEv)
                  000ab628    0000002a     base.lib : Uid.obj (.text:_ZNK4Base3Uid4cgetERNS_5LossyE)
                  000ab652    0000002a     veronte.lib : Hvar_cpu1.obj (.text:_ZNK4Base5JemapIVNS_6TdsyncINS_7FeatureENS_12Tdsynctraits11Rd_blockingIS2_NS_8Cptraits6PodrawIVS2_EEEENS3_2WrIS2_NS5_8OperatorIS2_S2_EEEEEENS_3JidINS_8FidtraitEEENS_3FidEE7get_ptrESJ_)
                  000ab67c    00000029                 : Vcfchecker.obj (.text:_ZN3Ver10VcfcheckerC1Ev)
                  000ab6a5    00000029     midlevel.lib : CyphalCAN_in.obj (.text:_ZN4Base10Memmgr_dynINS_7CANdataEEC1EmRNS_9AllocatorE)
                  000ab6ce    00000029     veronte.lib : Xpccansuite.obj (.text:_ZN4Base12FcanconsumerINS_8Xcfg_desINS_15Xfmsgcanc0arrayILj0ELj0EEENS_9Tuntraits15Arraytun_size16INS4_9Cset_onlyINS_10Xfmsgcanc0ILj0EEEEES3_NS4_8No_checkIS3_EEEEEEEC1EPNS_4IsetEPNS_4IgetEPKNS_10KfieldsvecINS_9FmsetvdatEEEPNS_11ImsgcheckerEPNS_7FMCPmgrERVKNS_6TdsyncIS3_NS_12Tdsynctraits11Rd_blockingIS3_NS_8Cptraits6PodrawIVS3_EEEENST_15Disabled_structEEE)
                  000ab6f7    00000029     base.lib : Internestcfg.obj (.text:_ZN4Base12Internestcfg4initEv)
                  000ab720    00000029              : Stanag_parser.obj (.text:_ZN4Base13Stanag_parser13sanitize_dataENS_11Ipkt_parser8ProtocolE)
                  000ab749    00000029              : CRC.obj (.text:_ZN4Base3CRC6Config4csetERNS_5LossyE)
                  000ab772    00000029              : Fstr1.obj (.text:_ZN4Base5Fstr1C1ERNS_11IlogcontrolERNS_7SessionERVKNS_6TdsyncINS_11Fstr1fieldsENS_12Tdsynctraits11Rd_blockingIS6_NS_8Cptraits6PodrawIVS6_EEEENS7_15Disabled_structEEE)
                  000ab79b    00000029              : Cyphal_common_types.obj (.text:_ZN4Base6MblockIjE24sub_mblock_with_start_atEm)
                  000ab7c4    00000029              : Bootlog.obj (.text:_ZN4Base7BootlogC1ERNS_5IfileENS1_3UidES3_)
                  000ab7ed    00000029     first.lib : PDIcheck.obj (.text:_ZN4Base8PDIcheck6commitEjRKNS_5ErrorE)
                  000ab816    00000029               : U8ostream.obj (.text:_ZN4Base9U8ostream13put_uint16_beEj)
                  000ab83f    00000029               : U8ostream.obj (.text:_ZN4Base9U8ostream13put_uint16_leEj)
                  000ab868    00000029     midlevel.lib : Cy_msg_id_gen.obj (.text:_ZN6Cyphal13Cy_msg_id_gen15increment_countEv)
                  000ab891    00000029                  : CyphalStanag_rx_hnd.obj (.text:_ZN6Cyphal19CyphalStanag_rx_hnd10call_on_rxERN6Stanag14IStanag_msg_rx9Rx_paramsE)
                  000ab8ba    00000029     stanag.lib : Heartbeat.obj (.text:_ZN6Stanag9Heartbeat5on_txERNS_14IStanag_msg_tx9Tx_paramsE)
                  000ab8e3    00000029     devices.lib : Simdev3D.obj (.text:_ZN7Devices8Simdev3D15replace_measureERN8Maverick9Irvector3E)
                  000ab90c    00000029     first.lib : Endian32_big.obj (.text:_ZNK4Base12Endian32_big10put_uint32ERKmPjRmi)
                  000ab935    00000029               : Endian32_little.obj (.text:_ZNK4Base15Endian32_little10put_uint32ERKmPjRmi)
                  000ab95e    00000029     rts2800_fpu64_eabi.lib : exit.c.obj (.text)
                  000ab987    00000028     base.lib : Ussa76excfg.obj (.text:_ZN4Base11Ussa76excfg4initEv)
                  000ab9af    00000028              : Fmsgconsumer.obj (.text:_ZN4Base12Fmsgconsumer14notify_msg_recERVKNS_8Fmsg_cfgEj)
                  000ab9d7    00000028              : Int_decimator.obj (.text:_ZN4Base13Int_decimator4stepEv)
                  000ab9ff    00000028              : Field_real_hex_ASCII.obj (.text:_ZN4Base20Field_real_hex_ASCII4csetERNS_11Lossy_errorE)
                  000aba27    00000028     veronte.lib : Hx_imu_fifo_wr.obj (.text:_ZN4Base5Xcwr0IN9Pa_blocks12Measurements3ImuEEC1ILm20EEERVKNS_6XcffrdIS3_EERVNS_6XcffwrIS3_XT_EEE)
                  000aba4f    00000028     base.lib : Vardst.obj (.text:_ZN4Base6Vardst4set0INS_4BvarEbLNS_10Vmap_entry5TypesE3EEEvT_T0_)
                  000aba77    00000028              : Vardst.obj (.text:_ZN4Base6Vardst4set0INS_4UvarEjLNS_10Vmap_entry5TypesE2EEEvT_T0_)
                  000aba9f    00000028              : Vardst.obj (.text:_ZN4Base6Vardst4set0INS_8Bvar_mapERKNS_8Hbmapvar4TypeELNS_10Vmap_entry5TypesE4EEEvT_T0_)
                  000abac7    00000028              : Stepmgr.obj (.text:_ZN4Base7Stepmgr3addENS0_2IdERNS_5IstepE)
                  000abaef    00000028     midlevel.lib : CyphalCAN_in.obj (.text:_ZN4Base9Allocator18allocate_new_arrayIN6Cyphal15Cyphal_msg_dataEEEPT_m)
                  000abb17    00000028     veronte.lib : Xpccansuite.obj (.text:_ZN4Base9Allocator18allocate_new_arrayINS_6FmsgtxEEEPT_m)
                  000abb3f    00000028     base.lib : Pkt_router.obj (.text:_ZN4Base9Allocator18allocate_new_arrayINS_8Address0EEEPT_m)
                  000abb67    00000028              : Vrefdstbuff.obj (.text:_ZN4Base9Allocator18allocate_new_arrayINS_8Hbmapvar3RefEEEPT_m)
                  000abb8f    00000028     stanag.lib : Stanag_msg_mgr.obj (.text:_ZN4Base9Allocator18allocate_new_arrayINS_8Msg_dataEEEPT_m)
                  000abbb7    00000028                : Alert_msg.obj (.text:_ZN4Base9Allocator18allocate_new_arrayIPKNS_15Auth_connectionEEEPT_m)
                  000abbdf    00000028     midlevel.lib : Cyphal_suite.obj (.text:_ZN4Base9Allocator18allocate_new_arrayIPN6Cyphal13Cyphal_rx_hndEEEPT_m)
                  000abc07    00000028     stanag.lib : Stanag_msg_mgr.obj (.text:_ZN4Base9Allocator18allocate_new_arrayIPN6Stanag14IStanag_msg_txEEEPT_m)
                  000abc2f    00000028                : Stanag_msg_mgr.obj (.text:_ZN4Base9Allocator18allocate_new_arrayIPN6Stanag14IStanag_rx_pktEEEPT_m)
                  000abc57    00000028     pa_blocks.lib : Cy_maint_action.obj (.text:_ZN4Base9Allocator18allocate_new_arrayIPN9Pa_blocks22Cy_maint_action_consts13Imaint_actionEEEPT_m)
                  000abc7f    00000028     veronte.lib : Xpccansuite.obj (.text:_ZN4Base9Allocator18allocate_new_arrayIPNS_10ItconsumerINS_8CANframeEEEEEPT_m)
                  000abca7    00000028                 : Xpcu8suite.obj (.text:_ZN4Base9Allocator18allocate_new_arrayIPNS_10ItconsumerIhEEEEPT_m)
                  000abccf    00000028                 : Xpccansuite.obj (.text:_ZN4Base9Allocator18allocate_new_arrayIPNS_10ItproducerINS_8CANframeEEEEEPT_m)
                  000abcf7    00000028                 : Xpcu8suite.obj (.text:_ZN4Base9Allocator18allocate_new_arrayIPNS_10ItproducerIhEEEEPT_m)
                  000abd1f    00000028                 : Xpcu8suite.obj (.text:_ZN4Base9Allocator18allocate_new_arrayIPNS_13Ifmsg_triggerEEEPT_m)
                  000abd47    00000028     base.lib : Xcfgmgr.obj (.text:_ZN4Base9Allocator18allocate_new_arrayIPNS_5IstepEEEPT_m)
                  000abd6f    00000028              : CANframe_fifo32.obj (.text:_ZN4Base9Allocator18allocate_new_arrayImEEPT_m)
                  000abd97    00000028     DFS2.lib : DFS2_fs.obj (.text:_ZN4DFS27DFS2_fs28get_and_check_fs_descriptionERNS0_11Format_partE)
                  000abdbf    00000028     veronte.lib : Persist_pdi_entry.obj (.text:_ZN6Cyphal17Persist_pdi_entry4cgetERN4Base5LossyE)
                  000abde7    00000028     midlevel.lib : Sysreset.obj (.text:_ZN8Midlevel8Sysreset10start_taskEv)
                  000abe0f    00000028     first.lib : U8pkmblock_k.obj (.text:_ZNK4Base12U8pkmblock_k4readEmRNS_10U8pkmblockEm)
                  000abe37    00000028     base.lib : Field_real_dec_ASCII.obj (.text:_ZNK4Base20Field_real_dec_ASCII10uncompressERNS_5LossyERNS_4IsetERKj)
                  000abe5f    00000028     first.lib : Ubxtime.obj (.text:_ZNK4Base7Ubxtime7compareERKS0_)
                  000abe87    00000028     base.lib : Spkt_hdr.obj (.text:_ZNK4Base8Spkt_hdr4cgetERNS_9U8ostreamE)
                  000abeaf    00000028              : Kfieldset.obj (.text:_ZNK4Base9Kfieldset10uncompressERNS_11Lossy_errorERNS_4IsetERNS_4IgetE)
                  000abed7    00000028     veronte.lib : Ubxdev.obj (.text:_ZNK8Maverick8Ivector3IfE3dotERKS1_)
                  000abeff    00000028     rts2800_fpu64_eabi.lib : s_copysign.c.obj (.text)
                  000abf27    00000027     veronte.lib : Hraim_inputs_cpu1.obj (.text:_ZN3Ver12Hraim_inputs33get_gnss_raw_meas_compact_fifo_wrEv)
                  000abf4e    00000027                 : Hstats.obj (.text:_ZN3Ver6Hstats10set_xcmqwrEf)
                  000abf75    00000027     midlevel.lib : CyphalCAN_in.obj (.text:_ZN4Base10Memmgr_dynINS_7CANdataEE8allocateERNS2_10Node_chainE)
                  000abf9c    00000027     base.lib : Datalink_receiver.obj (.text:_ZN4Base17Datalink_receiver14get_status_msgERNS_9U8ostreamE)
                  000abfc3    00000027              : Address_handler_generic.obj (.text:_ZN4Base23Address_handler_generic12get_instanceEv)
                  000abfea    00000027     first.lib : Lossy.obj (.text:_ZN4Base5Lossy10put_uint16Ej)
                  000ac011    00000027               : Lossy.obj (.text:_ZN4Base5Lossy10put_uint32Em)
                  000ac038    00000027               : Lossy.obj (.text:_ZN4Base5Lossy10put_uint64ERKy)
                  000ac05f    00000027     veronte.lib : Hraim_inputs_cpu1.obj (.text:_ZN4Base5Xcwr0IN9Pa_blocks18Gnss_raw_meas_fifo12Msg_buffer_tEEC1ILm3EEERVKNS_6XcffrdIS3_EERVNS_6XcffwrIS3_XT_EEE)
                  000ac086    00000027     midlevel.lib : CyphalCAN_in.obj (.text:_ZN4Base9Allocator18allocate_new_arrayIN6Cyphal12CyphalCAN_in16Cy_msg_triggeredEEEPT_m)
                  000ac0ad    00000027     first.lib : U8istream.obj (.text:_ZN4Base9U8istream13get_uint32_beEv)
                  000ac0d4    00000027               : U8istream.obj (.text:_ZN4Base9U8istream13get_uint32_leEv)
                  000ac0fb    00000027     DFS2.lib : DFS2_fs.obj (.text:_ZN4DFS27DFS2_fs22check_format_part_dataEjRKNS_9PartitionE)
                  000ac122    00000027              : DFS2_fs.obj (.text:_ZN4DFS27DFS2_fs9set_errorENS0_10Error_flagE)
                  000ac149    00000027     media.lib : Flashtun_wr_null.obj (.text:_ZN5Media16Flashtun_wr_null5on_rxERN6Stanag14IStanag_msg_rx9Rx_paramsE)
                  000ac170    00000027     first.lib : Endian64_big.obj (.text:_ZNK4Base12Endian64_big10put_uint64ERKyPjRmi)
                  000ac197    00000027               : Endian64_little.obj (.text:_ZNK4Base15Endian64_little10put_uint64ERKyPjRmi)
                  000ac1be    00000027     pa_blocks.lib : Tllh_cs_64.obj (.text:__sti___14_Tllh_cs_64_cpp_e8e2ceae)
                  000ac1e5    00000001     DSP28x.lib : SCI.obj (.text:_ZN12Dsp28335_ent10ISCI_ioctlD1Ev)
                  000ac1e6    00000027     rts2800_fpu64_eabi.lib : e_sqrtf.c.obj (.text)
                  000ac20d    00000026     DSP28x.lib : SPI_port_util.obj (.text:_ZN12Dsp28335_ent13SPI_port_util9write_rawERKN4Base12U8pkmblock_kE)
                  000ac233    00000026                : I2Cif.obj (.text:_ZN12Dsp28335_ent5I2Cif10check_fifoEb)
                  000ac259    00000026     DSP2837x_ent.lib : Pwmdev.obj (.text:_ZN12Dsp28335_ent6Pwmdev20config_event_triggerEbj)
                  000ac27f    00000026     veronte.lib : Hx_imu_fifo_wr.obj (.text:_ZN3Ver11Hx_imu_fifo15get_imu_fifo_wrEv)
                  000ac2a5    00000026                 : Apos_serializator.obj (.text:_ZN3Ver17Apos_serializator13bind_to_fieldEv)
                  000ac2cb    00000026                 : Halsuite.obj (.text:_ZN3Ver8Halsuite4pollEv)
                  000ac2f1    00000026                 : Tmsuite.obj (.text:_ZN4Base12Data_mutatorINS_11Lossy_error15Mutator_traits8ENS_9U8ostream12Data_traits8IS3_EEED1Ev)
                  000ac317    00000026     media.lib : Discovery.obj (.text:_ZN4Base12Data_mutatorINS_5Lossy15Mutator_traits8IS1_EENS_9U8ostream12Data_traits8IS4_EEED1Ev)
                  000ac33d    00000026     veronte.lib : Hvar_cpu1.obj (.text:_ZN4Base6JarrayIVNS_6TdsyncINS_7FeatureENS_12Tdsynctraits11Rd_blockingIS2_NS_8Cptraits6PodrawIVS2_EEEENS3_2WrIS2_NS5_8OperatorIS2_S2_EEEEEEE4initERKNS_6KarrayIjEE)
                  000ac363    00000026     base.lib : Vref_wr.obj (.text:_ZN4Base6kvset0ERKNS_4VrefERNS_4IsetEf)
                  000ac389    00000026              : CANframe.obj (.text:_ZN4Base8CANframe5buildEbmm)
                  000ac3af    00000026     pa_blocks.lib : Cy_maint_action.obj (.text:_ZN4Base9Allocator18allocate_new_arrayIN9Pa_blocks22Cy_maint_action_consts13Command_typesEEEPT_m)
                  000ac3d5    00000026     midlevel.lib : Cyphal_tx_mgr.obj (.text:_ZN4Base9Allocator18allocate_new_arrayINS_15Stanag_msg_type8Msg_typeEEEPT_m)
                  000ac3fb    00000026     veronte.lib : Vfspermission.obj (.text:_ZN4Base9Allocator18allocate_new_arrayINS_7Hashers11Element_u16EEEPT_m)
                  000ac421    00000026     stanag.lib : Stanag_suite.obj (.text:_ZN4Base9Allocator18allocate_new_arrayIbEEPT_m)
                  000ac447    00000026     first.lib : Lossy.obj (.text:_ZN4Base9Allocator18allocate_new_arrayIjEEPT_m)
                  000ac46d    00000026     stanag.lib : Auth_handover_req.obj (.text:_ZN6Stanag17Auth_handover_req6notifyERKN4Base8Msg_dataE)
                  000ac493    00000026                : Auth_handover_req.obj (.text:_ZN6Stanag17Auth_handover_req9processedEv)
                  000ac4b9    00000026     devices.lib : Adis165053.obj (.text:_ZN7Devices10Adis16505315set_temp_kelvinEf)
                  000ac4df    00000026     geomodel.lib : Apos.obj (.text:_ZN8Maverick8Ivector3IfE6vecsubERKS1_)
                  000ac505    00000026     pa_blocks.lib : Gnss_raw_meas_fifo.obj (.text:_ZN9Pa_blocks18Gnss_raw_meas_fifo12Msg_buffer_t4copyERKN4Base12U8pkmblock_kE)
                  000ac52b    00000026     base.lib : Field_cfg.obj (.text:_ZNK4Base10Cksum_modn9get_valueEv)
                  000ac551    00000026     DFS2.lib : Partition.obj (.text:_ZNK4DFS29Partition4cgetERN4Base9U8ostreamE)
                  000ac577    00000025     DSP28x.lib : Timer.obj (.text:_ZN12Dsp28335_ent5Timer6configEf)
                  000ac59c    00000025     midlevel.lib : IP_cfg.obj (.text:_ZN3Bsp10get_ip_cfgENS_5Uid64ERmS1_)
                  000ac5c1    00000025     veronte.lib : Sysuid_cpu1_amz.obj (.text:_ZN3Bsp7get_uidEb)
                  000ac5e6    00000025                 : Xpcu8suite.obj (.text:_ZN3Ver10Xpcu8suite6configERKN4Base11TnarrayreszINS1_7Xpcmap0ELm45EEE)
                  000ac60b    00000025                 : Rtaskio.obj (.text:_ZN3Ver13get_arb4x_cfgEv)
                  000ac630    00000025                 : Licmgr.obj (.text:_ZN3Ver6Licmgr4csetERN4Base11Lossy_errorE)
                  000ac655    00000025     base.lib : Xtunnelwr0.obj (.text:_ZN4Base10Xtunnelwr08sanitizeEv)
                  000ac67a    00000025              : Bootlog.obj (.text:_ZN4Base10set_statesENS_6LoadstERS0_S1_Rj)
                  000ac69f    00000025              : Feature.obj (.text:_ZN4Base12Data_mutatorINS_5Lossy16Mutator_traits16IS1_EENS_11U16stream_w13Data_traits16EED1Ev)
                  000ac6c4    00000025     veronte.lib : Hxcff_cpu1.obj (.text:_ZN4Base17Fifospscwr_commitIVjNS_10SPSCtraits8ExternalENS2_12Internal_refEEC1EPS1_S6_RVKPVKjRVS6_)
                  000ac6e9    00000025     base.lib : Rangedeltacheck3_nv.obj (.text:_ZN4Base19Rangedeltacheck3_nvC1Efffj)
                  000ac70e    00000025              : Fmsgchecker.obj (.text:_ZN4Base5ArrayINS_3VarINS_4BvarEE4RcwdEEC1IS2_EEmNS_6Memmgr4TypeENS_5RngitIT_EE)
                  000ac733    00000025     first.lib : Endian3.obj (.text:_ZN4Base7Endian315get_ebbb_presetEv)
                  000ac758    00000025               : Strutil.obj (.text:_ZN4Base7Strutil24upper_hex_char_to_nibbleEhRh)
                  000ac77d    00000025               : Strutil.obj (.text:_ZN4Base7Strutil9as_stringEmhhRNS_7VstringENS0_7PaddingE)
                  000ac7a2    00000025     veronte.lib : Vfspermission.obj (.text:_ZN4Base8Hash_mapINS_7Hashers11Element_u16EEC1ERKNS3_6ConfigE)
                  000ac7c7    00000025                 : Hxcff_cpu1.obj (.text:_ZN4Base9Fifospsc0IVKNS_11Spkt_bufferENS_10SPSCtraits12Internal_refENS3_8ExternalEEC1EPS2_S7_RVS7_RVKS7_)
                  000ac7ec    00000025     DFS2.lib : File_descr.obj (.text:_ZN4DFS210File_descrC1Ev)
                  000ac811    00000025     stanag.lib : Auth_request.obj (.text:_ZN6Stanag12Auth_request14get_connectionEN4Base7AddressE)
                  000ac836    00000025                : Auth_request.obj (.text:_ZN6Stanag12Auth_request14get_connectionEN4Base8Fly_mode4ModeE)
                  000ac85b    00000025     devices.lib : Internestsimdev.obj (.text:_ZN7Devices16Internest_simdevC1Ev)
                  000ac880    00000025                 : Sim_noise.obj (.text:_ZN7Devices9Sim_noise4csetERN4Base5LossyE)
                  000ac8a5    00000025     midlevel.lib : Cyphal_tx_mgr.obj (.text:_ZNK6Cyphal13Cyphal_tx_mgr12wr_availableEv)
                  000ac8ca    00000024     DSP28x.lib : I2Cif.obj (.text:_ZN12Dsp28335_ent5I2Cif10check_regsEv)
                  000ac8ee    00000024     geomodel.lib : Fidcache.obj (.text:_ZN3Geo8Fidcache17compute_path_loopEN4Base3FidE)
                  000ac912    00000024     veronte.lib : Veronte_amz.obj (.text:_ZN3Ver7Veronte11build_pimplERS0_)
                  000ac936    00000024                 : Xpccansuite.obj (.text:_ZN4Base10FcanmsgmgrINS_12Xfmsgcan_hdlILj0ELj0ELj0EE14Xfmsgcan_arrayINS_8Xcfg_desINS_15Xfmsgcanp0arrayILj0EEENS_9Tuntraits10DesdefaultIS6_EEEEEENS3_INS4_INS_15Xfmsgcanc0arrayILj0ELj0EEENS7_15Arraytun_size16INS7_9Cset_onlyINS_10Xfmsgcanc0ILj0EEEEESD_NS7_8No_checkISD_EEEEEEEEE4csetERNS_11Lossy_errorE)
                  000ac95a    00000024     base.lib : Sticktypes.obj (.text:_ZN4Base11Stickppmcfg4initEv)
                  000ac97e    00000024              : Meastypes.obj (.text:_ZN4Base13Mabs_time_fix4initEv)
                  000ac9a2    00000024              : Datalink_buffer.obj (.text:_ZN4Base15Datalink_buffer16update_min_indexEv)
                  000ac9c6    00000024     maverick.lib : Rtable.obj (.text:_ZN4Base16Binary_search_ltIffXadL_ZNS_20Binary_search_lt_def17default_less_thanIffEEbNS_12JSF116_paramIT_E4typeENS3_IT0_E4typeEEEE18search_equal_upperENS_6MblockIKfEEf)
                  000ac9ea    00000024     midlevel.lib : Comstats.obj (.text:_ZN4Base3MapINS_8Address0EN8Midlevel8Comstats6StdataEE16apply_all_valuesIRKNS3_12Stdata_local11Fct_computeEEEvT_)
                  000aca0e    00000024     base.lib : Actmgr.obj (.text:_ZN4Base5ArrayINS_5EvactEEC1INS1_7BuilderEEEmNS_6Memmgr4TypeET_)
                  000aca32    00000024     first.lib : Endian3.obj (.text:_ZN4Base7Endian315get_elll_presetEv)
                  000aca56    00000024     base.lib : Feature.obj (.text:_ZN4Base7Feature9check_relENS_3FidE)
                  000aca7a    00000024              : Session.obj (.text:_ZN4Base7SessionC1ERVKNS_7SystimeES3_)
                  000aca9e    00000024     veronte.lib : Devsimsuite.obj (.text:_ZN4Base8SuiterefIN7Devices8Simdev3DELj8EEC1ERS2_S4_S4_S4_S4_S4_S4_S4_)
                  000acac2    00000024     base.lib : Address_handler_generic.obj (.text:_ZNK4Base23Address_handler_generic5to_meERNS_5EspktE)
                  000acae6    00000024              : Address_handler_generic.obj (.text:_ZNK4Base23Address_handler_generic7from_meERNS_5EspktE)
                  000acb0a    00000023     veronte.lib : Hvar_cpu1.obj (.text:_ZN3Bsp5Hfvar3setERKN4Base7FeatureE)
                  000acb2d    00000023     base.lib : Syserr_bits.obj (.text:_ZN4Base11Syserr_bitsC1ENS_6MblockIKPVKbEERVjRVKj)
                  000acb50    00000023              : Freq_checker.obj (.text:_ZN4Base12Freq_checkerC1ERVbfffNS0_4ModeE)
                  000acb73    00000023     first.lib : U8pkfifospsc0.obj (.text:_ZN4Base13U8pkfifospsc05writeEh)
                  000acb96    00000023     midlevel.lib : Cyphal_tx_mgr.obj (.text:_ZN4Base3MapINS_15Stanag_msg_type8Msg_typeEN6Cyphal13Cyphal_tx_mgr6Msg_txEE3putERKS2_RKS5_)
                  000acbb9    00000023     base.lib : Xclk.obj (.text:_ZN4Base4XclkC1ERKNS_7XclkcfgE)
                  000acbdc    00000023              : Fmsgmgr.obj (.text:_ZN4Base7Fmsgmgr4stepEv)
                  000acbff    00000023              : Session.obj (.text:_ZN4Base7Session14get_first_timeEv)
                  000acc22    00000023     veronte.lib : Cy_pers_pdi_resp.obj (.text:_ZN6Cyphal16Cy_pers_pdi_resp4cgetERN4Base5LossyE)
                  000acc45    00000023     stanag.lib : U8istream_pvec.obj (.text:_ZN6Stanag14U8istream_pvec13get_uint8_varEN4Base4UvarERh)
                  000acc68    00000023     maverick.lib : Irvector3.obj (.text:_ZN8Maverick9Irvector36vecsumERKS0_S2_)
                  000acc8b    00000023     midlevel.lib : Cmdmgr.obj (.text:_ZN8Midlevel6Cmdmgr3addEN4Base3Cfg2IdERNS1_8ItunableE)
                  000accae    00000023     veronte.lib : Cy_amz_timesync_server.obj (.text:_ZN9Pa_blocks22Cy_amz_timesync_serverC1ERN4Base6TdsyncINS1_13Mabs_time_fixENS1_12Tdsynctraits11Rd_blockingIS3_NS1_8Cptraits6PodrawIVS3_EEEENS4_8Wr_mutexIS3_NS6_8OperatorIS3_S3_EEEEEERKN12Dsp28335_ent4GPIOERVb)
                  000accd1    00000023     base.lib : Cyphal.obj (.text:_ZNK6Cyphal10Cyphal_msg7get_lenEv)
                  000accf4    00000022     DSP2838x_ent.lib : CAN_FD_cfg.obj (.text:_ZN12Dsp28335_ent10CAN_FD_cfg4initEv)
                  000acd16    00000022     DSP2837x_ent.lib : Default_isr_cpu1.obj (.text:_ZN12Dsp28335_ent11Default_isr3isrEv)
                  000acd38    00000022     DSP28x.lib : I2Cif.obj (.text:_ZN12Dsp28335_ent5I2Cif7bulk_rxEv)
                  000acd5a    00000022     veronte.lib : Varsensor3D.obj (.text:_ZN3Ver11Varsensor3DC1ERN4Base6TdsyncINS1_7TnarrayIfLm3EEENS1_12Tdsynctraits11Rd_blockingIS4_NS1_8Cptraits6PodrawIVS4_EEEENS5_8Wr_mutexIS4_NS7_8OperatorIS4_S4_EEEEEE)
                  000acd7c    00000022     midlevel.lib : Secure_CAN.obj (.text:_ZN4Base11TnarrayreszIN7Devices10Secure_CAN3CmdELm6EE6appendERKS3_)
                  000acd9e    00000022     base.lib : CANframe_fifo32.obj (.text:_ZN4Base17Fifospscwr_commitImNS_10SPSCtraits8InternalES2_EC1EPmS4_PKmS4_)
                  000acdc0    00000022              : CRC.obj (.text:_ZN4Base3CRC9update_beEPKvm)
                  000acde2    00000022     stanag.lib : Auth_request.obj (.text:_ZN4Base3MapINS_7AddressEN6Stanag13Auth_response15Response_fieldsEE3putERKS1_RKS4_)
                  000ace04    00000022     midlevel.lib : Comstats.obj (.text:_ZN4Base3MapINS_8Address0EN8Midlevel8Comstats6StdataEE3putERKS1_RKS4_)
                  000ace26    00000022     stanag.lib : Alert_msg.obj (.text:_ZN4Base3MapIPKNS_15Auth_connectionEN6Stanag9Alert_msg16Alert_data_arrayILj3EEEE3putERKS3_RKS7_)
                  000ace48    00000022     first.lib : Lossy.obj (.text:_ZN4Base5Lossy10get_uint16ERjjj)
                  000ace6a    00000022     base.lib : Fid.obj (.text:_ZN4Base6Fidfun15can_write_cpuloENS_3FidE)
                  000ace8c    00000022              : Pdiver.obj (.text:_ZN4Base6Pdiver4csetERNS_11Lossy_errorE)
                  000aceae    00000022     first.lib : Vstring.obj (.text:_ZN4Base7VstringC1ENS_6MblockIcEE)
                  000aced0    00000022     midlevel.lib : CyphalCAN_in.obj (.text:_ZN6Cyphal12CyphalCAN_in8free_msgERNS_15Cyphal_msg_dataE)
                  000acef2    00000022                  : Cyphal_tx_mgr.obj (.text:_ZN6Cyphal13Cyphal_tx_mgr5writeERN4Base5EspktE)
                  000acf14    00000022     stanag.lib : Auth_request.obj (.text:_ZN6Stanag14U8istream_pvec9get_fieldIN4Base7AddressEEEbRT_)
                  000acf36    00000022     devices.lib : Adis165053.obj (.text:_ZN7Devices10Adis16505316set_desired_rateEf)
                  000acf58    00000022     geomodel.lib : Apos.obj (.text:_ZN8Maverick8Ivector3IfE6vecaddERKS1_)
                  000acf7a    00000022     midlevel.lib : Meas_GPS_raw_time.obj (.text:_ZN8Midlevel17Meas_GPS_raw_time4csetERN4Base9U8istreamE)
                  000acf9c    00000022                  : TP_sync.obj (.text:_ZN8Midlevel7TP_syncC1ERN4Base6TdsyncINS1_13Mabs_time_fixENS1_12Tdsynctraits11Rd_blockingIS3_NS1_8Cptraits6PodrawIVS3_EEEENS4_8Wr_mutexIS3_NS6_8OperatorIS3_S3_EEEEEERKN12Dsp28335_ent4GPIOERVb)
                  000acfbe    00000022                  : Comstats.obj (.text:_ZN8Midlevel8Comstats6add_txERKN4Base7AddressE)
                  000acfe0    00000022     pa_blocks.lib : Cy_maint_dcomms.obj (.text:_ZN9Pa_blocks15Cy_maint_dcomms4csetERN4Base9U8istreamE)
                  000ad002    00000022     DSP28x.lib : SPIcfg.obj (.text:_ZNK12Dsp28335_ent6SPIcfg14validate_mcbspEv)
                  000ad024    00000022     veronte.lib : Pfields.obj (.text:_ZNK4Base5ArrayIKNS_6PFieldEE12get_index_ofERS2_)
                  000ad046    00000022     DFS2.lib : DFS2_fs.obj (.text:_ZNK4DFS27DFS2_fs11Format_part18get_fs_num_sectorsEv)
                  000ad068    00000022     stanag.lib : Auth_handover_req.obj (.text:_ZNK6Stanag17Auth_handover_req15Request_control13all_processedEv)
                  000ad08a    00000022     midlevel.lib : Irxfw.obj (.text:_ZNK8Midlevel32_GLOBAL__N__9_Irxfw_cpp_16a35c0e13Notifybuilder5buildERN4Base11U16stream_wE)
                  000ad0ac    00000021     DSP2838x_ent.lib : Ipc_2838x_cm.obj (.text:_ZN12Dsp28335_ent3Ipc7boot_cmEv)
                  000ad0cd    00000021     midlevel.lib : IP_cfg_pa.obj (.text:_ZN3Bsp13get_ip_cfg_paENS_5Uid64ERmS1_)
                  000ad0ee    00000021     veronte.lib : Rtaskio_amz.obj (.text:_ZN3Ver7Rtaskio6configERKNS_9Xfreqmgr0E)
                  000ad10f    00000021     base.lib : Presence_vec.obj (.text:_ZN4Base12Presence_vec4csetERNS_9U8istreamE)
                  000ad130    00000021              : Datalink_buffer.obj (.text:_ZN4Base15Datalink_buffer10set_statusENS0_6StatusE)
                  000ad151    00000021     veronte.lib : Xcd.obj (.text:_ZN4Base18Routing_table_dataILj2ELj16EE5resetEv)
                  000ad172    00000021     devices.lib : Sxp.obj (.text:_ZN4Base5ArrayINS_12U8pkfifospscEEC1IjNS_6Memmgr4TypeEEEmS5_T_T0_)
                  000ad193    00000021     veronte.lib : Xpccansuite.obj (.text:_ZN4Base5ArrayINS_7CANin_pEEC1IjNS_6Memmgr4TypeEEEmS5_T_T0_)
                  000ad1b4    00000021                 : Xpccansuite.obj (.text:_ZN4Base5ArrayINS_8CANout_cEEC1IjNS_6Memmgr4TypeEEEmS5_T_T0_)
                  000ad1d5    00000021     first.lib : Error.obj (.text:_ZN4Base5ArrayINS_8ErrorsrcEE6appendERKS1_)
                  000ad1f6    00000021               : Lossy.obj (.text:_ZN4Base5Lossy10get_uint32ERmmm)
                  000ad217    00000021               : Lossy.obj (.text:_ZN4Base5Lossy11get_float64ERe)
                  000ad238    00000021     base.lib : Taskmgr.obj (.text:_ZN4Base7TaskmgrC1EmNS_6Memmgr4TypeEj)
                  000ad259    00000021              : Vrefdst.obj (.text:_ZN4Base7Vrefdst3setENS_3FidERKNS_7FeatureE)
                  000ad27a    00000021     first.lib : U8ostream.obj (.text:_ZN4Base9U8ostream10put_mblockERKNS_12U8pkmblock_kE)
                  000ad29b    00000021     devices.lib : Rtksimdev.obj (.text:_ZN7Devices9RtksimdevC1Ev)
                  000ad2bc    00000021     Vmain_cpu1.obj (.text:_ZN7Project10Vmain_cpu17PreinitC1ERb)
                  000ad2dd    00000021     veronte.lib : Rtaskio_amz.obj (.text:_ZNK3Ver7Rtaskio9tmr2_initEv)
                  000ad2fe    00000021     base.lib : CRC.obj (.text:_ZNK4Base3CRC6Config4cgetERNS_5LossyE)
                  000ad31f    00000021     veronte.lib : Hvar_cpu1.obj (.text:_ZNK4Base6XcmvarINS_3FidENS_9Tuntraits10U16strCxetINS_7FeatureEEEE7Builder5buildERNS_11U16stream_wE)
                  000ad340    00000021     crypto_c28.lib : sha256.obj (.text:reverse_dword)
                  000ad361    00000021     rts2800_fpu64_eabi.lib : new.c.obj (.text)
                  000ad382    00000020     DSP2838x_ent.lib : DMA_2838x.obj (.text:_ZN12Dsp28335_ent3DMA15addr_in_dma_memEPKv)
                  000ad3a2    00000020     DSP2837x_ent.lib : ISRmgr.obj (.text:_ZN12Dsp28335_ent6ISRmgr7set_isrENS0_9PievectidEPFvvE)
                  000ad3c2    00000020     DSP2838x_ent.lib : Pwmdev_2838x.obj (.text:_ZN12Dsp28335_ent6Pwmdev3getENS0_5PWMidE)
                  000ad3e2    00000020     veronte.lib : Varsuite3D.obj (.text:_ZN3Ver10Varsuite3DC1EN4Base6MblockINS1_6TdsyncINS1_7TnarrayIfLm3EEENS1_12Tdsynctraits11Rd_blockingIS5_NS1_8Cptraits6PodrawIVS5_EEEENS6_8Wr_mutexIS5_NS8_8OperatorIS5_S5_EEEEEEEE)
                  000ad402    00000020                 : Bitmgr.obj (.text:_ZN3Ver6Bitmgr4csetERN4Base11Lossy_errorE)
                  000ad422    00000020     base.lib : Stanag_parser.obj (.text:_ZN4Base13Stanag_parser15update_protocolENS_11Ipkt_parser8ProtocolE)
                  000ad442    00000020     first.lib : U8pkfifospsc0.obj (.text:_ZN4Base13U8pkfifospsc04readERh)
                  000ad462    00000020     base.lib : Evact.obj (.text:_ZN4Base5Evact7Builder8next_cfgEv)
                  000ad482    00000020     maverick.lib : Rtable.obj (.text:_ZN4Base6MblockIKfE20sub_mblock_with_sizeEm)
                  000ad4a2    00000020     veronte.lib : Devsuite_amz.obj (.text:_ZN4Base6MblockINS_6TdsyncINS_7TnarrayIfLm3EEENS_12Tdsynctraits11Rd_blockingIS3_NS_8Cptraits6PodrawIVS3_EEEENS4_8Wr_mutexIS3_NS6_8OperatorIS3_S3_EEEEEEE20sub_mblock_with_sizeEm)
                  000ad4c2    00000020                 : Ubxdev.obj (.text:_ZN4Base6MblockIVfE20sub_mblock_with_sizeEm)
                  000ad4e2    00000020     devices.lib : Adis165053.obj (.text:_ZN4Base6MblockIjE20sub_mblock_with_sizeEm)
                  000ad502    00000020     base.lib : Stepmgr_dsp.obj (.text:_ZN4Base7Stepmgr12get_instanceEv)
                  000ad522    00000020              : Xcfgmgr.obj (.text:_ZN4Base7Xcfgmgr12get_instanceEv)
                  000ad542    00000020     stanag.lib : Auth_handover_req.obj (.text:_ZN4Base8BitarrayILj32EE7get_allIyEENS_9Enable_ifIXleLj32Esr4Base11Sizeof_bitsIT_EE5valueES4_E4typeEv)
                  000ad562    00000020     first.lib : Call_stat.obj (.text:_ZN4Base9Call_statC1Ef)
                  000ad582    00000020     base.lib : FMCP_null.obj (.text:_ZN4Base9FMCP_null12get_instanceEv)
                  000ad5a2    00000020              : Xcpktrd.obj (.text:_ZN4Base9Fifospsc0IVKNS_11Spkt_bufferENS_10SPSCtraits12Internal_refENS3_8ExternalEE4readINS_4SpktENS_8Cptraits4CopyIS2_S8_EEEEbRT_)
                  000ad5c2    00000020     midlevel.lib : Cmdmgr.obj (.text:_ZN4Base9Tuntraits15Arraytun_nosizeINS0_7Lossy16IjEENS_6MblockIjEENS0_8No_checkIS5_EEE8str2elemERS5_RNS_11Lossy_errorE)
                  000ad5e2    00000020     first.lib : U8istream.obj (.text:_ZN4Base9U8istream13get_uint64_beEj)
                  000ad602    00000020     midlevel.lib : CyphalCAN_in.obj (.text:_ZN6Cyphal13Cyphal_in_hnd18get_next_completedEb)
                  000ad622    00000020     veronte.lib : Cy_pers_pdi_resp.obj (.text:_ZN6Cyphal16Cy_pers_pdi_resp10on_tx_implERN6Stanag14IStanag_msg_tx9Tx_paramsE)
                  000ad642    00000020     stanag.lib : Auth_request.obj (.text:_ZN6Stanag14U8istream_pvec9get_fieldIN4Base10StimestampEEEbRT_)
                  000ad662    00000020                : Message_request.obj (.text:_ZN6Stanag14U8istream_pvec9get_fieldIN4Base12Presence_vecEEEbRT_)
                  000ad682    00000020                : Heartbeat.obj (.text:_ZN6Stanag9Heartbeat5on_rxERNS_14IStanag_msg_rx9Rx_paramsE)
                  000ad6a2    00000020     devices.lib : Sxp.obj (.text:_ZN7Devices3Sxp6configEN12Dsp28335_ent6SCIcfgENS_9Xr20m11727ChannelE)
                  000ad6c2    00000020     pa_blocks.lib : Measurements.obj (.text:_ZN9Pa_blocks12Measurements3Imu4copyERKS1_)
                  000ad6e2    00000020     veronte.lib : Cy_amz_timesync_server.obj (.text:_ZN9Pa_blocks22Cy_amz_timesync_server5on_rxEN6Cyphal8CyCAN_idERN4Base9U8istreamE)
                  000ad702    00000020     maverick.lib : Rtable.obj (.text:_ZNK4Base6MblockIKfE20sub_mblock_with_sizeEm)
                  000ad722    00000020     base.lib : Fmsgmgr.obj (.text:_ZThn6_N4Base7Fmsgmgr11get_triggerEj)
                  000ad742    00000020     geomodel.lib : Apos.obj (.text:__sti___8_Apos_cpp_ad6fc636)
                  000ad762    0000001f     DSP2837x_ent.lib : DMA.obj (.text:_ZN12Dsp28335_ent3DMA8Dma_regs10get_ch_regENS0_2IdE)
                  000ad781    0000001f     DSP28x.lib : SCI.obj (.text:_ZN12Dsp28335_ent3SCI4stepEv)
                  000ad7a0    0000001f     DSP2838x_ent.lib : Htime_2838x.obj (.text:_ZN3Bsp5Htime8get_timeEv)
                  000ad7bf    0000001f     veronte.lib : Xpccansuite.obj (.text:_ZN3Ver11Xpccansuite4stepEv)
                  000ad7de    0000001f     base.lib : Syserr_bits.obj (.text:_ZN4Base11Syserr_bits4stepEv)
                  000ad7fd    0000001f              : Stanag_msg_type.obj (.text:_ZN4Base15Stanag_msg_type10needs_authENS0_8Msg_typeE)
                  000ad81c    0000001f     midlevel.lib : Cyphal_tx_mgr.obj (.text:_ZN4Base3MapINS_15Stanag_msg_type8Msg_typeEN6Cyphal13Cyphal_tx_mgr6Msg_txEE9push_backERKS2_RKS5_)
                  000ad83b    0000001f     base.lib : CANout_mgr.obj (.text:_ZN4Base5ArrayINS_9Call_statEEC1IfEEmNS_6Memmgr4TypeET_)
                  000ad85a    0000001f     first.lib : Lossy.obj (.text:_ZN4Base5Lossy11get_n_uint8ERNS_10U8pkmblockE)
                  000ad879    0000001f               : Lossy.obj (.text:_ZN4Base5Lossy8get_int8ERc)
                  000ad898    0000001f     base.lib : Fmsgmgr.obj (.text:_ZN4Base7Fmsgmgr11get_triggerEj)
                  000ad8b7    0000001f              : Xcpktrd.obj (.text:_ZN4Base7Xcpktrd4stepEv)
                  000ad8d6    0000001f     DFS2.lib : File_descr.obj (.text:_ZN4DFS210File_descrC1EN4Base5Ifile3UidE)
                  000ad8f5    0000001f     veronte.lib : Cy_string_resp.obj (.text:_ZN6Cyphal14Cy_string_resp10on_tx_implERN6Stanag14IStanag_msg_tx9Tx_paramsE)
                  000ad914    0000001f     stanag.lib : Auth_response.obj (.text:_ZN6Stanag14U8ostream_pvec9put_fieldIN4Base12Bitmapped_u8INS_4Defs16Access_echo_dataEEEEEvRKT_)
                  000ad933    0000001f                : Alert_msg.obj (.text:_ZN6Stanag14U8ostream_pvec9put_fieldIN4Base12Bitmapped_u8INS_4Defs16Alert_group_dataEEEEEvRKT_)
                  000ad952    0000001f     midlevel.lib : Secure_CAN.obj (.text:_ZN7Devices10Secure_CAN11CAN_wrap_exIN12Dsp28335_ent6CAN_FDEE5writeERKN4Base8CANframeE)
                  000ad971    0000001f     maverick.lib : Biquad_iir_3d.obj (.text:_ZN8Maverick13Biquad_iir_3d5resetERKNS_9Irvector3E)
                  000ad990    0000001f     DSP28x.lib : CANcfg.obj (.text:_ZNK12Dsp28335_ent6CANcfg8validateEv)
                  000ad9af    0000001f     base.lib : Tcal3D.obj (.text:_ZNK4Base6Tcal3D7computeERKN8Maverick9Irvector3ERNS_7TnarrayIfLm3EEE)
                  000ad9ce    0000001e     DSP2837x_ent.lib : CAN.obj (.text:_ZN12Dsp28335_ent11Regshandler13ifapply_rangeEii)
                  000ad9ec    0000001e                      : ADC.obj (.text:_ZN12Dsp28335_ent3ADCC1ENS0_9Vref_typeE)
                  000ada0a    0000001e     DSP28x.lib : I2Cif.obj (.text:_ZN12Dsp28335_ent5I2Cif15start_operationEbj)
                  000ada28    0000001e     DSP2837x_ent.lib : ISRmgr.obj (.text:_ZN12Dsp28335_ent6ISRmgr4initEv)
                  000ada46    0000001e     base.lib : Permission.obj (.text:_ZN4Base10Permission4csetERNS_5LossyE)
                  000ada64    0000001e     stanag.lib : Auth_request.obj (.text:_ZN4Base11TnarrayreszINS_7AddressELm5EE6appendERKS1_)
                  000ada82    0000001e     midlevel.lib : Cyphal_suite.obj (.text:_ZN4Base11TnarrayreszIPNS_10ItconsumerIN6Cyphal10Cyphal_msgEEELm3EE6appendERKS5_)
                  000adaa0    0000001e     base.lib : Pkt_router.obj (.text:_ZN4Base11TnarrayreszIPNS_9Ipkt_portELm16EE6appendERKS2_)
                  000adabe    0000001e     main_cpu1.obj (.text:_ZN4Base11TnarrayreszIjLm12EE6appendERKj)
                  000adadc    0000001e     base.lib : CRCmav.obj (.text:_ZN4Base6CRCmavC1Eh)
                  000adafa    0000001e              : Tcal3D.obj (.text:_ZN4Base6Tcal3DC1ERVKNS_6TdsyncINS_5Xcal0ILj12EEENS_12Tdsynctraits11Rd_blockingIS3_NS_8Cptraits6PodrawIVS3_EEEENS4_15Disabled_structEEE)
                  000adb18    0000001e              : Msg_data.obj (.text:_ZN4Base8Msg_dataC1ENS_7AddressENS_15Stanag_msg_type8Msg_typeERKNS_10StimestampEbb)
                  000adb36    0000001e     first.lib : U8istream.obj (.text:_ZN4Base9U8istream13get_uint24_beEv)
                  000adb54    0000001e     midlevel.lib : CyphalCAN_in.obj (.text:_ZN6Cyphal12CyphalCAN_in7get_msgERNS_15Cyphal_msg_dataERN4Base9U8ostreamE)
                  000adb72    0000001e     stanag.lib : U8ostream_pvec.obj (.text:_ZN6Stanag14U8ostream_pvec8put_int8Ec)
                  000adb90    0000001e                : U8ostream_pvec.obj (.text:_ZN6Stanag14U8ostream_pvec9put_uint8Eh)
                  000adbae    0000001e     devices.lib : Adis165053.obj (.text:_ZN7Devices10Adis16505317set_accel_rfactorEv)
                  000adbcc    0000001e     midlevel.lib : Msg_sender_action.obj (.text:_ZN8Midlevel17Msg_sender_actionC1ERN4Base11Imsg_senderERKNS1_3MapINS1_15Stanag_msg_type8Msg_typeEPN6Stanag14IStanag_msg_txEEE)
                  000adbea    0000001e     base.lib : Kfieldset.obj (.text:_ZNK4Base9Kfieldset8compressERNS_5LossyERKNS_4IgetE)
                  000adc08    0000001e     rts2800_fpu64_eabi.lib : ll_cmp28.asm.obj (.text)
                  000adc26    0000001d     DSP2837x_ent.lib : I2Cif_2837x.obj (.text:_ZN12Dsp28335_ent5I2Cif14set_clk_enableEv)
                  000adc43    0000001d                      : GPIOioctl.obj (.text:_ZN12Dsp28335_ent9GPIOioctl14apply_usb_pinsEv)
                  000adc60    0000001d     first.lib : Call_statchk.obj (.text:_ZN4Base12Call_statchk4stepEv)
                  000adc7d    0000001d     veronte.lib : Veronte_amz.obj (.text:_ZN4Base3MapIN9Pa_blocks22Cy_maint_action_consts13Command_typesEPNS2_13Imaint_actionEE3putERKS3_RKS5_)
                  000adc9a    0000001d                 : Veronte_amz.obj (.text:_ZN4Base3MapINS_15Stanag_msg_type8Msg_typeEPN6Stanag14IStanag_msg_txEE3putERKS2_RKS5_)
                  000adcb7    0000001d                 : Veronte_amz.obj (.text:_ZN4Base3MapINS_15Stanag_msg_type8Msg_typeEPN6Stanag14IStanag_rx_pktEE3putERKS2_RKS5_)
                  000adcd4    0000001d     stanag.lib : Auth_handover_req.obj (.text:_ZN4Base3MapINS_8Address0EbE3putERKS1_RKb)
                  000adcf1    0000001d     midlevel.lib : Cyphal_rx_mgr.obj (.text:_ZN4Base3MapIjPN6Cyphal13Cyphal_rx_hndEE3putERKjRKS3_)
                  000add0e    0000001d     base.lib : Fmsgchecker.obj (.text:_ZN4Base5ArrayINS_7TimeoutEEC1IfEEmNS_6Memmgr4TypeET_)
                  000add2b    0000001d              : Evact.obj (.text:_ZN4Base5EvactC1ERNS0_7BuilderE)
                  000add48    0000001d     DFS2.lib : DSF2_file.obj (.text:_ZN4DFS24FileD1Ev)
                  000add65    0000001d     base.lib : Cyphal.obj (.text:_ZN6Cyphal10Cyphal_msg6set_idENS_8CyCAN_idE)
                  000add82    0000001d     devices.lib : PMIC_TPS65381A.obj (.text:_ZN7Devices14PMIC_TPS65381A9write_regENS0_7CommandEh)
                  000add9f    0000001d                 : Simdev.obj (.text:_ZN7Devices6SimdevC1EfNS_9Sim_noise9NoiseTypeE)
                  000addbc    0000001d                 : Simdev3D.obj (.text:_ZN7Devices8Simdev3DC1EfNS_9Sim_noise9NoiseTypeE)
                  000addd9    0000001d     veronte.lib : Maps_updater.obj (.text:_ZNK3Ver12Maps_updater12is_updatableEj)
                  000addf6    0000001d     base.lib : Kfieldset.obj (.text:_ZNK4Base9Kfieldset8get_sizeEv)
                  000ade13    0000001d              : Flogic.obj (.text:_ZNVK4Base6Flogic12next_elementERPVKjRj)
                  000ade30    0000001d     rts2800_fpu64_eabi.lib : memcpy.c.obj (.text)
                  000ade4d    0000001c     DSP2837x_ent.lib : System_cpu1.obj (.text:_ZN12Dsp28335_ent13init_sys_cpu1ENS_6System12Ext_mem_sizeEN4Base6MblockIKNS2_9Mem_rangeEEE)
                  000ade69    0000001c     DSP2838x_ent.lib : Ipc_2838x.obj (.text:_ZN12Dsp28335_ent3Ipc23send_reset_request_1to2Ev)
                  000ade85    0000001c     DSP28x.lib : Timer.obj (.text:_ZN12Dsp28335_ent5TimerC1ENS0_2IdEfb)
                  000adea1    0000001c     DSP2837x_ent.lib : Piectrl.obj (.text:_ZN12Dsp28335_ent7Piectrl14clear_isr_flagENS0_3MidE)
                  000adebd    0000001c                      : Piectrl.obj (.text:_ZN12Dsp28335_ent7Piectrl6enableENS0_3MidE)
                  000aded9    0000001c     veronte.lib : Xcd_priv_impl.obj (.text:_ZN3Ver2Xc8Xcd_cpu29init_privERVKNS0_8Xcd_cpu1E)
                  000adef5    0000001c     base.lib : CANserial.obj (.text:_ZN4Base10WindowbuffINS_7CANdataEE5resetEv)
                  000adf11    0000001c              : Fmsgchecker.obj (.text:_ZN4Base11Fmsgchecker13set_all_zerosEv)
                  000adf2d    0000001c              : Espkt_parser.obj (.text:_ZN4Base12Espkt_parser5resetEv)
                  000adf49    0000001c     midlevel.lib : Cyphal_tx_mgr.obj (.text:_ZN4Base3MapINS_15Stanag_msg_type8Msg_typeEN6Cyphal13Cyphal_tx_mgr6Msg_txEE8Iterator4nextERS2_RS5_)
                  000adf65    0000001c     stanag.lib : Auth_request.obj (.text:_ZN4Base3MapINS_7AddressEN6Stanag13Auth_response15Response_fieldsEE9push_backERKS1_RKS4_)
                  000adf81    0000001c     midlevel.lib : Comstats.obj (.text:_ZN4Base3MapINS_8Address0EN8Midlevel8Comstats6StdataEE9push_backERKS1_RKS4_)
                  000adf9d    0000001c     stanag.lib : Alert_msg.obj (.text:_ZN4Base3MapIPKNS_15Auth_connectionEN6Stanag9Alert_msg16Alert_data_arrayILj3EEEE9push_backERKS3_RKS7_)
                  000adfb9    0000001c     first.lib : Lossy.obj (.text:_ZN4Base5Lossy9get_bool1ERb)
                  000adfd5    0000001c     base.lib : Bootlog.obj (.text:_ZN4Base7Bootlog4saveENS_6LoadstE)
                  000adff1    0000001c              : Stepmgr.obj (.text:_ZN4Base7Stepmgr5Step0C1Ev)
                  000ae00d    0000001c     first.lib : Bitutils.obj (.text:_ZN4Base8Bitutils14get_lsbset_idxEjRj)
                  000ae029    0000001c     base.lib : Sticktypes.obj (.text:_ZN4Base8Stickval4initEv)
                  000ae045    0000001c              : Xcfilesvc.obj (.text:_ZN4Base8XcbufferILm512EE6Reader5startEv)
                  000ae061    0000001c     pa_blocks.lib : Fifo_imu.obj (.text:_ZN4Base9Fifospsc0IVN9Pa_blocks12Measurements3ImuENS_10SPSCtraits8ExternalENS5_12Internal_refEE5writeIS3_NS_8Cptraits4CopyIKS3_S4_EEEEbNS_12JSF116_paramIT_E4typeE)
                  000ae07d    0000001c                   : Gnss_raw_meas_fifo.obj (.text:_ZN4Base9Fifospsc0IVN9Pa_blocks18Gnss_raw_meas_fifo12Msg_buffer_tENS_10SPSCtraits8ExternalENS5_12Internal_refEE5writeINS_12U8pkmblock_kENS_8Cptraits4CopyIKSA_S4_EEEEbNS_12JSF116_paramIT_E4typeE)
                  000ae099    0000001c     stanag.lib : Alert_id.obj (.text:_ZN6Stanag8Alert_id17get_next_alert_idEv)
                  000ae0b5    0000001c     devices.lib : Adis165053.obj (.text:_ZN7Devices10Adis16505316set_gyro_rfactorEv)
                  000ae0d1    0000001c                 : Adis165053.obj (.text:_ZN7Devices10Adis16505323assert_error_updt_stateEbNS0_5StateE)
                  000ae0ed    0000001c     DSP2837x_ent.lib : DMAcfg.obj (.text:_ZNK12Dsp28335_ent6DMAcfg8validateEv)
                  000ae109    0000001c     DSP2838x_ent.lib : CM_helpers.obj (.text:_ZNK12Dsp28335_ent8TGPIOtunINS_9GPIOmux16EE8is_validEv)
                  000ae125    0000001c     veronte.lib : License.obj (.text:_ZNK3Ver7License5checkERKN4Base7UbxtimeE)
                  000ae141    0000001b     DSP2837x_ent.lib : Analog_subsys.obj (.text:_ZN12Dsp28335_ent13Analog_subsys24apply_static_calibrationEv)
                  000ae15c    0000001b     DSP2838x_ent.lib : ADC_2838x.obj (.text:_ZN12Dsp28335_ent3ADC11cal_adc_inlENS0_6ModuleE)
                  000ae177    0000001b     DSP2837x_ent.lib : DMA.obj (.text:_ZN12Dsp28335_ent3DMA3runEm)
                  000ae192    0000001b     veronte.lib : Tmsuite.obj (.text:_ZN3Ver7Tmsuite4stepEv)
                  000ae1ad    0000001b                 : Varmeas.obj (.text:_ZN3Ver7Varmeas4vsetERKN4Base7Vref_wrE)
                  000ae1c8    0000001b     first.lib : U8pkmblock.obj (.text:_ZN4Base10U8pkmblock5writeEmRKNS_12U8pkmblock_kEmm)
                  000ae1e3    0000001b     veronte.lib : Xpccansuite.obj (.text:_ZN4Base5ArrayINS_9CANserialEEC1IhEEmNS_6Memmgr4TypeET_)
                  000ae1fe    0000001b     first.lib : Mcopy.obj (.text:_ZN4Base5Mcopy6flip16ERNS_5ArrayIjEEmRKNS_6KarrayIjEEmm)
                  000ae219    0000001b     base.lib : Vardst.obj (.text:_ZN4Base6VardstC1ERKNS_11Sniffervdat10Vmap_arrayERKNS_10KfieldsvecIS1_E6ReaderE)
                  000ae234    0000001b              : Msg_data.obj (.text:_ZN4Base8Msg_dataC1ENS_7AddressENS_15Stanag_msg_type8Msg_typeEjb)
                  000ae24f    0000001b     first.lib : PDIcheck.obj (.text:_ZN4Base8PDIcheck7append0ERKNS_5ErrorE)
                  000ae26a    0000001b     midlevel.lib : CyphalCAN_in.obj (.text:_ZN6Cyphal13Cyphal_in_hnd3getEm)
                  000ae285    0000001b                  : Irxfw.obj (.text:_ZN8Midlevel5Irxfw2Fw5on_txERN6Stanag14IStanag_msg_tx9Tx_paramsE)
                  000ae2a0    0000001b                  : Comstats.obj (.text:_ZN8Midlevel8Comstats12Stdata_rmote4csetERN4Base9U8istreamE)
                  000ae2bb    0000001b     veronte.lib : Licmgr.obj (.text:_ZNK3Ver6Licmgr4cgetERN4Base5LossyE)
                  000ae2d6    0000001b     base.lib : Tllhcompressed.obj (.text:_ZNK4Base14Tllhcompressed4cgetERNS_5LossyE)
                  000ae2f1    0000001b              : CRCmav.obj (.text:__sti___10_CRCmav_cpp_cf8d057a)
                  000ae30c    0000001a     DSP2837x_ent.lib : Wipe_memory_c1_2838x.obj (.text:_ZN12Dsp28335_ent14wipe_memory_c1EN4Base6MblockIKNS0_9Mem_rangeEEE)
                  000ae326    0000001a     DSP28x.lib : I2Cif.obj (.text:_ZN12Dsp28335_ent5I2Cif7bulk_txEv)
                  000ae340    0000001a     DSP2837x_ent.lib : Cpusys.obj (.text:_ZN12Dsp28335_ent6Cpusys9pfsel_dmaEv)
                  000ae35a    0000001a                      : Piectrl.obj (.text:_ZN12Dsp28335_ent7Piectrl4initEv)
                  000ae374    0000001a     base.lib : Message_received_hnd.obj (.text:_ZN4Base20Message_received_hnd7BuilderC1ENS0_8Msg_typeEj)
                  000ae38e    0000001a     midlevel.lib : Comstats.obj (.text:_ZN4Base3MapINS_8Address0EN8Midlevel8Comstats6StdataEE16apply_all_valuesINS3_12Stdata_local11Fct_counttxEEEvT_)
                  000ae3a8    0000001a                  : Cyphal_tx_mgr.obj (.text:_ZN4Base5ArrayIN6Cyphal13Cyphal_tx_mgr3MsgEEC1EmNS_6Memmgr4TypeE)
                  000ae3c2    0000001a     base.lib : CRC32.obj (.text:_ZN4Base5CRC326updateERKNS_12U8pkmblock_kE)
                  000ae3dc    0000001a              : Evact.obj (.text:_ZN4Base5Evact13on_cfg_changeEb)
                  000ae3f6    0000001a     first.lib : Strutil.obj (.text:_ZN4Base7Strutil10is_ignoredEh)
                  000ae410    0000001a     base.lib : Vrefdst.obj (.text:_ZN4Base7Vrefdst3setENS_8Bvar_mapERKNS_8Hbmapvar4TypeE)
                  000ae42a    0000001a              : IP4_util.obj (.text:_ZN4Base8IP4_util14build_ip4_addrEhhhh)
                  000ae444    0000001a              : Msg_data.obj (.text:_ZN4Base8Msg_dataC1ENS_7AddressENS_15Stanag_msg_type8Msg_typeEjNS_10StimestampENS0_8Ack_typeEb)
                  000ae45e    0000001a              : Msg_data.obj (.text:_ZN4Base8Msg_dataC1Ev)
                  000ae478    0000001a              : CPUrc_avg.obj (.text:_ZN4Base9CPUrc_avg7computeEff)
                  000ae492    0000001a     stanag.lib : Stanag_msg_mgr.obj (.text:_ZN4Base9Fifospsc0INS_8Msg_dataENS_10SPSCtraits8InternalES3_E4readIS1_NS_8Cptraits8OperatorIS1_S1_EEEEbRT_)
                  000ae4ac    0000001a     base.lib : Xcmqwr.obj (.text:_ZN4Base9Fifospsc0IVjNS_10SPSCtraits8ExternalENS2_12Internal_refEE5writeIS1_NS_8Cptraits8OperatorIS1_S1_EEEEbNS_12JSF116_paramIT_E4typeE)
                  000ae4c6    0000001a              : CANframe_fifo32.obj (.text:_ZN4Base9Fifospsc0ImNS_10SPSCtraits8ExternalENS1_12Internal_refEE5writeImNS_8Cptraits8OperatorImmEEEEbNS_12JSF116_paramIT_E4typeE)
                  000ae4e0    0000001a     veronte.lib : Veronte_amz.obj (.text:_ZN4Base9StlvectorIN9Pa_blocks22Cy_maint_action_consts13Command_typesEE9push_backERKS3_)
                  000ae4fa    0000001a                 : Veronte_amz.obj (.text:_ZN4Base9StlvectorINS_15Stanag_msg_type8Msg_typeEE9push_backERKS2_)
                  000ae514    0000001a     base.lib : Vrefdstbuff.obj (.text:_ZN4Base9StlvectorINS_4FrefEE9push_backERKS1_)
                  000ae52e    0000001a              : Vrefdstbuff.obj (.text:_ZN4Base9StlvectorINS_4Iset4DataINS_6R64varEeEEE9push_backERKS4_)
                  000ae548    0000001a              : Vrefdstbuff.obj (.text:_ZN4Base9StlvectorINS_7Vref_wrEE9push_backERKS1_)
                  000ae562    0000001a              : Vrefdstbuff.obj (.text:_ZN4Base9StlvectorINS_8Hbmapvar3RefEE9push_backERKS2_)
                  000ae57c    0000001a     midlevel.lib : Cyphal_rx_mgr.obj (.text:_ZN4Base9StlvectorIjE9push_backERKj)
                  000ae596    0000001a     base.lib : Fheader.obj (.text:_ZN4Base9Tuntraits15Arraytun_nosizeINS0_4CxetIKNS_5FieldEEENS_6MblockIS4_EENS0_8No_checkIS7_EEE8elem2strERKS7_RNS_5LossyE)
                  000ae5b0    0000001a     first.lib : U8istream.obj (.text:_ZN4Base9U8istream13get_uint64_leEj)
                  000ae5ca    0000001a     media.lib : Filecom.obj (.text:_ZN5Media7Filecom17send_close_resultERN4Base9U8ostreamE)
                  000ae5e4    0000001a     base.lib : Cyphal.obj (.text:_ZN6Cyphal10Cyphal_msg7set_lenEj)
                  000ae5fe    0000001a     stanag.lib : Stanag_port.obj (.text:_ZN6Stanag11Stanag_port9send_spktEN4Base11Ipkt_parser5StateE)
                  000ae618    0000001a     veronte.lib : Veronte.obj (.text:_ZN6Stanag14Fstgcfg_getterILj40EE13get_as_mblockEv)
                  000ae632    0000001a                 : Halsuite.obj (.text:__sti___12_Halsuite_cpp_a4af886a)
                  000ae64c    0000001a     first.lib : PDIcheck.obj (.text:__sti___12_PDIcheck_cpp_0090a2f4)
                  000ae666    0000001a     stanag.lib : Alert_msg.obj (.text:__sti___13_Alert_msg_cpp_57bcba0b)
                  000ae680    00000019     DSP28x.lib : I2Cif.obj (.text:_ZN12Dsp28335_ent5I2Cif8tx_errorEv)
                  000ae699    00000019                : Stackchk.obj (.text:_ZN12Dsp28335_ent8StackchkC1Ev)
                  000ae6b2    00000019     veronte.lib : Hvar_cpu1.obj (.text:_ZN3Bsp7Hu64varC1Ej)
                  000ae6cb    00000019     base.lib : Int_decimator.obj (.text:_ZN4Base13Int_decimator14set_decimationEff)
                  000ae6e4    00000019     midlevel.lib : Imu_reader_filter.obj (.text:_ZN4Base5ArrayIN9Pa_blocks14Moving_averageEEC1IjEEmNS_6Memmgr4TypeET_)
                  000ae6fd    00000019     first.lib : Lossy.obj (.text:_ZN4Base5Lossy13turnback_bitsEm)
                  000ae716    00000019               : Lossy.obj (.text:_ZN4Base5Lossy5bits4Ey)
                  000ae72f    00000019               : Lossy.obj (.text:_ZN4Base5Lossy9get_floatERf)
                  000ae748    00000019               : Lossy.obj (.text:_ZN4Base5Lossy9get_uint8ERh)
                  000ae761    00000019               : Lossy.obj (.text:_ZN4Base5LossyC1ENS_6MblockIjEE)
                  000ae77a    00000019     base.lib : Xcfgmgr.obj (.text:_ZN4Base7XcfgmgrC1Ev)
                  000ae793    00000019              : Msg_data.obj (.text:_ZN4Base8Msg_dataC1ENS_7AddressENS_15Stanag_msg_type8Msg_typeERKNS_10StimestampERKNS_12Presence_vecEb)
                  000ae7ac    00000019     first.lib : PDIcheck.obj (.text:_ZN4Base8PDIcheck6commitENS_8ErrorsrcE)
                  000ae7c5    00000019     base.lib : Xcfilesvc.obj (.text:_ZN4Base8XcbufferILm512EE6Writer5startEv)
                  000ae7de    00000019     stanag.lib : Stanag_msg_mgr.obj (.text:_ZN4Base9Fifospsc0INS_8Msg_dataENS_10SPSCtraits8InternalES3_E5writeIS1_NS_8Cptraits8OperatorIS1_S1_EEEEbNS_12JSF116_paramIT_E4typeE)
                  000ae7f7    00000019     base.lib : CANframe_fifo32.obj (.text:_ZN4Base9Fifospsc0ImNS_10SPSCtraits22Add_reference_to_traitINS1_8InternalEE8TemplateES3_E4readImNS_8Cptraits8OperatorImmEEEEbRT_)
                  000ae810    00000019     stanag.lib : Auth_request.obj (.text:_ZN4Base9StlvectorINS_7AddressEE9push_backERKS1_)
                  000ae829    00000019     base.lib : Pkt_router.obj (.text:_ZN4Base9StlvectorINS_8Address0EE9push_backERKS1_)
                  000ae842    00000019     stanag.lib : Alert_msg.obj (.text:_ZN4Base9StlvectorIPKNS_15Auth_connectionEE9push_backERKS3_)
                  000ae85b    00000019     DFS2.lib : DSF2_file.obj (.text:_ZN4DFS24File17set_as_empty_fileERNS_10File_descrE)
                  000ae874    00000019              : DSF2_file.obj (.text:_ZN4DFS29File_priv9curr_toutEv)
                  000ae88d    00000019     media.lib : Maint_mode_bl.obj (.text:_ZN5Media13Maint_mode_bl4stepEPN4Base6IresetENS1_6LoadstE)
                  000ae8a6    00000019     midlevel.lib : CyphalCAN_in.obj (.text:_ZN6Cyphal12CyphalCAN_in11compute_crcERNS_15Cyphal_msg_dataERKN4Base7CANdataEh)
                  000ae8bf    00000019                  : Cy_msg_id_gen.obj (.text:_ZN6Cyphal13Cy_msg_id_genC1ERVKyPVy)
                  000ae8d8    00000019     stanag.lib : U8istream_pvec.obj (.text:_ZN6Stanag14U8istream_pvec17get_avail_and_incEv)
                  000ae8f1    00000019                : IConnection_getter.obj (.text:_ZN6Stanag18IConnection_getter8Iterator6next_cEN4Base15Auth_connection6StatusE)
                  000ae90a    00000019     midlevel.lib : Irxfw.obj (.text:_ZN8Midlevel5Irxfw2Fw6notifyERKN4Base8Msg_dataE)
                  000ae923    00000019     veronte.lib : Devsimsuite.obj (.text:_ZNK3Ver11Devsimsuite17is_magsim_enabledEv)
                  000ae93c    00000019                 : Veronte_amz.obj (.text:_ZNK4Base5ArrayINS_15Stanag_msg_type8Msg_typeEE12get_index_ofERKS2_)
                  000ae955    00000019     stanag.lib : Auth_request.obj (.text:_ZNK4Base5ArrayINS_7AddressEE12get_index_ofERKS1_)
                  000ae96e    00000019     base.lib : Pkt_router.obj (.text:_ZNK4Base5ArrayINS_8Address0EE12get_index_ofERKS1_)
                  000ae987    00000019     stanag.lib : Alert_msg.obj (.text:_ZNK4Base5ArrayIPKNS_15Auth_connectionEE12get_index_ofERKS3_)
                  000ae9a0    00000019     midlevel.lib : CyphalCAN_in.obj (.text:_ZNK4Base5ArrayIjE12get_index_ofERKj)
                  000ae9b9    00000019     base.lib : RTCM3parser.obj (.text:__sti___15_RTCM3parser_cpp_92c12bca)
                  000ae9d2    00000019     devices.lib : Adis165053_cfg.obj (.text:__sti___18_Adis165053_cfg_cpp_fffef51a)
                  000ae9eb    00000019     rts2800_fpu64_eabi.lib : boot28.asm.obj (.text)
                  000aea04    00000019                            : s_fabs.c.obj (.text)
                  000aea1d    00000018     Mem_to_wipe.obj (.text:_ZN12Dsp28335_ent15get_mem_to_wipeEv)
                  000aea35    00000018     DSP28x.lib : I2Cif.obj (.text:_ZN12Dsp28335_ent5I2Cif5resetEv)
                  000aea4d    00000018                : CANcfg.obj (.text:_ZN12Dsp28335_ent6CANcfg4initEv)
                  000aea65    00000018     DSP2837x_ent.lib : DMAcfg.obj (.text:_ZN12Dsp28335_ent6DMAcfgC1ENS_10DMAtrigger2IdEbjmRKNS0_2IOES5_b)
                  000aea7d    00000018     base.lib : Cyphal_common_types.obj (.text:_ZN19Cyphal_common_types14get_array_sizeEmRN4Base9U8istreamE)
                  000aea95    00000018     veronte.lib : Hvar_cpu1.obj (.text:_ZN3Bsp5Hrvar3setEf)
                  000aeaad    00000018                 : Gpssimdev.obj (.text:_ZN3Ver10Gps_simdevC1Ev)
                  000aeac5    00000018                 : CPU1_CM_shared.obj (.text:_ZN3Ver13get_shared_c1Ev)
                  000aeadd    00000018                 : CPU1_CM_shared.obj (.text:_ZN4Base11Spkt_bufferC1Ev)
                  000aeaf5    00000018     base.lib : CANframe_fifo32.obj (.text:_ZN4Base15CANframe_fifo32C1EmNS_6Memmgr4TypeE)
                  000aeb0d    00000018     veronte.lib : Hvar_cpu1.obj (.text:_ZN4Base3JidINS_8FidtraitEE10get_gsizesEv)
                  000aeb25    00000018                 : Veronte_amz.obj (.text:_ZN4Base3MapIN9Pa_blocks22Cy_maint_action_consts13Command_typesEPNS2_13Imaint_actionEE9push_backERKS3_RKS5_)
                  000aeb3d    00000018                 : Veronte_amz.obj (.text:_ZN4Base3MapINS_15Stanag_msg_type8Msg_typeEPN6Stanag14IStanag_msg_txEE9push_backERKS2_RKS5_)
                  000aeb55    00000018                 : Veronte_amz.obj (.text:_ZN4Base3MapINS_15Stanag_msg_type8Msg_typeEPN6Stanag14IStanag_rx_pktEE9push_backERKS2_RKS5_)
                  000aeb6d    00000018     stanag.lib : Auth_handover_req.obj (.text:_ZN4Base3MapINS_8Address0EbE9push_backERKS1_RKb)
                  000aeb85    00000018     midlevel.lib : Cyphal_rx_mgr.obj (.text:_ZN4Base3MapIjPN6Cyphal13Cyphal_rx_hndEE9push_backERKjRKS3_)
                  000aeb9d    00000018                  : Cyphal_tx_mgr.obj (.text:_ZN4Base5ArrayIN6Cyphal13Cyphal_tx_mgr6Msg_txEEC1EmNS_6Memmgr4TypeE)
                  000aebb5    00000018     stanag.lib : Stanag_suite.obj (.text:_ZN4Base5ArrayIN6Stanag13Auth_response15Response_fieldsEEC1EmNS_6Memmgr4TypeE)
                  000aebcd    00000018                : Alert_msg.obj (.text:_ZN4Base5ArrayIN6Stanag9Alert_msg16Alert_data_arrayILj3EEEEC1EmNS_6Memmgr4TypeE)
                  000aebe5    00000018     midlevel.lib : Comstats.obj (.text:_ZN4Base5ArrayIN8Midlevel8Comstats6StdataEEC1EmNS_6Memmgr4TypeE)
                  000aebfd    00000018     base.lib : Pkt_router.obj (.text:_ZN4Base5ArrayINS_10Pkt_router10Ident_dataEEC1EmNS_6Memmgr4TypeE)
                  000aec15    00000018     veronte.lib : Xpccansuite.obj (.text:_ZN4Base5ArrayINS_4FmsgEEC1EmNS_6Memmgr4TypeE)
                  000aec2d    00000018     base.lib : Vrefdstbuff.obj (.text:_ZN4Base5ArrayINS_4FrefEEC1EmNS_6Memmgr4TypeE)
                  000aec45    00000018              : Vrefdstbuff.obj (.text:_ZN4Base5ArrayINS_4Iset4DataINS_6R64varEeEEEC1EmNS_6Memmgr4TypeE)
                  000aec5d    00000018     veronte.lib : Tmsuite.obj (.text:_ZN4Base5ArrayINS_6ChronoEEC1EmNS_6Memmgr4TypeE)
                  000aec75    00000018     base.lib : Fmsgconsumer.obj (.text:_ZN4Base5ArrayINS_6FmsgrxEEC1EmNS_6Memmgr4TypeE)
                  000aec8d    00000018              : CANserial.obj (.text:_ZN4Base5ArrayINS_7CANdataEEC1EmNS_6Memmgr4TypeE)
                  000aeca5    00000018              : Stepmgr.obj (.text:_ZN4Base5ArrayINS_7Stepmgr5Step0EEC1EmNS_6Memmgr4TypeE)
                  000aecbd    00000018     veronte.lib : Xpccansuite.obj (.text:_ZN4Base5ArrayINS_9SerialCANEEC1EmNS_6Memmgr4TypeE)
                  000aecd5    00000018     first.lib : Error.obj (.text:_ZN4Base5Error5assrtEbNS_8ErrorsrcE)
                  000aeced    00000018     base.lib : Hashers.obj (.text:_ZN4Base7Hashers11Hash_uint169hash_funcEj)
                  000aed05    00000018              : Stepmgr.obj (.text:_ZN4Base7Stepmgr3runENS0_2IdE)
                  000aed1d    00000018     veronte.lib : Veronte.obj (.text:_ZN4Base9Fifo_portINS_11Fifo_sharedINS_11Spkt_bufferELj2EE6WriterENS3_6ReaderEE12get_pkt_lossERjRf)
                  000aed35    00000018                 : Veronte.obj (.text:_ZN4Base9Fifo_portINS_11Fifo_sharedINS_11Spkt_bufferELj2EE6WriterENS3_6ReaderEEC1ERNS_10Pkt_routerERS4_RS5_)
                  000aed4d    00000018     midlevel.lib : CyphalCAN_in.obj (.text:_ZN4Base9Fifospsc0IN6Cyphal12CyphalCAN_in16Cy_msg_triggeredENS_10SPSCtraits8InternalES5_E5writeIS3_NS_8Cptraits8OperatorIS3_S3_EEEEbNS_12JSF116_paramIT_E4typeE)
                  000aed65    00000018     DFS2.lib : DFS2_fs.obj (.text:_ZN4DFS27DFS2_fs7FopenedC1Ev)
                  000aed7d    00000018     stanag.lib : Auth_request.obj (.text:_ZN6Stanag12Auth_request14updt_auth_echoERN4Base12Bitmapped_u8INS_4Defs16Access_echo_dataEEEh)
                  000aed95    00000018                : U8istream_pvec.obj (.text:_ZN6Stanag14U8istream_pvec13get_uint8_refERhh)
                  000aedad    00000018                : U8istream_pvec.obj (.text:_ZN6Stanag14U8istream_pvec17get_uint16_be_refERjj)
                  000aedc5    00000018                : Alert_msg.obj (.text:_ZN6Stanag9Alert_msg14get_alert_infoERKNS0_10Alert_dataERNS0_10Alert_infoE)
                  000aeddd    00000018     devices.lib : Imu_params.obj (.text:_ZN7Devices10Imu_paramsC1ERN4Base7Tmeas3DES3_RNS_7Rawmea3ES5_RVfRVbRNS_8Simdev3DESB_)
                  000aedf5    00000018                 : Adis165053_cfg.obj (.text:_ZN7Devices14Adis165053_cfg13build_defaultEv)
                  000aee0d    00000018     Vmain_cpu1.obj (.text:_ZN7Project10Vmain_cpu18PostinitC1ERN4DFS27DFS2_fsE)
                  000aee25    00000018     base.lib : Fmsgchecker.obj (.text:_ZNK4Base11Fmsgchecker9get_toutsEv)
                  000aee3d    00000018     veronte.lib : Veronte_amz.obj (.text:_ZNK4Base5ArrayIN9Pa_blocks22Cy_maint_action_consts13Command_typesEE12get_index_ofERKS3_)
                  000aee55    00000018     base.lib : Spkt.obj (.text:_ZNK4Base5Cksum9get_valueEv)
                  000aee6d    00000018              : CRCmav.obj (.text:_ZNK4Base6CRCmav9get_valueEv)
                  000aee85    00000018     maverick.lib : Rtable.obj (.text:_ZNK8Maverick6Rtable9xi_searchEf)
                  000aee9d    00000018     rts2800_fpu64_eabi.lib : ll_aox28.asm.obj (.text)
                  000aeeb5    00000017     DSP2838x_ent.lib : fsi_ti.obj (.text:FSI_clearRxModuleReset)
                  000aeecc    00000017     DSP28x.lib : I2Carbiter.obj (.text:_ZN12Dsp28335_ent10I2CarbiterC1ERN4Base6II2CifE)
                  000aeee3    00000017     DSP2837x_ent.lib : Analog_subsys.obj (.text:_ZN12Dsp28335_ent13Analog_subsys11set_tsnsctlEb)
                  000aeefa    00000017     DSP28x.lib : SCI.obj (.text:_ZN12Dsp28335_ent3SCI5writeEh)
                  000aef11    00000017     DSP2838x_ent.lib : CM_helpers.obj (.text:_ZN12Dsp28335_ent8TGPIOtunINS_9GPIOmux16EE5buildENS2_3DirENS2_6PullupENS1_8Type_muxENS2_4QselE)
                  000aef28    00000017     veronte.lib : Halsuite_amz.obj (.text:_ZN12Dsp28335_ent9DMAmp_blkIjE14transfer_startEj)
                  000aef3f    00000017                 : Halsuite_amz.obj (.text:_ZN12Dsp28335_ent9DMApm_blkIjE14transfer_startEj)
                  000aef56    00000017     DSP28x.lib : I2Cdevice.obj (.text:_ZN12Dsp28335_ent9I2Cdevice4sendEhh)
                  000aef6d    00000017     veronte.lib : Hvar_cpu1.obj (.text:_ZN3Bsp5Hbvar3setEb)
                  000aef84    00000017                 : Hvar_cpu1.obj (.text:_ZN3Bsp5Huvar3setEj)
                  000aef9b    00000017                 : Halsuite_bits_amz.obj (.text:_ZN3Ver13Halsuite_bits7computeEv)
                  000aefb2    00000017                 : Xcd_cpu1.obj (.text:_ZN3Ver2Xc18init_shared_memoryEv)
                  000aefc9    00000017                 : FTSact.obj (.text:_ZN3Ver6FTSact4stepEv)
                  000aefe0    00000017     base.lib : Async_transfer_data.obj (.text:_ZN4Base19Async_transfer_data4nextEv)
                  000aeff7    00000017              : Datalink_transmitter.obj (.text:_ZN4Base20Datalink_transmitter13set_block_devERNS_5IfileE)
                  000af00e    00000017     stanag.lib : Auth_handover_req.obj (.text:_ZN4Base3MapINS_8Address0EbE8Iterator4nextERS1_Rb)
                  000af025    00000017     veronte.lib : Xpccansuite.obj (.text:_ZN4Base5ArrayINS_4FrefEE6resizeEm)
                  000af03c    00000017                 : Xpccansuite.obj (.text:_ZN4Base5ArrayINS_4Iset4DataINS_6R64varEeEEE6resizeEm)
                  000af053    00000017     first.lib : Lossy.obj (.text:_ZN4Base5Lossy10put_n_charERKNS_6MblockIKcEE)
                  000af06a    00000017     base.lib : FMCPmgr.obj (.text:_ZN4Base7FMCPmgr13get_proccesorENS0_4TypeE)
                  000af081    00000017     veronte.lib : Hvar_cpu1.obj (.text:_ZN4Base8Hbmapvar3setERKNS0_4TypeE)
                  000af098    00000017     midlevel.lib : Cmdmgr.obj (.text:_ZN4Base9Tuntraits15Arraytun_nosizeINS0_7Lossy16IjEENS_6MblockIjEENS0_8No_checkIS5_EEE8elem2strERKS5_RNS_5LossyE)
                  000af0af    00000017     first.lib : U8ostream.obj (.text:_ZN4Base9U8ostream4seekEm)
                  000af0c6    00000017     geomodel.lib : Gellipsoid.obj (.text:_ZN4Rfun11safe_divideIfEET_S1_S1_S1_)
                  000af0dd    00000017     media.lib : Filecom.obj (.text:_ZN5Media7Filecom4sendENS_11Filecom_ids11Filecom_argE)
                  000af0f4    00000017     midlevel.lib : Check_sender.obj (.text:_ZN6Cyphal12Check_senderC1EN4Base6MblockIKNS1_15Stanag_msg_type8Msg_typeEEE)
                  000af10b    00000017     stanag.lib : Stanag_port.obj (.text:_ZN6Stanag11Stanag_port12get_pkt_lossERjRf)
                  000af122    00000017                : U8ostream_pvec.obj (.text:_ZN6Stanag14U8ostream_pvec17get_avail_and_incEv)
                  000af139    00000017                : U8ostream_pvec.obj (.text:_ZN6Stanag14U8ostream_pvecC1ERN4Base9U8ostreamERKNS1_12Presence_vecE)
                  000af150    00000017                : Alert_msg.obj (.text:_ZN6Stanag9Alert_msg16Alert_data_arrayILj3EE8Iterator10next_validEv)
                  000af167    00000017     midlevel.lib : Cy_drone_mode.obj (.text:_ZN8Midlevel13Cy_drone_mode15get_reboot_modeENS0_5ModesEN4Base6LoadstE)
                  000af17e    00000017     DSP2838x_ent.lib : PMbusdrv_drv.obj (.text:_ZNK12Dsp28335_ent9PMbus_drv7is_busyEv)
                  000af195    00000017     veronte.lib : Devsimsuite.obj (.text:_ZNK3Ver11Devsimsuite17is_stpsim_enabledEv)
                  000af1ac    00000017                 : Halsuite_amz.obj (.text:_ZNK4Base13Tport_w_r_blkIjjE13write_runningEv)
                  000af1c3    00000017     base.lib : Field_real_dec_ASCII.obj (.text:_ZNK4Base20Field_real_dec_ASCII4cgetERNS_5LossyE)
                  000af1da    00000017              : Sysver.obj (.text:_ZNK4Base6Sysver4cgetERNS_5LossyE)
                  000af1f1    00000017              : Fsniffer.obj (.text:_ZNVK4Base8ArraymskINS_10Vmap_entryELj150EE10is_enabledEj)
                  000af208    00000016     FPU.lib : rnd_SP_RS.obj (.text)
                  000af21e    00000016     DSP2838x_ent.lib : fsi_ti.obj (.text:FSI_clearTxModuleReset)
                  000af234    00000016     DSP2837x_ent.lib : GPIO.obj (.text:_ZN12Dsp28335_ent4GPIOC1ENS_6GPIOidE)
                  000af24a    00000016                      : Cpusys.obj (.text:_ZN12Dsp28335_ent6Cpusys14clk_enable_pwmEj)
                  000af260    00000016     base.lib : Cyphal_common_types.obj (.text:_ZN19Cyphal_common_types14put_array_sizeEmRN4Base5LossyEm)
                  000af276    00000016     veronte.lib : Logbook.obj (.text:_ZN3Ver7Logbook9set_phaseEj)
                  000af28c    00000016     base.lib : Stimestamp.obj (.text:_ZN4Base10Stimestamp11get_currentEv)
                  000af2a2    00000016              : Fmsgchecker.obj (.text:_ZN4Base11Fmsgchecker11msg_arrivedEjf)
                  000af2b8    00000016              : Chk_blk_impl.obj (.text:_ZN4Base12Chk_blk_impl12update_blockERKNS_12U8pkmblock_kE)
                  000af2ce    00000016              : Presence_vec.obj (.text:_ZN4Base12Presence_vecC1Ebj)
                  000af2e4    00000016     veronte.lib : Halsuite_amz.obj (.text:_ZN4Base13Port_stats_rxIN12Dsp28335_ent3SCIEE4stepEv)
                  000af2fa    00000016     base.lib : Fstr.obj (.text:_ZN4Base4FstrC1ERNS_11IlogcontrolERNS_7SessionE)
                  000af310    00000016     DSP28x.lib : I2Carbiter.obj (.text:_ZN4Base5ArrayIN12Dsp28335_ent10I2Carbiter12Handler_infoEEC1EmNS_6Memmgr4TypeE)
                  000af326    00000016     veronte.lib : Xpccansuite.obj (.text:_ZN4Base5ArrayINS_6FmsgtxEEC1EmNS_6Memmgr4TypeE)
                  000af33c    00000016     stanag.lib : Stanag_suite.obj (.text:_ZN4Base5ArrayINS_7AddressEEC1EmNS_6Memmgr4TypeE)
                  000af352    00000016     base.lib : Vrefdstbuff.obj (.text:_ZN4Base5ArrayINS_7Vref_wrEEC1EmNS_6Memmgr4TypeE)
                  000af368    00000016              : Pkt_router.obj (.text:_ZN4Base5ArrayINS_8Address0EEC1EmNS_6Memmgr4TypeE)
                  000af37e    00000016              : Vrefdstbuff.obj (.text:_ZN4Base5ArrayINS_8Hbmapvar3RefEEC1EmNS_6Memmgr4TypeE)
                  000af394    00000016     stanag.lib : Stanag_msg_mgr.obj (.text:_ZN4Base5ArrayINS_8Msg_dataEEC1EmNS_6Memmgr4TypeE)
                  000af3aa    00000016     base.lib : Taskmgr.obj (.text:_ZN4Base5ArrayINS_9TaskentryEEC1EmNS_6Memmgr4TypeE)
                  000af3c0    00000016     stanag.lib : Alert_msg.obj (.text:_ZN4Base5ArrayIPKNS_15Auth_connectionEEC1EmNS_6Memmgr4TypeE)
                  000af3d6    00000016     midlevel.lib : Cyphal_suite.obj (.text:_ZN4Base5ArrayIPN6Cyphal13Cyphal_rx_hndEEC1EmNS_6Memmgr4TypeE)
                  000af3ec    00000016     stanag.lib : Stanag_msg_mgr.obj (.text:_ZN4Base5ArrayIPN6Stanag14IStanag_msg_txEEC1EmNS_6Memmgr4TypeE)
                  000af402    00000016                : Stanag_msg_mgr.obj (.text:_ZN4Base5ArrayIPN6Stanag14IStanag_rx_pktEEC1EmNS_6Memmgr4TypeE)
                  000af418    00000016     pa_blocks.lib : Cy_maint_action.obj (.text:_ZN4Base5ArrayIPN9Pa_blocks22Cy_maint_action_consts13Imaint_actionEEC1EmNS_6Memmgr4TypeE)
                  000af42e    00000016     veronte.lib : Xpccansuite.obj (.text:_ZN4Base5ArrayIPNS_10ItconsumerINS_8CANframeEEEEC1EmNS_6Memmgr4TypeE)
                  000af444    00000016                 : Xpcu8suite.obj (.text:_ZN4Base5ArrayIPNS_10ItconsumerIhEEEC1EmNS_6Memmgr4TypeE)
                  000af45a    00000016                 : Xpccansuite.obj (.text:_ZN4Base5ArrayIPNS_10ItproducerINS_8CANframeEEEEC1EmNS_6Memmgr4TypeE)
                  000af470    00000016                 : Xpcu8suite.obj (.text:_ZN4Base5ArrayIPNS_10ItproducerIhEEEC1EmNS_6Memmgr4TypeE)
                  000af486    00000016                 : Xpcu8suite.obj (.text:_ZN4Base5ArrayIPNS_13Ifmsg_triggerEEC1EmNS_6Memmgr4TypeE)
                  000af49c    00000016     base.lib : Xcfgmgr.obj (.text:_ZN4Base5ArrayIPNS_5IstepEEC1EmNS_6Memmgr4TypeE)
                  000af4b2    00000016     maverick.lib : Rvector.obj (.text:_ZN4Base5ArrayIfEC1EmNS_6Memmgr4TypeE)
                  000af4c8    00000016     base.lib : CANframe_fifo32.obj (.text:_ZN4Base5ArrayImEC1EmNS_6Memmgr4TypeE)
                  000af4de    00000016     first.lib : Dsync.obj (.text:_ZN4Base5Dsync6Reader8get_nullEv)
                  000af4f4    00000016               : Lossy.obj (.text:_ZN4Base5Lossy11get_float16ERf)
                  000af50a    00000016               : Lossy.obj (.text:_ZN4Base5LossyC1ERKS0_)
                  000af520    00000016               : Chrono.obj (.text:_ZN4Base6ChronoC1Eb)
                  000af536    00000016               : Memmgr_c2000.obj (.text:_ZN4Base6Memmgr13get_allocatorENS0_4TypeE)
                  000af54c    00000016     base.lib : Pdiver.obj (.text:_ZN4Base6Pdiver4cgetERNS_5LossyE)
                  000af562    00000016              : Feature.obj (.text:_ZN4Base7Feature9build_absERKNS_4TllhE)
                  000af578    00000016     first.lib : Ubxtime.obj (.text:_ZN4Base7Ubxtime20discovery_uncompressERNS_5LossyE)
                  000af58e    00000016     base.lib : Xcfgmgr.obj (.text:_ZN4Base7Xcfgmgr4stepEv)
                  000af5a4    00000016              : Xcfilesvc.obj (.text:_ZN4Base8XcbufferILm512EE6Reader3endEv)
                  000af5ba    00000016              : Xcfilesvc.obj (.text:_ZN4Base8XcbufferILm512EE6Writer3endEv)
                  000af5d0    00000016     DFS2.lib : Partition.obj (.text:_ZN4DFS29PartitionC1Emmjbm)
                  000af5e6    00000016     stanag.lib : Auth_handover_req.obj (.text:_ZN6Stanag17Auth_handover_req13reset_requestEv)
                  000af5fc    00000016     maverick.lib : IIR_2.obj (.text:_ZN8Maverick5IIR_26Coeffs5resetEv)
                  000af612    00000016                  : Rtable.obj (.text:_ZN8Maverick6TarrayIfE6lincmbEfRKN4Base5ArrayIfEEfS6_)
                  000af628    00000016     geomodel.lib : Fidcache.obj (.text:_ZNK3Geo8Fidcache16recompute_neededEv)
                  000af63e    00000016     base.lib : Feature.obj (.text:_ZNK4Base7Feature4cgetERNS_11U16stream_wE)
                  000af654    00000016     DSP2837x_ent.lib : ADC.obj (.text:__sti___7_ADC_cpp_a2490d88)
                  000af66a    00000015     DSP28x.lib : SCI.obj (.text:_ZN12Dsp28335_ent3SCI4readERh)
                  000af67f    00000015                : I2Cif.obj (.text:_ZN12Dsp28335_ent5I2Cif14check_transferEb)
                  000af694    00000015                : I2Cif.obj (.text:_ZN12Dsp28335_ent5I2Cif4stopEv)
                  000af6a9    00000015     DSP2838x_ent.lib : CAN_FD.obj (.text:_ZN12Dsp28335_ent6CAN_FD13get_fifo_freeEv)
                  000af6be    00000015     DSP2837x_ent.lib : Devcfg.obj (.text:_ZN12Dsp28335_ent6Devcfg10soft_resetENS0_5SpridE)
                  000af6d3    00000015     veronte.lib : Xpccansuite.obj (.text:_ZN3Ver11Xpccansuite7step_hiEv)
                  000af6e8    00000015                 : Xcd_cpu1.obj (.text:_ZN3Ver2Xc12get_xcd_cpu2Ev)
                  000af6fd    00000015                 : Rawpos_amz.obj (.text:_ZN3Ver6Rawpos7get_posERN3Geo4AposE)
                  000af712    00000015                 : Arbiter.obj (.text:_ZN3Ver7Arbiter12get_instanceEv)
                  000af727    00000015                 : Pfields.obj (.text:_ZN3Ver7PfieldsC1ERN5Media7LogctrlEjRN4DFS27DFS2_fsERVKN4Base6TdsyncINS7_11Pfields_cfgENS7_12Tdsynctraits11Rd_blockingIS9_NS7_8Cptraits6PodrawIVS9_EEEENSA_15Disabled_structEEE)
                  000af73c    00000015     base.lib : CRC.obj (.text:_ZN4Base3CRC6Config5buildEjmmmbb)
                  000af751    00000015     DSP28x.lib : I2Carbiter.obj (.text:_ZN4Base5ArrayIN12Dsp28335_ent10I2Carbiter12Handler_infoEE6resizeEm)
                  000af766    00000015     pa_blocks.lib : Cy_maint_action.obj (.text:_ZN4Base5ArrayIN9Pa_blocks22Cy_maint_action_consts13Command_typesEEC1EmNS_6Memmgr4TypeE)
                  000af77b    00000015     midlevel.lib : CyphalCAN_in.obj (.text:_ZN4Base5ArrayINS_10Memmgr_dynINS_7CANdataEE5MnodeEEC1EmRNS_9AllocatorE)
                  000af790    00000015                  : Cyphal_tx_mgr.obj (.text:_ZN4Base5ArrayINS_15Stanag_msg_type8Msg_typeEEC1EmNS_6Memmgr4TypeE)
                  000af7a5    00000015     stanag.lib : Stanag_suite.obj (.text:_ZN4Base5ArrayINS_7AddressEE6resizeEm)
                  000af7ba    00000015     veronte.lib : Vfspermission.obj (.text:_ZN4Base5ArrayINS_7Hashers11Element_u16EEC1EmNS_6Memmgr4TypeE)
                  000af7cf    00000015                 : Xpccansuite.obj (.text:_ZN4Base5ArrayINS_7Vref_wrEE6resizeEm)
                  000af7e4    00000015     base.lib : Pkt_router.obj (.text:_ZN4Base5ArrayINS_8Address0EE6resizeEm)
                  000af7f9    00000015     veronte.lib : Xpccansuite.obj (.text:_ZN4Base5ArrayINS_8Hbmapvar3RefEE6resizeEm)
                  000af80e    00000015     stanag.lib : Alert_msg.obj (.text:_ZN4Base5ArrayIPKNS_15Auth_connectionEE6resizeEm)
                  000af823    00000015     veronte.lib : Xpcu8suite.obj (.text:_ZN4Base5ArrayIPNS_5IstepEE6resizeEm)
                  000af838    00000015     stanag.lib : Stanag_suite.obj (.text:_ZN4Base5ArrayIbEC1EmNS_6Memmgr4TypeE)
                  000af84d    00000015     maverick.lib : Rvector.obj (.text:_ZN4Base5ArrayIfE6resizeEm)
                  000af862    00000015     first.lib : Lossy.obj (.text:_ZN4Base5ArrayIjEC1EmNS_6Memmgr4TypeE)
                  000af877    00000015               : Lossy.obj (.text:_ZN4Base5Lossy11put_n_uint8ERKNS_12U8pkmblock_kE)
                  000af88c    00000015               : Lossy.obj (.text:_ZN4Base5Lossy15float_to_uint32Efh)
                  000af8a1    00000015     veronte.lib : Devsuite_amz.obj (.text:_ZN4Base6MblockINS_6TdsyncINS_7TnarrayIfLm3EEENS_12Tdsynctraits11Rd_blockingIS3_NS_8Cptraits6PodrawIVS3_EEEENS4_8Wr_mutexIS3_NS6_8OperatorIS3_S3_EEEEEEE10sub_mblockEmm)
                  000af8b6    00000015                 : Ubxdev.obj (.text:_ZN4Base6MblockIVfE10sub_mblockEmm)
                  000af8cb    00000015     devices.lib : Adis165053.obj (.text:_ZN4Base6MblockIjE10sub_mblockEmm)
                  000af8e0    00000015     base.lib : Sysver.obj (.text:_ZN4Base6Sysver11get_currentEv)
                  000af8f5    00000015              : Rtaskrc.obj (.text:_ZN4Base7RtaskrcC1Ef)
                  000af90a    00000015              : Stepmgr.obj (.text:_ZN4Base7Stepmgr4stepEv)
                  000af91f    00000015     veronte.lib : Xcd.obj (.text:_ZN4Base7TnarrayINS_15Auth_connectionELm5EE7set_allERKS1_)
                  000af934    00000015     base.lib : Eventout.obj (.text:_ZN4Base9Eventout07refreshERVKS0_)
                  000af949    00000015     midlevel.lib : Cyphal_msg_trig.obj (.text:_ZN4Base9Fifospsc0IN6Cyphal12CyphalCAN_in16Cy_msg_triggeredENS_10SPSCtraits8InternalES5_E4readIS3_NS_8Cptraits8OperatorIS3_S3_EEEEbRT_)
                  000af95e    00000015     media.lib : Filecom.obj (.text:_ZN5Media7Filecom12add_resourceEhRN4Base5IfileE)
                  000af973    00000015     devices.lib : Adis165053.obj (.text:_ZN7Devices10Adis16505310step_pulseEv)
                  000af988    00000015     midlevel.lib : Secure_CAN.obj (.text:_ZN7Devices10Secure_CANC1EN12Dsp28335_ent6GPIOidES2_)
                  000af99d    00000015     devices.lib : MX66L.obj (.text:_ZN7Devices5MX66L18write_sector_startEmRKN4Base12U8pkmblock_kE)
                  000af9b2    00000015                 : Xr20m1172.obj (.text:_ZN7Devices9Xr20m11725resetEv)
                  000af9c7    00000015     DSP2838x_ent.lib : CAN_FD.obj (.text:_ZNK12Dsp28335_ent6CAN_FD10get_bus_onEv)
                  000af9dc    00000015                      : CAN_FD.obj (.text:_ZNK12Dsp28335_ent6CAN_FD12wr_availableEv)
                  000af9f1    00000015                      : CAN_FD.obj (.text:_ZNK12Dsp28335_ent6CAN_FD15get_warning_offEv)
                  000afa06    00000015     veronte.lib : Veronte.obj (.text:_ZNK4Base11Fifo_sharedINS_11Spkt_bufferELj2EE6Reader10start_readEv)
                  000afa1b    00000015     base.lib : CRC.obj (.text:_ZNK4Base3CRC9get_valueEv)
                  000afa30    00000015              : Field.obj (.text:_ZNK4Base5Field12compress_ftrERNS_5LossyERKNS_4IgetE)
                  000afa45    00000015     maverick.lib : Rtable.obj (.text:_ZNK4Base6MblockIKfE10sub_mblockEmm)
                  000afa5a    00000015     midlevel.lib : Comstats.obj (.text:_ZNK8Midlevel8Comstats12Stdata_local4cgetERN4Base9U8ostreamE)
                  000afa6f    00000015     veronte.lib : Halsuite_amz.obj (.text:_ZThn2_NK4Base5TportINS_12U8pkfifospscES1_hhE12wr_availableEv)
                  000afa84    00000015     stanag.lib : Stanag_port.obj (.text:_ZThn4_NK6Stanag11Stanag_port12wr_availableEv)
                  000afa99    00000015     veronte.lib : Maps_updater.obj (.text:__sti___16_Maps_updater_cpp_8b73f55a)
                  000afaae    00000014     DSP2838x_ent.lib : fsi_ti.obj (.text:FSI_resetRxModule)
                  000afac2    00000014     DSP28x.lib : SPI.obj (.text:_ZN12Dsp28335_ent3SPI5writeEj)
                  000afad6    00000014     DSP2837x_ent.lib : Cpusys.obj (.text:_ZN12Dsp28335_ent6Cpusys11clk_disableENS0_10PeripheralE)
                  000afaea    00000014                      : Pwmdev.obj (.text:_ZN12Dsp28335_ent6Pwmdev10enable_isrEPFvvE)
                  000afafe    00000014     veronte.lib : Halsuite_amz.obj (.text:_ZN4Base13Tport_w_r_blkIjjE5writeEj)
                  000afb12    00000014     first.lib : U8pkfifospsc0.obj (.text:_ZN4Base13U8pkfifospsc0C1ERNS_10U8pkmblockERmS3_)
                  000afb26    00000014     base.lib : Xclk.obj (.text:_ZN4Base4Xclk3ticEv)
                  000afb3a    00000014     veronte.lib : Pfields.obj (.text:_ZN4Base5ArrayIKNS_6PFieldEEC1IS2_EENS_6MblockIT_EE)
                  000afb4e    00000014                 : Veronte_amz.obj (.text:_ZN4Base5ArrayIN9Pa_blocks22Cy_maint_action_consts13Command_typesEE6resizeEm)
                  000afb62    00000014                 : Veronte_amz.obj (.text:_ZN4Base5ArrayINS_15Stanag_msg_type8Msg_typeEE6resizeEm)
                  000afb76    00000014                 : Ubxdev.obj (.text:_ZN4Base5ArrayINS_8ErrorsrcEE6resizeEm)
                  000afb8a    00000014     first.lib : Vstring.obj (.text:_ZN4Base5ArrayIcE6resizeEm)
                  000afb9e    00000014               : Lossy.obj (.text:_ZN4Base5ArrayIjE6resizeEm)
                  000afbb2    00000014               : Lossy.obj (.text:_ZN4Base5Lossy10set_endianENS_10EndiannessE)
                  000afbc6    00000014     midlevel.lib : Check_sender.obj (.text:_ZN4Base6MblockINS_15Stanag_msg_type8Msg_typeEE4copyIKS2_EEvRKNS0_IT_EE)
                  000afbda    00000014                  : Check_sender.obj (.text:_ZN4Base6MblockINS_15Stanag_msg_type8Msg_typeEEC1EmNS_6Memmgr4TypeE)
                  000afbee    00000014     veronte.lib : Veronte_amz.obj (.text:_ZN4Base6MblockIPN6Cyphal17Persist_pdi_entryEEC1EmNS_6Memmgr4TypeE)
                  000afc02    00000014                 : Hvar_cpu1.obj (.text:_ZN4Base6MblockIPVNS_6TdsyncINS_7FeatureENS_12Tdsynctraits11Rd_blockingIS2_NS_8Cptraits6PodrawIVS2_EEEENS3_2WrIS2_NS5_8OperatorIS2_S2_EEEEEEEC1EmNS_6Memmgr4TypeE)
                  000afc16    00000014     base.lib : Xcmqwr.obj (.text:_ZN4Base6MblockIjEC1EmNS_6Memmgr4TypeE)
                  000afc2a    00000014     midlevel.lib : Cy_soft_conf_check.obj (.text:_ZN4Base6MblockImEC1EmNS_6Memmgr4TypeE)
                  000afc3e    00000014     first.lib : Kstring.obj (.text:_ZN4Base7Kstring6strlenEPKcm)
                  000afc52    00000014     stanag.lib : Auth_handover_req.obj (.text:_ZN4Base8BitarrayILj32EE7set_allIvEENS_9Enable_ifILb1ET_E4typeERKy)
                  000afc66    00000014     midlevel.lib : CyphalCAN_in.obj (.text:_ZN4Base8FifospscIN6Cyphal12CyphalCAN_in16Cy_msg_triggeredEEC1EmRNS_9AllocatorE)
                  000afc7a    00000014     stanag.lib : Stanag_msg_mgr.obj (.text:_ZN4Base8FifospscINS_8Msg_dataEEC1EmNS_6Memmgr4TypeE)
                  000afc8e    00000014     base.lib : FMCPmgr.obj (.text:_ZN4Base8SuiterefINS_5IFMCPELj5EEC1ERS1_S3_S3_S3_S3_)
                  000afca2    00000014     first.lib : U8istream.obj (.text:_ZN4Base9U8istream13get_uint16_beEv)
                  000afcb6    00000014               : U8istream.obj (.text:_ZN4Base9U8istream13get_uint16_leEv)
                  000afcca    00000014               : Vector_u8.obj (.text:_ZN4Base9Vector_u84copyERKNS_12U8pkmblock_kE)
                  000afcde    00000014     DFS2.lib : Indexsector.obj (.text:_ZN4DFS211IndexsectorC1Ev)
                  000afcf2    00000014     stanag.lib : U8istream_pvec.obj (.text:_ZN6Stanag14U8istream_pvec9get_uint8Eh)
                  000afd06    00000014     devices.lib : Ubxcfgtp5.obj (.text:_ZN7Devices3Ubx9Ubxcfgtp54initEv)
                  000afd1a    00000014     midlevel.lib : Imu_reader_filter.obj (.text:_ZN8Midlevel17Imu_reader_filterC1Ej)
                  000afd2e    00000014                  : Irxfw.obj (.text:_ZN8Midlevel5Irxfw2Fw4sendEN4Base15Stanag_msg_type8Msg_typeE)
                  000afd42    00000014     DSP2838x_ent.lib : CAN_FD.obj (.text:_ZNK12Dsp28335_ent6CAN_FD13get_rx_errorsEv)
                  000afd56    00000014     DSP28x.lib : SPIcfg.obj (.text:_ZNK12Dsp28335_ent6SPIcfg12validate_spiEv)
                  000afd6a    00000014     base.lib : Datalink_buffer.obj (.text:_ZNK4Base15Datalink_buffer14get_data_countEv)
                  000afd7e    00000014     veronte.lib : Halsuite_amz.obj (.text:_ZNK4Base5TportINS_12U8pkfifospscES1_hhE12wr_availableEv)
                  000afd92    00000014     base.lib : SerialCAN.obj (.text:_ZNK4Base9SerialCAN12wr_availableEv)
                  000afda6    00000014     midlevel.lib : CyphalCAN_out.obj (.text:_ZNK6Cyphal13CyphalCAN_out12wr_availableEv)
                  000afdba    00000014     stanag.lib : Stanag_port.obj (.text:_ZNK6Stanag11Stanag_port12wr_availableEv)
                  000afdce    00000014                : Stanag_status_msgs.obj (.text:__sti___22_Stanag_status_msgs_cpp_2eb84926)
                  000afde2    00000014     rts2800_fpu64_eabi.lib : ll_mpy28.asm.obj (.text)
                  000afdf6    00000013     DSP2838x_ent.lib : 2838x_device.obj (.text:Device_enableUnbondedGPIOPullupsFor176Pin)
                  000afe09    00000013                      : fsi_ti.obj (.text:FSI_resetTxModule)
                  000afe1c    00000013     DSP2837x_ent.lib : DMA.obj (.text:_ZN12Dsp28335_ent3DMA3runEv)
                  000afe2f    00000013     DSP28x.lib : I2Cif.obj (.text:_ZN12Dsp28335_ent5I2Cif8rx_errorEv)
                  000afe42    00000013     DSP2837x_ent.lib : Cpusys.obj (.text:_ZN12Dsp28335_ent6Cpusys10clk_enableENS0_10PeripheralE)
                  000afe55    00000013     midlevel.lib : IP_cfg_pa.obj (.text:_ZN3Bsp6get_idENS_6SysappE)
                  000afe68    00000013     veronte.lib : Maps_updater.obj (.text:_ZN3Ver12Maps_updater6finishEN4Base9Async_resE)
                  000afe7b    00000013                 : Xcd_cpu1.obj (.text:_ZN3Ver2Xc8init_uidEv)
                  000afe8e    00000013                 : Veronte_amz.obj (.text:_ZN3Ver7Veronte11config_gpioEv)
                  000afea1    00000013     base.lib : Pkt_router.obj (.text:_ZN4Base10Pkt_router5routeERNS_5EspktEPKNS_9Ipkt_portE)
                  000afeb4    00000013              : CRC.obj (.text:_ZN4Base3CRCC1ERKS0_)
                  000afec7    00000013     midlevel.lib : CyphalCAN_in.obj (.text:_ZN4Base5ArrayIN6Cyphal15Cyphal_msg_dataEEC1EmRNS_9AllocatorE)
                  000afeda    00000013     first.lib : Lossy.obj (.text:_ZN4Base5ArrayIjEC1IjEENS_6MblockIT_EE)
                  000afeed    00000013               : Lossy.obj (.text:_ZN4Base5Lossy10get_float3EPf)
                  000aff00    00000013               : Lossy.obj (.text:_ZN4Base5LossyC1EmNS_6Memmgr4TypeE)
                  000aff13    00000013     base.lib : Feature.obj (.text:_ZN4Base7Feature9build_absERKNS_14TllhcompressedE)
                  000aff26    00000013     first.lib : Bitutils.obj (.text:_ZN4Base8Bitutils10set_uint16EjjRy)
                  000aff39    00000013     DFS2.lib : DSF2_file.obj (.text:_ZN4DFS24File8set_idleEv)
                  000aff4c    00000013     media.lib : Logctrl.obj (.text:_ZN5Media7Logctrl23compute_next_file_indexEv)
                  000aff5f    00000013     devices.lib : Adis165053.obj (.text:_ZN7Devices10Adis1650538hw_resetEv)
                  000aff72    00000013     maverick.lib : Biquad_notch_lpf_3d.obj (.text:_ZN8Maverick13Biquad_iir_3dC1Ev)
                  000aff85    00000013     midlevel.lib : Irxfw.obj (.text:_ZN8Midlevel5Irxfw2Fw4sendERKN4Base4SpktE)
                  000aff98    00000013     DSP2837x_ent.lib : CAN.obj (.text:_ZNK12Dsp28335_ent3CAN12wr_availableEv)
                  000affab    00000013     DSP2838x_ent.lib : CAN_FD.obj (.text:_ZNK12Dsp28335_ent6CAN_FD13get_tx_errorsEv)
                  000affbe    00000013     base.lib : Taskmgr.obj (.text:_ZNK4Base7Taskmgr13get_number_ofERKNS_5ItaskE)
                  000affd1    00000013     stanag.lib : Auth_request.obj (.text:_ZNK6Stanag12Auth_request12max_acc_authEN4Base8Fly_mode4ModeE)
                  000affe4    00000013     base.lib : Permission.obj (.text:_ZNVK4Base10Permission4cgetERNS_5LossyE)
                  000afff7    00000012     DSP2838x_ent.lib : fsi_ti.obj (.text:FSI_performRxInitialization)
                  000b0009    00000012     DSP28x.lib : SPI.obj (.text:_ZN12Dsp28335_ent3SPI4readERj)
                  000b001b    00000012                : I2Cif.obj (.text:_ZN12Dsp28335_ent5I2Cif11set_enabledEb)
                  000b002d    00000012     DSP2837x_ent.lib : Cpusys.obj (.text:_ZN12Dsp28335_ent6Cpusys10clk_enableENS0_12Peripheral_tEm)
                  000b003f    00000012                      : Pwmdev.obj (.text:_ZN12Dsp28335_ent6Pwmdev15clear_irq_flagsEv)
                  000b0051    00000012                      : Watchdog.obj (.text:_ZN12Dsp28335_ent8Watchdog6notifyEv)
                  000b0063    00000012     pring.lib : gaussian.obj (.text:_ZN12Random_nmspc8GaussianC1Ev)
                  000b0075    00000012     first.lib : Call_statchk.obj (.text:_ZN4Base12Call_statchkC1ERVbff)
                  000b0087    00000012     veronte.lib : Halsuite.obj (.text:_ZN4Base13Port_stats_txIN12Dsp28335_ent3SCIEE4stepEv)
                  000b0099    00000012                 : Halsuite_amz.obj (.text:_ZN4Base13Port_stats_txINS_8TportcutIN12Dsp28335_ent3SCIEhEEE4stepEv)
                  000b00ab    00000012     base.lib : Field_cfg.obj (.text:_ZN4Base14Cksum_sagetech11update_byteEh)
                  000b00bd    00000012              : Pdiver.obj (.text:_ZN4Base34_GLOBAL__N__10_Pdiver_cpp_cc16dca813is_compatibleERKNS_7VersionE)
                  000b00cf    00000012     midlevel.lib : CyphalCAN_in.obj (.text:_ZN4Base5ArrayIN6Cyphal12CyphalCAN_in16Cy_msg_triggeredEEC1EmRNS_9AllocatorE)
                  000b00e1    00000012     first.lib : Lossy.obj (.text:_ZN4Base5Lossy10get_bool16ERb)
                  000b00f3    00000012               : Lossy.obj (.text:_ZN4Base5Lossy9get_bool8ERb)
                  000b0105    00000012     base.lib : Varmgr.obj (.text:_ZN4Base6Varmgr3setENS_4RvarEf)
                  000b0117    00000012     first.lib : PDIcheck.obj (.text:_ZN4Base8PDIcheck6commitERKNS_5ErrorE)
                  000b0129    00000012     base.lib : Spkt_hdr.obj (.text:_ZN4Base8Spkt_hdrC1EjNS_7AddressES1_NS_15Stanag_msg_type8Msg_typeENS0_9Msg_propsE)
                  000b013b    00000012              : Spkt_hdr.obj (.text:_ZN4Base8Spkt_hdrC1Ev)
                  000b014d    00000012     first.lib : Vector_u8.obj (.text:_ZN4Base9Vector_u86resizeEm)
                  000b015f    00000012     DFS2.lib : DSF2_file.obj (.text:_ZN4DFS24File13check_currentEv)
                  000b0171    00000012     media.lib : Fdr.obj (.text:_ZN5Media3Fdr5on_txERN6Stanag14IStanag_msg_tx9Tx_paramsE)
                  000b0183    00000012     veronte.lib : Cy_string_resp.obj (.text:_ZN6Cyphal14Cy_string_resp16get_cyphal_flagsEv)
                  000b0195    00000012                 : Cy_pers_pdi_resp.obj (.text:_ZN6Cyphal16Cy_pers_pdi_resp16get_cyphal_flagsEv)
                  000b01a7    00000012     midlevel.lib : Cy_soft_conf_check.obj (.text:_ZN6Cyphal18Cy_soft_conf_check10on_tx_implERN6Stanag14IStanag_msg_tx9Tx_paramsE)
                  000b01b9    00000012                  : Cy_soft_conf_check.obj (.text:_ZN6Cyphal18Cy_soft_conf_check16get_cyphal_flagsEv)
                  000b01cb    00000012     stanag.lib : Stanag_msg_mgr.obj (.text:_ZN6Stanag8Msg_fifo4sendEN4Base8Msg_dataE)
                  000b01dd    00000012     devices.lib : Lidarsimdev.obj (.text:_ZN7Devices12Lidar_simdev4csetERN4Base5LossyENS_11Sim_cset_idE)
                  000b01ef    00000012     base.lib : Tcal3D.obj (.text:_ZN8Maverick6RtableC1ILm12ELm3EEERKN4Base7XrtableIXT_EXT0_EEE)
                  000b0201    00000012              : Spkt.obj (.text:_ZNK4Base4Spkt7get_hdrERNS_8Spkt_hdrE)
                  000b0213    00000012              : Tllh.obj (.text:_ZNK4Base4Tllh4cgetERNS_5LossyE)
                  000b0225    00000011     Vmain_cpu1.obj (.text:_ZN12Dsp28335_ent11GPIOtogglerINS_4GPIOEE4stepEv)
                  000b0236    00000011     DSP2837x_ent.lib : Emif1.obj (.text:_ZN12Dsp28335_ent5Emif19cpu1_grabEv)
                  000b0247    00000011                      : Devcfg.obj (.text:_ZN12Dsp28335_ent6Devcfg18set_cpu2_ownershipENS0_10Cpusel_devEj)
                  000b0258    00000011     pring.lib : Prnd_xorshift32.obj (.text:_ZN12Random_nmspc15Prnd_xorshift325shootEv)
                  000b0269    00000011     base.lib : Freqmetric.obj (.text:_ZN4Base10FreqmetricC1Efff)
                  000b027a    00000011     veronte.lib : Veronte.obj (.text:_ZN4Base11Fifo_sharedINS_11Spkt_bufferELj2EE6Writer11start_writeEv)
                  000b028b    00000011     base.lib : Spkt.obj (.text:_ZN4Base5CRC3211update_byteEh)
                  000b029c    00000011              : Tllcs.obj (.text:_ZN4Base5Tllcs5zerosEv)
                  000b02ad    00000011     veronte.lib : Veronte.obj (.text:_ZN4Base7StepperIN3Ver8HalsuiteEXadL_ZNS2_4stepEvEEE4stepEv)
                  000b02be    00000011     base.lib : Spkt_hdr.obj (.text:_ZN4Base8Spkt_hdr9Msg_propsC1Eb)
                  000b02cf    00000011              : CANframe_fifo32.obj (.text:_ZN4Base9Fifospsc0ImNS_10SPSCtraits8ExternalENS1_12Internal_refEEC1EPmS5_RVKPKmRVS5_)
                  000b02e0    00000011     media.lib : Flashtun_wr_null.obj (.text:_ZN5Media16Flashtun_wr_null5on_txERN6Stanag14IStanag_msg_tx9Tx_paramsE)
                  000b02f1    00000011     stanag.lib : Stanag_port.obj (.text:_ZN6Stanag11Stanag_port5writeEh)
                  000b0302    00000011     devices.lib : Adis165053.obj (.text:_ZN7Devices10Adis16505312set_diag_rawEj)
                  000b0313    00000011     maverick.lib : IIR_2.obj (.text:_ZN8Maverick5IIR_25StateC1Ev)
                  000b0324    00000011     midlevel.lib : Default_cfg.obj (.text:_ZN8Midlevel11Default_cfg18set_default_can_fdERN12Dsp28335_ent10CAN_FD_cfgENS2_8BaudrateES4_bb)
                  000b0335    00000011     pa_blocks.lib : Cy_maint_dcomms.obj (.text:_ZN9Pa_blocks15Cy_maint_dcomms5flushEv)
                  000b0346    00000011     DSP2838x_ent.lib : Cpusys_2838x.obj (.text:_ZNK12Dsp28335_ent6Cpusys6xresetEv)
                  000b0357    00000011     veronte.lib : Hvar.obj (.text:_ZNK3Bsp5Hrvar3getEv)
                  000b0368    00000011     base.lib : Fmsgmgr.obj (.text:_ZNK4Base7Fmsgmgr4cgetERNS_5LossyE)
                  000b0379    00000011     rts2800_fpu64_eabi.lib : s_copysignf.c.obj (.text)
                  000b038a    00000010     crypto_c28.lib : sha256.obj (.text:SHA256_cancelWordWise)
                  000b039a    00000010     DSP2838x_ent.lib : FSI_rx.obj (.text:_ZN12Dsp28335_ent34_GLOBAL__N__10_FSI_rx_cpp_0b02c84d14get_rx_addressENS_3FSI5Rx_idE)
                  000b03aa    00000010     DSP2837x_ent.lib : Emif1.obj (.text:_ZN12Dsp28335_ent5Emif18set_mselEmm)
                  000b03ba    00000010                      : Devcfg.obj (.text:_ZN12Dsp28335_ent6Devcfg15cpu2_hold_resetEv)
                  000b03ca    00000010                      : Pwmdev.obj (.text:_ZN12Dsp28335_ent6Pwmdev6configERKNS0_6ConfigE)
                  000b03da    00000010                      : Watchdog.obj (.text:_ZN12Dsp28335_ent8Watchdog15setup_for_resetEv)
                  000b03ea    00000010     DSP2838x_ent.lib : Bldr_2838x.obj (.text:_ZN3Bsp17launch_bootloaderEv)
                  000b03fa    00000010     veronte.lib : Vfspermission.obj (.text:_ZN3Ver13Vfspermission19get_external_cmdidsEv)
                  000b040a    00000010                 : Vfspermission.obj (.text:_ZN3Ver13Vfspermission20get_operation_cfgidsEv)
                  000b041a    00000010                 : FTSact.obj (.text:_ZN3Ver6FTSactC1ERN4Base5IGpioES3_NS1_4BvarE)
                  000b042a    00000010     base.lib : Presence_vec.obj (.text:_ZN4Base12Presence_vec5clearEj)
                  000b043a    00000010     veronte.lib : Halsuite_amz.obj (.text:_ZN4Base13Port_stats_rxIN12Dsp28335_ent3SCIEEC1ERS2_RVf)
                  000b044a    00000010     devices.lib : Sxp.obj (.text:_ZN4Base13Port_stats_rxINS_5TportINS_12U8pkfifospscES2_hhEEEC1ERS3_RVf)
                  000b045a    00000010     veronte.lib : Halsuite.obj (.text:_ZN4Base13Port_stats_txIN12Dsp28335_ent3SCIEEC1ERS2_RVf)
                  000b046a    00000010     devices.lib : Sxp.obj (.text:_ZN4Base13Port_stats_txINS_5TportINS_12U8pkfifospscES2_hhEEEC1ERS3_RVf)
                  000b047a    00000010     veronte.lib : Halsuite_amz.obj (.text:_ZN4Base13Port_stats_txINS_8TportcutIN12Dsp28335_ent3SCIEhEEEC1ERS4_RVf)
                  000b048a    00000010     base.lib : Datalink_buffer.obj (.text:_ZN4Base15Datalink_buffer19inc_sequence_offsetEv)
                  000b049a    00000010              : CRC.obj (.text:_ZN4Base3CRC6reset0Ev)
                  000b04aa    00000010     devices.lib : Uid_sd_pimpl.obj (.text:_ZN4Base3Uid18get_current_uid_sdERS0_)
                  000b04ba    00000010     first.lib : Tmem.obj (.text:_ZN4Base4Tmem7set_selEPvim)
                  000b04ca    00000010     veronte.lib : Xpccansuite.obj (.text:_ZN4Base6ItportINS_8CANframeES1_EC1Ev)
                  000b04da    00000010                 : Halsuite_amz.obj (.text:_ZN4Base6ItportIhhEC1Ev)
                  000b04ea    00000010                 : Halsuite_amz.obj (.text:_ZN4Base6ItportIjjEC1Ev)
                  000b04fa    00000010     first.lib : Strutil.obj (.text:_ZN4Base7Strutil24nibble_to_upper_hex_charEhRh)
                  000b050a    00000010               : Bitutils.obj (.text:_ZN4Base8Bitutils8reflect8Ej)
                  000b051a    00000010     veronte.lib : Devsimsuite.obj (.text:_ZN4Base8SuiterefIN7Devices8Simdev3DELj4EEC1ERS2_S4_S4_S4_)
                  000b052a    00000010                 : Vpuposrd_ver_pa.obj (.text:_ZN4Base8Vpuposrd11get_rel_posERKNS_9Apos_dataERN8Maverick8Rvector3E)
                  000b053a    00000010     base.lib : Field_BCD.obj (.text:_ZN4Base9Field_BCD4csetERNS_11Lossy_errorE)
                  000b054a    00000010              : SerialCAN.obj (.text:_ZN4Base9SerialCAN5writeEh)
                  000b055a    00000010     DFS2.lib : DSF2_file.obj (.text:_ZN4DFS24File7set_crcEm)
                  000b056a    00000010     veronte.lib : Cy_string_resp.obj (.text:_ZN6Cyphal14Cy_string_respC1ERVKN4Base12U8pkrszarrayILm256EEEj)
                  000b057a    00000010                 : Cy_pers_pdi_resp.obj (.text:_ZN6Cyphal16Cy_pers_pdi_respC1ERN4Base6MblockIPNS_17Persist_pdi_entryEEE)
                  000b058a    00000010     stanag.lib : U8istream_pvec.obj (.text:_ZN6Stanag14U8istream_pvec13get_uint16_beEj)
                  000b059a    00000010                : U8istream_pvec.obj (.text:_ZN6Stanag14U8istream_pvec13get_uint24_beEm)
                  000b05aa    00000010                : U8istream_pvec.obj (.text:_ZN6Stanag14U8istream_pvec13get_uint32_beEm)
                  000b05ba    00000010     devices.lib : Simdev.obj (.text:_ZN7Devices6Simdev4Meas4csetERN4Base5LossyE)
                  000b05ca    00000010                 : Simdev3D.obj (.text:_ZN7Devices8Simdev3D4Meas4csetERN4Base5LossyE)
                  000b05da    00000010                 : Simdev3D.obj (.text:_ZN7Devices8Simdev3D4MeasC1Ev)
                  000b05ea    00000010     pa_blocks.lib : Gnss_raw_meas_fifo.obj (.text:_ZN9Pa_blocks18Gnss_raw_meas_fifo6WriterC1Ev)
                  000b05fa    00000010     base.lib : Xclogsvc.obj (.text:_ZNK4Base11TnarrayreszINS_5FieldELm128EE9to_mblockEv)
                  000b060a    00000010     veronte.lib : Pfields.obj (.text:_ZNK4Base11TnarrayreszINS_6PFieldELm128EE9to_mblockEv)
                  000b061a    00000010     base.lib : Xcfilesvc.obj (.text:_ZNVK4Base10Xcfilectrl19is_last_op_finishedEv)
                  000b062a    00000010     devices.lib : Sxp.obj (.text:_ZThn2_N4Base22Port_stats_itport_wrapINS_5TportINS_12U8pkfifospscES2_hhEEE5writeEh)
                  000b063a    00000010     veronte.lib : Vfspermission.obj (.text:_ZThn2_NK3Ver13Vfspermission3hasEj)
                  000b064a    00000010     DSP28x.lib : SPIcfg.obj (.text:__sti___10_SPIcfg_cpp_e5bdf486)
                  000b065a    0000000f     DSP2838x_ent.lib : FSI_rx.obj (.text:_ZN12Dsp28335_ent34_GLOBAL__N__10_FSI_rx_cpp_0b02c84d10get_dma_idENS_3FSI5Rx_idE)
                  000b0669    0000000f     DSP2837x_ent.lib : Memcfg.obj (.text:_ZN12Dsp28335_ent6Memcfg14gsram_msel_setEj)
                  000b0678    0000000f     veronte.lib : Hvar_cpu1.obj (.text:_ZN3Bsp7Hu64var3getEv)
                  000b0687    0000000f     geomodel.lib : Tecef.obj (.text:_ZN3Geo5Tecef9set_wgs84ERKN4Base9Apos_dataE)
                  000b0696    0000000f     veronte.lib : Apos_serializator.obj (.text:_ZN3Geo8Fidcache4NodeC1Ev)
                  000b06a5    0000000f                 : Xcd_priv_impl.obj (.text:_ZN3Ver2Xc8Xcd_cpu19init_privERVKNS0_8Xcd_cpu2E)
                  000b06b4    0000000f                 : Varmeas.obj (.text:_ZN3Ver7VarmeasC1ERN4Base4MeasERNS1_4IsetE)
                  000b06c3    0000000f                 : Xpccansuite.obj (.text:_ZN4Base12FcanproducerINS_8Xcfg_desINS_15Xfmsgcanp0arrayILj0EEENS_9Tuntraits10DesdefaultIS3_EEEEE10send_cmdtxEj)
                  000b06d2    0000000f     base.lib : Fmsgproducer.obj (.text:_ZN4Base12Fmsgproducer10send_cmdtxEj)
                  000b06e1    0000000f              : Deltacheck_nv.obj (.text:_ZN4Base13Deltacheck_nvC1Efj)
                  000b06f0    0000000f              : Datalink_buffer.obj (.text:_ZN4Base15Datalink_buffer5resetEm)
                  000b06ff    0000000f              : Async_transfer_data.obj (.text:_ZN4Base19Async_transfer_data4initEm)
                  000b070e    0000000f     devices.lib : Sxp.obj (.text:_ZN4Base22Port_stats_itport_wrapINS_5TportINS_12U8pkfifospscES2_hhEEE4readERh)
                  000b071d    0000000f                 : Sxp.obj (.text:_ZN4Base22Port_stats_itport_wrapINS_5TportINS_12U8pkfifospscES2_hhEEE5writeEh)
                  000b072c    0000000f     first.lib : Error.obj (.text:_ZN4Base5ErrorC1Ev)
                  000b073b    0000000f               : Lossy.obj (.text:_ZN4Base5Lossy10get_uint16ERj)
                  000b074a    0000000f               : Lossy.obj (.text:_ZN4Base5Lossy10get_uint32ERm)
                  000b0759    0000000f               : Lossy.obj (.text:_ZN4Base5Lossy10get_uint64ERy)
                  000b0768    0000000f               : Lossy.obj (.text:_ZN4Base5Lossy9get_int32ERl)
                  000b0777    0000000f               : Bitutils.obj (.text:_ZN4Base8Bitutils14get_lsbset_idxEmRj)
                  000b0786    0000000f               : Allocator.obj (.text:_ZN4Base9Allocator16Allocator_bufferC1EPjm)
                  000b0795    0000000f     stanag.lib : Stanag_msg_mgr.obj (.text:_ZN4Base9Fifospsc0INS_8Msg_dataENS_10SPSCtraits8InternalES3_EC1EPS1_S5_PKS1_S5_)
                  000b07a4    0000000f     veronte.lib : Hxcff_cpu1.obj (.text:_ZN4Base9Fifospsc0IVjNS_10SPSCtraits8ExternalENS2_12Internal_refEEC1EPS1_S6_RVKPVKjRVS6_)
                  000b07b3    0000000f     base.lib : CANframe_fifo32.obj (.text:_ZN4Base9Fifospsc0ImNS_10SPSCtraits22Add_reference_to_traitINS1_8InternalEE8TemplateES3_EC1EPmS7_RVPKmS7_)
                  000b07c2    0000000f     first.lib : Rfun.obj (.text:_ZN4Rfun7pow_u32Emh)
                  000b07d1    0000000f     midlevel.lib : CyphalCAN_in.obj (.text:_ZN6Cyphal12CyphalCAN_in4readERh)
                  000b07e0    0000000f                  : Cyphal_suite.obj (.text:_ZN6Cyphal12Cyphal_suite7step_hiEv)
                  000b07ef    0000000f     veronte.lib : Persist_pdi_entry.obj (.text:_ZN6Cyphal17Persist_pdi_entryC1ENS0_8Pdi_typeERVKN4Base12U8pkrszarrayILm256EEE)
                  000b07fe    0000000f     stanag.lib : Auth_response.obj (.text:_ZN6Stanag14U8ostream_pvec9put_fieldIN4Base10StimestampEEEvRKT_)
                  000b080d    0000000f                : Auth_handover_req.obj (.text:_ZN6Stanag14U8ostream_pvec9put_fieldIN4Base7AddressEEEvRKT_)
                  000b081c    0000000f                : Auth_response.obj (.text:_ZN6Stanag14U8ostream_pvec9put_fieldIN4Base8Address0EEEvRKT_)
                  000b082b    0000000f                : Auth_response.obj (.text:_ZN6Stanag14U8ostream_pvec9put_fieldIVN4Base8Address0EEEvRKT_)
                  000b083a    0000000f     devices.lib : Noisegen3D.obj (.text:_ZN7Devices10Noisegen3DC1Ev)
                  000b0849    0000000f                 : Lidarsimdev.obj (.text:_ZN7Devices12Lidar_simdevC1EfNS_9Sim_noise9NoiseTypeE)
                  000b0858    0000000f                 : PMIC_TPS65381A.obj (.text:_ZN7Devices14PMIC_TPS65381A17enable_debug_modeEv)
                  000b0867    0000000f                 : Ubxcfgdata.obj (.text:_ZN7Devices3Ubx10Ubxcfgdata4initEb)
                  000b0876    0000000f                 : Noisegen.obj (.text:_ZN7Devices8NoisegenC1Ev)
                  000b0885    0000000f     Vmain_cpu1.obj (.text:_ZN7Project38_GLOBAL__N__14_Vmain_cpu1_cpp_1593fd0e12Stpmgrhelper4stepEv)
                  000b0894    0000000f     DSP28x.lib : I2Cif.obj (.text:_ZNK12Dsp28335_ent5I2Cif7is_busyEv)
                  000b08a3    0000000f     veronte.lib : Hvar.obj (.text:_ZNK3Bsp5Hbvar3getEv)
                  000b08b2    0000000f                 : Hvar.obj (.text:_ZNK3Bsp5Hrvar8get_krefEv)
                  000b08c1    0000000f                 : Hvar.obj (.text:_ZNK3Bsp5Huvar3getEv)
                  000b08d0    0000000f                 : Vfspermission.obj (.text:_ZNK3Ver13Vfspermission3hasEj)
                  000b08df    0000000f                 : Xpccansuite.obj (.text:_ZNK4Base10FcanmsgmgrINS_12Xfmsgcan_hdlILj0ELj0ELj0EE14Xfmsgcan_arrayINS_8Xcfg_desINS_15Xfmsgcanp0arrayILj0EEENS_9Tuntraits10DesdefaultIS6_EEEEEENS3_INS4_INS_15Xfmsgcanc0arrayILj0ELj0EEENS7_15Arraytun_size16INS7_9Cset_onlyINS_10Xfmsgcanc0ILj0EEEEESD_NS7_8No_checkISD_EEEEEEEEE4cgetERNS_5LossyE)
                  000b08ee    0000000f     first.lib : Ubxtime.obj (.text:_ZNK4Base7Ubxtime18discovery_compressERNS_5LossyE)
                  000b08fd    0000000f     base.lib : Field_BCD.obj (.text:_ZNK4Base9Field_BCD4cgetERNS_5LossyE)
                  000b090c    0000000f     stanag.lib : Stanag_msg_mgr.obj (.text:_ZNK6Stanag14Stanag_msg_mgr16is_rx_registeredEN4Base15Stanag_msg_type8Msg_typeE)
                  000b091b    0000000f     devices.lib : Xr20m1172.obj (.text:_ZNK7Devices9Xr20m11729build_reqEhb)
                  000b092a    0000000e     DSP2838x_ent.lib : CM_helpers.obj (.text:_ZN12Dsp28335_ent10CM_helpers7cm_bootEf)
                  000b0938    0000000e     DSP28x.lib : I2Carbiter.obj (.text:_ZN12Dsp28335_ent10I2Carbiter8step_devEv)
                  000b0946    0000000e     DSP2838x_ent.lib : Ipc_2838x.obj (.text:_ZN12Dsp28335_ent3Ipc14is_cpu1_lockedEv)
                  000b0954    0000000e     DSP28x.lib : CAN_FD_common.obj (.text:_ZN12Dsp28335_ent6CAN_FD10len_to_dlcEh)
                  000b0962    0000000e     DSP2838x_ent.lib : CAN_FD.obj (.text:_ZN12Dsp28335_ent6CAN_FD12clear_rx_mbsEv)
                  000b0970    0000000e     DSP2837x_ent.lib : Pwmdev.obj (.text:_ZN12Dsp28335_ent6Pwmdev8init_allEv)
                  000b097e    0000000e     DSP28x.lib : I2Cdevice.obj (.text:_ZN12Dsp28335_ent9I2Cdevice4sendEh)
                  000b098c    0000000e     veronte.lib : Hvar.obj (.text:_ZN3Bsp5HbvarC1EN4Base4BvarE)
                  000b099a    0000000e                 : Hvar.obj (.text:_ZN3Bsp5HrvarC1EN4Base4RvarE)
                  000b09a8    0000000e                 : Hvar.obj (.text:_ZN3Bsp5HuvarC1EN4Base4UvarE)
                  000b09b6    0000000e                 : Hsys_cpu1.obj (.text:_ZN3Ver4Hsys12set_sen_initEb)
                  000b09c4    0000000e     base.lib : Xcomstats0.obj (.text:_ZN4Base10Xcomstats04initEv)
                  000b09d2    0000000e              : Tllh.obj (.text:_ZN4Base4Tllh5buildERKeS2_S2_)
                  000b09e0    0000000e     first.lib : Tmem.obj (.text:_ZN4Base4Tmem7cpy_selEPvPKvm)
                  000b09ee    0000000e               : Lossy.obj (.text:_ZN4Base5Lossy9get_ubitsERmj)
                  000b09fc    0000000e               : Lossy.obj (.text:_ZN4Base5Lossy9get_ubitsERyj)
                  000b0a0a    0000000e               : Lossy.obj (.text:_ZN4Base5LossyC1EPjm)
                  000b0a18    0000000e     base.lib : Varmgr.obj (.text:_ZN4Base6Varmgr3setENS_4BvarEb)
                  000b0a26    0000000e              : Varmgr.obj (.text:_ZN4Base6Varmgr3setENS_4UvarEj)
                  000b0a34    0000000e     midlevel.lib : Cyphal_suite.obj (.text:_ZN6Cyphal12Cyphal_suite4stepEv)
                  000b0a42    0000000e     stanag.lib : U8ostream_pvec.obj (.text:_ZN6Stanag14U8ostream_pvec12put_int32_beEl)
                  000b0a50    0000000e     devices.lib : Adis165053.obj (.text:_ZN7Devices10Adis1650539set_errorEv)
                  000b0a5e    0000000e     veronte.lib : Hvar.obj (.text:_ZNK3Bsp5Hbvar8get_krefEv)
                  000b0a6c    0000000e                 : Hvar.obj (.text:_ZNK3Bsp5Huvar8get_krefEv)
                  000b0a7a    0000000e     base.lib : Varmgr.obj (.text:_ZNK4Base6Varmgr3getEv)
                  000b0a88    0000000e     DFS2.lib : File_descr.obj (.text:_ZNK4DFS210File_descr16check_permissionEN4Base5Ifile9Open_modeE)
                  000b0a96    0000000e     veronte.lib : Xpccansuite.obj (.text:_ZNVK4Base7TnarrayINS_6TdsyncINS_15Xfmsgcanc0arrayILj0ELj0EEENS_12Tdsynctraits11Rd_blockingIS3_NS_8Cptraits6PodrawIVS3_EEEENS4_15Disabled_structEEELm0EE9to_mblockEv)
                  000b0aa4    0000000e                 : Xpccansuite.obj (.text:_ZNVK4Base7TnarrayINS_6TdsyncINS_15Xfmsgcanp0arrayILj0EEENS_12Tdsynctraits11Rd_blockingIS3_NS_8Cptraits6PodrawIVS3_EEEENS4_15Disabled_structEEELm0EE9to_mblockEv)
                  000b0ab2    0000000d     DSP2838x_ent.lib : Devcfg_2838x.obj (.text:_ZN12Dsp28335_ent6Devcfg21cpu2_reset_deactivateEv)
                  000b0abf    0000000d     DSP2837x_ent.lib : Pwmdev.obj (.text:_ZN12Dsp28335_ent6Pwmdev9write_cmpEj)
                  000b0acc    0000000d                      : Piectrl.obj (.text:_ZN12Dsp28335_ent7Piectrl3ackENS0_5GroupE)
                  000b0ad9    0000000d     midlevel.lib : CyphalCAN_in.obj (.text:_ZN4Base10Memmgr_dynINS_7CANdataEE8free_allERNS2_10Node_chainE)
                  000b0ae6    0000000d     base.lib : Taskmgr.obj (.text:_ZN4Base7Taskmgr6cancelERKNS_5ItaskE)
                  000b0af3    0000000d              : Tmeas3D.obj (.text:_ZN4Base7Tmeas3DC1ERVKbRNS_6TdsyncINS_7TnarrayIfLm3EEENS_12Tdsynctraits11Rd_blockingIS5_NS_8Cptraits6PodrawIVS5_EEEENS6_8Wr_mutexIS5_NS8_8OperatorIS5_S5_EEEEEERVKNS3_INS_5Xcal0ILj12EEENS7_ISK_NS9_IVSK_EEEENS6_15Disabled_structEEE)
                  000b0b00    0000000d              : Apos_data.obj (.text:_ZN4Base9Apos_data7set_llhERKNS_14TllhcompressedE)
                  000b0b0d    0000000d     midlevel.lib : CyphalCAN_in.obj (.text:_ZN4Base9Fifospsc0IN6Cyphal12CyphalCAN_in16Cy_msg_triggeredENS_10SPSCtraits8InternalES5_EC1EPS3_S7_PKS3_S7_)
                  000b0b1a    0000000d                  : Cyphal_tx_mgr.obj (.text:_ZN6Cyphal13Cyphal_tx_mgr6Config10build_nullEv)
                  000b0b27    0000000d     stanag.lib : IStanag_msg_push.obj (.text:_ZN6Stanag14IStanag_msg_rx9Rx_paramsC1ERN4Base9U8istreamERKNS2_8Spkt_hdrERNS2_10StimestampERKNS2_15Auth_connectionERNS2_11Imsg_senderE)
                  000b0b34    0000000d     devices.lib : Adis165053.obj (.text:_ZN7Devices10Adis1650534stepEv)
                  000b0b41    0000000d     pa_blocks.lib : Cyphal_com_stats.obj (.text:_ZN9Pa_blocks16Cyphal_com_stats8Occ_ewmaC1Ev)
                  000b0b4e    0000000d     DFS2.lib : DSF2_file.obj (.text:_ZNK4DFS24File8get_sizeERm)
                  000b0b5b    0000000d     base.lib : Permission.obj (.text:_ZNV4Base10Permission4initEv)
                  000b0b68    0000000c     devices.lib : MX66L.obj (.text:_ZN12Dsp28335_ent13SPI_port_util9enable_csEv)
                  000b0b74    0000000c     DSP2837x_ent.lib : Pwmdev.obj (.text:_ZN12Dsp28335_ent6Pwmdev6ConfigC1Ev)
                  000b0b80    0000000c                      : Clkcfgb.obj (.text:_ZN12Dsp28335_ent7Clkcfgb21set_emif1_clk_div_selENS0_17Emif1_clk_div_selE)
                  000b0b8c    0000000c     DSP28x.lib : ECAPcfg.obj (.text:_ZN12Dsp28335_ent7ECAPcfg4initEv)
                  000b0b98    0000000c     base.lib : Xtunnelwr0.obj (.text:_ZN4Base10Xtunnelwr04initEv)
                  000b0ba4    0000000c     veronte.lib : Halsuite.obj (.text:_ZN4Base11Port_bufferINS_13Port_stats_txIN12Dsp28335_ent3SCIEEENS_13Port_stats_rxIS3_EEE13step_port_difEv)
                  000b0bb0    0000000c                 : Halsuite_amz.obj (.text:_ZN4Base11Port_bufferINS_13Port_stats_txINS_8TportcutIN12Dsp28335_ent3SCIEhEEEENS_13Port_stats_rxIS4_EEE13step_port_difEv)
                  000b0bbc    0000000c     base.lib : Int_decimator.obj (.text:_ZN4Base13Int_decimatorC1Effb)
                  000b0bc8    0000000c              : Rangedeltacheck3_nv.obj (.text:_ZN4Base19Rangedeltacheck3_nv13set_max_countEj)
                  000b0bd4    0000000c              : Rangedeltacheck3_nv.obj (.text:_ZN4Base19Rangedeltacheck3_nv13set_max_deltaEf)
                  000b0be0    0000000c     first.lib : Mutex.obj (.text:_ZN4Base5Mutex22enter_critical_sectionEv)
                  000b0bec    0000000c               : Strutil.obj (.text:_ZN4Base7Strutil17dec_char_to_valueEhRh)
                  000b0bf8    0000000c               : Bitutils.obj (.text:_ZN4Base8Bitutils9reflect16Ej)
                  000b0c04    0000000c               : Bitutils.obj (.text:_ZN4Base8Bitutils9reflect32Em)
                  000b0c10    0000000c     base.lib : Spkt_hdr.obj (.text:_ZN4Base8Spkt_hdr9Msg_propsC1Ev)
                  000b0c1c    0000000c     veronte.lib : Devsimsuite.obj (.text:_ZN4Base8SuiterefIN7Devices6SimdevELj3EEC1ERS2_S4_S4_)
                  000b0c28    0000000c                 : Xpccansuite.obj (.text:_ZN4Base8SuiterefINS_10ItconsumerINS_8CANframeEEELj3EEC1ERS3_S5_S5_)
                  000b0c34    0000000c                 : Xpccansuite.obj (.text:_ZN4Base8SuiterefINS_10ItproducerINS_8CANframeEEELj3EEC1ERS3_S5_S5_)
                  000b0c40    0000000c     DFS2.lib : DFS2_fs.obj (.text:_ZN4DFS27DFS2_fs17read_sector_startEm)
                  000b0c4c    0000000c              : DFS2_fs.obj (.text:_ZN4DFS27DFS2_fs18write_sector_startEmRKN4Base12U8pkmblock_kE)
                  000b0c58    0000000c              : Partition.obj (.text:_ZN4DFS29PartitionC1Ev)
                  000b0c64    0000000c     devices.lib : ADC121C021Q.obj (.text:_ZN7Devices11ADC121C021Q10set_periodERKf)
                  000b0c70    0000000c     base.lib : CANserial.obj (.text:_ZNK4Base9CANserial12wr_availableEv)
                  000b0c7c    0000000c     DFS2.lib : DSF2_file.obj (.text:_ZNK4DFS24File14get_free_spaceEv)
                  000b0c88    0000000c              : DFS2_fs.obj (.text:_ZNK4DFS27DFS2_fs11read_sectorEmRN4Base10U8pkmblockE)
                  000b0c94    0000000c              : DFS2_fs.obj (.text:_ZNK4DFS27DFS2_fs12write_sectorEmRKN4Base12U8pkmblock_kE)
                  000b0ca0    0000000c     veronte.lib : Rtaskio_amz.obj (.text:_ZNK6Cyphal8Cy_stats4cgetERN4Base9U8ostreamE)
                  000b0cac    0000000c     rts2800_fpu64_eabi.lib : args_main.c.obj (.text)
                  000b0cb8    0000000b     DSP2838x_ent.lib : 2838x_device.obj (.text:Device_enableUnbondedGPIOPullups)
                  000b0cc3    0000000b                      : fsi_ti.obj (.text:FSI_executeTxFlushSequence)
                  000b0cce    0000000b     DSP2837x_ent.lib : Emif1.obj (.text:_ZN12Dsp28335_ent5Emif16ungrabEv)
                  000b0cd9    0000000b                      : Emif1.obj (.text:_ZN12Dsp28335_ent5Emif1C1Ev)
                  000b0ce4    0000000b     DSP2838x_ent.lib : FSI_rx.obj (.text:_ZN12Dsp28335_ent6FSI_rx5startEv)
                  000b0cef    0000000b     DSP2837x_ent.lib : Clkcfgb.obj (.text:_ZN12Dsp28335_ent7Clkcfgb19set_pwm_clk_div_selENS0_15Pwm_clk_div_selE)
                  000b0cfa    0000000b                      : Piectrl.obj (.text:_ZN12Dsp28335_ent7Piectrl10enable_pieEv)
                  000b0d05    0000000b                      : Piectrl.obj (.text:_ZN12Dsp28335_ent7Piectrl11disable_pieEv)
                  000b0d10    0000000b     DSP28x.lib : I2Cdevice.obj (.text:_ZN12Dsp28335_ent9I2Cdevice4sendERKN4Base12U8pkmblock_kE)
                  000b0d1b    0000000b     DSP2838x_ent.lib : Htime_2838x.obj (.text:_ZN3Bsp5Htime10get_time32Ev)
                  000b0d26    0000000b     geomodel.lib : Fidcache.obj (.text:_ZN3Geo8Fidcache7refreshEv)
                  000b0d31    0000000b     base.lib : Stanag_parser.obj (.text:_ZN4Base13Stanag_parser5parseEv)
                  000b0d3c    0000000b              : Stickrawtrans.obj (.text:_ZN4Base13Stickrawtrans4initEv)
                  000b0d47    0000000b              : Xclk.obj (.text:_ZN4Base4Xclk6cancelEv)
                  000b0d52    0000000b     first.lib : Lossy.obj (.text:_ZN4Base5Lossy10get_uint32Ev)
                  000b0d5d    0000000b     base.lib : Fmsg.obj (.text:_ZN4Base6FmsgrxC1Ev)
                  000b0d68    0000000b     first.lib : Memmgr_c2000.obj (.text:_ZN4Base6Memmgr16close_allocationEv)
                  000b0d73    0000000b               : Bitutils.obj (.text:_ZN4Base8Bitutils8reflectnEmj)
                  000b0d7e    0000000b     media.lib : Fdr.obj (.text:_ZN5Media3Fdr4stepEv)
                  000b0d89    0000000b               : HformatSD.obj (.text:_ZN5Media9HformatSD5on_txERN6Stanag14IStanag_msg_tx9Tx_paramsE)
                  000b0d94    0000000b     veronte.lib : Rtaskio_amz.obj (.text:_ZN6Cyphal20Cy_tdsync_can_senderILj153EEC1ERVKN4Base6TdsyncINS2_9U8pkarrayILm169EEENS2_12Tdsynctraits14Rd_nonblockingIS5_NS2_8Cptraits6PodrawIVS5_EEEENS6_2WrIS5_NS8_8OperatorIS5_S5_EEEEEERNS_13Cyphal_tx_mgrE)
                  000b0d9f    0000000b                 : Rtaskio_amz.obj (.text:_ZN6Cyphal20Cy_tdsync_can_senderILj185EEC1ERVKN4Base6TdsyncINS2_9U8pkarrayILm201EEENS2_12Tdsynctraits14Rd_nonblockingIS5_NS2_8Cptraits6PodrawIVS5_EEEENS6_2WrIS5_NS8_8OperatorIS5_S5_EEEEEERNS_13Cyphal_tx_mgrE)
                  000b0daa    0000000b                 : Rtaskio_amz.obj (.text:_ZN6Cyphal20Cy_tdsync_can_senderILj187EEC1ERVKN4Base6TdsyncINS2_9U8pkarrayILm203EEENS2_12Tdsynctraits14Rd_nonblockingIS5_NS2_8Cptraits6PodrawIVS5_EEEENS6_2WrIS5_NS8_8OperatorIS5_S5_EEEEEERNS_13Cyphal_tx_mgrE)
                  000b0db5    0000000b                 : Rtaskio_amz.obj (.text:_ZN6Cyphal20Cy_tdsync_can_senderILj194EEC1ERVKN4Base6TdsyncINS2_9U8pkarrayILm210EEENS2_12Tdsynctraits14Rd_nonblockingIS5_NS2_8Cptraits6PodrawIVS5_EEEENS6_2WrIS5_NS8_8OperatorIS5_S5_EEEEEERNS_13Cyphal_tx_mgrE)
                  000b0dc0    0000000b                 : Rtaskio_amz.obj (.text:_ZN6Cyphal20Cy_tdsync_can_senderILj1EEC1ERVKN4Base6TdsyncINS2_9U8pkarrayILm17EEENS2_12Tdsynctraits14Rd_nonblockingIS5_NS2_8Cptraits6PodrawIVS5_EEEENS6_2WrIS5_NS8_8OperatorIS5_S5_EEEEEERNS_13Cyphal_tx_mgrE)
                  000b0dcb    0000000b                 : Rtaskio_amz.obj (.text:_ZN6Cyphal20Cy_tdsync_can_senderILj32EEC1ERVKN4Base6TdsyncINS2_9U8pkarrayILm48EEENS2_12Tdsynctraits14Rd_nonblockingIS5_NS2_8Cptraits6PodrawIVS5_EEEENS6_2WrIS5_NS8_8OperatorIS5_S5_EEEEEERNS_13Cyphal_tx_mgrE)
                  000b0dd6    0000000b                 : Rtaskio_amz.obj (.text:_ZN6Cyphal20Cy_tdsync_can_senderILj68EEC1ERVKN4Base6TdsyncINS2_9U8pkarrayILm84EEENS2_12Tdsynctraits14Rd_nonblockingIS5_NS2_8Cptraits6PodrawIVS5_EEEENS6_2WrIS5_NS8_8OperatorIS5_S5_EEEEEERNS_13Cyphal_tx_mgrE)
                  000b0de1    0000000b                 : Rtaskio_amz.obj (.text:_ZN6Cyphal20Cy_tdsync_can_senderILj6EEC1ERVKN4Base6TdsyncINS2_9U8pkarrayILm22EEENS2_12Tdsynctraits14Rd_nonblockingIS5_NS2_8Cptraits6PodrawIVS5_EEEENS6_2WrIS5_NS8_8OperatorIS5_S5_EEEEEERNS_13Cyphal_tx_mgrE)
                  000b0dec    0000000b     stanag.lib : U8ostream_pvec.obj (.text:_ZN6Stanag14U8ostream_pvec13put_uint16_beEj)
                  000b0df7    0000000b                : U8ostream_pvec.obj (.text:_ZN6Stanag14U8ostream_pvec13put_uint32_beEm)
                  000b0e02    0000000b     devices.lib : PMIC_TPS65381A.obj (.text:_ZN7Devices14PMIC_TPS65381A7step_hiEv)
                  000b0e0d    0000000b     midlevel.lib : Cy_drone_mode.obj (.text:_ZN8Midlevel13Cy_drone_modeC1ERNS_14Icheck_pa_modeE)
                  000b0e18    0000000b                  : Cy_maintenance_port_status.obj (.text:_ZN8Midlevel26Cy_maintenance_port_statusC1ERNS_14Icheck_pa_modeE)
                  000b0e23    0000000b     DSP28x.lib : SCI.obj (.text:_ZNK12Dsp28335_ent3SCI12wr_availableEv)
                  000b0e2e    0000000b                : SPI.obj (.text:_ZNK12Dsp28335_ent3SPI7is_busyEv)
                  000b0e39    0000000b     base.lib : Field_real_dec_ASCII.obj (.text:_ZNK4Base20Field_real_dec_ASCII8get_sizeEv)
                  000b0e44    0000000b              : Xclk.obj (.text:_ZNK4Base4Xclk7ongoingEv)
                  000b0e4f    0000000b     rts2800_fpu64_eabi.lib : guard.c.obj (.text)
                  000b0e5a    0000000a     DSP2837x_ent.lib : DMA.obj (.text:_ZN12Dsp28335_ent3DMAC1ENS0_2IdE)
                  000b0e64    0000000a     DSP2838x_ent.lib : Ipc_2838x.obj (.text:_ZN12Dsp28335_ent3Ipc11cpu2_unlockEv)
                  000b0e6e    0000000a     DSP2837x_ent.lib : Emif1.obj (.text:_ZN12Dsp28335_ent5Emif125assert_is_grabbed_by_cpu1Ev)
                  000b0e78    0000000a                      : Mcbsp.obj (.text:_ZN12Dsp28335_ent5Mcbsp4readERj)
                  000b0e82    0000000a     DSP28x.lib : Timer.obj (.text:_ZN12Dsp28335_ent5Timer11set_runningEb)
                  000b0e8c    0000000a                : SCIcfg.obj (.text:_ZN12Dsp28335_ent6SCIcfg4initEv)
                  000b0e96    0000000a     veronte.lib : Varsuite3D.obj (.text:_ZN3Ver10Varsuite3D4stepEv)
                  000b0ea0    0000000a                 : Xapsel_cpu2.obj (.text:_ZN3Ver11Xapsel_cpu24initEv)
                  000b0eaa    0000000a                 : Varmeas.obj (.text:_ZN3Ver7Varmeas4vsetERKN4Base4FrefE)
                  000b0eb4    0000000a     base.lib : Pkt_router.obj (.text:_ZN4Base10Pkt_router8add_portERNS_9Ipkt_portE)
                  000b0ebe    0000000a              : Stimestamp.obj (.text:_ZN4Base10Stimestamp4csetERNS_9U8istreamE)
                  000b0ec8    0000000a              : Stanag_parser.obj (.text:_ZN4Base13Stanag_parser5resetEv)
                  000b0ed2    0000000a     first.lib : Lossy.obj (.text:_ZN4Base5Lossy10get_uint16Ev)
                  000b0edc    0000000a               : Lossy.obj (.text:_ZN4Base5Lossy9get_uint8Ev)
                  000b0ee6    0000000a               : Mutex.obj (.text:_ZN4Base5Mutex21exit_critical_sectionEv)
                  000b0ef0    0000000a               : Mutex.obj (.text:_ZN4Base5MutexC1Eb)
                  000b0efa    0000000a               : Mutex.obj (.text:_ZN4Base5MutexD1Ev)
                  000b0f04    0000000a     base.lib : Fmsg.obj (.text:_ZN4Base6FmsgtxC1Ev)
                  000b0f0e    0000000a              : Cfgid_mode.obj (.text:_ZN4Base7TnarrayINS_10Cfgid_mode4ModeELm512EE7set_allES2_)
                  000b0f18    0000000a     midlevel.lib : CyphalCAN_in.obj (.text:_ZN4Base8IteratorIN6Cyphal15Cyphal_msg_dataEE4nextEv)
                  000b0f22    0000000a     stanag.lib : Stanag_decimation.obj (.text:_ZN4Base8IteratorIN6Stanag17Stanag_decimation3CfgEE4nextEv)
                  000b0f2c    0000000a                : Alert_msg.obj (.text:_ZN4Base8IteratorIN6Stanag9Alert_msg10Alert_dataEE4nextEv)
                  000b0f36    0000000a                : IConnection_getter.obj (.text:_ZN4Base8IteratorINS_15Auth_connectionEE4nextEv)
                  000b0f40    0000000a     DFS2.lib : DFS2_fs.obj (.text:_ZN4DFS27DFS2_fs18write_sector_endedEv)
                  000b0f4a    0000000a              : DFS2_fs.obj (.text:_ZN4DFS27DFS2_fs20read_sector_get_dataERN4Base10U8pkmblockE)
                  000b0f54    0000000a              : DFS2_fs.obj (.text:_ZN4DFS27DFS2_fs6assertEbNS0_10Error_flagE)
                  000b0f5e    0000000a     media.lib : Maint_mode_bl.obj (.text:_ZN5Media13Maint_mode_bl15exit_maint_modeEPN4Base6IresetE)
                  000b0f68    0000000a               : Maint_mode_bl.obj (.text:_ZN5Media13Maint_mode_bl16enter_maint_modeEPN4Base6IresetE)
                  000b0f72    0000000a     base.lib : Cyphal.obj (.text:_ZN6Cyphal10Cyphal_msg7MutatorD1Ev)
                  000b0f7c    0000000a     stanag.lib : Stanag_port.obj (.text:_ZN6Stanag11Stanag_port5resetEv)
                  000b0f86    0000000a                : IStanag_msg_pull.obj (.text:_ZN6Stanag14IStanag_msg_tx9Tx_paramsC1ERN4Base9U8ostreamERNS2_15Auth_connectionERNS2_11Imsg_senderERKNS2_8Msg_dataE)
                  000b0f90    0000000a                : Stanag_suite.obj (.text:_ZN6Stanag17Stanag_decimation3CfgC1Ev)
                  000b0f9a    0000000a     DSP2837x_ent.lib : GPIO.obj (.text:_ZNK12Dsp28335_ent4GPIO3getEv)
                  000b0fa4    0000000a     veronte.lib : Can4x.obj (.text:_ZNK4Base5CANid6equalsERVKS0_)
                  000b0fae    0000000a     base.lib : Varmgr.obj (.text:_ZNK4Base6Varmgr3getENS_4BvarE)
                  000b0fb8    0000000a              : Varmgr.obj (.text:_ZNK4Base6Varmgr3getENS_4RvarE)
                  000b0fc2    0000000a              : Varmgr.obj (.text:_ZNK4Base6Varmgr3getENS_4UvarE)
                  000b0fcc    0000000a              : Varmgr.obj (.text:_ZNK4Base6Varmgr7get_u64Ej)
                  000b0fd6    0000000a     DFS2.lib : DSF2_file.obj (.text:_ZNK4DFS24File8get_timeEv)
                  000b0fe0    0000000a     veronte.lib : Licmgr.obj (.text:_ZNVK4Base10Permission3hasEj)
                  000b0fea    0000000a                 : Halsuite_amz.obj (.text:_ZThn2_NK4Base5TportIN12Dsp28335_ent3SPIES2_jjE12wr_availableEv)
                  000b0ff4    00000009     DSP2838x_ent.lib : Ipc_2838x_cm.obj (.text:_ZN12Dsp28335_ent3Ipc12set_cm_flagsEm)
                  000b0ffd    00000009     DSP28x.lib : SCI.obj (.text:_ZN12Dsp28335_ent3SCI9enable_txEb)
                  000b1006    00000009     DSP2837x_ent.lib : Delay.obj (.text:_ZN12Dsp28335_ent5Delay2msEj)
                  000b100f    00000009     DSP28x.lib : I2Cif.obj (.text:_ZN12Dsp28335_ent5I2Cif8op_errorEv)
                  000b1018    00000009     DSP2837x_ent.lib : Mcbsp.obj (.text:_ZN12Dsp28335_ent5Mcbsp5writeEj)
                  000b1021    00000009     DSP2838x_ent.lib : CAN_FD.obj (.text:_ZN12Dsp28335_ent6CAN_FD12clear_tx_mbsEv)
                  000b102a    00000009     DSP2837x_ent.lib : DMAcfg.obj (.text:_ZN12Dsp28335_ent6DMAcfg2IOC1EPVKviim)
                  000b1033    00000009                      : Pwmdev.obj (.text:_ZN12Dsp28335_ent6Pwmdev11set_enabledEb)
                  000b103c    00000009     pring.lib : gaussian.obj (.text:_ZN12Random_nmspc8Gaussian5shootEv)
                  000b1045    00000009     veronte.lib : Veronte.obj (.text:_ZN4Base13Routing_tableILj2ELj16EEC1ERNS_18Routing_table_dataILj2ELj16EEE)
                  000b104e    00000009     base.lib : Auth_connection.obj (.text:_ZN4Base15Auth_connectionC1Ev)
                  000b1057    00000009              : Datalink_buffer.obj (.text:_ZN4Base15Datalink_buffer20set_available_blocksEm)
                  000b1060    00000009              : Cfg_utils.obj (.text:_ZN4Base3Cfg24get_cget_response_headerENS0_2IdERNS_5LossyE)
                  000b1069    00000009     veronte.lib : Xpcu8suite.obj (.text:_ZN4Base5ArrayIPVKNS_11TnarrayreszINS_8Fmsg_cfgELm32EEEEC1EPS5_m)
                  000b1072    00000009     maverick.lib : Rvector.obj (.text:_ZN4Base5ArrayIfEC1EPfm)
                  000b107b    00000009     first.lib : Memmgr_c2000.obj (.text:_ZN4Base6Memmgr21get_allocator_of_typeENS0_4TypeE)
                  000b1084    00000009     base.lib : Varmgr.obj (.text:_ZN4Base6Varmgr3setENS_8Bvar_mapERKNS_8Hbmapvar4TypeE)
                  000b108d    00000009     devices.lib : Xr20m1172.obj (.text:_ZN4Base7TnarrayIbLm2EE7set_allEb)
                  000b1096    00000009     pa_blocks.lib : Fifo_imu.obj (.text:_ZN4Base7TnarrayIfLm6EE7set_allEf)
                  000b109f    00000009     base.lib : Sticktypes.obj (.text:_ZN4Base7TnarrayIjLm16EE7set_allEj)
                  000b10a8    00000009     veronte.lib : Xcd.obj (.text:_ZN4Base7TnarrayIjLm1EE7set_allEj)
                  000b10b1    00000009     base.lib : Presence_vec.obj (.text:_ZN4Base7TnarrayIjLm3EE7set_allEj)
                  000b10ba    00000009     veronte.lib : Veronte.obj (.text:_ZN4Base8Cptraits6PodrawIVN12Dsp28335_ent10CAN_FD_cfgEE4copyERVKS3_RS4_)
                  000b10c3    00000009                 : Veronte.obj (.text:_ZN4Base8Cptraits6PodrawIVN12Dsp28335_ent6CANcfgEE4copyERVKS3_RS4_)
                  000b10cc    00000009     base.lib : Xclogsvc.obj (.text:_ZN4Base8Xclogsvc5resetEv)
                  000b10d5    00000009     DFS2.lib : DSF2_file.obj (.text:_ZN4DFS24FileD0Ev)
                  000b10de    00000009     stanag.lib : U8istream_pvec.obj (.text:_ZN6Stanag14U8istream_pvec13get_uint8_varEN4Base4UvarE)
                  000b10e7    00000009     midlevel.lib : Secure_CAN.obj (.text:_ZN7Devices10Secure_CAN11CAN_wrap_exIN12Dsp28335_ent6CAN_FDEE12clear_tx_mbsEv)
                  000b10f0    00000009     devices.lib : ADC121C021Q.obj (.text:_ZN7Devices11ADC121C021QD0Ev)
                  000b10f9    00000009                 : Simdev.obj (.text:_ZN7Devices6Simdev4MeasC1Ev)
                  000b1102    00000009     maverick.lib : IIR_2.obj (.text:_ZN8Maverick5IIR_25State5resetEf)
                  000b110b    00000009     pa_blocks.lib : Cy_maint_dcomms.obj (.text:_ZN9Pa_blocks15Cy_maint_dcomms11get_cmd_strENS0_8CommandsE)
                  000b1114    00000009                   : Cy_mon_perf_cons.obj (.text:_ZN9Pa_blocks16Cy_mon_perf_consC1ERN4Base7TnarrayINS1_6TdsyncINS1_9U8pkarrayILm38EEENS1_12Tdsynctraits11Rd_blockingIS5_NS1_8Cptraits6PodrawIVS5_EEEENS6_2WrIS5_NS8_8OperatorIS5_S5_EEEEEELm6EEE)
                  000b111d    00000009                   : Cy_meas_accel_gyro.obj (.text:_ZN9Pa_blocks18Cy_meas_accel_gyroC1ERVKN4Base6TdsyncINS1_15Imu_output_dataENS1_12Tdsynctraits11Rd_blockingIS3_NS1_8Cptraits6PodrawIVS3_EEEENS4_8Wr_mutexIS3_NS6_8OperatorIS3_S3_EEEEEE)
                  000b1126    00000009     pring.lib : gaussian.obj (.text:_ZNK12Random_nmspc8Gaussian11denormalizeEf)
                  000b112f    00000009     base.lib : Field_real_hex_ASCII.obj (.text:_ZNK4Base20Field_real_hex_ASCII4cgetERNS_5LossyE)
                  000b1138    00000009     veronte.lib : Halsuite_amz.obj (.text:_ZNK4Base5TportIN12Dsp28335_ent3SPIES2_jjE12wr_availableEv)
                  000b1141    00000009     base.lib : Varmgr.obj (.text:_ZNK4Base6Varmgr3getENS_8Bvar_mapERNS_8Hbmapvar4TypeE)
                  000b114a    00000009     rts2800_fpu64_eabi.lib : _lock.c.obj (.text)
                  000b1153    00000008     DSP28x_CodeStartBranch.obj (.text)
                  000b115b    00000008     DSP2837x_ent.lib : CAN.obj (.text:_ZN12Dsp28335_ent11Regshandler8get_regsEN4Base6CANpidE)
                  000b1163    00000008                      : GPIO.obj (.text:_ZN12Dsp28335_ent14Gpio_data_regs8get_bankENS_6GPIOidE)
                  000b116b    00000008     DSP2838x_ent.lib : Ipc_2838x.obj (.text:_ZN12Dsp28335_ent3Ipc14cpu1_boot_cpu2Ev)
                  000b1173    00000008     DSP28x.lib : SCI.obj (.text:_ZN12Dsp28335_ent3SCI9enable_rxEb)
                  000b117b    00000008     DSP2837x_ent.lib : GPIO.obj (.text:_ZN12Dsp28335_ent4GPIO3setEb)
                  000b1183    00000008                      : Delay.obj (.text:_ZN12Dsp28335_ent5Delay2usEj)
                  000b118b    00000008                      : Delay.obj (.text:_ZN12Dsp28335_ent5Delay8ns_by_50Ej)
                  000b1193    00000008                      : Mcbsp.obj (.text:_ZN12Dsp28335_ent5Mcbsp10Mcbsp_regs3getENS0_2IdE)
                  000b119b    00000008                      : Devcfg.obj (.text:_ZN12Dsp28335_ent6Devcfg15is_cpu2_runningEv)
                  000b11a3    00000008     main_cpu1.obj (.text:_ZN3Bsp8is_astroENS_6SysappE)
                  000b11ab    00000008     veronte.lib : Halsuite.obj (.text:_ZN3Bsp8is_astroENS_6SysappE)
                  000b11b3    00000008                 : Hx_nav_msg_cpu1.obj (.text:_ZN3Ver10Hx_nav_msg13get_nav_msg_kEv)
                  000b11bb    00000008                 : Maps_updater.obj (.text:_ZN3Ver12Maps_updater5on_txERN6Stanag14IStanag_msg_tx9Tx_paramsE)
                  000b11c3    00000008                 : Hraim_outputs.obj (.text:_ZN3Ver13Hraim_outputs16get_kraim_outputEv)
                  000b11cb    00000008                 : Hraim_outputs.obj (.text:_ZN3Ver13Hraim_outputs18get_kraim_log_dataEv)
                  000b11d3    00000008                 : Hmonitor_outputs_cpu1.obj (.text:_ZN3Ver16Hmonitor_outputs19get_kmonitor_alertsEv)
                  000b11db    00000008                 : Hmonitor_outputs_cpu1.obj (.text:_ZN3Ver16Hmonitor_outputs21get_kfailover_triggerEv)
                  000b11e3    00000008                 : Hmonitor_outputs_cpu1.obj (.text:_ZN3Ver16Hmonitor_outputs25get_kmon_log_data_compactEv)
                  000b11eb    00000008                 : Hnav_introspect_compact_cpu1.obj (.text:_ZN3Ver23Hnav_introspect_compact27get_knav_introspect_compactEv)
                  000b11f3    00000008                 : Hstate_estimate_compact_cpu1.obj (.text:_ZN3Ver23Hstate_estimate_compact27get_kstate_estimate_compactEv)
                  000b11fb    00000008                 : Hsys_cpu1.obj (.text:_ZN3Ver4Hsys20set_loadst_requestedEN4Base6LoadstE)
                  000b1203    00000008                 : Hevact.obj (.text:_ZN3Ver6Hevact10get_kevactEv)
                  000b120b    00000008                 : Hevact.obj (.text:_ZN3Ver6Hevact12get_kactionsEv)
                  000b1213    00000008                 : Rtaskio_amz.obj (.text:_ZN3Ver7Rtaskio12get_devsuiteEv)
                  000b121b    00000008                 : Rtaskio_amz.obj (.text:_ZN3Ver7Rtaskio15get_xpcu8_suiteEv)
                  000b1223    00000008                 : Varmeas.obj (.text:_ZN3Ver7Varmeas4vsetERKN4Base8Hbmapvar3RefE)
                  000b122b    00000008                 : Hxcfield.obj (.text:_ZN3Ver8Hxcfield10get_kfstrtEv)
                  000b1233    00000008                 : Hxcfield.obj (.text:_ZN3Ver8Hxcfield13get_kfstrfastEv)
                  000b123b    00000008                 : Hxcfield_cpu1.obj (.text:_ZN3Ver8Hxcfield15get_kfstgmsgvecEv)
                  000b1243    00000008                 : Hxcfield.obj (.text:_ZN3Ver8Hxcfield18get_kfmsg8consumerEv)
                  000b124b    00000008                 : Hxcfield_cpu1.obj (.text:_ZN3Ver8Hxcfield18get_kfmsg8producerEv)
                  000b1253    00000008                 : Hxcfield.obj (.text:_ZN3Ver8Hxcfield20get_kfmsgcanconsumerEv)
                  000b125b    00000008                 : Hxcfield_cpu1.obj (.text:_ZN3Ver8Hxcfield20get_kfmsgcanproducerEv)
                  000b1263    00000008                 : Hcfg_mode_cpu1.obj (.text:_ZN3Ver9Hcfg_mode13get_kcfgmodesEv)
                  000b126b    00000008     base.lib : Xcmqwr.obj (.text:_ZN4Base17Fifospscwr_commitIVjNS_10SPSCtraits8ExternalENS2_12Internal_refEE5writeIS1_NS_8Cptraits8OperatorIS1_S1_EEEEbNS_12JSF116_paramIT_E4typeE)
                  000b1273    00000008              : Fmsg.obj (.text:_ZN4Base4FmsgC1Ev)
                  000b127b    00000008     veronte.lib : Hvar_cpu1.obj (.text:_ZN4Base5ArrayIKjEC1EPS1_m)
                  000b1283    00000008     first.lib : Error.obj (.text:_ZN4Base5ArrayINS_8ErrorsrcEEC1EPS1_m)
                  000b128b    00000008               : Vstring.obj (.text:_ZN4Base5ArrayIcEC1EPcm)
                  000b1293    00000008               : Lossy.obj (.text:_ZN4Base5ArrayIjEC1EPjm)
                  000b129b    00000008               : Lossy.obj (.text:_ZN4Base5Lossy5alignEv)
                  000b12a3    00000008     veronte.lib : Veronte_dsp.obj (.text:_ZN4Base5RngitIN3Ver11Xpcu8_trait2XC3IdxEE4nextEv)
                  000b12ab    00000008                 : Veronte_dsp.obj (.text:_ZN4Base5RngitIN3Ver11Xpcu8_trait2XP3IdxEE4nextEv)
                  000b12b3    00000008     base.lib : Fmsgchecker.obj (.text:_ZN4Base5RngitINS_4BvarEE4nextEv)
                  000b12bb    00000008     veronte.lib : Xpcu8suite.obj (.text:_ZN4Base5RngitIjE4nextEv)
                  000b12c3    00000008     base.lib : CANin_p.obj (.text:_ZN4Base7CANin_p6Config13build_defaultEv)
                  000b12cb    00000008              : Stickrawtrans.obj (.text:_ZN4Base8Lintrans5buildEff)
                  000b12d3    00000008              : FMCP_null.obj (.text:_ZN4Base9FMCP_nullC1Ev)
                  000b12db    00000008     stanag.lib : Auth_response.obj (.text:_ZN6Stanag13Auth_response15Response_fieldsC1Ev)
                  000b12e3    00000008     veronte.lib : Veronte.obj (.text:_ZN6Stanag14IStanag_rx_pktC1Ev)
                  000b12eb    00000008     stanag.lib : Stanag_msg_mgr.obj (.text:_ZN6Stanag14Stanag_msg_mgr11trigger_msgEN4Base15Stanag_msg_type8Msg_typeE)
                  000b12f3    00000008     devices.lib : Adis165053.obj (.text:_ZN7Devices10Adis1650538cs_clearEv)
                  000b12fb    00000008     maverick.lib : Rvector.obj (.text:_ZN8Maverick7RvectorC1EPfj)
                  000b1303    00000008     DSP2837x_ent.lib : CAN.obj (.text:_ZNK12Dsp28335_ent3CAN13get_rx_errorsEv)
                  000b130b    00000008     base.lib : Stimestamp.obj (.text:_ZNK4Base10Stimestamp4cgetERNS_9U8ostreamE)
                  000b1313    00000008              : Spkt_hdr.obj (.text:_ZNK4Base8Spkt_hdr9Msg_props13get_chk_bytesEv)
                  000b131b    00000008     DFS2.lib : DSF2_file.obj (.text:_ZNK4DFS27DFS2_fs16get_current_timeEv)
                  000b1323    00000008     devices.lib : Sxp.obj (.text:_ZThn2_NK4Base22Port_stats_itport_wrapINS_5TportINS_12U8pkfifospscES2_hhEEE12wr_availableEv)
                  000b132b    00000008     main_cpu1.obj (.text:_system_post_cinit)
                  000b1333    00000008     rts2800_fpu64_eabi.lib : copy_decompress_none.c.obj (.text:decompress:none)
                  000b133b    00000007     FPU.lib : memcpy_fast.obj (.text)
                  000b1342    00000007     DSP2837x_ent.lib : System_cpu1.obj (.text:_ZN12Dsp28335_ent15init_sys_cpu1_0Ev)
                  000b1349    00000007     DSP2838x_ent.lib : FSI_rx.obj (.text:_ZN12Dsp28335_ent34_GLOBAL__N__10_FSI_rx_cpp_0b02c84d13get_tag_udataEm)
                  000b1350    00000007     DSP2837x_ent.lib : DMA.obj (.text:_ZN12Dsp28335_ent3DMA11clear_flagsEv)
                  000b1357    00000007     DSP28x.lib : SPIcfg.obj (.text:_ZN12Dsp28335_ent6SPIcfgC1EbNS0_5SmodeEmj)
                  000b135e    00000007     pring.lib : Prnd_xorshift32.obj (.text:_ZN12Random_nmspc15Prnd_xorshift32C1Ev)
                  000b1365    00000007     DSP28x.lib : Sysaddr_mc.obj (.text:_ZN3Bsp11set_sysaddrEN4Base7AddressE)
                  000b136c    00000007     xtal_cfg.obj (.text:_ZN3Bsp4Kclk16get_sys_xtal_cfgERmRb)
                  000b1373    00000007     veronte.lib : Vcfchecker.obj (.text:_ZN3Ver10Vcfchecker3getENS_14ComcheckertypeE)
                  000b137a    00000007                 : Hraim_inputs_cpu1.obj (.text:_ZN3Ver12Hraim_inputs16get_gnss_nav_msgEv)
                  000b1381    00000007                 : Hmon_nav_inputs_cpu1.obj (.text:_ZN3Ver15Hmon_nav_inputs13get_meas_gnssEv)
                  000b1388    00000007                 : Hmon_nav_inputs_cpu1.obj (.text:_ZN3Ver15Hmon_nav_inputs21get_meas_ground_lidarEv)
                  000b138f    00000007                 : Hmon_nav_inputs_cpu1.obj (.text:_ZN3Ver15Hmon_nav_inputs29get_meas_static_pressure_leftEv)
                  000b1396    00000007                 : Hmon_nav_inputs_cpu1.obj (.text:_ZN3Ver15Hmon_nav_inputs30get_meas_dynamic_pressure_leftEv)
                  000b139d    00000007                 : Hmon_nav_inputs_cpu1.obj (.text:_ZN3Ver15Hmon_nav_inputs31get_meas_dynamic_pressure_rightEv)
                  000b13a4    00000007                 : Hmonitor_inputs_cpu1.obj (.text:_ZN3Ver15Hmonitor_inputs15get_pds_commandEv)
                  000b13ab    00000007                 : Hmonitor_inputs_cpu1.obj (.text:_ZN3Ver15Hmonitor_inputs16get_recovery_mrsEv)
                  000b13b2    00000007                 : Hmonitor_inputs_cpu1.obj (.text:_ZN3Ver15Hmonitor_inputs17get_battery_powerEv)
                  000b13b9    00000007                 : Hmonitor_inputs_cpu1.obj (.text:_ZN3Ver15Hmonitor_inputs17get_ccp_heartbeatEv)
                  000b13c0    00000007                 : Hmonitor_inputs_cpu1.obj (.text:_ZN3Ver15Hmonitor_inputs17get_reset_commandEv)
                  000b13c7    00000007                 : Hmonitor_inputs_cpu1.obj (.text:_ZN3Ver15Hmonitor_inputs21get_motor_performanceEv)
                  000b13ce    00000007                 : Hmonitor_inputs_cpu1.obj (.text:_ZN3Ver15Hmonitor_inputs23get_command_contingencyEv)
                  000b13d5    00000007                 : Hmonitor_inputs_cpu1.obj (.text:_ZN3Ver15Hmonitor_inputs23get_on_ground_heartbeatEv)
                  000b13dc    00000007                 : Hmonitor_inputs_cpu1.obj (.text:_ZN3Ver15Hmonitor_inputs29get_monrec_controller_commandEv)
                  000b13e3    00000007                 : Hmonitor_inputs_cpu1.obj (.text:_ZN3Ver15Hmonitor_inputs29get_primary_motor_rpm_commandEv)
                  000b13ea    00000007                 : Hmonitor_inputs_cpu1.obj (.text:_ZN3Ver15Hmonitor_inputs30get_primary_vms_monitored_dataEv)
                  000b13f1    00000007                 : Hmonitor_inputs_cpu1.obj (.text:_ZN3Ver15Hmonitor_inputs32get_air_data_estimator_heartbeatEv)
                  000b13f8    00000007                 : Hmonitor_inputs_cpu1.obj (.text:_ZN3Ver15Hmonitor_inputs34get_primary_state_estimate_compactEv)
                  000b13ff    00000007                 : Hmonitor_inputs_cpu1.obj (.text:_ZN3Ver15Hmonitor_inputs35get_recovery_state_estimate_compactEv)
                  000b1406    00000007                 : Hmonitor_inputs_cpu1.obj (.text:_ZN3Ver15Hmonitor_inputs38get_primary_controllers_monitored_dataEv)
                  000b140d    00000007                 : Hmonitor_inputs_cpu1.obj (.text:_ZN3Ver15Hmonitor_inputs41get_recovery_motor_rpm_command_rear_rightEv)
                  000b1414    00000007                 : Hmeas_cpu1.obj (.text:_ZN3Ver5Hmeas8get_measEv)
                  000b141b    00000007                 : Hmeas.obj (.text:_ZN3Ver5Hmeas9get_kmeasEv)
                  000b1422    00000007                 : Hxcfg.obj (.text:_ZN3Ver5Hxcfg9get_kxcfgEv)
                  000b1429    00000007                 : Hapsel_cpu1.obj (.text:_ZN3Ver6Hapsel10get_apsel1Ev)
                  000b1430    00000007                 : Hapsel.obj (.text:_ZN3Ver6Hapsel11get_kapsel2Ev)
                  000b1437    00000007                 : Hevact.obj (.text:_ZN3Ver6Hevact10get_kevoutEv)
                  000b143e    00000007                 : Hevact.obj (.text:_ZN3Ver6Hevact16get_keventsreadyEv)
                  000b1445    00000007                 : Hlicense_cpu1.obj (.text:_ZN3Ver8Hlicense15get_permissionsEv)
                  000b144c    00000007                 : Hregvars_cpu1.obj (.text:_ZN3Ver8Hregvars11get_regvarsEv)
                  000b1453    00000007                 : Hxcfield_cpu1.obj (.text:_ZN3Ver8Hxcfield10get_kfstr1Ev)
                  000b145a    00000007                 : Hxcfield_cpu1.obj (.text:_ZN3Ver8Hxcfield16get_kfstrpfieldsEv)
                  000b1461    00000007                 : Xfreqmgr0.obj (.text:_ZN3Ver9Xfreqmgr011set_defaultEv)
                  000b1468    00000007     devices.lib : Sxp.obj (.text:_ZN4Base13Port_stats_rxINS_5TportINS_12U8pkfifospscES2_hhEEEC2ERS3_RVf)
                  000b146f    00000007                 : Sxp.obj (.text:_ZN4Base13Port_stats_txINS_5TportINS_12U8pkfifospscES2_hhEEEC2ERS3_RVf)
                  000b1476    00000007     veronte.lib : Halsuite_amz.obj (.text:_ZN4Base13Tport_w_r_blkIjjE15get_read_bufferEv)
                  000b147d    00000007                 : Halsuite_amz.obj (.text:_ZN4Base13Tport_w_r_blkIjjE16get_write_bufferEv)
                  000b1484    00000007     base.lib : Uid.obj (.text:_ZN4Base3Uid11get_currentEv)
                  000b148b    00000007     veronte.lib : Veronte.obj (.text:_ZN4Base8Cptraits6PodrawIVN12Dsp28335_ent6SCIcfgEE4copyERVKS3_RS4_)
                  000b1492    00000007                 : Rtaskio.obj (.text:_ZN4Base8Cptraits6PodrawIVN3Ver10ArbiterCfg6ConfigEE4copyERVKS4_RS5_)
                  000b1499    00000007                 : Xpccansuite.obj (.text:_ZN4Base8Cptraits6PodrawIVN3Ver10Can_4x_cfgEE4copyERVKS3_RS4_)
                  000b14a0    00000007                 : Rtaskio.obj (.text:_ZN4Base8Cptraits6PodrawIVN3Ver9Xfreqmgr0EE4copyERVKS3_RS4_)
                  000b14a7    00000007                 : Devsuite_amz.obj (.text:_ZN4Base8Cptraits6PodrawIVN7Devices14Adis165053_cfgEE4copyERVKS3_RS4_)
                  000b14ae    00000007                 : Gpssimdev.obj (.text:_ZN4Base8Cptraits6PodrawIVN7Devices3Ubx6UbxpvtEE4copyERVKS4_RS5_)
                  000b14b5    00000007                 : Devsuite_amz.obj (.text:_ZN4Base8Cptraits6PodrawIVN8Maverick13Notch_lpf_cfgEE4copyERVKS3_RS4_)
                  000b14bc    00000007                 : Veronte.obj (.text:_ZN4Base8Cptraits6PodrawIVNS_10Xcomstats0EE4copyERVKS2_RS3_)
                  000b14c3    00000007                 : Xpccansuite.obj (.text:_ZN4Base8Cptraits6PodrawIVNS_11CANin_suiteILj6EEEE4copyERVKS3_RS4_)
                  000b14ca    00000007                 : Xpccansuite.obj (.text:_ZN4Base8Cptraits6PodrawIVNS_11CANsc_suiteILj6EEEE4copyERVKS3_RS4_)
                  000b14d1    00000007                 : Xpccansuite.obj (.text:_ZN4Base8Cptraits6PodrawIVNS_11TnarrayreszINS_7Xpcmap0ELm19EEEE4copyERVKS4_RS5_)
                  000b14d8    00000007                 : Xpcu8suite.obj (.text:_ZN4Base8Cptraits6PodrawIVNS_11TnarrayreszINS_7Xpcmap0ELm45EEEE4copyERVKS4_RS5_)
                  000b14df    00000007                 : Xpccansuite.obj (.text:_ZN4Base8Cptraits6PodrawIVNS_12CANout_suiteILj6EEEE4copyERVKS3_RS4_)
                  000b14e6    00000007     pa_blocks.lib : Cy_meas_accel_gyro.obj (.text:_ZN4Base8Cptraits6PodrawIVNS_15Imu_output_dataEE4copyERVKS2_RS3_)
                  000b14ed    00000007     veronte.lib : Hvar_cpu1.obj (.text:_ZN4Base8Cptraits6PodrawIVNS_7FeatureEE4copyERVKS2_RS3_)
                  000b14f4    00000007                 : Veronte.obj (.text:_ZN4Base8Cptraits6PodrawIVNS_7TnarrayINS_11TnarrayreszINS_4BvarELm20EEELm3EEEE4copyERVKS6_RS7_)
                  000b14fb    00000007     base.lib : Xclogsvc.obj (.text:_ZN4Base8Cptraits6PodrawIVNS_8XclogreqEE4copyERVKS2_RS3_)
                  000b1502    00000007     veronte.lib : Absolute_time.obj (.text:_ZN4Base8Cptraits6PodrawIVNS_9Mabs_timeEE4copyERVKS2_RS3_)
                  000b1509    00000007                 : Rtaskio_amz.obj (.text:_ZN4Base8Cptraits6PodrawIVNS_9U8pkarrayILm169EEEE4copyERVKS3_RS4_)
                  000b1510    00000007                 : Rtaskio_amz.obj (.text:_ZN4Base8Cptraits6PodrawIVNS_9U8pkarrayILm17EEEE4copyERVKS3_RS4_)
                  000b1517    00000007                 : Rtaskio_amz.obj (.text:_ZN4Base8Cptraits6PodrawIVNS_9U8pkarrayILm201EEEE4copyERVKS3_RS4_)
                  000b151e    00000007                 : Rtaskio_amz.obj (.text:_ZN4Base8Cptraits6PodrawIVNS_9U8pkarrayILm203EEEE4copyERVKS3_RS4_)
                  000b1525    00000007                 : Rtaskio_amz.obj (.text:_ZN4Base8Cptraits6PodrawIVNS_9U8pkarrayILm210EEEE4copyERVKS3_RS4_)
                  000b152c    00000007                 : Rtaskio_amz.obj (.text:_ZN4Base8Cptraits6PodrawIVNS_9U8pkarrayILm22EEEE4copyERVKS3_RS4_)
                  000b1533    00000007                 : Rtaskio_amz.obj (.text:_ZN4Base8Cptraits6PodrawIVNS_9U8pkarrayILm48EEEE4copyERVKS3_RS4_)
                  000b153a    00000007                 : Rtaskio_amz.obj (.text:_ZN4Base8Cptraits6PodrawIVNS_9U8pkarrayILm84EEEE4copyERVKS3_RS4_)
                  000b1541    00000007     base.lib : Xcfilesvc.obj (.text:_ZN4Base8Cptraits6PodrawIVNS_9XcfilereqEE4copyERVKS2_RS3_)
                  000b1548    00000007     first.lib : Allocator.obj (.text:_ZN4Base9Allocator12allocate_oneEm)
                  000b154f    00000007     base.lib : Xcmqwr.obj (.text:_ZN4Base9Fifospsc0IVjNS_10SPSCtraits22Add_reference_to_traitINS2_8ExternalEE8TemplateENS2_12Internal_refEE6set_wrEPS1_)
                  000b1556    00000007     devices.lib : ADC121C021Q.obj (.text:_ZN7Devices11ADC121C021QD1Ev)
                  000b155d    00000007     midlevel.lib : Default_cfg.obj (.text:_ZN8Midlevel11Default_cfg15set_default_canERN12Dsp28335_ent6CANcfgEmbb)
                  000b1564    00000007                  : Cyphal_tx_mgr.obj (.text:_ZN8Midlevel13Cy_msg_helperILm200EE4sendERN6Cyphal13Cyphal_tx_mgrE)
                  000b156b    00000007     veronte.lib : Rtaskio_amz.obj (.text:_ZN8Midlevel13Cy_msg_helperILm50EE4sendERN6Cyphal13Cyphal_tx_mgrE)
                  000b1572    00000007     midlevel.lib : Comstats.obj (.text:_ZN8Midlevel8Comstats6add_rxERKN4Base7AddressE)
                  000b1579    00000007                  : Sysreset.obj (.text:_ZN8Midlevel8Sysreset5on_txERN6Stanag14IStanag_msg_tx9Tx_paramsE)
                  000b1580    00000007     DSP2837x_ent.lib : CAN.obj (.text:_ZNK12Dsp28335_ent3CAN10get_bus_onEv)
                  000b1587    00000007                      : CAN.obj (.text:_ZNK12Dsp28335_ent3CAN13get_tx_errorsEv)
                  000b158e    00000007                      : CAN.obj (.text:_ZNK12Dsp28335_ent3CAN15get_warning_offEv)
                  000b1595    00000007     DSP28x.lib : SPI.obj (.text:_ZNK12Dsp28335_ent3SPI18rd_available_countEv)
                  000b159c    00000007                : SPI.obj (.text:_ZNK12Dsp28335_ent3SPI18wr_available_countEv)
                  000b15a3    00000007                : I2Cif.obj (.text:_ZNK12Dsp28335_ent5I2Cif5is_okEv)
                  000b15aa    00000007     DSP2837x_ent.lib : Cpusys.obj (.text:_ZNK12Dsp28335_ent6Cpusys17is_jtag_connectedEv)
                  000b15b1    00000007                      : Cpusys.obj (.text:_ZNK12Dsp28335_ent6Cpusys18is_reset_wdog_flagEv)
                  000b15b8    00000007     DSP2838x_ent.lib : Cpusys_2838x.obj (.text:_ZNK12Dsp28335_ent6Cpusys22is_reset_simreset_flagEv)
                  000b15bf    00000007     veronte.lib : Reset_ver_pa.obj (.text:_ZNK3Ver9Reset_ver5resetEv)
                  000b15c6    00000007     devices.lib : Sxp.obj (.text:_ZNK4Base22Port_stats_itport_wrapINS_5TportINS_12U8pkfifospscES2_hhEEE12wr_availableEv)
                  000b15cd    00000007                 : MX66L.obj (.text:_ZNK7Devices5MX66L7is_initEv)
                  000b15d4    00000007     midlevel.lib : Secure_CAN.obj (.text:__sti___14_Secure_CAN_cpp_ddf3061f)
                  000b15db    00000007     rts2800_fpu64_eabi.lib : memset.c.obj (.text)
                  000b15e2    00000006     FPU.lib : memset_fast.obj (.text)
                  000b15e8    00000006     DSP2837x_ent.lib : GPIOvalid.obj (.text:_ZN12Dsp28335_ent15is_gpioid_validEj)
                  000b15ee    00000006     DSP2838x_ent.lib : FSI_tx.obj (.text:_ZN12Dsp28335_ent34_GLOBAL__N__10_FSI_tx_cpp_d0e4411010get_dma_idENS_3FSI5Tx_idE)
                  000b15f4    00000006     DSP28x.lib : SCI.obj (.text:_ZN12Dsp28335_ent3SCI12get_rx_countEv)
                  000b15fa    00000006                : SCI.obj (.text:_ZN12Dsp28335_ent3SCI8is_rx_okEv)
                  000b1600    00000006                : CAN_FD_common.obj (.text:_ZN12Dsp28335_ent6CAN_FD10dlc_to_lenENS0_3DLCE)
                  000b1606    00000006     veronte.lib : Devsuite_amz.obj (.text:_ZN3Ver8Devsuite13get_scia_portEv)
                  000b160c    00000006                 : Devsuite_amz.obj (.text:_ZN3Ver8Devsuite20on_period_acq_changeEf)
                  000b1612    00000006     base.lib : Stanag_parser.obj (.text:_ZN4Base13Stanag_parser10get_packetEv)
                  000b1618    00000006              : Auth_connection.obj (.text:_ZN4Base15Auth_connectionC1ENS_7AddressE)
                  000b161e    00000006              : Evact.obj (.text:_ZN4Base5Evact7BuilderC1ERNS0_7ContextERVKNS_6TdsyncINS_8ArraymskINS_9Evactcfg0ELj100EEENS_12Tdsynctraits11Rd_blockingIS7_NS_8Cptraits6PodrawIVS7_EEEENS8_15Disabled_structEEE)
                  000b1624    00000006              : Evact.obj (.text:_ZN4Base5Evact7ContextC1ERNS_9IexecuterERKNS_5Dsync6ReaderERVKNS_6TdsyncINS_8ArraymskINS_6ActionELj120EEENS_12Tdsynctraits11Rd_blockingISB_NS_8Cptraits6PodrawIVSB_EEEENSC_15Disabled_structEEE)
                  000b162a    00000006     first.lib : Memmgr_c2000.obj (.text:_ZN4Base6Memmgr22get_external_allocatorEv)
                  000b1630    00000006               : Memmgr_c2000.obj (.text:_ZN4Base6MemmgrC1ERNS_9AllocatorES2_)
                  000b1636    00000006     base.lib : Vrefdst.obj (.text:_ZN4Base7Vrefdst3setERKNS_12U8pkmblock_kE)
                  000b163c    00000006              : Vrefdst.obj (.text:_ZN4Base7Vrefdst3setERKNS_4Iset4DataINS_6R64varEeEE)
                  000b1642    00000006              : CANframe_fifo32.obj (.text:_ZN4Base9Fifospsc0ImNS_10SPSCtraits22Add_reference_to_traitINS1_8InternalEE8TemplateES3_E6set_wrEPm)
                  000b1648    00000006     veronte.lib : Halsuite_amz.obj (.text:_ZN4Base9Tport_blkIjjE15get_read_bufferEv)
                  000b164e    00000006                 : Halsuite_amz.obj (.text:_ZN4Base9Tport_blkIjjE16get_write_bufferEv)
                  000b1654    00000006                 : Halsuite_amz.obj (.text:_ZN4Base9Tport_blkIjjE4readEj)
                  000b165a    00000006                 : Halsuite_amz.obj (.text:_ZN4Base9Tport_blkIjjE5writeEj)
                  000b1660    00000006     midlevel.lib : Cyphal_msg_trig.obj (.text:_ZN6Cyphal15Cyphal_msg_trigC1ERVKN4Base11TnarrayreszIjLm32EEERNS_12CyphalCAN_inEPNS1_7IxcmqwrE)
                  000b1666    00000006     stanag.lib : Alert_msg.obj (.text:_ZN6Stanag9Alert_msg10Alert_dataC1Ev)
                  000b166c    00000006     devices.lib : Rawmea3.obj (.text:_ZN7Devices7Rawmea3C1ERVfS2_S2_)
                  000b1672    00000006                 : Simdev3D.obj (.text:_ZN7Devices8Simdev3D15replace_simtempERVf)
                  000b1678    00000006     maverick.lib : Biquad_notch_lpf_3d.obj (.text:_ZN8Maverick19Biquad_notch_lpf_3d8DecimateC1Ev)
                  000b167e    00000006     midlevel.lib : Irxfw.obj (.text:_ZN8Midlevel5Irxfw2Fw9on_rx_pktERN6Stanag14IStanag_rx_pkt6ParamsE)
                  000b1684    00000006                  : Comstats.obj (.text:_ZN8Midlevel8Comstats5on_txERN6Stanag14IStanag_msg_tx9Tx_paramsE)
                  000b168a    00000006     DSP2837x_ent.lib : Mcbsp.obj (.text:_ZNK12Dsp28335_ent5Mcbsp12wr_availableEv)
                  000b1690    00000006                      : Cpusys.obj (.text:_ZNK12Dsp28335_ent6Cpusys21clear_reset_wdog_flagEv)
                  000b1696    00000006     DSP2838x_ent.lib : Cpusys_2838x.obj (.text:_ZNK12Dsp28335_ent6Cpusys25clear_reset_simreset_flagEv)
                  000b169c    00000006     veronte.lib : Bitmgr.obj (.text:_ZNK3Ver6Bitmgr4cgetERN4Base5LossyE)
                  000b16a2    00000006     base.lib : Stimestamp.obj (.text:_ZNK4Base10Stimestamp4cgetERNS_11U16stream_wE)
                  000b16a8    00000006     veronte.lib : Halsuite_amz.obj (.text:_ZNK4Base13Tport_w_r_blkIjjE12read_runningEv)
                  000b16ae    00000006                 : Halsuite_amz.obj (.text:_ZNK4Base9Tport_blkIjjE12read_runningEv)
                  000b16b4    00000006                 : Halsuite_amz.obj (.text:_ZNK4Base9Tport_blkIjjE13write_runningEv)
                  000b16ba    00000006     DFS2.lib : DSF2_file.obj (.text:_ZNK4DFS24File7get_crcERm)
                  000b16c0    00000006     devices.lib : ADC121C021Q.obj (.text:_ZNK7Devices11ADC121C021Q18get_default_periodEv)
                  000b16c6    00000006     DSP28x.lib : I2Cif.obj (.text:_ZNV4Base10U8pkmblock3setEmh)
                  000b16cc    00000006     base.lib : Xcfilesvc.obj (.text:_ZNVK4Base10Xcfilectrl7is_busyEv)
                  000b16d2    00000006     midlevel.lib : Comstats.obj (.text:_ZNVK4Base8Address0eqENS0_4AddrE)
                  000b16d8    00000006     veronte.lib : Halsuite_amz.obj (.text:_ZThn2_N4Base5TportINS_12U8pkfifospscES1_hhE5writeEh)
                  000b16de    00000006     stanag.lib : Stanag_port.obj (.text:_ZThn2_N6Stanag11Stanag_port4readERh)
                  000b16e4    00000006     veronte.lib : Hvar_cpu1.obj (.text:__sti___13_Hvar_cpu1_cpp_843619e0)
                  000b16ea    00000006     rts2800_fpu64_eabi.lib : copy_zero_init.c.obj (.text:decompress:ZI)
                  000b16f0    00000005     DSP2838x_ent.lib : ADC_2838x.obj (.text:_ZN12Dsp28335_ent14get_temp_slopeEv)
                  000b16f5    00000005                      : ADC_2838x.obj (.text:_ZN12Dsp28335_ent15get_temp_offsetEv)
                  000b16fa    00000005                      : Ipc_2838x.obj (.text:_ZN12Dsp28335_ent3Ipc11reset_flagsEv)
                  000b16ff    00000005                      : Ipc_2838x.obj (.text:_ZN12Dsp28335_ent3Ipc11set_commandEm)
                  000b1704    00000005     DSP2837x_ent.lib : GPIO.obj (.text:_ZN12Dsp28335_ent4GPIO6set_hiEv)
                  000b1709    00000005                      : GPIO.obj (.text:_ZN12Dsp28335_ent4GPIO6set_loEv)
                  000b170e    00000005                      : GPIO.obj (.text:_ZN12Dsp28335_ent4GPIO6toggleEv)
                  000b1713    00000005     pring.lib : gaussian.obj (.text:_ZN12Random_nmspc8Gaussian12set_mean_varEff)
                  000b1718    00000005     veronte.lib : Xpcu8suite.obj (.text:_ZN3Ver10Xpcu8suite4stepEv)
                  000b171d    00000005                 : Xpcu8suite.obj (.text:_ZN3Ver10Xpcu8suite7step_hiEv)
                  000b1722    00000005                 : Rtaskio.obj (.text:_ZN3Ver7Rtaskio12get_sensimrxEv)
                  000b1727    00000005                 : Devsuite_amz.obj (.text:_ZN3Ver8Devsuite9post_initEPN4Base6ChronoE)
                  000b172c    00000005     base.lib : FMCP_varmgr.obj (.text:_ZN4Base11FMCP_varmgr7processERNS_11VrefdstbuffERNS_4IsetE)
                  000b1731    00000005              : Int_decimator.obj (.text:_ZN4Base13Int_decimatorC1Ev)
                  000b1736    00000005              : Field_cfg.obj (.text:_ZN4Base14Cksum_sagetech5resetEv)
                  000b173b    00000005              : Datalink_receiver.obj (.text:_ZN4Base17Datalink_receiverC1ERNS_15Datalink_bufferE)
                  000b1740    00000005              : Unescape_port_cfg.obj (.text:_ZN4Base17Unescape_port_cfg4initEv)
                  000b1745    00000005     veronte.lib : Halsuite_amz.obj (.text:_ZN4Base5TportINS_12U8pkfifospscES1_hhE4readERh)
                  000b174a    00000005                 : Halsuite_amz.obj (.text:_ZN4Base5TportINS_12U8pkfifospscES1_hhE5writeEh)
                  000b174f    00000005     base.lib : Sensel.obj (.text:_ZN4Base6Sensel4initEv)
                  000b1754    00000005     stanag.lib : Auth_request.obj (.text:_ZN4Base7AddressC1Ev)
                  000b1759    00000005     veronte.lib : Xcd.obj (.text:_ZN4Base8BitarrayILj16EE7set_allEv)
                  000b175e    00000005     stanag.lib : Auth_request.obj (.text:_ZN4Base8BitarrayILj256EE7set_allEv)
                  000b1763    00000005     base.lib : Presence_vec.obj (.text:_ZN4Base8BitarrayILj40EE7set_allEv)
                  000b1768    00000005     first.lib : Allocator.obj (.text:_ZN4Base9Allocator16Allocator_buffer16close_allocationEv)
                  000b176d    00000005     base.lib : CAN_stats.obj (.text:_ZN4Base9CAN_statsC1ERKNS_5ArrayINS_9CANserialEEENS_4UvarE)
                  000b1772    00000005     veronte.lib : Varsensor3D.obj (.text:_ZN4Base9Range_dynIfE9set_rangeEff)
                  000b1777    00000005     base.lib : Rangedeltacheck3_nv.obj (.text:_ZN4Base9Range_dynIfEC1Eff)
                  000b177c    00000005     media.lib : Filecom.obj (.text:_ZN5Media7Filecom10start_taskENS0_12Task_flag_idE)
                  000b1781    00000005     stanag.lib : Stanag_port.obj (.text:_ZN6Stanag11Stanag_port4readERh)
                  000b1786    00000005     devices.lib : Adis165053.obj (.text:_ZN7Devices10Adis1650536cs_setEv)
                  000b178b    00000005     maverick.lib : Rvector3.obj (.text:_ZN8Maverick8Rvector3C1Ev)
                  000b1790    00000005     midlevel.lib : Sysreset.obj (.text:_ZN8Midlevel8Sysreset6rebootEN4Base11Reboot_modeE)
                  000b1795    00000005     DSP2837x_ent.lib : DMA.obj (.text:_ZNK12Dsp28335_ent3DMA10is_runningEv)
                  000b179a    00000005     geomodel.lib : Apos.obj (.text:_ZNK3Geo31_GLOBAL__N__8_Apos_cpp_ad6fc63620Height_computer_null10msl_heightERKN4Base6LonlatE)
                  000b179f    00000005                  : Apos.obj (.text:_ZNK3Geo31_GLOBAL__N__8_Apos_cpp_ad6fc63620Height_computer_null12wgs84_heightERKN4Base6LonlatE)
                  000b17a4    00000005     veronte.lib : Veronte.obj (.text:_ZNK4Base13Routing_tableILj2ELj16EE7get_ttlEv)
                  000b17a9    00000005     base.lib : Vref_wr.obj (.text:_ZNK4Base7Vref_wr4vsetERNS_4IsetE)
                  000b17ae    00000005     veronte.lib : Xpccansuite.obj (.text:_ZThn2_N4Base5TportIN12Dsp28335_ent3CANES2_NS_8CANframeES3_E5writeERKS3_)
                  000b17b3    00000005                 : Halsuite_amz.obj (.text:_ZThn2_N4Base5TportIN12Dsp28335_ent3SPIES2_jjE5writeEj)
                  000b17b8    00000005                 : Halsuite_amz.obj (.text:_ZThn2_N4Base5TportIN12Dsp28335_ent5McbspES2_jjE5writeEj)
                  000b17bd    00000005                 : Xpccansuite.obj (.text:_ZThn2_N4Base5TportIN12Dsp28335_ent6CAN_FDES2_NS_8CANframeES3_E5writeERKS3_)
                  000b17c2    00000005                 : Xpcu8suite.obj (.text:_ZThn2_N4Base6ComConIN12Dsp28335_ent3SCIEE10connect_rxEb)
                  000b17c7    00000005                 : Xpccansuite.obj (.text:_ZThn2_NK4Base5TportIN12Dsp28335_ent3CANES2_NS_8CANframeES3_E12wr_availableEv)
                  000b17cc    00000005                 : Halsuite_amz.obj (.text:_ZThn2_NK4Base5TportIN12Dsp28335_ent5McbspES2_jjE12wr_availableEv)
                  000b17d1    00000005                 : Xpccansuite.obj (.text:_ZThn2_NK4Base5TportIN12Dsp28335_ent6CAN_FDES2_NS_8CANframeES3_E12wr_availableEv)
                  000b17d6    00000005     midlevel.lib : Cmdmgr.obj (.text:_ZThn2_NK4Base8TwraptunINS_9Tuntraits15Arraytun_nosizeINS1_7Lossy16IjEENS_6MblockIjEENS1_8No_checkIS6_EEEES6_E4cgetERNS_5LossyE)
                  000b17db    00000005     stanag.lib : Auth_request.obj (.text:_ZThn4_N6Stanag12Auth_request15get_kconnectionEN4Base7AddressE)
                  000b17e0    00000005     rts2800_fpu64_eabi.lib : delete.c.obj (.text)
                  000b17e5    00000004     DSP2838x_ent.lib : CM_helpers.obj (.text:_ZN12Dsp28335_ent10CM_helpers11cm_init_endEv)
                  000b17e9    00000004     DSP28x.lib : SCI.obj (.text:_ZN12Dsp28335_ent3SCI12get_tx_countEv)
                  000b17ed    00000004     DSP2837x_ent.lib : Delay.obj (.text:_ZN12Dsp28335_ent5Delay7ns_by_5Ej)
                  000b17f1    00000004     veronte.lib : Halsuite_amz.obj (.text:_ZN12Dsp28335_ent5GPIOv3setEb)
                  000b17f5    00000004                 : Halsuite_amz.obj (.text:_ZN12Dsp28335_ent5GPIOv6set_hiEv)
                  000b17f9    00000004                 : Halsuite_amz.obj (.text:_ZN12Dsp28335_ent5GPIOv6set_loEv)
                  000b17fd    00000004                 : Halsuite_amz.obj (.text:_ZN12Dsp28335_ent5GPIOv6toggleEv)
                  000b1801    00000004     DSP2837x_ent.lib : Cpusys.obj (.text:_ZN12Dsp28335_ent6CpusysC1Ev)
                  000b1805    00000004                      : Devcfg.obj (.text:_ZN12Dsp28335_ent6DevcfgC1Ev)
                  000b1809    00000004                      : Clkcfgb.obj (.text:_ZN12Dsp28335_ent7ClkcfgbC1Ev)
                  000b180d    00000004                      : Piectrl.obj (.text:_ZN12Dsp28335_ent7PiectrlC1Ev)
                  000b1811    00000004     veronte.lib : Sysaddr_cpu1.obj (.text:_ZN3Bsp11get_vsmaddrEv)
                  000b1815    00000004                 : Sysaddr_cpu1.obj (.text:_ZN3Bsp17get_addr_locationEv)
                  000b1819    00000004                 : Hauth_connections_cpu1.obj (.text:_ZN3Ver17Hauth_connections15get_connectionsEv)
                  000b181d    00000004                 : Hsys_cpu1.obj (.text:_ZN3Ver4Hsys10get_pctimeEv)
                  000b1821    00000004                 : Hsys.obj (.text:_ZN3Ver4Hsys11get_kpctimeEv)
                  000b1825    00000004                 : Hsys.obj (.text:_ZN3Ver4Hsys13get_kgnsstimeEv)
                  000b1829    00000004                 : Rtaskio.obj (.text:_ZN3Ver7Rtaskio5startEb)
                  000b182d    00000004     base.lib : Cfgid_mode.obj (.text:_ZN4Base10Cfgid_mode4initEv)
                  000b1831    00000004              : Field_cfg.obj (.text:_ZN4Base10Cksum_modn11update_byteEh)
                  000b1835    00000004              : Vrefdstbuff.obj (.text:_ZN4Base11Vrefdstbuff4vsetERKNS_12U8pkmblock_kE)
                  000b1839    00000004              : Vrefdstbuff.obj (.text:_ZN4Base11Vrefdstbuff4vsetERKNS_4FrefE)
                  000b183d    00000004              : Vrefdstbuff.obj (.text:_ZN4Base11Vrefdstbuff4vsetERKNS_4Iset4DataINS_6R64varEeEE)
                  000b1841    00000004              : Vrefdstbuff.obj (.text:_ZN4Base11Vrefdstbuff4vsetERKNS_7Vref_wrE)
                  000b1845    00000004              : Vrefdstbuff.obj (.text:_ZN4Base11Vrefdstbuff4vsetERKNS_8Hbmapvar3RefE)
                  000b1849    00000004              : Datalink_transmitter.obj (.text:_ZN4Base20Datalink_transmitterC1ERNS_15Datalink_bufferE)
                  000b184d    00000004              : Spkt.obj (.text:_ZN4Base5CRC325resetEv)
                  000b1851    00000004              : Spkt.obj (.text:_ZN4Base5Cksum11update_byteEh)
                  000b1855    00000004              : Field.obj (.text:_ZN4Base5Field21set_apos_serializatorERNS0_18Iapos_serializatorE)
                  000b1859    00000004              : Fstr1.obj (.text:_ZN4Base5Fstr14csetERNS_11Lossy_errorE)
                  000b185d    00000004     veronte.lib : Veronte.obj (.text:_ZN4Base5ItaskC1Ev)
                  000b1861    00000004     media.lib : Filecom.obj (.text:_ZN4Base5ItaskC2Ev)
                  000b1865    00000004     first.lib : Lossy.obj (.text:_ZN4Base5Lossy14turnback_bytesEm)
                  000b1869    00000004     veronte.lib : Xpccansuite.obj (.text:_ZN4Base5TportIN12Dsp28335_ent3CANES2_NS_8CANframeES3_E4readERS3_)
                  000b186d    00000004                 : Xpccansuite.obj (.text:_ZN4Base5TportIN12Dsp28335_ent3CANES2_NS_8CANframeES3_E5writeERKS3_)
                  000b1871    00000004                 : Halsuite_amz.obj (.text:_ZN4Base5TportIN12Dsp28335_ent3SPIES2_jjE4readERj)
                  000b1875    00000004                 : Halsuite_amz.obj (.text:_ZN4Base5TportIN12Dsp28335_ent3SPIES2_jjE5writeEj)
                  000b1879    00000004                 : Halsuite_amz.obj (.text:_ZN4Base5TportIN12Dsp28335_ent5McbspES2_jjE4readERj)
                  000b187d    00000004                 : Halsuite_amz.obj (.text:_ZN4Base5TportIN12Dsp28335_ent5McbspES2_jjE5writeEj)
                  000b1881    00000004                 : Xpccansuite.obj (.text:_ZN4Base5TportIN12Dsp28335_ent6CAN_FDES2_NS_8CANframeES3_E4readERS3_)
                  000b1885    00000004                 : Xpccansuite.obj (.text:_ZN4Base5TportIN12Dsp28335_ent6CAN_FDES2_NS_8CANframeES3_E5writeERKS3_)
                  000b1889    00000004     base.lib : CRCmav.obj (.text:_ZN4Base6CRCmav11update_byteEh)
                  000b188d    00000004              : CRCmav.obj (.text:_ZN4Base6CRCmav5resetEv)
                  000b1891    00000004     veronte.lib : Xpcu8suite.obj (.text:_ZN4Base6ComConIN12Dsp28335_ent3SCIEE10connect_rxEb)
                  000b1895    00000004                 : Xpcu8suite.obj (.text:_ZN4Base6ComConIN12Dsp28335_ent3SCIEE10connect_txEb)
                  000b1899    00000004                 : Xpccansuite.obj (.text:_ZN4Base7CANin_p4readERNS_8CANframeE)
                  000b189d    00000004                 : Xpccansuite.obj (.text:_ZN4Base8CANout_c5writeERKNS_8CANframeE)
                  000b18a1    00000004     first.lib : PDIcheck.obj (.text:_ZN4Base8PDIcheck8set_fifoEPNS_17Fifospscwr_commitIVjNS_10SPSCtraits8ExternalENS3_12Internal_refEEE)
                  000b18a5    00000004     midlevel.lib : Cmdmgr.obj (.text:_ZN4Base8TwraptunINS_9Tuntraits15Arraytun_nosizeINS1_7Lossy16IjEENS_6MblockIjEENS1_8No_checkIS6_EEEES6_E4csetERNS_11Lossy_errorE)
                  000b18a9    00000004                  : Conf_check_query.obj (.text:_ZN6Cyphal19CyphalStanag_rx_hnd9step_taskEv)
                  000b18ad    00000004     stanag.lib : Auth_request.obj (.text:_ZN6Stanag12Auth_request15get_kconnectionEN4Base7AddressE)
                  000b18b1    00000004     veronte.lib : Veronte.obj (.text:_ZN6Stanag13Stanag_msg_rx9step_taskEv)
                  000b18b5    00000004                 : Veronte.obj (.text:_ZN6Stanag14IStanag_msg_rxC1Ev)
                  000b18b9    00000004     stanag.lib : IConnection_getter.obj (.text:_ZN6Stanag18IConnection_getter8Iterator15next_connectionEv)
                  000b18bd    00000004                : IConnection_getter.obj (.text:_ZN6Stanag18IConnection_getter8Iterator18next_disconnectionEv)
                  000b18c1    00000004     midlevel.lib : Secure_CAN.obj (.text:_ZN7Devices10Secure_CAN8CAN_wrapIN12Dsp28335_ent3CANEE12clear_tx_mbsEv)
                  000b18c5    00000004                  : Secure_CAN.obj (.text:_ZN7Devices10Secure_CAN8CAN_wrapIN12Dsp28335_ent3CANEE5writeERKN4Base8CANframeE)
                  000b18c9    00000004                  : Secure_CAN.obj (.text:_ZN7Devices10Secure_CAN8CAN_wrapIN12Dsp28335_ent6CAN_FDEE12clear_tx_mbsEv)
                  000b18cd    00000004                  : Secure_CAN.obj (.text:_ZN7Devices10Secure_CAN8CAN_wrapIN12Dsp28335_ent6CAN_FDEE5writeERKN4Base8CANframeE)
                  000b18d1    00000004     devices.lib : Sim_noise.obj (.text:_ZN7Devices9Sim_noiseC1EfNS0_9NoiseTypeE)
                  000b18d5    00000004     veronte.lib : Xcd_cpu1.obj (.text:_ZN9Pa_blocks12Measurements3ImuC1Ev)
                  000b18d9    00000004                 : Halsuite_amz.obj (.text:_ZNK12Dsp28335_ent5GPIOv3getEv)
                  000b18dd    00000004                 : Halsuite_amz.obj (.text:_ZNK12Dsp28335_ent9DMAmp_blkIjE16transfer_runningEv)
                  000b18e1    00000004                 : Halsuite_amz.obj (.text:_ZNK12Dsp28335_ent9DMApm_blkIjE16transfer_runningEv)
                  000b18e5    00000004     base.lib : Field_cfg.obj (.text:_ZNK4Base14Cksum_sagetech9get_valueEv)
                  000b18e9    00000004     veronte.lib : Veronte_dsp.obj (.text:_ZNK4Base5RngitIN3Ver11Xpcu8_trait2XC3IdxEE12pending_sizeEv)
                  000b18ed    00000004                 : Veronte_dsp.obj (.text:_ZNK4Base5RngitIN3Ver11Xpcu8_trait2XP3IdxEE12pending_sizeEv)
                  000b18f1    00000004     base.lib : Fmsgchecker.obj (.text:_ZNK4Base5RngitINS_4BvarEE12pending_sizeEv)
                  000b18f5    00000004     veronte.lib : Xpcu8suite.obj (.text:_ZNK4Base5RngitIjE12pending_sizeEv)
                  000b18f9    00000004                 : Xpccansuite.obj (.text:_ZNK4Base5TportIN12Dsp28335_ent3CANES2_NS_8CANframeES3_E12wr_availableEv)
                  000b18fd    00000004                 : Halsuite_amz.obj (.text:_ZNK4Base5TportIN12Dsp28335_ent5McbspES2_jjE12wr_availableEv)
                  000b1901    00000004                 : Xpccansuite.obj (.text:_ZNK4Base5TportIN12Dsp28335_ent6CAN_FDES2_NS_8CANframeES3_E12wr_availableEv)
                  000b1905    00000004     base.lib : CRCmav.obj (.text:_ZNK4Base6CRCmav9get_nbitsEv)
                  000b1909    00000004     midlevel.lib : Cmdmgr.obj (.text:_ZNK4Base8TwraptunINS_9Tuntraits15Arraytun_nosizeINS1_7Lossy16IjEENS_6MblockIjEENS1_8No_checkIS6_EEEES6_E4cgetERNS_5LossyE)
                  000b190d    00000004     devices.lib : ADC121C021Q.obj (.text:_ZNK7Devices11ADC121C021Q10get_periodEv)
                  000b1911    00000004                 : MX66L.obj (.text:_ZNK7Devices5MX66L15get_sector_sizeEv)
                  000b1915    00000004                 : MX66L.obj (.text:_ZNK7Devices5MX66L16get_sector_countEv)
                  000b1919    00000004     veronte.lib : Maps_updater.obj (.text:_ZThn2_N3Ver12Maps_updater5on_rxERN6Stanag14IStanag_msg_rx9Rx_paramsE)
                  000b191d    00000004                 : Can4x.obj (.text:_ZThn2_N3Ver5Can4x5writeERKN4Base8CANframeE)
                  000b1921    00000004                 : Bitmgr.obj (.text:_ZThn2_N3Ver6Bitmgr4csetERN4Base11Lossy_errorE)
                  000b1925    00000004                 : Licmgr.obj (.text:_ZThn2_N3Ver6Licmgr4csetERN4Base11Lossy_errorE)
                  000b1929    00000004                 : Isensimrx.obj (.text:_ZThn2_N3Ver9Isensimrx5on_rxERN6Stanag14IStanag_msg_rx9Rx_paramsE)
                  000b192d    00000004                 : Xpccansuite.obj (.text:_ZThn2_N4Base12FcanproducerINS_8Xcfg_desINS_15Xfmsgcanp0arrayILj0EEENS_9Tuntraits10DesdefaultIS3_EEEEE10send_cmdtxEj)
                  000b1931    00000004     base.lib : Fmsgproducer.obj (.text:_ZThn2_N4Base12Fmsgproducer10send_cmdtxEj)
                  000b1935    00000004     veronte.lib : Xpcu8suite.obj (.text:_ZThn2_N4Base6ComConIN12Dsp28335_ent3SCIEED0Ev)
                  000b1939    00000004     base.lib : Taskmgr.obj (.text:_ZThn2_N4Base7Taskmgr4stepEv)
                  000b193d    00000004              : CANserial.obj (.text:_ZThn2_N4Base9CANserial4readERh)
                  000b1941    00000004              : SerialCAN.obj (.text:_ZThn2_N4Base9SerialCAN4readERNS_8CANframeE)
                  000b1945    00000004     media.lib : Fdr.obj (.text:_ZThn2_N5Media3Fdr5on_txERN6Stanag14IStanag_msg_tx9Tx_paramsE)
                  000b1949    00000004     midlevel.lib : CyphalCAN_in.obj (.text:_ZThn2_N6Cyphal12CyphalCAN_in4readERh)
                  000b194d    00000004                  : CyphalCAN_out.obj (.text:_ZThn2_N6Cyphal13CyphalCAN_out4readERN4Base8CANframeE)
                  000b1951    00000004                  : Cyphal_tx_mgr.obj (.text:_ZThn2_N6Cyphal13Cyphal_tx_mgr4sendERN4Base5EspktE)
                  000b1955    00000004     veronte.lib : Rtaskio_amz.obj (.text:_ZThn2_N6Cyphal13Cyphal_tx_mgrD0Ev)
                  000b1959    00000004     midlevel.lib : CyphalStanag_rx_hnd.obj (.text:_ZThn2_N6Cyphal19CyphalStanag_rx_hnd5on_rxERN6Stanag14IStanag_msg_rx9Rx_paramsE)
                  000b195d    00000004     stanag.lib : Auth_request.obj (.text:_ZThn2_N6Stanag12Auth_request5on_rxERNS_14IStanag_msg_rx9Rx_paramsE)
                  000b1961    00000004                : Fly_term_cmd.obj (.text:_ZThn2_N6Stanag12Fly_term_cmd5on_rxERNS_14IStanag_msg_rx9Rx_paramsE)
                  000b1965    00000004                : Stanag_msg_mgr.obj (.text:_ZThn2_N6Stanag14Stanag_msg_mgr4stepEv)
                  000b1969    00000004                : Auth_handover_req.obj (.text:_ZThn2_N6Stanag17Auth_handover_req5on_rxERNS_14IStanag_msg_rx9Rx_paramsE)
                  000b196d    00000004                : Schedule_msg_updt.obj (.text:_ZThn2_N6Stanag17Schedule_msg_updt5on_rxERNS_14IStanag_msg_rx9Rx_paramsE)
                  000b1971    00000004     midlevel.lib : Irxfw.obj (.text:_ZThn2_N8Midlevel5Irxfw2Fw5on_txERN6Stanag14IStanag_msg_tx9Tx_paramsE)
                  000b1975    00000004                  : Irxfw.obj (.text:_ZThn2_N8Midlevel5Irxfw2Fw6notifyERKN4Base8Msg_dataE)
                  000b1979    00000004                  : Cmdmgr.obj (.text:_ZThn2_N8Midlevel6Cmdmgr9on_rx_pktERN6Stanag14IStanag_rx_pkt6ParamsE)
                  000b197d    00000004                  : Sniffer.obj (.text:_ZThn2_N8Midlevel7Sniffer5on_rxERN6Stanag14IStanag_msg_rx9Rx_paramsE)
                  000b1981    00000004                  : Sysreset.obj (.text:_ZThn2_N8Midlevel8Sysreset9step_taskEv)
                  000b1985    00000004     pa_blocks.lib : Cy_maint_action.obj (.text:_ZThn2_N9Pa_blocks15Cy_maint_action5on_rxERN6Stanag14IStanag_msg_rx9Rx_paramsE)
                  000b1989    00000004                   : Cy_maint_dcomms.obj (.text:_ZThn2_N9Pa_blocks15Cy_maint_dcomms4csetERN4Base9U8istreamE)
                  000b198d    00000004     veronte.lib : Xpccansuite.obj (.text:_ZThn2_NK4Base10FcanmsgmgrINS_12Xfmsgcan_hdlILj0ELj0ELj0EE14Xfmsgcan_arrayINS_8Xcfg_desINS_15Xfmsgcanp0arrayILj0EEENS_9Tuntraits10DesdefaultIS6_EEEEEENS3_INS4_INS_15Xfmsgcanc0arrayILj0ELj0EEENS7_15Arraytun_size16INS7_9Cset_onlyINS_10Xfmsgcanc0ILj0EEEEESD_NS7_8No_checkISD_EEEEEEEEE4cgetERNS_5LossyE)
                  000b1991    00000004     base.lib : Fmsgmgr.obj (.text:_ZThn2_NK4Base7Fmsgmgr4cgetERNS_5LossyE)
                  000b1995    00000004     midlevel.lib : Cy_mode_transition_allowed.obj (.text:_ZThn2_NK8Midlevel26Cy_mode_transition_allowed4cgetERN4Base9U8ostreamE)
                  000b1999    00000004     veronte.lib : Maps_updater.obj (.text:_ZThn4_N3Ver12Maps_updaterD0Ev)
                  000b199d    00000004     base.lib : Fmsgmgr.obj (.text:_ZThn4_N4Base7Fmsgmgr4stepEv)
                  000b19a1    00000004     media.lib : Fdr.obj (.text:_ZThn4_N5Media3Fdr9on_rx_pktERN6Stanag14IStanag_rx_pkt6ParamsE)
                  000b19a5    00000004               : Fdr.obj (.text:_ZThn4_N5Media3Fdr9step_taskEv)
                  000b19a9    00000004               : Filecom.obj (.text:_ZThn4_N5Media7Filecom5on_rxERN6Stanag14IStanag_msg_rx9Rx_paramsE)
                  000b19ad    00000004               : Discovery.obj (.text:_ZThn4_N5Media9Discovery5on_rxERN6Stanag14IStanag_msg_rx9Rx_paramsE)
                  000b19b1    00000004               : HformatSD.obj (.text:_ZThn4_N5Media9HformatSD5on_txERN6Stanag14IStanag_msg_tx9Tx_paramsE)
                  000b19b5    00000004     midlevel.lib : Cyphal_tx_mgr.obj (.text:_ZThn4_N6Cyphal13Cyphal_tx_mgr4stepEv)
                  000b19b9    00000004                  : Cyphal_tx_mgr.obj (.text:_ZThn4_N6Cyphal13Cyphal_tx_mgr5writeERN4Base5EspktE)
                  000b19bd    00000004     veronte.lib : Rtaskio_amz.obj (.text:_ZThn4_N6Cyphal13Cyphal_tx_mgrD0Ev)
                  000b19c1    00000004     stanag.lib : Stanag_port.obj (.text:_ZThn4_N6Stanag11Stanag_port5writeEh)
                  000b19c5    00000004                : Auth_request.obj (.text:_ZThn4_N6Stanag12Auth_request14get_connectionEN4Base7AddressE)
                  000b19c9    00000004                : Auth_request.obj (.text:_ZThn4_N6Stanag12Auth_request14get_connectionEN4Base8Fly_mode4ModeE)
                  000b19cd    00000004                : Acknowledgement.obj (.text:_ZThn4_N6Stanag15Acknowledgement5on_rxERNS_14IStanag_msg_rx9Rx_paramsE)
                  000b19d1    00000004                : Auth_handover_req.obj (.text:_ZThn4_N6Stanag17Auth_handover_req5on_txERNS_14IStanag_msg_tx9Tx_paramsE)
                  000b19d5    00000004                : Auth_handover_req.obj (.text:_ZThn4_N6Stanag17Auth_handover_req6notifyERKN4Base8Msg_dataE)
                  000b19d9    00000004                : Schedule_msg_updt.obj (.text:_ZThn4_N6Stanag17Schedule_msg_updt4stepEv)
                  000b19dd    00000004                : Auth_handover_grant.obj (.text:_ZThn4_N6Stanag19Auth_handover_grant5on_rxERNS_14IStanag_msg_rx9Rx_paramsE)
                  000b19e1    00000004     midlevel.lib : Irxfw.obj (.text:_ZThn4_N8Midlevel5Irxfw2Fw4sendERKN4Base4SpktE)
                  000b19e5    00000004                  : Cmdmgr.obj (.text:_ZThn4_N8Midlevel6Cmdmgr10fw_commandEhN4Base3Cfg2IdERKNS1_8ItunableE)
                  000b19e9    00000004                  : Cmdmgr.obj (.text:_ZThn4_N8Midlevel6Cmdmgr3addEN4Base3Cfg2IdERNS1_8ItunableE)
                  000b19ed    00000004                  : Comstats.obj (.text:_ZThn4_N8Midlevel8Comstats5on_rxERN6Stanag14IStanag_msg_rx9Rx_paramsE)
                  000b19f1    00000004                  : Sysreset.obj (.text:_ZThn4_N8Midlevel8Sysreset5on_rxERN6Stanag14IStanag_msg_rx9Rx_paramsE)
                  000b19f5    00000004     pa_blocks.lib : Cy_maint_action.obj (.text:_ZThn4_N9Pa_blocks15Cy_maint_action10on_tx_implERN6Stanag14IStanag_msg_tx9Tx_paramsE)
                  000b19f9    00000004     veronte.lib : Maps_updater.obj (.text:_ZThn4_NK3Ver12Maps_updater14update_allowedEv)
                  000b19fd    00000004                 : Bitmgr.obj (.text:_ZThn4_NK3Ver6Bitmgr4cgetERN4Base5LossyE)
                  000b1a01    00000004                 : Licmgr.obj (.text:_ZThn4_NK3Ver6Licmgr4cgetERN4Base5LossyE)
                  000b1a05    00000004                 : Maps_updater.obj (.text:_ZThn6_N3Ver12Maps_updater5on_txERN6Stanag14IStanag_msg_tx9Tx_paramsE)
                  000b1a09    00000004     media.lib : Filecom.obj (.text:_ZThn6_N5Media7Filecom4stepEv)
                  000b1a0d    00000004     midlevel.lib : Irxfw.obj (.text:_ZThn6_N8Midlevel5Irxfw2Fw4sendEN4Base15Stanag_msg_type8Msg_typeE)
                  000b1a11    00000004                  : Cmdmgr.obj (.text:_ZThn6_N8Midlevel6Cmdmgr7executeERKN4Base6ActionE)
                  000b1a15    00000004                  : Comstats.obj (.text:_ZThn6_N8Midlevel8Comstats4stepEv)
                  000b1a19    00000004                  : Comstats.obj (.text:_ZThn6_N8Midlevel8Comstats6add_rxERKN4Base7AddressE)
                  000b1a1d    00000004                  : Comstats.obj (.text:_ZThn6_N8Midlevel8Comstats6add_txERKN4Base7AddressE)
                  000b1a21    00000004     veronte.lib : Licmgr.obj (.text:_ZThn6_NK3Ver6Licmgr11get_licdataERN5Media7LicdataE)
                  000b1a25    00000004     media.lib : HformatSD.obj (.text:_ZThn8_N5Media9HformatSD5on_rxERN6Stanag14IStanag_msg_rx9Rx_paramsE)
                  000b1a29    00000004     rts2800_fpu64_eabi.lib : pure_virt.c.obj (.text)
                  000b1a2d    00000003     DSP28x.lib : DMAtrigger.obj (.text:_ZN12Dsp28335_ent10DMAtriggerC1ENS0_2IdEPVj)
                  000b1a30    00000003                : SCI.obj (.text:_ZN12Dsp28335_ent10ISCI_ioctlD0Ev)
                  000b1a33    00000003                : SCI.obj (.text:_ZN12Dsp28335_ent3SCID0Ev)
                  000b1a36    00000003     DSP2838x_ent.lib : Emif1_2838x.obj (.text:_ZN12Dsp28335_ent5Emif114get_emif1_regsEv)
                  000b1a39    00000003                      : Emif1_2838x.obj (.text:_ZN12Dsp28335_ent5Emif121get_emif1_config_regsEv)
                  000b1a3c    00000003                      : CAN_FD.obj (.text:_ZN12Dsp28335_ent6CAN_FD6configERKNS_10CAN_FD_cfgE)
                  000b1a3f    00000003     DSP2837x_ent.lib : System_cpu1.obj (.text:_ZN12Dsp28335_ent6System9cpu_resetEv)
                  000b1a42    00000003     DSP28x.lib : I2Cdevice.obj (.text:_ZN12Dsp28335_ent9I2CdeviceD0Ev)
                  000b1a45    00000003     veronte.lib : Maps_updater.obj (.text:_ZN3Ver12Maps_updaterD0Ev)
                  000b1a48    00000003                 : Vfspermission.obj (.text:_ZN3Ver13VfspermissionD0Ev)
                  000b1a4b    00000003                 : CPU1_CM_shared.obj (.text:_ZN3Ver13get_shared_cmEv)
                  000b1a4e    00000003                 : Apos_serializator.obj (.text:_ZN3Ver17Apos_serializatorD0Ev)
                  000b1a51    00000003                 : Halsuite_amz.obj (.text:_ZN3Ver8Halsuite12get_instanceEv)
                  000b1a54    00000003     Vmain_cpu1.obj (.text:_ZN3Ver8Halsuite4stepEv)
                  000b1a57    00000003     base.lib : Field_cfg.obj (.text:_ZN4Base10Cksum_modn5resetEv)
                  000b1a5a    00000003              : FMCP_varmgr.obj (.text:_ZN4Base11FMCP_varmgrD0Ev)
                  000b1a5d    00000003              : Fmsgchecker.obj (.text:_ZN4Base11FmsgcheckerD0Ev)
                  000b1a60    00000003     veronte.lib : Xpcu8suite.obj (.text:_ZN4Base11Iconnect_rxD0Ev)
                  000b1a63    00000003                 : Xpcu8suite.obj (.text:_ZN4Base11Iconnect_txD0Ev)
                  000b1a66    00000003     media.lib : Logctrl.obj (.text:_ZN4Base11IlogcontrolD0Ev)
                  000b1a69    00000003     veronte.lib : Veronte.obj (.text:_ZN4Base11Imaint_modeD0Ev)
                  000b1a6c    00000003     stanag.lib : Stanag_msg_mgr.obj (.text:_ZN4Base11Imsg_senderD0Ev)
                  000b1a6f    00000003     base.lib : Fmsgchecker.obj (.text:_ZN4Base11ImsgcheckerD0Ev)
                  000b1a72    00000003     veronte.lib : Rtaskio_amz.obj (.text:_ZN4Base11Ipkt_senderD0Ev)
                  000b1a75    00000003                 : Veronte.obj (.text:_ZN4Base12ITemp_getterD0Ev)
                  000b1a78    00000003                 : Halsuite_amz.obj (.text:_ZN4Base13Tport_w_r_blkIjjE4readEj)
                  000b1a7b    00000003     base.lib : Address_handler_generic.obj (.text:_ZN4Base16IAddress_handlerD0Ev)
                  000b1a7e    00000003              : Fmsgconsumer.obj (.text:_ZN4Base20Message_received_hnd7BuilderD0Ev)
                  000b1a81    00000003              : Address_handler_generic.obj (.text:_ZN4Base23Address_handler_genericD0Ev)
                  000b1a84    00000003              : CRC.obj (.text:_ZN4Base3CRC5resetEv)
                  000b1a87    00000003     midlevel.lib : CyphalCAN_in.obj (.text:_ZN4Base5ArrayIN6Cyphal12CyphalCAN_in16Cy_msg_triggeredEEC2EmRNS_9AllocatorE)
                  000b1a8a    00000003                  : CyphalCAN_in.obj (.text:_ZN4Base5ArrayIN6Cyphal15Cyphal_msg_dataEEC2EmRNS_9AllocatorE)
                  000b1a8d    00000003     stanag.lib : Stanag_msg_mgr.obj (.text:_ZN4Base5ArrayINS_8Msg_dataEEC2EmNS_6Memmgr4TypeE)
                  000b1a90    00000003     base.lib : Taskmgr.obj (.text:_ZN4Base5ArrayINS_9TaskentryEEC2EmNS_6Memmgr4TypeE)
                  000b1a93    00000003     first.lib : Vstring.obj (.text:_ZN4Base5ArrayIcEC2EPcm)
                  000b1a96    00000003     maverick.lib : Rvector.obj (.text:_ZN4Base5ArrayIfEC2EPfm)
                  000b1a99    00000003     base.lib : Spkt.obj (.text:_ZN4Base5Cksum5resetEv)
                  000b1a9c    00000003     veronte.lib : Apos_serializator.obj (.text:_ZN4Base5Field18Iapos_serializatorD0Ev)
                  000b1a9f    00000003     base.lib : FMCPmgr.obj (.text:_ZN4Base5IFMCPD0Ev)
                  000b1aa2    00000003     DFS2.lib : DSF2_file.obj (.text:_ZN4Base5IfileD0Ev)
                  000b1aa5    00000003     veronte.lib : Xpcu8suite.obj (.text:_ZN4Base6ComConIN12Dsp28335_ent3SCIEED0Ev)
                  000b1aa8    00000003                 : Xpccansuite.obj (.text:_ZN4Base6ItportINS_8CANframeES1_EC2Ev)
                  000b1aab    00000003                 : Halsuite_amz.obj (.text:_ZN4Base6ItportIhhEC2Ev)
                  000b1aae    00000003                 : Halsuite_amz.obj (.text:_ZN4Base6ItportIjjEC2Ev)
                  000b1ab1    00000003     base.lib : Vardst.obj (.text:_ZN4Base6Vardst3setENS_3FidERKNS_7FeatureE)
                  000b1ab4    00000003              : Vardst.obj (.text:_ZN4Base6Vardst3setENS_4BvarEb)
                  000b1ab7    00000003              : Vardst.obj (.text:_ZN4Base6Vardst3setENS_4RvarEf)
                  000b1aba    00000003              : Vardst.obj (.text:_ZN4Base6Vardst3setENS_4UvarEj)
                  000b1abd    00000003              : Vardst.obj (.text:_ZN4Base6Vardst3setENS_8Bvar_mapERKNS_8Hbmapvar4TypeE)
                  000b1ac0    00000003     veronte.lib : Hvar_cpu1.obj (.text:_ZN4Base6XcmvarINS_3FidENS_9Tuntraits10U16strCxetINS_7FeatureEEEE7BuilderD0Ev)
                  000b1ac3    00000003                 : Hvar_cpu1.obj (.text:_ZN4Base6XcmvarINS_4BvarENS_9Tuntraits10U16bool_16IbEEE7BuilderD0Ev)
                  000b1ac6    00000003                 : Hvar_cpu1.obj (.text:_ZN4Base6XcmvarINS_4RvarENS_9Tuntraits12U16str_floatEE7BuilderD0Ev)
                  000b1ac9    00000003                 : Hvar_cpu1.obj (.text:_ZN4Base6XcmvarINS_4UvarENS_9Tuntraits9U16str_16IjEEE7BuilderD0Ev)
                  000b1acc    00000003                 : Hvar_cpu1.obj (.text:_ZN4Base6XcmvarINS_8Bvar_mapENS_9Tuntraits10U16strCxetINS_8Hbmapvar4TypeEEEE7BuilderD0Ev)
                  000b1acf    00000003                 : Veronte.obj (.text:_ZN4Base7StepperIN3Ver8HalsuiteEXadL_ZNS2_4stepEvEEED0Ev)
                  000b1ad2    00000003                 : Xcd_cpu1.obj (.text:_ZN4Base8CANout_c6ConfigC1Ev)
                  000b1ad5    00000003     stanag.lib : Stanag_msg_mgr.obj (.text:_ZN4Base8FifospscINS_8Msg_dataEEC2EmNS_6Memmgr4TypeE)
                  000b1ad8    00000003                : Stanag_msg_mgr.obj (.text:_ZN4Base8Imsg_mgrD0Ev)
                  000b1adb    00000003     base.lib : FMCP_null.obj (.text:_ZN4Base9FMCP_nullD0Ev)
                  000b1ade    00000003     veronte.lib : Veronte.obj (.text:_ZN4Base9Fifo_portINS_11Fifo_sharedINS_11Spkt_bufferELj2EE6WriterENS3_6ReaderEED0Ev)
                  000b1ae1    00000003                 : Rtaskio_amz.obj (.text:_ZN4Base9Ipkt_portD0Ev)
                  000b1ae4    00000003                 : Hvar_cpu1.obj (.text:_ZN4Base9IstrbuildD0Ev)
                  000b1ae7    00000003                 : Maps_updater.obj (.text:_ZN5Media10IupdatableD0Ev)
                  000b1aea    00000003                 : Vfspermission.obj (.text:_ZN5Media13IfspermissionD0Ev)
                  000b1aed    00000003     media.lib : Maint_mode_bl.obj (.text:_ZN5Media13Maint_mode_blD0Ev)
                  000b1af0    00000003               : Logctrl.obj (.text:_ZN5Media7LogctrlD0Ev)
                  000b1af3    00000003     base.lib : Cyphal.obj (.text:_ZN6Cyphal10Cyphal_msg4copyERKS0_)
                  000b1af6    00000003     midlevel.lib : Cyphal_tx_mgr.obj (.text:_ZN6Cyphal13Cyphal_tx_mgrD0Ev)
                  000b1af9    00000003     stanag.lib : Stanag_port.obj (.text:_ZN6Stanag11Stanag_portD0Ev)
                  000b1afc    00000003                : Stanag_msg_mgr.obj (.text:_ZN6Stanag14Stanag_msg_mgrD0Ev)
                  000b1aff    00000003                : Stanag_status_msgs.obj (.text:_ZN6Stanag19Ispecial_conversionD0Ev)
                  000b1b02    00000003                : Stanag_status_msgs.obj (.text:_ZN6Stanag23Special_conversion_nullD0Ev)
                  000b1b05    00000003                : Stanag_msg_mgr.obj (.text:_ZN6Stanag8Msg_fifoD0Ev)
                  000b1b08    00000003     devices.lib : ADC121C021Q.obj (.text:_ZN7Devices11ADC121C021Q6set_okEb)
                  000b1b0b    00000003                 : LMT86.obj (.text:_ZN7Devices5LMT86D0Ev)
                  000b1b0e    00000003                 : Ntcs0603.obj (.text:_ZN7Devices8Ntcs0603D0Ev)
                  000b1b11    00000003     maverick.lib : IIR_2.obj (.text:_ZN8Maverick5IIR_26CoeffsC1Ev)
                  000b1b14    00000003     midlevel.lib : Irxfw.obj (.text:_ZN8Midlevel32_GLOBAL__N__9_Irxfw_cpp_16a35c0e12IrxfwbuilderD0Ev)
                  000b1b17    00000003                  : Irxfw.obj (.text:_ZN8Midlevel32_GLOBAL__N__9_Irxfw_cpp_16a35c0e13NotifybuilderD0Ev)
                  000b1b1a    00000003     pa_blocks.lib : Cy_maint_action.obj (.text:_ZN9Pa_blocks15Cy_maint_action6notifyERKN4Base8Msg_dataE)
                  000b1b1d    00000003     DSP28x.lib : I2Cif.obj (.text:_ZNK12Dsp28335_ent5I2Cif6get_idEv)
                  000b1b20    00000003     DSP2838x_ent.lib : PMbusdrv_drv.obj (.text:_ZNK12Dsp28335_ent9PMbus_drv5is_okEv)
                  000b1b23    00000003     geomodel.lib : Tecef.obj (.text:_ZNK3Geo5Tecef9get_wgs84ERN4Base4TllhE)
                  000b1b26    00000003     veronte.lib : Maps_updater.obj (.text:_ZNK3Ver12Maps_updater14update_allowedEv)
                  000b1b29    00000003     base.lib : CRC.obj (.text:_ZNK4Base3CRC9get_nbitsEv)
                  000b1b2c    00000003              : Spkt.obj (.text:_ZNK4Base5CRC329get_valueEv)
                  000b1b2f    00000003     DFS2.lib : DSF2_file.obj (.text:_ZNK4DFS24File4tellEv)
                  000b1b32    00000003              : DSF2_file.obj (.text:_ZNK4DFS24File9is_openedEv)
                  000b1b35    00000003     devices.lib : ADC121C021Q.obj (.text:_ZNK7Devices11ADC121C021Q16get_desired_rateEv)
                  000b1b38    00000003     base.lib : Xcfilesvc.obj (.text:_ZNVK4Base5Dsync10wr_ongoingEv)
                  000b1b3b    00000003     Vmain_cpu1.obj (.text:_ZNVK4Base5Ttime8get_ticsEv)
                  000b1b3e    00000003     base.lib : Varmgr.obj (.text:_ZThn2_N4Base6Varmgr3setENS_3FidERKNS_7FeatureE)
                  000b1b41    00000003              : Varmgr.obj (.text:_ZThn2_N4Base6Varmgr3setENS_4BvarEb)
                  000b1b44    00000003              : Varmgr.obj (.text:_ZThn2_N4Base6Varmgr3setENS_4RvarEf)
                  000b1b47    00000003              : Varmgr.obj (.text:_ZThn2_N4Base6Varmgr3setENS_4UvarEj)
                  000b1b4a    00000003              : Varmgr.obj (.text:_ZThn2_N4Base6Varmgr3setENS_8Bvar_mapERKNS_8Hbmapvar4TypeE)
                  000b1b4d    00000003     stanag.lib : Message_request.obj (.text:_ZThn2_N6Stanag15Message_request5on_rxERNS_14IStanag_msg_rx9Rx_paramsE)
                  000b1b50    00000003     media.lib : Flashtun_wr_null.obj (.text:_ZThn4_N5Media16Flashtun_wr_null5on_rxERN6Stanag14IStanag_msg_rx9Rx_paramsE)
                  000b1b53    00000003     stanag.lib : Heartbeat.obj (.text:_ZThn4_N6Stanag9Heartbeat5on_rxERNS_14IStanag_msg_rx9Rx_paramsE)
                  000b1b56    00000003     pa_blocks.lib : Cy_maint_action.obj (.text:_ZThn4_N9Pa_blocks15Cy_maint_action6notifyERKN4Base8Msg_dataE)
                  000b1b59    00000003     veronte.lib : Maps_updater.obj (.text:_ZThn4_NK3Ver12Maps_updater12is_updatableEj)
                  000b1b5c    00000003     rts2800_fpu64_eabi.lib : error.c.obj (.text)
                  000b1b5f    00000002     veronte.lib : Halsuite_amz.obj (.text:_ZN12Dsp28335_ent9DMAmp_blkIjE10get_bufferEv)
                  000b1b61    00000002                 : Halsuite_amz.obj (.text:_ZN12Dsp28335_ent9DMApm_blkIjE10get_bufferEv)
                  000b1b63    00000002                 : GPIOname_util.obj (.text:_ZN3Ver17get_gpio_i2cb_clkEv)
                  000b1b65    00000002                 : GPIOname_util.obj (.text:_ZN3Ver17get_gpio_i2cb_sdaEv)
                  000b1b67    00000002                 : GPIOname_util.obj (.text:_ZN3Ver19get_gpio_led_red_idEv)
                  000b1b69    00000002                 : Varmeas.obj (.text:_ZN3Ver7Varmeas4vsetERKN4Base12U8pkmblock_kE)
                  000b1b6b    00000002                 : Devsuite_amz.obj (.text:_ZN3Ver8Devsuite13get_sara_portEv)
                  000b1b6d    00000002                 : Devsuite_amz.obj (.text:_ZN3Ver8Devsuite14get_rtcm_port0Ev)
                  000b1b6f    00000002                 : Devsuite_amz.obj (.text:_ZN3Ver8Devsuite14get_rtcm_port1Ev)
                  000b1b71    00000002                 : Devsuite_amz.obj (.text:_ZN3Ver8Devsuite14get_vn300_portEv)
                  000b1b73    00000002                 : Devsuite_amz.obj (.text:_ZN3Ver8Devsuite17get_sara_aux_portEv)
                  000b1b75    00000002                 : Devsuite_amz.obj (.text:_ZN3Ver8Devsuite22get_internest_consumerEv)
                  000b1b77    00000002     first.lib : Dsync.obj (.text:_ZN4Base5Dsync6Reader10build_nullEv)
                  000b1b79    00000002     base.lib : Vardst.obj (.text:_ZN4Base6Vardst3setERKNS_12U8pkmblock_kE)
                  000b1b7b    00000002              : Varmgr.obj (.text:_ZN4Base6Varmgr3setERKNS_12U8pkmblock_kE)
                  000b1b7d    00000002     midlevel.lib : Cy_soft_conf_check.obj (.text:_ZN6Cyphal18Cy_soft_conf_check11get_c1_hashEv)
                  000b1b7f    00000002                  : Irxfw.obj (.text:_ZN8Midlevel5Irxfw2Fw9step_taskEv)
                  000b1b81    00000002                  : Cmdmgr.obj (.text:_ZN8Midlevel6Cmdmgr9step_taskEv)
                  000b1b83    00000002     DSP2838x_ent.lib : PMbusdrv_drv.obj (.text:_ZNK12Dsp28335_ent9PMbus_drv6get_idEv)
                  000b1b85    00000002     veronte.lib : Can4x.obj (.text:_ZNK3Ver5Can4x12wr_availableEv)
                  000b1b87    00000002     base.lib : Field_cfg.obj (.text:_ZNK4Base10Cksum_modn9get_nbitsEv)
                  000b1b89    00000002     veronte.lib : Xpccansuite.obj (.text:_ZNK4Base12FcanconsumerINS_8Xcfg_desINS_15Xfmsgcanc0arrayILj0ELj0EEENS_9Tuntraits15Arraytun_size16INS4_9Cset_onlyINS_10Xfmsgcanc0ILj0EEEEES3_NS4_8No_checkIS3_EEEEEEE12wr_availableEv)
                  000b1b8b    00000002     base.lib : Fmsgconsumer.obj (.text:_ZNK4Base12Fmsgconsumer12wr_availableEv)
                  000b1b8d    00000002              : Field_cfg.obj (.text:_ZNK4Base14Cksum_sagetech9get_nbitsEv)
                  000b1b8f    00000002              : Spkt.obj (.text:_ZNK4Base5CRC329get_nbitsEv)
                  000b1b91    00000002              : Spkt.obj (.text:_ZNK4Base5Cksum9get_nbitsEv)
                  000b1b93    00000002     veronte.lib : Devsuite_amz.obj (.text:_ZNK4Base9GPIO_null3getEv)
                  000b1b95    00000002     midlevel.lib : CyphalCAN_in.obj (.text:_ZNK6Cyphal12CyphalCAN_in12wr_availableEv)
                  000b1b97    00000002     media.lib : Licdata.obj (.text:_ZNV4Base10Permission3addEj)
                  000b1b99    00000002     veronte.lib : Xcd_priv_impl.obj (.text:_ZNV4Base6XcffrdIN9Pa_blocks12Measurements3ImuEE4initILm20EEEvRVKNS_6XcffwrIS3_XT_EEE)
                  000b1b9b    00000002                 : Xcd_priv_impl.obj (.text:_ZNV4Base6XcffrdIN9Pa_blocks18Gnss_raw_meas_fifo12Msg_buffer_tEE4initILm3EEEvRVKNS_6XcffwrIS3_XT_EEE)
                  000b1b9d    00000002                 : Xcd.obj (.text:_ZNV4Base6XcffrdINS_11Spkt_bufferEE4initILm7EEEvRVKNS_6XcffwrIS1_XT_EEE)
                  000b1b9f    00000002                 : Xcd.obj (.text:_ZNV4Base6XcffrdIjE4initILm10EEEvRVKNS_6XcffwrIjXT_EEE)
                  000b1ba1    00000002                 : Xcd.obj (.text:_ZNV4Base6XcffrdIjE4initILm1968EEEvRVKNS_6XcffwrIjXT_EEE)
                  000b1ba3    00000002                 : Xcd.obj (.text:_ZNV4Base6XcffrdIjE4initILm30000EEEvRVKNS_6XcffwrIjXT_EEE)
                  000b1ba5    00000002                 : Licmgr.obj (.text:_ZNVK4Base10Permission9get_flagsEv)
                  000b1ba7    00000002     DSP2838x_ent.lib : CAN_FD_cfg.obj (.text:_ZNVK4Base11TnarrayreszIN12Dsp28335_ent6CANcfg5RxcfgELm32EE4sizeEv)
                  000b1ba9    00000002     veronte.lib : Veronte_dsp.obj (.text:_ZNVK4Base11TnarrayreszIN6Stanag11Stanag_port8Port_cfgELm6EE4sizeEv)
                  000b1bab    00000002     midlevel.lib : Secure_CAN.obj (.text:_ZNVK4Base11TnarrayreszIN7Devices10Secure_CAN3CmdELm6EE4sizeEv)
                  000b1bad    00000002     maverick.lib : Biquad_notch_lpf_3d.obj (.text:_ZNVK4Base11TnarrayreszIN8Maverick13Biquad_iir_3dELm3EE4sizeEv)
                  000b1baf    00000002     veronte.lib : Veronte.obj (.text:_ZNVK4Base11TnarrayreszINS_19Routing_table_entryELm16EE4sizeEv)
                  000b1bb1    00000002                 : Xpcu8suite.obj (.text:_ZNVK4Base11TnarrayreszINS_3XpcIN3Ver11Xpcu8_traitEE11Xpcmap0listELm45EE4sizeEv)
                  000b1bb3    00000002                 : Xpccansuite.obj (.text:_ZNVK4Base11TnarrayreszINS_3XpcIN3Ver15Xpccantrait_verEE11Xpcmap0listELm19EE4sizeEv)
                  000b1bb5    00000002                 : Bitmgr.obj (.text:_ZNVK4Base11TnarrayreszINS_4BvarELm20EE4sizeEv)
                  000b1bb7    00000002                 : Can4x.obj (.text:_ZNVK4Base11TnarrayreszINS_5CANidELm4EE4sizeEv)
                  000b1bb9    00000002     stanag.lib : Auth_request.obj (.text:_ZNVK4Base11TnarrayreszINS_7AddressELm5EE4sizeEv)
                  000b1bbb    00000002     veronte.lib : Xpccansuite.obj (.text:_ZNVK4Base11TnarrayreszINS_7CANin_p6ConfigELm6EE4sizeEv)
                  000b1bbd    00000002                 : Xpccansuite.obj (.text:_ZNVK4Base11TnarrayreszINS_7Xpcmap0ELm19EE4sizeEv)
                  000b1bbf    00000002                 : Xpcu8suite.obj (.text:_ZNVK4Base11TnarrayreszINS_7Xpcmap0ELm45EE4sizeEv)
                  000b1bc1    00000002                 : Xpccansuite.obj (.text:_ZNVK4Base11TnarrayreszINS_8CANout_c6ConfigELm6EE4sizeEv)
                  000b1bc3    00000002                 : Xpccansuite.obj (.text:_ZNVK4Base11TnarrayreszINS_9SerialCAN6ConfigELm6EE4sizeEv)
                  000b1bc5    00000002     midlevel.lib : Cyphal_tx_mgr.obj (.text:_ZNVK4Base11TnarrayreszIPNS_10ItconsumerIN6Cyphal10Cyphal_msgEEELm3EE4sizeEv)
                  000b1bc7    00000002     base.lib : Pkt_router.obj (.text:_ZNVK4Base11TnarrayreszIPNS_9Ipkt_portELm16EE4sizeEv)
                  000b1bc9    00000002     midlevel.lib : Cmdmgr.obj (.text:_ZNVK4Base11TnarrayreszIjLm200EE4sizeEv)
                  000b1bcb    00000002     veronte.lib : Xpcu8suite.obj (.text:_ZThn2_N4Base6ComConIN12Dsp28335_ent3SCIEED1Ev)
                  000b1bcd    00000002     base.lib : Varmgr.obj (.text:_ZThn2_N4Base6Varmgr3setERKNS_12U8pkmblock_kE)
                  000b1bcf    00000002     midlevel.lib : Cyphal_tx_mgr.obj (.text:_ZThn2_N6Cyphal13Cyphal_tx_mgrD1Ev)
                  000b1bd1    00000002                  : Cmdmgr.obj (.text:_ZThn2_N8Midlevel6Cmdmgr9step_taskEv)
                  000b1bd3    00000002     veronte.lib : Can4x.obj (.text:_ZThn2_NK3Ver5Can4x12wr_availableEv)
                  000b1bd5    00000002                 : Maps_updater.obj (.text:_ZThn4_N3Ver12Maps_updaterD1Ev)
                  000b1bd7    00000002     midlevel.lib : Cyphal_tx_mgr.obj (.text:_ZThn4_N6Cyphal13Cyphal_tx_mgrD1Ev)
                  000b1bd9    00000002     DSP28x.lib : dummy_malloc.obj (.text:malloc)
                  000b1bdb    00000001                : SCI.obj (.text:_ZN12Dsp28335_ent3SCID1Ev)
                  000b1bdc    00000001     DSP2837x_ent.lib : Hdual_cpu1.obj (.text:_ZN12Dsp28335_ent5Hdual14assert_is_cpu1Ev)
                  000b1bdd    00000001     DSP28x.lib : I2Cdevice.obj (.text:_ZN12Dsp28335_ent9I2CdeviceD1Ev)
                  000b1bde    00000001     DSP2838x_ent.lib : PMbusdrv_drv.obj (.text:_ZN12Dsp28335_ent9PMbus_drv4initEv)
                  000b1bdf    00000001     DSP28x.lib : Warning.obj (.text:_ZN3Bsp13warning_assrtEb)
                  000b1be0    00000001                : Warning.obj (.text:_ZN3Bsp7warningEv)
                  000b1be1    00000001     veronte.lib : Maps_updater.obj (.text:_ZN3Ver12Maps_updater6notifyERKN4Base8Msg_dataE)
                  000b1be2    00000001                 : Maps_updater.obj (.text:_ZN3Ver12Maps_updaterD1Ev)
                  000b1be3    00000001                 : Vfspermission.obj (.text:_ZN3Ver13VfspermissionD1Ev)
                  000b1be4    00000001                 : Apos_serializator.obj (.text:_ZN3Ver17Apos_serializatorD1Ev)
                  000b1be5    00000001                 : Rtaskio_amz.obj (.text:_ZN3Ver7Rtaskio13Rtaskio_pimplD1Ev)
                  000b1be6    00000001                 : Varmeas.obj (.text:_ZN3Ver7Varmeas4vsetERKN4Base4Iset4DataINS1_6R64varEeEE)
                  000b1be7    00000001                 : Veronte_amz.obj (.text:_ZN3Ver7Veronte13Veronte_pimplD1Ev)
                  000b1be8    00000001                 : Devsuite_amz.obj (.text:_ZN3Ver8Devsuite4stepEv)
                  000b1be9    00000001     base.lib : Stimestamp.obj (.text:_ZN4Base10Stimestamp5buildEx)
                  000b1bea    00000001              : FMCP_varmgr.obj (.text:_ZN4Base11FMCP_varmgrD1Ev)
                  000b1beb    00000001              : Fmsgchecker.obj (.text:_ZN4Base11FmsgcheckerD1Ev)
                  000b1bec    00000001     veronte.lib : Xpcu8suite.obj (.text:_ZN4Base11Iconnect_rxD1Ev)
                  000b1bed    00000001                 : Xpcu8suite.obj (.text:_ZN4Base11Iconnect_txD1Ev)
                  000b1bee    00000001     media.lib : Logctrl.obj (.text:_ZN4Base11IlogcontrolD1Ev)
                  000b1bef    00000001     veronte.lib : Veronte.obj (.text:_ZN4Base11Imaint_modeD1Ev)
                  000b1bf0    00000001     stanag.lib : Stanag_msg_mgr.obj (.text:_ZN4Base11Imsg_senderD1Ev)
                  000b1bf1    00000001     base.lib : Fmsgchecker.obj (.text:_ZN4Base11ImsgcheckerD1Ev)
                  000b1bf2    00000001     midlevel.lib : Cyphal_tx_mgr.obj (.text:_ZN4Base11Ipkt_senderD1Ev)
                  000b1bf3    00000001     veronte.lib : Veronte.obj (.text:_ZN4Base12ITemp_getterD1Ev)
                  000b1bf4    00000001     base.lib : Address_handler_generic.obj (.text:_ZN4Base16IAddress_handlerD1Ev)
                  000b1bf5    00000001              : Message_received_hnd.obj (.text:_ZN4Base20Message_received_hnd7BuilderD1Ev)
                  000b1bf6    00000001              : Address_handler_generic.obj (.text:_ZN4Base23Address_handler_genericD1Ev)
                  000b1bf7    00000001     veronte.lib : Apos_serializator.obj (.text:_ZN4Base5Field18Iapos_serializatorD1Ev)
                  000b1bf8    00000001     base.lib : FMCPmgr.obj (.text:_ZN4Base5IFMCPD1Ev)
                  000b1bf9    00000001     DFS2.lib : DSF2_file.obj (.text:_ZN4Base5IfileD1Ev)
                  000b1bfa    00000001     veronte.lib : Xpcu8suite.obj (.text:_ZN4Base6ComConIN12Dsp28335_ent3SCIEED1Ev)
                  000b1bfb    00000001     base.lib : Vardst.obj (.text:_ZN4Base6Vardst3setERKNS_4Iset4DataINS_6R64varEeEE)
                  000b1bfc    00000001              : Varmgr.obj (.text:_ZN4Base6Varmgr3setERKNS_4Iset4DataINS_6R64varEeEE)
                  000b1bfd    00000001              : Varmgr.obj (.text:_ZN4Base6VarmgrD1Ev)
                  000b1bfe    00000001     veronte.lib : Hxcff_cpu1.obj (.text:_ZN4Base6XcmqwrD1Ev)
                  000b1bff    00000001                 : Hvar_cpu1.obj (.text:_ZN4Base6XcmvarINS_3FidENS_9Tuntraits10U16strCxetINS_7FeatureEEEE7BuilderD1Ev)
                  000b1c00    00000001                 : Hvar_cpu1.obj (.text:_ZN4Base6XcmvarINS_4BvarENS_9Tuntraits10U16bool_16IbEEE7BuilderD1Ev)
                  000b1c01    00000001                 : Hvar_cpu1.obj (.text:_ZN4Base6XcmvarINS_4RvarENS_9Tuntraits12U16str_floatEE7BuilderD1Ev)
                  000b1c02    00000001                 : Hvar_cpu1.obj (.text:_ZN4Base6XcmvarINS_4UvarENS_9Tuntraits9U16str_16IjEEE7BuilderD1Ev)
                  000b1c03    00000001                 : Hvar_cpu1.obj (.text:_ZN4Base6XcmvarINS_8Bvar_mapENS_9Tuntraits10U16strCxetINS_8Hbmapvar4TypeEEEE7BuilderD1Ev)
                  000b1c04    00000001     base.lib : Stepmgr_dsp.obj (.text:_ZN4Base7StepmgrD1Ev)
                  000b1c05    00000001     veronte.lib : Veronte.obj (.text:_ZN4Base7StepperIN3Ver8HalsuiteEXadL_ZNS2_4stepEvEEED1Ev)
                  000b1c06    00000001     base.lib : Xcfgmgr.obj (.text:_ZN4Base7XcfgmgrD1Ev)
                  000b1c07    00000001     first.lib : Endian3.obj (.text:_ZN4Base8E3helperD1Ev)
                  000b1c08    00000001     stanag.lib : Stanag_msg_mgr.obj (.text:_ZN4Base8Imsg_mgrD1Ev)
                  000b1c09    00000001     veronte.lib : Hxcfile_cpu1.obj (.text:_ZN4Base8XclogsvcD1Ev)
                  000b1c0a    00000001     base.lib : FMCP_null.obj (.text:_ZN4Base9FMCP_null7processERNS_11VrefdstbuffERNS_4IsetE)
                  000b1c0b    00000001              : FMCP_null.obj (.text:_ZN4Base9FMCP_nullD1Ev)
                  000b1c0c    00000001     veronte.lib : Veronte.obj (.text:_ZN4Base9Fifo_portINS_11Fifo_sharedINS_11Spkt_bufferELj2EE6WriterENS3_6ReaderEE5resetEv)
                  000b1c0d    00000001                 : Veronte.obj (.text:_ZN4Base9Fifo_portINS_11Fifo_sharedINS_11Spkt_bufferELj2EE6WriterENS3_6ReaderEED1Ev)
                  000b1c0e    00000001                 : Devsuite_amz.obj (.text:_ZN4Base9GPIO_null3setEb)
                  000b1c0f    00000001                 : Devsuite_amz.obj (.text:_ZN4Base9GPIO_null6set_hiEv)
                  000b1c10    00000001                 : Devsuite_amz.obj (.text:_ZN4Base9GPIO_null6set_loEv)
                  000b1c11    00000001                 : Devsuite_amz.obj (.text:_ZN4Base9GPIO_null6toggleEv)
                  000b1c12    00000001                 : Veronte.obj (.text:_ZN4Base9Ipkt_portD1Ev)
                  000b1c13    00000001                 : Hvar_cpu1.obj (.text:_ZN4Base9IstrbuildD1Ev)
                  000b1c14    00000001                 : Hxcfile_cpu1.obj (.text:_ZN4Base9XcfilesvcD1Ev)
                  000b1c15    00000001                 : Maps_updater.obj (.text:_ZN5Media10IupdatableD1Ev)
                  000b1c16    00000001                 : Vfspermission.obj (.text:_ZN5Media13IfspermissionD1Ev)
                  000b1c17    00000001     media.lib : Maint_mode_bl.obj (.text:_ZN5Media13Maint_mode_blD1Ev)
                  000b1c18    00000001               : Logctrl.obj (.text:_ZN5Media7LogctrlD1Ev)
                  000b1c19    00000001     midlevel.lib : Cyphal_tx_mgr.obj (.text:_ZN6Cyphal13Cyphal_tx_mgr12get_pkt_lossERjRf)
                  000b1c1a    00000001                  : Cyphal_tx_mgr.obj (.text:_ZN6Cyphal13Cyphal_tx_mgr5resetEv)
                  000b1c1b    00000001                  : Cyphal_tx_mgr.obj (.text:_ZN6Cyphal13Cyphal_tx_mgrD1Ev)
                  000b1c1c    00000001     veronte.lib : Cy_string_resp.obj (.text:_ZN6Cyphal14Cy_string_resp6notifyERKN4Base8Msg_dataE)
                  000b1c1d    00000001                 : Cy_pers_pdi_resp.obj (.text:_ZN6Cyphal16Cy_pers_pdi_resp6notifyERKN4Base8Msg_dataE)
                  000b1c1e    00000001     midlevel.lib : Cy_soft_conf_check.obj (.text:_ZN6Cyphal18Cy_soft_conf_check6notifyERKN4Base8Msg_dataE)
                  000b1c1f    00000001     stanag.lib : Stanag_port.obj (.text:_ZN6Stanag11Stanag_portD1Ev)
                  000b1c20    00000001     veronte.lib : Veronte.obj (.text:_ZN6Stanag13Stanag_msg_tx6notifyERKN4Base8Msg_dataE)
                  000b1c21    00000001     stanag.lib : Stanag_msg_mgr.obj (.text:_ZN6Stanag14Stanag_msg_mgrD1Ev)
                  000b1c22    00000001                : Stanag_status_msgs.obj (.text:_ZN6Stanag19Ispecial_conversionD1Ev)
                  000b1c23    00000001                : Stanag_status_msgs.obj (.text:_ZN6Stanag23Special_conversion_null11rev_convertEjRKfRfRN4Base12Stanag_typesE)
                  000b1c24    00000001                : Stanag_status_msgs.obj (.text:_ZN6Stanag23Special_conversion_null7convertEjRKfRfRN4Base12Stanag_typesE)
                  000b1c25    00000001                : Stanag_status_msgs.obj (.text:_ZN6Stanag23Special_conversion_nullD1Ev)
                  000b1c26    00000001                : Stanag_msg_mgr.obj (.text:_ZN6Stanag8Msg_fifoD1Ev)
                  000b1c27    00000001     devices.lib : LMT86.obj (.text:_ZN7Devices5LMT86D1Ev)
                  000b1c28    00000001     veronte.lib : Halsuite_amz.obj (.text:_ZN7Devices5MX66LD1Ev)
                  000b1c29    00000001     devices.lib : Ntcs0603.obj (.text:_ZN7Devices8Ntcs0603D1Ev)
                  000b1c2a    00000001     midlevel.lib : Irxfw.obj (.text:_ZN8Midlevel32_GLOBAL__N__9_Irxfw_cpp_16a35c0e12IrxfwbuilderD1Ev)
                  000b1c2b    00000001                  : Irxfw.obj (.text:_ZN8Midlevel32_GLOBAL__N__9_Irxfw_cpp_16a35c0e13NotifybuilderD1Ev)
                  000b1c2c    00000001     base.lib : Fstr1.obj (.text:_ZNK4Base5Fstr14cgetERNS_5LossyE)
                  000b1c2d    00000001     media.lib : HformatSD.obj (.text:_ZNK5Media9HformatSD4cgetERN4Base5LossyE)
                  000b1c2e    00000001     midlevel.lib : Msg_sender_action.obj (.text:_ZNK8Midlevel17Msg_sender_action4cgetERN4Base5LossyE)
                  000b1c2f    00000001     base.lib : Varmgr.obj (.text:_ZThn2_N4Base6Varmgr3setERKNS_4Iset4DataINS_6R64varEeEE)
                  000b1c30    00000001              : Fstr1.obj (.text:_ZThn2_NK4Base5Fstr14cgetERNS_5LossyE)
                  000b1c31    00000001     media.lib : HformatSD.obj (.text:_ZThn2_NK5Media9HformatSD4cgetERN4Base5LossyE)
                  000b1c32    00000001     midlevel.lib : Msg_sender_action.obj (.text:_ZThn2_NK8Midlevel17Msg_sender_action4cgetERN4Base5LossyE)
                  000b1c33    00000001                  : Cyphal_tx_mgr.obj (.text:_ZThn4_N6Cyphal13Cyphal_tx_mgr12get_pkt_lossERjRf)
                  000b1c34    00000001                  : Cyphal_tx_mgr.obj (.text:_ZThn4_N6Cyphal13Cyphal_tx_mgr5resetEv)
                  000b1c35    00000001     veronte.lib : Maps_updater.obj (.text:_ZThn6_N3Ver12Maps_updater6notifyERKN4Base8Msg_dataE)
                  000b1c36    00000001                 : Hapsel.obj (.text:__sti___10_Hapsel_cpp_1963d365)
                  000b1c37    00000001                 : Hevact.obj (.text:__sti___10_Hevact_cpp_10b3fa8c)
                  000b1c38    00000001                 : Ubxdev.obj (.text:__sti___10_Ubxdev_cpp_9d76696d)
                  000b1c39    00000001                 : Veronte.obj (.text:__sti___11_Veronte_cpp_37f84834)
                  000b1c3a    00000001                 : Hxcfield.obj (.text:__sti___12_Hxcfield_cpp_9d66e5d0)
                  000b1c3b    00000001                 : Xcd_cpu1.obj (.text:__sti___12_Xcd_cpu1_cpp_0c32b705)
                  000b1c3c    00000001                 : Gpssimdev.obj (.text:__sti___13_Gpssimdev_cpp_2c875c92)
                  000b1c3d    00000001                 : Hsys_cpu1.obj (.text:__sti___13_Hsys_cpu1_cpp_346e85fd)
                  000b1c3e    00000001                 : Ubxcfgmgr.obj (.text:__sti___13_Ubxcfgmgr_cpp_abeb49a2)
                  000b1c3f    00000001     main_cpu1.obj (.text:__sti___13_main_cpu1_cpp_49aad842)
                  000b1c40    00000001     veronte.lib : Hmeas_cpu1.obj (.text:__sti___14_Hmeas_cpu1_cpp_764fcd33)
                  000b1c41    00000001                 : Hxcff_cpu1.obj (.text:__sti___14_Hxcff_cpu1_cpp_8e41830b)
                  000b1c42    00000001     Vmain_cpu1.obj (.text:__sti___14_Vmain_cpu1_cpp_1593fd0e)
                  000b1c43    00000001     veronte.lib : Xpcu8suite.obj (.text:__sti___14_Xpcu8suite_cpp_f871dbeb)
                  000b1c44    00000001                 : Hapsel_cpu1.obj (.text:__sti___15_Hapsel_cpu1_cpp_09ab09f0)
                  000b1c45    00000001     DSP2838x_ent.lib : Htime_2838x.obj (.text:__sti___15_Htime_2838x_cpp_8100e017)
                  000b1c46    00000001     veronte.lib : Rtaskio_amz.obj (.text:__sti___15_Rtaskio_amz_cpp_2bc10b22)
                  000b1c47    00000001                 : Veronte_amz.obj (.text:__sti___15_Veronte_amz_cpp_9b284b70)
                  000b1c48    00000001                 : Veronte_dsp.obj (.text:__sti___15_Veronte_dsp_cpp_07c89df0)
                  000b1c49    00000001                 : Xpccansuite.obj (.text:__sti___15_Xpccansuite_cpp_3f322e68)
                  000b1c4a    00000001     crypto_c28.lib : Compute_hash.obj (.text:__sti___16_Compute_hash_cpp_bf21941f)
                  000b1c4b    00000001     veronte.lib : Devsuite_amz.obj (.text:__sti___16_Devsuite_amz_cpp_a870ecbc)
                  000b1c4c    00000001                 : Hxcfile_cpu1.obj (.text:__sti___16_Hxcfile_cpu1_cpp_a6d556f8)
                  000b1c4d    00000001                 : Sysaddr_cpu1.obj (.text:__sti___16_Sysaddr_cpu1_cpp_89a74471)
                  000b1c4e    00000001                 : Hlicense_cpu1.obj (.text:__sti___17_Hlicense_cpu1_cpp_3ed95cb0)
                  000b1c4f    00000001                 : Hraim_outputs.obj (.text:__sti___17_Hraim_outputs_cpp_1fc7653c)
                  000b1c50    00000001                 : Hregvars_cpu1.obj (.text:__sti___17_Hregvars_cpu1_cpp_d0f8b4d5)
                  000b1c51    00000001                 : Hxcfield_cpu1.obj (.text:__sti___17_Hxcfield_cpu1_cpp_ecff9e64)
                  000b1c52    00000001                 : Xcd_priv_impl.obj (.text:__sti___17_Xcd_priv_impl_cpp_d8b3abac)
                  000b1c53    00000001                 : Hcfg_mode_cpu1.obj (.text:__sti___18_Hcfg_mode_cpu1_cpp_98486e1b)
                  000b1c54    00000001                 : Herrors_ver_pa.obj (.text:__sti___18_Herrors_ver_pa_cpp_3011a4a7)
                  000b1c55    00000001                 : Hx_imu_fifo_wr.obj (.text:__sti___18_Hx_imu_fifo_wr_cpp_c7059fd3)
                  000b1c56    00000001                 : Hx_nav_msg_cpu1.obj (.text:__sti___19_Hx_nav_msg_cpu1_cpp_d820765c)
                  000b1c57    00000001                 : Hraim_inputs_cpu1.obj (.text:__sti___21_Hraim_inputs_cpu1_cpp_bb22d9c0)
                  000b1c58    00000001                 : Hmon_nav_inputs_cpu1.obj (.text:__sti___24_Hmon_nav_inputs_cpu1_cpp_f7d695fe)
                  000b1c59    00000001                 : Hmonitor_inputs_cpu1.obj (.text:__sti___24_Hmonitor_inputs_cpu1_cpp_2d9a31d6)
                  000b1c5a    00000001                 : Hmonitor_outputs_cpu1.obj (.text:__sti___25_Hmonitor_outputs_cpu1_cpp_07ea2a0a)
                  000b1c5b    00000001                 : Hauth_connections_cpu1.obj (.text:__sti___26_Hauth_connections_cpu1_cpp_f2b7bd97)
                  000b1c5c    00000001                 : Hnav_introspect_compact_cpu1.obj (.text:__sti___32_Hnav_introspect_compact_cpu1_cpp_ac5b6a1a)
                  000b1c5d    00000001                 : Hstate_estimate_compact_cpu1.obj (.text:__sti___32_Hstate_estimate_compact_cpu1_cpp_e287f525)
                  000b1c5e    00000001                 : Xcd.obj (.text:__sti___7_Xcd_cpp_5dec66ae)
                  000b1c5f    00000001                 : Hsys.obj (.text:__sti___8_Hsys_cpp_a557da24)
                  000b1c60    00000001                 : Hvar.obj (.text:__sti___8_Hvar_cpp_72202282)
                  000b1c61    00000001                 : Can4x.obj (.text:__sti___9_Can4x_cpp_f75d8c0f)
                  000b1c62    00000001                 : Hmeas.obj (.text:__sti___9_Hmeas_cpp_1bf92ba1)
                  000b1c63    00000001                 : Hxcfg.obj (.text:__sti___9_Hxcfg_cpp_eead2fca)
                  000b1c64    00000001     DSP28x.lib : dummy_malloc.obj (.text:free)
                  000b1c65    00000001     rts2800_fpu64_eabi.lib : newhandler.c.obj (.text)
                  000b1c66    00000001                            : placenew.c.obj (.text)

.const     0    000b1c68    00004980     
                  000b1c68    00000200     base.lib : CRC32.obj (.const:_ZN4Base11CRC32_table5tableE)
                  000b1e68    00000018     veronte.lib : Halsuite_amz.obj (.const:.typeinfo:_ZTSN4Base10Itport_blkIjjEE)
                  000b1e80    0000011a                 : FormatSD_amz.obj (.const:$P$T2$4)
                  000b1f9a    00000113                 : Xpccansuite.obj (.const:.typeinfo:_ZTSN4Base10FcanmsgmgrINS_12Xfmsgcan_hdlILj0ELj0ELj0EE14Xfmsgcan_arrayINS_8Xcfg_desINS_15Xfmsgcanp0arrayILj0EEENS_9Tuntraits10DesdefaultIS6_EEEEEENS3_INS4_INS_15Xfmsgcanc0arrayILj0ELj0EEENS7_15Arraytun_size16INS7_9Cset_onlyINS_10Xfmsgcanc0ILj0EEEEESD_NS7_8No_checkISD_EEEEEEEEEE)
                  000b20ad    00000013                 : Vcfchecker.obj (.const:.typeinfo:_ZTSN3Ver10VcfcheckerE)
                  000b20c0    00000102                 : Xpcu8suite.obj (.const:_ZZN4Base7Fmsgmgr6configILj2ELj32ENS_12FmsgproducerEEEPNS_5ArrayIT1_EERKNS4_6ConfigERKNS_6MblockIVKNS_14Fmsg_cfg_entryIXT0_EE4TypeEEEjNS_8ErrorsrcEE10void_array)
                  000b21c2    0000003e     geomodel.lib : Apos.obj (.const:.typeinfo:_ZTSN3Geo31_GLOBAL__N__8_Apos_cpp_ad6fc63620Height_computer_nullE)
                  000b2200    00000102     veronte.lib : Xpcu8suite.obj (.const:_ZZN4Base7Fmsgmgr6configILj3ELj32ENS_12FmsgconsumerEEEPNS_5ArrayIT1_EERKNS4_6ConfigERKNS_6MblockIVKNS_14Fmsg_cfg_entryIXT0_EE4TypeEEEjNS_8ErrorsrcEE10void_array)
                  000b2302    000000d5                 : Veronte.obj (.const:.typeinfo:_ZTSN4Base7Xcfgmgr5TxcfgINS_8Xcfg_desINS_7TnarrayINS_11TnarrayreszINS_4BvarELm20EEELm3EEENS_9Tuntraits15Arraytun_nosizeINS8_15Arraytun_size16INS8_7Lossy16IS5_EES6_NS8_8No_checkIS6_EEEES7_NSD_IS7_EEEEEEN3Ver6BitmgrEEE)
                  000b23d7    00000001     midlevel.lib : Cyphal_msg_trig.obj (.const:$P$T10$1)
                  000b23d8    000000c0     pa_blocks.lib : Cy_maint_dcomms.obj (.const:.string)
                  000b2498    000000bf     veronte.lib : Xpccansuite.obj (.const:.typeinfo:_ZTSN4Base7Xcfgmgr5TxcfgINS_8Xcfg_desINS_11TnarrayreszINS_7Xpcmap0ELm19EEENS_9Tuntraits15Arraytun_size16INS_3XpcIN3Ver15Xpccantrait_verEE9Tuntrait0ES5_NS6_8No_checkIS5_EEEEEENS9_11XpccansuiteEEE)
                  000b2557    000000ba                 : Xpcu8suite.obj (.const:.typeinfo:_ZTSN4Base7Xcfgmgr5TxcfgINS_8Xcfg_desINS_11TnarrayreszINS_7Xpcmap0ELm45EEENS_9Tuntraits15Arraytun_size16INS_3XpcIN3Ver11Xpcu8_traitEE9Tuntrait0ES5_NS6_8No_checkIS5_EEEEEENS9_10Xpcu8suiteEEE)
                  000b2611    00000001     midlevel.lib : CyphalCAN_out.obj (.const:$P$T15$1)
                  000b2612    000000b4     veronte.lib : Xpcu8trait_ver_pa.obj (.const:connect_allowed$11)
                  000b26c6    000000a4                 : Xpccansuite.obj (.const:.typeinfo:_ZTSN4Base12FcanconsumerINS_8Xcfg_desINS_15Xfmsgcanc0arrayILj0ELj0EEENS_9Tuntraits15Arraytun_size16INS4_9Cset_onlyINS_10Xfmsgcanc0ILj0EEEEES3_NS4_8No_checkIS3_EEEEEEEE)
                  000b276a    00000080     crypto_c28.lib : sha256.obj (.const:SHA256_K)
                  000b27ea    0000007a     veronte.lib : Devsuite_amz.obj (.const:.typeinfo:_ZTSN4Base7Xcfgmgr5TxcfgINS_8Xcfg_desIN8Maverick13Notch_lpf_cfgENS_9Tuntraits10DesdefaultIS4_EEEENS3_19Biquad_notch_lpf_3dEEE)
                  000b2864    00000071                 : Devsuite_amz.obj (.const:.typeinfo:_ZTSN4Base7Xcfgmgr5TxcfgINS_8Xcfg_desIN7Devices14Adis165053_cfgENS_9Tuntraits10DesdefaultIS4_EEEENS3_10Adis165053EEE)
                  000b28d5    00000071                 : Xpccansuite.obj (.const:.typeinfo:_ZTSN4Base7Xcfgmgr5TxcfgINS_8Xcfg_desINS_12CANout_suiteILj6EEENS_9Tuntraits10DesdefaultIS4_EEEEN3Ver11XpccansuiteEEE)
                  000b2946    00000070                 : Xpccansuite.obj (.const:.typeinfo:_ZTSN4Base7Xcfgmgr5TxcfgINS_8Xcfg_desINS_11CANin_suiteILj6EEENS_9Tuntraits10DesdefaultIS4_EEEEN3Ver11XpccansuiteEEE)
                  000b29b6    00000070                 : Xpccansuite.obj (.const:.typeinfo:_ZTSN4Base7Xcfgmgr5TxcfgINS_8Xcfg_desINS_11CANsc_suiteILj6EEENS_9Tuntraits10DesdefaultIS4_EEEEN3Ver11XpccansuiteEEE)
                  000b2a26    0000006e                 : Veronte.obj (.const:.typeinfo:_ZTSN4Base7Xcfgmgr5TxcfgINS_8Xcfg_desIN12Dsp28335_ent10CAN_FD_cfgENS_9Tuntraits10DesdefaultIS4_EEEENS3_6CAN_FDEEE)
                  000b2a94    0000006a                 : Veronte.obj (.const:.typeinfo:_ZTSN4Base7Xcfgmgr5TxcfgINS_8Xcfg_desINS_10Xcomstats0ENS_9Tuntraits10DesdefaultIS3_EEEEN8Midlevel8ComstatsEEE)
                  000b2afe    00000068                 : Halsuite_amz.obj (.const:.typeinfo:_ZTSN4Base11Port_bufferINS_13Port_stats_txINS_8TportcutIN12Dsp28335_ent3SCIEhEEEENS_13Port_stats_rxIS4_EEEE)
                  000b2b66    00000068     midlevel.lib : Cmdmgr.obj (.const:.typeinfo:_ZTSN4Base8TwraptunINS_9Tuntraits15Arraytun_nosizeINS1_7Lossy16IjEENS_6MblockIjEENS1_8No_checkIS6_EEEES6_EE)
                  000b2bce    00000066     veronte.lib : Veronte.obj (.const:.typeinfo:_ZTSN4Base7Xcfgmgr5TxcfgINS_8Xcfg_desIN12Dsp28335_ent6CANcfgENS_9Tuntraits10DesdefaultIS4_EEEENS3_3CANEEE)
                  000b2c34    00000066                 : Veronte.obj (.const:.typeinfo:_ZTSN4Base7Xcfgmgr5TxcfgINS_8Xcfg_desIN12Dsp28335_ent6SCIcfgENS_9Tuntraits10DesdefaultIS4_EEEENS3_3SCIEEE)
                  000b2c9a    00000063                 : Xpccansuite.obj (.const:.typeinfo:_ZTSN4Base7Xcfgmgr5TxcfgINS_8Xcfg_desIN3Ver10Can_4x_cfgENS_9Tuntraits10DesdefaultIS4_EEEENS3_5Can4xEEE)
                  000b2cfd    00000063                 : Rtaskio.obj (.const:.typeinfo:_ZTSN4Base7Xcfgmgr5TxcfgINS_8Xcfg_desIN3Ver9Xfreqmgr0ENS_9Tuntraits10DesdefaultIS4_EEEENS3_7RtaskioEEE)
                  000b2d60    00000062                 : Rtaskio.obj (.const:.typeinfo:_ZTSN4Base7Xcfgmgr5TxcfgINS_8Xcfg_desIN3Ver10ArbiterCfg6ConfigENS_9Tuntraits10DesdefaultIS5_EEEES4_EE)
                  000b2dc2    00000061                 : Xpccansuite.obj (.const:.typeinfo:_ZTSN4Base12FcanproducerINS_8Xcfg_desINS_15Xfmsgcanp0arrayILj0EEENS_9Tuntraits10DesdefaultIS3_EEEEEE)
                  000b2e23    00000058                 : Halsuite.obj (.const:.typeinfo:_ZTSN4Base11Port_bufferINS_13Port_stats_txIN12Dsp28335_ent3SCIEEENS_13Port_stats_rxIS3_EEEE)
                  000b2e7b    00000001     devices.lib : ADC121C021Q.obj (.const:$P$T16$1)
                  000b2e7c    00000058     veronte.lib : Xpccantrait_ver_pa.obj (.const:conn_allowed$5)
                  000b2ed4    00000054                 : Hvar_cpu1.obj (.const:.typeinfo:_ZTSN4Base6XcmvarINS_8Bvar_mapENS_9Tuntraits10U16strCxetINS_8Hbmapvar4TypeEEEE7BuilderE)
                  000b2f28    0000004f                 : Veronte.obj (.const:.typeinfo:_ZTSN4Base9Fifo_portINS_11Fifo_sharedINS_11Spkt_bufferELj2EE6WriterENS3_6ReaderEEE)
                  000b2f77    00000049                 : Hvar_cpu1.obj (.const:.typeinfo:_ZTSN4Base6XcmvarINS_3FidENS_9Tuntraits10U16strCxetINS_7FeatureEEEE7BuilderE)
                  000b2fc0    00000045     devices.lib : Sxp.obj (.const:.typeinfo:_ZTSN4Base22Port_stats_itport_wrapINS_5TportINS_12U8pkfifospscES2_hhEEEE)
                  000b3005    00000044     veronte.lib : Halsuite_amz.obj (.const:.typeinfo:_ZTSN4Base17Port_buffer_statsINS_8TportcutIN12Dsp28335_ent3SCIEhEES3_EE)
                  000b3049    0000003f                 : Hvar_cpu1.obj (.const:.typeinfo:_ZTSN4Base6XcmvarINS_4BvarENS_9Tuntraits10U16bool_16IbEEE7BuilderE)
                  000b3088    0000003e                 : Hvar_cpu1.obj (.const:.typeinfo:_ZTSN4Base6XcmvarINS_4RvarENS_9Tuntraits12U16str_floatEE7BuilderE)
                  000b30c6    0000003d     stanag.lib : Alert_msg.obj (.const:.string)
                  000b3103    0000003d     veronte.lib : Hvar_cpu1.obj (.const:.typeinfo:_ZTSN4Base6XcmvarINS_4UvarENS_9Tuntraits9U16str_16IjEEE7BuilderE)
                  000b3140    0000003d     midlevel.lib : Secure_CAN.obj (.const:.typeinfo:_ZTSN7Devices10Secure_CAN11CAN_wrap_exIN12Dsp28335_ent6CAN_FDEEE)
                  000b317d    0000003d                  : Irxfw.obj (.const:.typeinfo:_ZTSN8Midlevel32_GLOBAL__N__9_Irxfw_cpp_16a35c0e13NotifybuilderE)
                  000b31ba    0000003c     devices.lib : Sxp.obj (.const:.typeinfo:_ZTSN4Base10Port_statsINS_5TportINS_12U8pkfifospscES2_hhEES3_EE)
                  000b31f6    0000003c                 : Sxp.obj (.const:.typeinfo:_ZTSN4Base13Port_stats_rxINS_5TportINS_12U8pkfifospscES2_hhEEEE)
                  000b3232    0000003c                 : Sxp.obj (.const:.typeinfo:_ZTSN4Base13Port_stats_txINS_5TportINS_12U8pkfifospscES2_hhEEEE)
                  000b326e    0000003c     midlevel.lib : Irxfw.obj (.const:.typeinfo:_ZTSN8Midlevel32_GLOBAL__N__9_Irxfw_cpp_16a35c0e12IrxfwbuilderE)
                  000b32aa    0000003a     veronte.lib : Xpccansuite.obj (.const:.typeinfo:_ZTSN4Base5TportIN12Dsp28335_ent6CAN_FDES2_NS_8CANframeES3_EE)
                  000b32e4    00000039     midlevel.lib : Secure_CAN.obj (.const:.typeinfo:_ZTSN7Devices10Secure_CAN8CAN_wrapIN12Dsp28335_ent6CAN_FDEEE)
                  000b331d    00000038     veronte.lib : Tmsuite.obj (.const:.typeinfo:_ZTSN4Base9TelemetryINS_8FvecdataINS_6TmvdatELm600ELj4EEEEE)
                  000b3355    0000002b     midlevel.lib : CyphalCAN_out.obj (.const:.typeinfo:_ZTSN4Base10ItconsumerIN6Cyphal10Cyphal_msgEEE)
                  000b3380    00000038     pa_blocks.lib : Environ_params.obj (.const)
                  000b33b8    00000037     veronte.lib : Xpccansuite.obj (.const:.typeinfo:_ZTSN4Base5TportIN12Dsp28335_ent3CANES2_NS_8CANframeES3_EE)
                  000b33ef    00000036     midlevel.lib : Secure_CAN.obj (.const:.typeinfo:_ZTSN7Devices10Secure_CAN8CAN_wrapIN12Dsp28335_ent3CANEEE)
                  000b3425    0000001b     DSP28x.lib : I2Cdevice.obj (.const:.typeinfo:_ZTSN12Dsp28335_ent9I2CdeviceE)
                  000b3440    00000034     crypto_c28.lib : Compute_hash.obj (.const:$P$T0$1)
                  000b3474    00000034     veronte.lib : Halsuite.obj (.const:.typeinfo:_ZTSN4Base17Port_buffer_statsIN12Dsp28335_ent3SCIES2_EE)
                  000b34a8    00000034                 : Veronte.obj (.const:.typeinfo:_ZTSN4Base7StepperIN3Ver8HalsuiteEXadL_ZNS2_4stepEvEEEE)
                  000b34dc    00000034     pa_blocks.lib : Cy_maint_dcomms.obj (.const:.typeinfo:_ZTSN9Pa_blocks22Cy_maint_action_consts13Imaint_actionE)
                  000b3510    00000032     base.lib : Varmgr.obj (.const:_ZTVN4Base6VarmgrE)
                  000b3542    00000031     veronte.lib : Vfspermission.obj (.const:ext_cmd_ids$2)
                  000b3573    00000030                 : Veronte.obj (.const:.typeinfo:_ZTSN4Base17Imblock_retrieverIVKN6Stanag7FstgcfgEEE)
                  000b35a3    00000001     devices.lib : PMIC_TPS65381A.obj (.const:$P$T21$1)
                  000b35a4    00000030     veronte.lib : Maps_updater.obj (.const:_ZTVN3Ver12Maps_updaterE)
                  000b35d4    00000030     midlevel.lib : Cyphal_tx_mgr.obj (.const:_ZTVN6Cyphal13Cyphal_tx_mgrE)
                  000b3604    0000002e     veronte.lib : Veronte_dsp.obj (.const:.typeinfo:_ZTSN4Base9IiteratorIN3Ver11Xpcu8_trait2XC3IdxEEE)
                  000b3632    0000002e                 : Veronte_dsp.obj (.const:.typeinfo:_ZTSN4Base9IiteratorIN3Ver11Xpcu8_trait2XP3IdxEEE)
                  000b3660    00000020     main_cpu1.obj (.const:.typeinfo:_ZTSN4Base8FifospscINS_8Msg_dataEEE)
                  000b3680    0000002e     base.lib : Fid.obj (.const:_ZN4Base8Fidtrait7szarrayE)
                  000b36ae    0000002b     veronte.lib : Halsuite_amz.obj (.const:.typeinfo:_ZTSN4Base5TportIN12Dsp28335_ent5McbspES2_jjEE)
                  000b36d9    00000001     devices.lib : PMIC_TPS65381A.obj (.const:$P$T22$2)
                  000b36da    0000002a     stanag.lib : Stanag_msgs.obj (.const:.string)
                  000b3704    0000002a     veronte.lib : Veronte_dsp.obj (.const:.typeinfo:_ZTSN4Base5RngitIN3Ver11Xpcu8_trait2XC3IdxEEE)
                  000b372e    0000002a                 : Veronte_dsp.obj (.const:.typeinfo:_ZTSN4Base5RngitIN3Ver11Xpcu8_trait2XP3IdxEEE)
                  000b3758    00000028     rts2800_fpu64_eabi.lib : typeinfo.c.obj (.const:.typeinfo:_ZTSN10__cxxabiv123__fundamental_type_infoE)
                  000b3780    0000002a     main_cpu1.obj (.const:_ZN3Ver8cm_gpiosE)
                  000b37aa    00000029     veronte.lib : Halsuite_amz.obj (.const:.typeinfo:_ZTSN4Base5TportIN12Dsp28335_ent3SPIES2_jjEE)
                  000b37d3    00000028     midlevel.lib : Cy_maintenance_port_status.obj (.const:.typeinfo:_ZTSN8Midlevel26Cy_maintenance_port_statusE)
                  000b37fb    00000028                  : Cy_mode_transition_allowed.obj (.const:.typeinfo:_ZTSN8Midlevel26Cy_mode_transition_allowedE)
                  000b3823    00000028     veronte.lib : Rtaskio_amz.obj (.const:.typeinfo:_ZTSN9Pa_blocks17Cyphal_rx_msg_xcdILm100EEE)
                  000b384b    00000028                 : Rtaskio_amz.obj (.const:.typeinfo:_ZTSN9Pa_blocks17Cyphal_rx_msg_xcdILm197EEE)
                  000b3873    00000028                 : Rtaskio_amz.obj (.const:.typeinfo:_ZTSN9Pa_blocks17Cyphal_rx_msg_xcdILm267EEE)
                  000b389b    00000028     pa_blocks.lib : Gnss_raw_meas_fifo.obj (.const:.typeinfo:_ZTSN9Pa_blocks18Gnss_raw_meas_fifo6WriterE)
                  000b38c3    00000001     devices.lib : MX66L.obj (.const:$P$T33$10)
                  000b38c4    00000028     media.lib : HformatSD.obj (.const:_ZTVN5Media9HformatSDE)
                  000b38ec    00000028     midlevel.lib : Cmdmgr.obj (.const:_ZTVN8Midlevel6CmdmgrE)
                  000b3914    00000028                  : Comstats.obj (.const:_ZTVN8Midlevel8ComstatsE)
                  000b393c    00000027     veronte.lib : Rtaskio_amz.obj (.const:.typeinfo:_ZTSN4Base13IserializableINS_9U8ostreamEEE)
                  000b3963    00000027                 : Halsuite_amz.obj (.const:.typeinfo:_ZTSN4Base5TportINS_12U8pkfifospscES1_hhEE)
                  000b398a    00000027     maverick.lib : Biquad_notch_lpf_3d.obj (.const:.typeinfo:_ZTSN4Base7IFilterIN8Maverick9Irvector3EEE)
                  000b39b1    00000027     veronte.lib : Rtaskio_amz.obj (.const:.typeinfo:_ZTSN9Pa_blocks17Cyphal_rx_msg_xcdILm11EEE)
                  000b39d8    00000027                 : Rtaskio_amz.obj (.const:.typeinfo:_ZTSN9Pa_blocks17Cyphal_rx_msg_xcdILm12EEE)
                  000b39ff    00000027                 : Rtaskio_amz.obj (.const:.typeinfo:_ZTSN9Pa_blocks17Cyphal_rx_msg_xcdILm13EEE)
                  000b3a26    00000027                 : Rtaskio_amz.obj (.const:.typeinfo:_ZTSN9Pa_blocks17Cyphal_rx_msg_xcdILm65EEE)
                  000b3a4d    00000027                 : Rtaskio_amz.obj (.const:.typeinfo:_ZTSN9Pa_blocks17Cyphal_rx_msg_xcdILm69EEE)
                  000b3a74    00000027                 : Rtaskio_amz.obj (.const:.typeinfo:_ZTSN9Pa_blocks17Cyphal_rx_msg_xcdILm76EEE)
                  000b3a9b    00000027                 : Rtaskio_amz.obj (.const:.typeinfo:_ZTSN9Pa_blocks17Cyphal_rx_msg_xcdILm82EEE)
                  000b3ac2    00000026     rts2800_fpu64_eabi.lib : typeinfo.c.obj (.const:.typeinfo:_ZTSN10__cxxabiv121__vmi_class_type_infoE)
                  000b3ae8    00000026     base.lib : Message_received_hnd.obj (.const:.typeinfo:_ZTSN4Base20Message_received_hnd7BuilderE)
                  000b3b0e    00000026     veronte.lib : Tmsuite.obj (.const:.typeinfo:_ZTSN4Base9TelemetryINS_12FtelemetryodEEE)
                  000b3b34    00000026                 : Rtaskio_amz.obj (.const:.typeinfo:_ZTSN9Pa_blocks17Cyphal_rx_msg_xcdILm0EEE)
                  000b3b5a    00000026                 : Rtaskio_amz.obj (.const:.typeinfo:_ZTSN9Pa_blocks17Cyphal_rx_msg_xcdILm1EEE)
                  000b3b80    00000026                 : Rtaskio_amz.obj (.const:.typeinfo:_ZTSN9Pa_blocks17Cyphal_rx_msg_xcdILm4EEE)
                  000b3ba6    00000026                 : Rtaskio_amz.obj (.const:.typeinfo:_ZTSN9Pa_blocks17Cyphal_rx_msg_xcdILm7EEE)
                  000b3bcc    00000026     DFS2.lib : DSF2_file.obj (.const:_ZTVN4Base5IfileE)
                  000b3bf2    00000026              : DSF2_file.obj (.const:_ZTVN4DFS24FileE)
                  000b3c18    00000025     rts2800_fpu64_eabi.lib : typeinfo.c.obj (.const:.typeinfo:_ZTSN10__cxxabiv120__si_class_type_infoE)
                  000b3c3d    00000025     veronte.lib : Xpcu8suite.obj (.const:.typeinfo:_ZTSN4Base6ComConIN12Dsp28335_ent3SCIEEE)
                  000b3c62    00000025                 : Cy_amz_timesync_server.obj (.const:.typeinfo:_ZTSN9Pa_blocks22Cy_amz_timesync_serverE)
                  000b3c87    00000024     rts2800_fpu64_eabi.lib : typeinfo.c.obj (.const:.typeinfo:_ZTSN10__cxxabiv119__pointer_type_infoE)
                  000b3cab    00000024     midlevel.lib : Cy_compute_unit_status.obj (.const:.typeinfo:_ZTSN8Midlevel22Cy_compute_unit_statusE)
                  000b3ccf    00000001                  : CyphalCAN_in.obj (.const:$P$T58$1)
                  000b3cd0    00000024     stanag.lib : Stanag_port.obj (.const:_ZTVN6Stanag11Stanag_portE)
                  000b3cf4    00000024                : Auth_request.obj (.const:_ZTVN6Stanag12Auth_requestE)
                  000b3d18    00000024     midlevel.lib : Irxfw.obj (.const:_ZTVN8Midlevel5Irxfw2FwE)
                  000b3d3c    00000024     DSP2838x_ent.lib : CAN_FD_ioctl.obj (.const:tmgs$1)
                  000b3d60    00000023     veronte.lib : Xpccansuite.obj (.const:.typeinfo:_ZTSN4Base10ItconsumerINS_8CANframeEEE)
                  000b3d83    00000023                 : Xpccansuite.obj (.const:.typeinfo:_ZTSN4Base10ItproducerINS_8CANframeEEE)
                  000b3da6    00000023                 : Xpccansuite.obj (.const:.typeinfo:_ZTSN4Base13IserializableINS_5LossyEEE)
                  000b3dc9    00000023     stanag.lib : Stanag_status_msgs.obj (.const:.typeinfo:_ZTSN6Stanag23Special_conversion_nullE)
                  000b3dec    00000022     rts2800_fpu64_eabi.lib : typeinfo.c.obj (.const:.typeinfo:_ZTSN10__cxxabiv117__class_type_infoE)
                  000b3e0e    00000022                            : typeinfo.c.obj (.const:.typeinfo:_ZTSN10__cxxabiv117__pbase_type_infoE)
                  000b3e30    00000022     veronte.lib : Veronte.obj (.const:.typeinfo:_ZTSN4Base13Routing_tableILj2ELj16EEE)
                  000b3e52    00000022                 : Apos_serializator.obj (.const:.typeinfo:_ZTSN4Base5Field18Iapos_serializatorE)
                  000b3e74    00000022     pa_blocks.lib : Cy_maint_action.obj (.const:_ZTVN9Pa_blocks15Cy_maint_actionE)
                  000b3e96    00000022     devices.lib : Adis165053.obj (.const)
                  000b3eb8    00000021     base.lib : Address_handler_generic.obj (.const:.typeinfo:_ZTSN4Base23Address_handler_genericE)
                  000b3ed9    00000021     veronte.lib : Xpccansuite.obj (.const:.typeinfo:_ZTSN4Base6ItportINS_8CANframeES1_EE)
                  000b3efa    00000021                 : Veronte.obj (.const:.typeinfo:_ZTSN6Stanag14Fstgcfg_getterILj40EEE)
                  000b3f1b    00000021     maverick.lib : Biquad_notch_lpf_3d.obj (.const:.typeinfo:_ZTSN8Maverick19Biquad_notch_lpf_3dE)
                  000b3f3c    00000021     pa_blocks.lib : Cy_meas_accel_gyro.obj (.const:.typeinfo:_ZTSN9Pa_blocks18Cy_meas_accel_gyroE)
                  000b3f5d    00000020     stanag.lib : Stanag_periodic_msgs.obj (.const:.typeinfo:_ZTSN6Stanag20Stanag_periodic_msgsE)
                  000b3f7d    00000020     midlevel.lib : Cy_mode_transition.obj (.const:.typeinfo:_ZTSN8Midlevel18Cy_mode_transitionE)
                  000b3f9d    00000001     first.lib : Strutil.obj (.const:ignore_chars$7)
                  000b3f9e    00000020     media.lib : Filecom.obj (.const:_ZTVN5Media7FilecomE)
                  000b3fbe    0000001f     midlevel.lib : CyphalStanag_rx_hnd.obj (.const:.typeinfo:_ZTSN6Cyphal19CyphalStanag_rx_hndE)
                  000b3fdd    0000001f                  : CyphalStanag_tx_hnd.obj (.const:.typeinfo:_ZTSN6Cyphal19CyphalStanag_tx_hndE)
                  000b3ffc    0000001f     stanag.lib : Auth_handover_grant.obj (.const:.typeinfo:_ZTSN6Stanag19Auth_handover_grantE)
                  000b401b    0000001f                : Stanag_status_msgs.obj (.const:.typeinfo:_ZTSN6Stanag19Ispecial_conversionE)
                  000b403a    0000001f                : Stanag_msg_push_pkt.obj (.const:.typeinfo:_ZTSN6Stanag19Stanag_msg_rx_asyncE)
                  000b4059    0000001f     midlevel.lib : Imu_reader_filter.obj (.const:.typeinfo:_ZTSN8Midlevel17Imu_reader_filterE)
                  000b4078    0000001f                  : Meas_GPS_raw_time.obj (.const:.typeinfo:_ZTSN8Midlevel17Meas_GPS_raw_timeE)
                  000b4097    0000001f                  : Msg_sender_action.obj (.const:.typeinfo:_ZTSN8Midlevel17Msg_sender_actionE)
                  000b40b6    0000001f     pa_blocks.lib : Cy_mon_perf_cons.obj (.const:.typeinfo:_ZTSN9Pa_blocks16Cy_mon_perf_consE)
                  000b40d5    0000001e     veronte.lib : Halsuite_amz.obj (.const:.typeinfo:_ZTSN12Dsp28335_ent9DMAmp_blkIjEE)
                  000b40f3    0000001e                 : Halsuite_amz.obj (.const:.typeinfo:_ZTSN12Dsp28335_ent9DMApm_blkIjEE)
                  000b4111    0000001e     base.lib : Taskmgr.obj (.const:.typeinfo:_ZTSN4Base5ArrayINS_9TaskentryEEE)
                  000b412f    0000001e     midlevel.lib : Cy_soft_conf_check.obj (.const:.typeinfo:_ZTSN6Cyphal18Cy_soft_conf_checkE)
                  000b414d    0000001e     stanag.lib : Auth_request.obj (.const:.typeinfo:_ZTSN6Stanag18IConnection_getterE)
                  000b416b    0000001e     pa_blocks.lib : Cy_maint_action.obj (.const:.typeinfo:_ZTSN9Pa_blocks15Cy_maint_actionE)
                  000b4189    0000001e                   : Cy_maint_dcomms.obj (.const:.typeinfo:_ZTSN9Pa_blocks15Cy_maint_dcommsE)
                  000b41a7    00000001     veronte.lib : Veronte_amz.obj (.const)
                  000b41a8    0000001e                 : Licmgr.obj (.const:_ZTVN3Ver6LicmgrE)
                  000b41c6    0000001e     base.lib : Fmsgmgr.obj (.const:_ZTVN4Base7FmsgmgrE)
                  000b41e4    0000001d     DSP28x.lib : SCI.obj (.const:.typeinfo:_ZTSN12Dsp28335_ent10ISCI_ioctlE)
                  000b4201    0000001d     main_cpu1.obj (.const:.typeinfo:_ZTSN4Base5ArrayINS_8Msg_dataEEE)
                  000b421e    0000001d     base.lib : Fmsgchecker.obj (.const:.typeinfo:_ZTSN4Base9IiteratorINS_4BvarEEE)
                  000b423b    0000001d     stanag.lib : Auth_handover_req.obj (.const:.typeinfo:_ZTSN6Stanag17Auth_handover_reqE)
                  000b4258    0000001d                : Schedule_msg_updt.obj (.const:.typeinfo:_ZTSN6Stanag17Schedule_msg_updtE)
                  000b4275    0000001c     pa_blocks.lib : Cy_maint_dcomms.obj (.const:.typeinfo:_ZTSN4Base18Ideserializable_u8E)
                  000b4291    0000001c     midlevel.lib : Conf_check_query.obj (.const:.typeinfo:_ZTSN6Cyphal16Conf_check_queryE)
                  000b42ad    0000001c     veronte.lib : Cy_pers_pdi_resp.obj (.const:.typeinfo:_ZTSN6Cyphal16Cy_pers_pdi_respE)
                  000b42c9    0000001c     midlevel.lib : Cy_mode_transition.obj (.const:.typeinfo:_ZTSN8Midlevel14Icheck_pa_modeE)
                  000b42e5    00000001     --HOLE-- [fill = 0]
                  000b42e6    0000001c     base.lib : Stepmgr.obj (.const:_ZN4Base4stimE)
                  000b4302    0000001c     veronte.lib : Varmeas.obj (.const:_ZTVN3Ver7VarmeasE)
                  000b431e    0000001c     base.lib : Vrefdstbuff.obj (.const:_ZTVN4Base11VrefdstbuffE)
                  000b433a    0000001c              : Vrefdst.obj (.const:_ZTVN4Base7VrefdstE)
                  000b4356    0000001c     media.lib : Fdr.obj (.const:_ZTVN5Media3FdrE)
                  000b4372    0000001c     stanag.lib : Auth_handover_req.obj (.const:_ZTVN6Stanag17Auth_handover_reqE)
                  000b438e    0000001b     DSP2838x_ent.lib : PMbusdrv_drv.obj (.const:.typeinfo:_ZTSN12Dsp28335_ent9PMbus_drvE)
                  000b43a9    0000001b     veronte.lib : Halsuite_amz.obj (.const:.typeinfo:_ZTSN4Base13Tport_w_r_blkIjjEE)
                  000b43c4    0000001b     media.lib : Flashtun_wr_null.obj (.const:.typeinfo:_ZTSN5Media16Flashtun_wr_nullE)
                  000b43df    0000001b     stanag.lib : Acknowledgement.obj (.const:.typeinfo:_ZTSN6Stanag15AcknowledgementE)
                  000b43fa    0000001b                : Fly_term_report.obj (.const:.typeinfo:_ZTSN6Stanag15Fly_term_reportE)
                  000b4415    0000001b                : Message_request.obj (.const:.typeinfo:_ZTSN6Stanag15Message_requestE)
                  000b4430    0000001b     midlevel.lib : Cy_drone_mode.obj (.const:.typeinfo:_ZTSN8Midlevel13Cy_drone_modeE)
                  000b444b    0000001a     veronte.lib : Apos_serializator.obj (.const:.typeinfo:_ZTSN3Ver17Apos_serializatorE)
                  000b4465    0000001a                 : Halsuite_amz.obj (.const:.typeinfo:_ZTSN4Base13Itport_blk_chIjEE)
                  000b447f    0000001a     base.lib : Address_handler_generic.obj (.const:.typeinfo:_ZTSN4Base16IAddress_handlerE)
                  000b4499    0000001a     veronte.lib : Cy_string_resp.obj (.const:.typeinfo:_ZTSN6Cyphal14Cy_string_respE)
                  000b44b3    0000001a                 : Maps_updater.obj (.const:.typeinfo:_ZTSN6Stanag14IStanag_msg_rxE)
                  000b44cd    0000001a                 : Maps_updater.obj (.const:.typeinfo:_ZTSN6Stanag14IStanag_msg_txE)
                  000b44e7    0000001a                 : Maps_updater.obj (.const:.typeinfo:_ZTSN6Stanag14IStanag_rx_hdlE)
                  000b4501    0000001a                 : Maps_updater.obj (.const:.typeinfo:_ZTSN6Stanag14IStanag_rx_pktE)
                  000b451b    0000001a     stanag.lib : Stanag_msg_mgr.obj (.const:.typeinfo:_ZTSN6Stanag14Stanag_msg_mgrE)
                  000b4535    00000001     --HOLE-- [fill = 0]
                  000b4536    0000001a     midlevel.lib : Sysreset.obj (.const:_ZTVN8Midlevel8SysresetE)
                  000b4550    00000019     geomodel.lib : Apos.obj (.const:.typeinfo:_ZTSN3Geo16Iheight_computerE)
                  000b4569    00000019     first.lib : Endian16_little.obj (.const:.typeinfo:_ZTSN4Base15Endian16_littleE)
                  000b4582    00000019               : Endian32_little.obj (.const:.typeinfo:_ZTSN4Base15Endian32_littleE)
                  000b459b    00000019               : Endian64_little.obj (.const:.typeinfo:_ZTSN4Base15Endian64_littleE)
                  000b45b4    00000019     veronte.lib : Xpccansuite.obj (.const:.typeinfo:_ZTSN4Base15IdeserializableE)
                  000b45cd    00000019     base.lib : Fmsgchecker.obj (.const:.typeinfo:_ZTSN4Base5RngitINS_4BvarEEE)
                  000b45e6    00000019     midlevel.lib : Cy_msg_id_gen.obj (.const:.typeinfo:_ZTSN6Cyphal13Cy_msg_id_genE)
                  000b45ff    00000019                  : CyphalCAN_out.obj (.const:.typeinfo:_ZTSN6Cyphal13CyphalCAN_outE)
                  000b4618    00000019     veronte.lib : Rtaskio_amz.obj (.const:.typeinfo:_ZTSN6Cyphal13Cyphal_rx_hndE)
                  000b4631    00000019     midlevel.lib : Cyphal_tx_mgr.obj (.const:.typeinfo:_ZTSN6Cyphal13Cyphal_tx_mgrE)
                  000b464a    00000019     stanag.lib : Auth_response.obj (.const:.typeinfo:_ZTSN6Stanag13Auth_responseE)
                  000b4663    00000019     veronte.lib : Veronte.obj (.const:.typeinfo:_ZTSN6Stanag13Stanag_msg_rxE)
                  000b467c    00000019                 : Veronte.obj (.const:.typeinfo:_ZTSN6Stanag13Stanag_msg_txE)
                  000b4695    00000018     base.lib : Field_cfg.obj (.const:.typeinfo:_ZTSN4Base14Cksum_sagetechE)
                  000b46ad    00000018     veronte.lib : Veronte.obj (.const:.typeinfo:_ZTSN4Base14Irouting_tableE)
                  000b46c5    00000018                 : Vfspermission.obj (.const:.typeinfo:_ZTSN5Media13IfspermissionE)
                  000b46dd    00000018     media.lib : Maint_mode_bl.obj (.const:.typeinfo:_ZTSN5Media13Maint_mode_blE)
                  000b46f5    00000018     midlevel.lib : CyphalCAN_in.obj (.const:.typeinfo:_ZTSN6Cyphal12CyphalCAN_inE)
                  000b470d    00000018     stanag.lib : Auth_request.obj (.const:.typeinfo:_ZTSN6Stanag12Auth_requestE)
                  000b4725    00000018                : Fly_term_cmd.obj (.const:.typeinfo:_ZTSN6Stanag12Fly_term_cmdE)
                  000b473d    00000018     devices.lib : ADC121C021Q.obj (.const:.typeinfo:_ZTSN7Devices11ADC121C021QE)
                  000b4755    00000001     --HOLE-- [fill = 0]
                  000b4756    00000018                 : MX66L.obj (.const:_ZTVN4Base13Iblock_deviceE)
                  000b476e    00000018     media.lib : Flashtun_wr_null.obj (.const:_ZTVN5Media16Flashtun_wr_nullE)
                  000b4786    00000018               : Discovery.obj (.const:_ZTVN5Media9DiscoveryE)
                  000b479e    00000018     stanag.lib : Acknowledgement.obj (.const:_ZTVN6Stanag15AcknowledgementE)
                  000b47b6    00000018                : Schedule_msg_updt.obj (.const:_ZTVN6Stanag17Schedule_msg_updtE)
                  000b47ce    00000018                : Auth_handover_grant.obj (.const:_ZTVN6Stanag19Auth_handover_grantE)
                  000b47e6    00000018                : Heartbeat.obj (.const:_ZTVN6Stanag9HeartbeatE)
                  000b47fe    00000018     devices.lib : MX66L.obj (.const:_ZTVN7Devices5MX66LE)
                  000b4816    00000017     veronte.lib : Halsuite_amz.obj (.const:.typeinfo:_ZTSN12Dsp28335_ent5GPIOvE)
                  000b482d    00000017     DSP28x.lib : I2Cif.obj (.const:.typeinfo:_ZTSN12Dsp28335_ent5I2CifE)
                  000b4844    00000017     veronte.lib : Halsuite_amz.obj (.const:.typeinfo:_ZTSN4Base10ItconsumerIhEE)
                  000b485b    00000017                 : Halsuite_amz.obj (.const:.typeinfo:_ZTSN4Base10ItconsumerIjEE)
                  000b4872    00000017                 : Halsuite_amz.obj (.const:.typeinfo:_ZTSN4Base10ItproducerIhEE)
                  000b4889    00000017                 : Halsuite_amz.obj (.const:.typeinfo:_ZTSN4Base10ItproducerIjEE)
                  000b48a0    00000017     devices.lib : MX66L.obj (.const:.typeinfo:_ZTSN4Base13Iblock_deviceE)
                  000b48b7    00000017     veronte.lib : Xpccansuite.obj (.const:.typeinfo:_ZTSN4Base13Ifmsg_triggerE)
                  000b48ce    00000017     midlevel.lib : Irxfw.obj (.const:.typeinfo:_ZTSN4Base13Istg_msg_rcvdE)
                  000b48e5    00000017     base.lib : Session.obj (.const:.typeinfo:_ZTSN4Base13ItimeproviderE)
                  000b48fc    00000017              : Fmsgmgr.obj (.const:.typeinfo:_ZTSN4Base13Itriggers_getE)
                  000b4913    00000017              : Stanag_parser.obj (.const:.typeinfo:_ZTSN4Base13Stanag_parserE)
                  000b492a    00000017     stanag.lib : Stanag_port.obj (.const:.typeinfo:_ZTSN6Stanag11Stanag_portE)
                  000b4941    00000001     --HOLE-- [fill = 0]
                  000b4942    00000016     midlevel.lib : Irxfw.obj (.const:.typeinfo:_ZTIN8Midlevel5Irxfw2FwE)
                  000b4958    00000016                  : Cmdmgr.obj (.const:.typeinfo:_ZTIN8Midlevel6CmdmgrE)
                  000b496e    00000016     veronte.lib : Vfspermission.obj (.const:.typeinfo:_ZTSN3Ver13VfspermissionE)
                  000b4984    00000016     base.lib : RTCM3parser.obj (.const:.typeinfo:_ZTSN4Base12Chk_blk_implE)
                  000b499a    00000016     first.lib : Endian16_big.obj (.const:.typeinfo:_ZTSN4Base12Endian16_bigE)
                  000b49b0    00000016               : Endian32_big.obj (.const:.typeinfo:_ZTSN4Base12Endian32_bigE)
                  000b49c6    00000016               : Endian64_big.obj (.const:.typeinfo:_ZTSN4Base12Endian64_bigE)
                  000b49dc    00000016     base.lib : Stanag_parser.obj (.const:.typeinfo:_ZTSN4Base12Espkt_parserE)
                  000b49f2    00000016              : Fmsgconsumer.obj (.const:.typeinfo:_ZTSN4Base12FmsgconsumerE)
                  000b4a08    00000016              : Fmsgproducer.obj (.const:.typeinfo:_ZTSN4Base12FmsgproducerE)
                  000b4a1e    00000016     veronte.lib : Veronte.obj (.const:.typeinfo:_ZTSN4Base12ITemp_getterE)
                  000b4a34    00000016     main_cpu1.obj (.const:.typeinfo:_ZTSN4Base12Interface_nvE)
                  000b4a4a    00000016     midlevel.lib : Irxfw.obj (.const:.typeinfo:_ZTSN4Base12Ispkt_senderE)
                  000b4a60    00000016     veronte.lib : Halsuite_amz.obj (.const:.typeinfo:_ZTSN4Base9Tport_blkIjjEE)
                  000b4a76    00000016                 : Veronte.obj (.const:.typeinfo:_ZTSN6Stanag10Stanag_msgE)
                  000b4a8c    00000016                 : Bitmgr.obj (.const:_ZTVN3Ver6BitmgrE)
                  000b4aa2    00000016                 : Xpcu8suite.obj (.const:_ZTVN4Base6ComConIN12Dsp28335_ent3SCIEEE)
                  000b4ab8    00000016                 : Veronte.obj (.const:_ZTVN6Stanag10Stanag_msgE)
                  000b4ace    00000015                 : Halsuite_amz.obj (.const:.typeinfo:_ZTSN12Dsp28335_ent3DMAE)
                  000b4ae3    00000015     DSP28x.lib : SCI.obj (.const:.typeinfo:_ZTSN12Dsp28335_ent3SCIE)
                  000b4af8    00000015     veronte.lib : Halsuite_amz.obj (.const:.typeinfo:_ZTSN3Ver12Halsuite_amzE)
                  000b4b0d    00000015                 : Maps_updater.obj (.const:.typeinfo:_ZTSN3Ver12Maps_updaterE)
                  000b4b22    00000015     base.lib : FMCP_varmgr.obj (.const:.typeinfo:_ZTSN4Base11FMCP_varmgrE)
                  000b4b37    00000015              : Fmsgchecker.obj (.const:.typeinfo:_ZTSN4Base11FmsgcheckerE)
                  000b4b4c    00000015     veronte.lib : Xpcu8suite.obj (.const:.typeinfo:_ZTSN4Base11Iconnect_rxE)
                  000b4b61    00000015                 : Xpcu8suite.obj (.const:.typeinfo:_ZTSN4Base11Iconnect_txE)
                  000b4b76    00000015     media.lib : Logctrl.obj (.const:.typeinfo:_ZTSN4Base11IlogcontrolE)
                  000b4b8b    00000015     veronte.lib : Veronte.obj (.const:.typeinfo:_ZTSN4Base11Imaint_modeE)
                  000b4ba0    00000015     stanag.lib : Stanag_msg_mgr.obj (.const:.typeinfo:_ZTSN4Base11Imsg_senderE)
                  000b4bb5    00000015     base.lib : Fmsgchecker.obj (.const:.typeinfo:_ZTSN4Base11ImsgcheckerE)
                  000b4bca    00000015              : Stanag_parser.obj (.const:.typeinfo:_ZTSN4Base11Ipkt_parserE)
                  000b4bdf    00000015     midlevel.lib : Cyphal_tx_mgr.obj (.const:.typeinfo:_ZTSN4Base11Ipkt_senderE)
                  000b4bf4    00000015     base.lib : Vrefdstbuff.obj (.const:.typeinfo:_ZTSN4Base11VrefdstbuffE)
                  000b4c09    00000015     veronte.lib : Xpcu8suite.obj (.const:.typeinfo:_ZTSN4Base9IiteratorIjEE)
                  000b4c1e    00000015                 : Maps_updater.obj (.const:.typeinfo:_ZTSN5Media10IupdatableE)
                  000b4c33    00000015     midlevel.lib : Irxfw.obj (.const:.typeinfo:_ZTSN8Midlevel5Irxfw2FwE)
                  000b4c48    00000015                  : Comstats.obj (.const:.typeinfo:_ZTSN8Midlevel8ComstatsE)
                  000b4c5d    00000015                  : Sysreset.obj (.const:.typeinfo:_ZTSN8Midlevel8SysresetE)
                  000b4c72    0000000e     veronte.lib : Halsuite_amz.obj (.const:$P$T132$13)
                  000b4c80    00000014                 : Xpcu8suite.obj (.const:$P$T119$1)
                  000b4c94    00000014                 : Xpccansuite.obj (.const:.typeinfo:_ZTSN3Ver11XpccansuiteE)
                  000b4ca8    00000014     base.lib : Field_cfg.obj (.const:.typeinfo:_ZTSN4Base10Cksum_modnE)
                  000b4cbc    00000014     veronte.lib : Vfspermission.obj (.const:.typeinfo:_ZTSN4Base10Ihas_valueE)
                  000b4cd0    00000014     base.lib : Pkt_router.obj (.const:.typeinfo:_ZTSN4Base10Pkt_routerE)
                  000b4ce4    00000014     stanag.lib : Alert_msg.obj (.const:.typeinfo:_ZTSN6Stanag9Alert_msgE)
                  000b4cf8    00000014                : Heartbeat.obj (.const:.typeinfo:_ZTSN6Stanag9HeartbeatE)
                  000b4d0c    00000014     midlevel.lib : Secure_CAN.obj (.const:.typeinfo:_ZTSN7Devices8ICAN_drvE)
                  000b4d20    00000014     devices.lib : Ntcs0603.obj (.const:.typeinfo:_ZTSN7Devices8Ntcs0603E)
                  000b4d34    00000014     midlevel.lib : Sniffer.obj (.const:.typeinfo:_ZTSN8Midlevel7SnifferE)
                  000b4d48    00000014     veronte.lib : Cy_amz_timesync_server.obj (.const:.typeinfo:_ZTSN8Midlevel7TP_syncE)
                  000b4d5c    00000014     DSP28x.lib : I2Cdevice.obj (.const:_ZTVN12Dsp28335_ent9I2CdeviceE)
                  000b4d70    00000014     veronte.lib : Vfspermission.obj (.const:_ZTVN3Ver13VfspermissionE)
                  000b4d84    00000014     stanag.lib : Stanag_msg_mgr.obj (.const:_ZTVN6Stanag14Stanag_msg_mgrE)
                  000b4d98    00000014     devices.lib : ADC121C021Q.obj (.const:_ZTVN7Devices11ADC121C021QE)
                  000b4dac    00000013     veronte.lib : Xpcu8suite.obj (.const:.typeinfo:_ZTSN3Ver10Xpcu8suiteE)
                  000b4dbf    00000013                 : Halsuite_amz.obj (.const:.typeinfo:_ZTSN4Base6ItportIhhEE)
                  000b4dd2    00000013                 : Halsuite_amz.obj (.const:.typeinfo:_ZTSN4Base6ItportIjjEE)
                  000b4de5    00000013                 : Halsuite_amz.obj (.const:.typeinfo:_ZTSN4Base7type_isIhEE)
                  000b4df8    00000013     media.lib : Discovery.obj (.const:.typeinfo:_ZTSN5Media9DiscoveryE)
                  000b4e0b    00000013               : HformatSD.obj (.const:.typeinfo:_ZTSN5Media9HformatSDE)
                  000b4e1e    00000013     veronte.lib : Rtaskio_amz.obj (.const:.typeinfo:_ZTSN6Cyphal8Cy_statsE)
                  000b4e31    00000013     stanag.lib : Stanag_msg_mgr.obj (.const:.typeinfo:_ZTSN6Stanag8Msg_fifoE)
                  000b4e44    00000013     midlevel.lib : Cmdmgr.obj (.const:.typeinfo:_ZTSN8Midlevel6CmdmgrE)
                  000b4e57    00000001     --HOLE-- [fill = 0]
                  000b4e58    00000012     veronte.lib : Maps_updater.obj (.const:.typeinfo:_ZTIN3Ver12Maps_updaterE)
                  000b4e6a    00000012                 : Licmgr.obj (.const:.typeinfo:_ZTIN3Ver6LicmgrE)
                  000b4e7c    00000004     midlevel.lib : Meas_GPS_raw_time.obj (.const:$P$T1$1)
                  000b4e80    00000012     base.lib : Fmsgmgr.obj (.const:.typeinfo:_ZTIN4Base7FmsgmgrE)
                  000b4e92    00000012              : Taskmgr.obj (.const:.typeinfo:_ZTIN4Base7TaskmgrE)
                  000b4ea4    00000012     media.lib : Fdr.obj (.const:.typeinfo:_ZTIN5Media3FdrE)
                  000b4eb6    0000000a     devices.lib : Adis165053_cfg.obj (.const:$P$T0$1)
                  000b4ec0    00000012     midlevel.lib : Cyphal_tx_mgr.obj (.const:.typeinfo:_ZTIN6Cyphal13Cyphal_tx_mgrE)
                  000b4ed2    00000012     base.lib : CANserial.obj (.const:.typeinfo:_ZTSN4Base9CANserialE)
                  000b4ee4    00000012              : FMCP_null.obj (.const:.typeinfo:_ZTSN4Base9FMCP_nullE)
                  000b4ef6    00000012     veronte.lib : Devsuite_amz.obj (.const:.typeinfo:_ZTSN4Base9GPIO_nullE)
                  000b4f08    00000012     base.lib : Ckfletcher.obj (.const:.typeinfo:_ZTSN4Base9IchecksumE)
                  000b4f1a    00000012     midlevel.lib : Comstats.obj (.const:.typeinfo:_ZTSN4Base9IcomstatsE)
                  000b4f2c    00000012     first.lib : Endian3.obj (.const:.typeinfo:_ZTSN4Base9Iendian16E)
                  000b4f3e    00000012               : Endian3.obj (.const:.typeinfo:_ZTSN4Base9Iendian32E)
                  000b4f50    00000012               : Endian3.obj (.const:.typeinfo:_ZTSN4Base9Iendian64E)
                  000b4f62    00000012     midlevel.lib : Cmdmgr.obj (.const:.typeinfo:_ZTSN4Base9IexecuterE)
                  000b4f74    00000012     veronte.lib : Veronte.obj (.const:.typeinfo:_ZTSN4Base9Ipkt_portE)
                  000b4f86    00000012                 : Hvar_cpu1.obj (.const:.typeinfo:_ZTSN4Base9IstrbuildE)
                  000b4f98    00000012     base.lib : SerialCAN.obj (.const:.typeinfo:_ZTSN4Base9SerialCANE)
                  000b4faa    00000012              : Xcfilesvc.obj (.const:.typeinfo:_ZTSN4Base9XcfilesvcE)
                  000b4fbc    00000012     DSP28x.lib : I2Cif.obj (.const:_ZTVN12Dsp28335_ent5I2CifE)
                  000b4fce    00000012     DSP2838x_ent.lib : PMbusdrv_drv.obj (.const:_ZTVN12Dsp28335_ent9PMbus_drvE)
                  000b4fe0    00000012     veronte.lib : Can4x.obj (.const:_ZTVN3Ver5Can4xE)
                  000b4ff2    00000012                 : Halsuite.obj (.const:_ZTVN4Base11Port_bufferINS_13Port_stats_txIN12Dsp28335_ent3SCIEEENS_13Port_stats_rxIS3_EEEE)
                  000b5004    00000012                 : Halsuite_amz.obj (.const:_ZTVN4Base11Port_bufferINS_13Port_stats_txINS_8TportcutIN12Dsp28335_ent3SCIEhEEEENS_13Port_stats_rxIS4_EEEE)
                  000b5016    00000012                 : Halsuite.obj (.const:_ZTVN4Base17Port_buffer_statsIN12Dsp28335_ent3SCIES2_EE)
                  000b5028    00000012                 : Halsuite_amz.obj (.const:_ZTVN4Base17Port_buffer_statsINS_8TportcutIN12Dsp28335_ent3SCIEhEES3_EE)
                  000b503a    00000012     devices.lib : Sxp.obj (.const:_ZTVN4Base22Port_stats_itport_wrapINS_5TportINS_12U8pkfifospscES2_hhEEEE)
                  000b504c    00000012     base.lib : Varmgr.obj (.const:_ZTVN4Base4IgetE)
                  000b505e    00000012     veronte.lib : Varmeas.obj (.const:_ZTVN4Base4IsetE)
                  000b5070    00000012                 : Xpccansuite.obj (.const:_ZTVN4Base5TportIN12Dsp28335_ent3CANES2_NS_8CANframeES3_EE)
                  000b5082    00000012                 : Halsuite_amz.obj (.const:_ZTVN4Base5TportIN12Dsp28335_ent3SPIES2_jjEE)
                  000b5094    00000012                 : Halsuite_amz.obj (.const:_ZTVN4Base5TportIN12Dsp28335_ent5McbspES2_jjEE)
                  000b50a6    00000012                 : Xpccansuite.obj (.const:_ZTVN4Base5TportIN12Dsp28335_ent6CAN_FDES2_NS_8CANframeES3_EE)
                  000b50b8    00000012                 : Halsuite_amz.obj (.const:_ZTVN4Base5TportINS_12U8pkfifospscES1_hhEE)
                  000b50ca    00000012     DSP28x.lib : I2Cif.obj (.const:_ZTVN4Base6II2CifE)
                  000b50dc    00000012     base.lib : Vardst.obj (.const:_ZTVN4Base6VardstE)
                  000b50ee    00000012              : Taskmgr.obj (.const:_ZTVN4Base7TaskmgrE)
                  000b5100    00000012     midlevel.lib : Conf_check_query.obj (.const:_ZTVN6Cyphal16Conf_check_queryE)
                  000b5112    00000012                  : CyphalStanag_rx_hnd.obj (.const:_ZTVN6Cyphal19CyphalStanag_rx_hndE)
                  000b5124    00000012     pa_blocks.lib : Cy_maint_dcomms.obj (.const:_ZTVN9Pa_blocks15Cy_maint_dcommsE)
                  000b5136    00000012     veronte.lib : Vfspermission.obj (.const:op_files$1)
                  000b5148    00000011                 : Isensimrx.obj (.const:.typeinfo:_ZTSN3Ver9IsensimrxE)
                  000b5159    00000011                 : Reset_ver_pa.obj (.const:.typeinfo:_ZTSN3Ver9Reset_verE)
                  000b516a    00000011                 : Xpcu8suite.obj (.const:.typeinfo:_ZTSN4Base5RngitIjEE)
                  000b517b    00000011                 : Xpccansuite.obj (.const:.typeinfo:_ZTSN4Base8CANout_cE)
                  000b518c    00000011     stanag.lib : Stanag_msg_mgr.obj (.const:.typeinfo:_ZTSN4Base8Imsg_mgrE)
                  000b519d    00000011     base.lib : Taskmgr.obj (.const:.typeinfo:_ZTSN4Base8ItaskmgrE)
                  000b51ae    00000011     veronte.lib : Xpccansuite.obj (.const:.typeinfo:_ZTSN4Base8ItunableE)
                  000b51bf    00000011     base.lib : Xclogsvc.obj (.const:.typeinfo:_ZTSN4Base8XclogsvcE)
                  000b51d0    00000011     media.lib : Filecom.obj (.const:.typeinfo:_ZTSN5Media7FilecomE)
                  000b51e1    00000011     veronte.lib : Licmgr.obj (.const:.typeinfo:_ZTSN5Media7IlicsrcE)
                  000b51f2    00000011     media.lib : Logctrl.obj (.const:.typeinfo:_ZTSN5Media7LogctrlE)
                  000b5203    00000011     devices.lib : LMT86.obj (.const:.typeinfo:_ZTSN7Devices5LMT86E)
                  000b5214    00000011                 : MX66L.obj (.const:.typeinfo:_ZTSN7Devices5MX66LE)
                  000b5225    00000011     veronte.lib : ADCsuite.obj (.const:_ZN3Ver36_GLOBAL__N__12_ADCsuite_cpp_d10a27e87adc_chsE)
                  000b5236    00000011                 : ADCsuite.obj (.const:_ZN3Ver36_GLOBAL__N__12_ADCsuite_cpp_d10a27e87info_idE)
                  000b5247    00000011     first.lib : Bitutils.obj (.const:_ZN4Base8Bitutils6mask16E)
                  000b5258    00000010     veronte.lib : ADCsuite.obj (.const:.typeinfo:_ZTSN3Ver8ADCsuiteE)
                  000b5268    00000010                 : Devsuite_amz.obj (.const:.typeinfo:_ZTSN3Ver8DevsuiteE)
                  000b5278    00000010                 : Halsuite.obj (.const:.typeinfo:_ZTSN3Ver8HalsuiteE)
                  000b5288    00000010                 : Xpccansuite.obj (.const:.typeinfo:_ZTSN4Base7CANin_pE)
                  000b5298    00000010     base.lib : Fmsgmgr.obj (.const:.typeinfo:_ZTSN4Base7FmsgmgrE)
                  000b52a8    00000010              : Xcmqwr.obj (.const:.typeinfo:_ZTSN4Base7IxcmqwrE)
                  000b52b8    00000010              : Session.obj (.const:.typeinfo:_ZTSN4Base7SessionE)
                  000b52c8    00000010              : Taskmgr.obj (.const:.typeinfo:_ZTSN4Base7TaskmgrE)
                  000b52d8    00000010              : Vrefdst.obj (.const:.typeinfo:_ZTSN4Base7VrefdstE)
                  000b52e8    00000010              : Xcfgmgr.obj (.const:.typeinfo:_ZTSN4Base7XcfgmgrE)
                  000b52f8    00000010              : Xcpktrd.obj (.const:.typeinfo:_ZTSN4Base7XcpktrdE)
                  000b5308    00000010     DSP2838x_ent.lib : CAN_FD.obj (.const:_ZN12Dsp28335_ent34_GLOBAL__N__10_CAN_FD_cpp_78e6dc5c8obj_sizeE)
                  000b5318    00000010     DSP2837x_ent.lib : ADC.obj (.const:_ZN12Dsp28335_ent3ADC18default_ch_mappingE)
                  000b5328    00000010     first.lib : Bitutils.obj (.const:_ZN4Base8Bitutils14reflect4lookupE)
                  000b5338    00000010     veronte.lib : Isensimrx.obj (.const:_ZTVN3Ver9IsensimrxE)
                  000b5348    00000010                 : Halsuite_amz.obj (.const:_ZTVN4Base10Itport_blkIjjEE)
                  000b5358    00000010     media.lib : Logctrl.obj (.const:_ZTVN4Base11IlogcontrolE)
                  000b5368    00000010     veronte.lib : Halsuite_amz.obj (.const:_ZTVN4Base13Tport_w_r_blkIjjEE)
                  000b5378    00000010     base.lib : CANserial.obj (.const:_ZTVN4Base9CANserialE)
                  000b5388    00000010     veronte.lib : Veronte.obj (.const:_ZTVN4Base9Fifo_portINS_11Fifo_sharedINS_11Spkt_bufferELj2EE6WriterENS3_6ReaderEEE)
                  000b5398    00000010                 : Veronte.obj (.const:_ZTVN4Base9Ipkt_portE)
                  000b53a8    00000010     base.lib : SerialCAN.obj (.const:_ZTVN4Base9SerialCANE)
                  000b53b8    00000010     veronte.lib : Halsuite_amz.obj (.const:_ZTVN4Base9Tport_blkIjjEE)
                  000b53c8    00000010     media.lib : Logctrl.obj (.const:_ZTVN5Media7LogctrlE)
                  000b53d8    00000010     midlevel.lib : CyphalCAN_in.obj (.const:_ZTVN6Cyphal12CyphalCAN_inE)
                  000b53e8    00000010                  : CyphalCAN_out.obj (.const:_ZTVN6Cyphal13CyphalCAN_outE)
                  000b53f8    00000010     stanag.lib : Fly_term_cmd.obj (.const:_ZTVN6Stanag12Fly_term_cmdE)
                  000b5408    00000010                : Message_request.obj (.const:_ZTVN6Stanag15Message_requestE)
                  000b5418    00000010     midlevel.lib : Sniffer.obj (.const:_ZTVN8Midlevel7SnifferE)
                  000b5428    00000010     pa_blocks.lib : Cy_maint_dcomms.obj (.const:_ZTVN9Pa_blocks22Cy_maint_action_consts13Imaint_actionE)
                  000b5438    00000008     base.lib : Xcfilesvc.obj (.const:$P$T14$2)
                  000b5440    00000010     Mem_to_wipe.obj (.const:mem_to_wipe$1)
                  000b5450    0000000f     veronte.lib : Logbook.obj (.const:.typeinfo:_ZTSN3Ver7LogbookE)
                  000b545f    0000000f                 : Tmsuite.obj (.const:.typeinfo:_ZTSN3Ver7TmsuiteE)
                  000b546e    0000000f                 : Varmeas.obj (.const:.typeinfo:_ZTSN3Ver7VarmeasE)
                  000b547d    0000000f     base.lib : Actmgr.obj (.const:.typeinfo:_ZTSN4Base6ActmgrE)
                  000b548c    0000000f              : CRCmav.obj (.const:.typeinfo:_ZTSN4Base6CRCmavE)
                  000b549b    0000000f     DSP28x.lib : I2Cif.obj (.const:.typeinfo:_ZTSN4Base6II2CifE)
                  000b54aa    0000000f     midlevel.lib : Cmdmgr.obj (.const:.typeinfo:_ZTSN4Base6IcmdfwE)
                  000b54b9    0000000f     DSP2837x_ent.lib : Reset_2837x.obj (.const:.typeinfo:_ZTSN4Base6IresetE)
                  000b54c8    0000000f     base.lib : Vardst.obj (.const:.typeinfo:_ZTSN4Base6VardstE)
                  000b54d7    0000000f              : Varmgr.obj (.const:.typeinfo:_ZTSN4Base6VarmgrE)
                  000b54e6    0000000f              : Xcmqwr.obj (.const:.typeinfo:_ZTSN4Base6XcmqwrE)
                  000b54f5    0000000b     midlevel.lib : Cy_soft_conf_check.obj (.const:.string:k_ev1r$3)
                  000b5500    0000000e     veronte.lib : Halsuite_amz.obj (.const:$P$T133$14)
                  000b550e    0000000e     DSP28x.lib : CAN_FD_common.obj (.const:.string:dlcs$1)
                  000b551c    0000000e     veronte.lib : Halsuite_amz.obj (.const:.typeinfo:_ZTIN12Dsp28335_ent9DMAmp_blkIjEE)
                  000b552a    0000000e                 : Halsuite_amz.obj (.const:.typeinfo:_ZTIN12Dsp28335_ent9DMApm_blkIjEE)
                  000b5538    00000008     media.lib : Logctrl.obj (.const:$P$T46$1)
                  000b5540    0000000e     veronte.lib : Vfspermission.obj (.const:.typeinfo:_ZTIN3Ver13VfspermissionE)
                  000b554e    0000000e                 : Bitmgr.obj (.const:.typeinfo:_ZTIN3Ver6BitmgrE)
                  000b555c    0000000e     devices.lib : Sxp.obj (.const:.typeinfo:_ZTIN4Base10Port_statsINS_5TportINS_12U8pkfifospscES2_hhEES3_EE)
                  000b556a    0000000e     veronte.lib : Xpccansuite.obj (.const:.typeinfo:_ZTIN4Base12FcanproducerINS_8Xcfg_desINS_15Xfmsgcanp0arrayILj0EEENS_9Tuntraits10DesdefaultIS3_EEEEEE)
                  000b5578    00000008     media.lib : Logctrl.obj (.const:$P$T50$2)
                  000b5580    0000000e     base.lib : Fmsgproducer.obj (.const:.typeinfo:_ZTIN4Base12FmsgproducerE)
                  000b558e    0000000e              : Stanag_parser.obj (.const:.typeinfo:_ZTIN4Base13Stanag_parserE)
                  000b559c    0000000e     veronte.lib : Halsuite.obj (.const:.typeinfo:_ZTIN4Base17Port_buffer_statsIN12Dsp28335_ent3SCIES2_EE)
                  000b55aa    0000000e                 : Halsuite_amz.obj (.const:.typeinfo:_ZTIN4Base17Port_buffer_statsINS_8TportcutIN12Dsp28335_ent3SCIEhEES3_EE)
                  000b55b8    00000008     midlevel.lib : Cy_soft_conf_check.obj (.const:.string:k_unk$7)
                  000b55c0    0000000e     devices.lib : Sxp.obj (.const:.typeinfo:_ZTIN4Base22Port_stats_itport_wrapINS_5TportINS_12U8pkfifospscES2_hhEEEE)
                  000b55ce    0000000e     veronte.lib : Xpcu8suite.obj (.const:.typeinfo:_ZTIN4Base6ComConIN12Dsp28335_ent3SCIEEE)
                  000b55dc    0000000e                 : Xpccansuite.obj (.const:.typeinfo:_ZTIN4Base6ItportINS_8CANframeES1_EE)
                  000b55ea    0000000e                 : Halsuite_amz.obj (.const:.typeinfo:_ZTIN4Base6ItportIhhEE)
                  000b55f8    00000008     rts2800_fpu64_eabi.lib : typeinfo.c.obj (.const:.typeinfo:_ZTIPKe)
                  000b5600    0000000e     veronte.lib : Halsuite_amz.obj (.const:.typeinfo:_ZTIN4Base6ItportIjjEE)
                  000b560e    0000000e     base.lib : Varmgr.obj (.const:.typeinfo:_ZTIN4Base6VarmgrE)
                  000b561c    0000000e     veronte.lib : Xpccansuite.obj (.const:.typeinfo:_ZTIN4Base8ItunableE)
                  000b562a    0000000e     base.lib : CANserial.obj (.const:.typeinfo:_ZTIN4Base9CANserialE)
                  000b5638    00000008     rts2800_fpu64_eabi.lib : typeinfo.c.obj (.const:_ZTVN10__cxxabiv117__class_type_infoE)
                  000b5640    0000000e     base.lib : SerialCAN.obj (.const:.typeinfo:_ZTIN4Base9SerialCANE)
                  000b564e    0000000e     media.lib : Filecom.obj (.const:.typeinfo:_ZTIN5Media7FilecomE)
                  000b565c    0000000e               : HformatSD.obj (.const:.typeinfo:_ZTIN5Media9HformatSDE)
                  000b566a    0000000e     midlevel.lib : CyphalCAN_in.obj (.const:.typeinfo:_ZTIN6Cyphal12CyphalCAN_inE)
                  000b5678    00000008     rts2800_fpu64_eabi.lib : typeinfo.c.obj (.const:_ZTVN10__cxxabiv119__pointer_type_infoE)
                  000b5680    0000000e     midlevel.lib : CyphalCAN_out.obj (.const:.typeinfo:_ZTIN6Cyphal13CyphalCAN_outE)
                  000b568e    0000000e     veronte.lib : Veronte.obj (.const:.typeinfo:_ZTIN6Stanag10Stanag_msgE)
                  000b569c    0000000e     stanag.lib : Stanag_port.obj (.const:.typeinfo:_ZTIN6Stanag11Stanag_portE)
                  000b56aa    0000000e                : Auth_request.obj (.const:.typeinfo:_ZTIN6Stanag12Auth_requestE)
                  000b56b8    00000008     rts2800_fpu64_eabi.lib : typeinfo.c.obj (.const:_ZTVN10__cxxabiv120__si_class_type_infoE)
                  000b56c0    0000000e     veronte.lib : Maps_updater.obj (.const:.typeinfo:_ZTIN6Stanag14IStanag_rx_hdlE)
                  000b56ce    0000000e     stanag.lib : Stanag_msg_mgr.obj (.const:.typeinfo:_ZTIN6Stanag14Stanag_msg_mgrE)
                  000b56dc    0000000e                : Auth_handover_req.obj (.const:.typeinfo:_ZTIN6Stanag17Auth_handover_reqE)
                  000b56ea    0000000e                : Schedule_msg_updt.obj (.const:.typeinfo:_ZTIN6Stanag17Schedule_msg_updtE)
                  000b56f8    00000008     rts2800_fpu64_eabi.lib : typeinfo.c.obj (.const:_ZTVN10__cxxabiv121__vmi_class_type_infoE)
                  000b5700    0000000e     stanag.lib : Stanag_msg_mgr.obj (.const:.typeinfo:_ZTIN6Stanag8Msg_fifoE)
                  000b570e    0000000e     midlevel.lib : Cy_mode_transition_allowed.obj (.const:.typeinfo:_ZTIN8Midlevel26Cy_mode_transition_allowedE)
                  000b571c    0000000e                  : Comstats.obj (.const:.typeinfo:_ZTIN8Midlevel8ComstatsE)
                  000b572a    0000000e     pa_blocks.lib : Cy_maint_action.obj (.const:.typeinfo:_ZTIN9Pa_blocks15Cy_maint_actionE)
                  000b5738    00000008     rts2800_fpu64_eabi.lib : typeinfo.c.obj (.const:_ZTVN10__cxxabiv123__fundamental_type_infoE)
                  000b5740    0000000e     veronte.lib : Cy_amz_timesync_server.obj (.const:.typeinfo:_ZTIN9Pa_blocks22Cy_amz_timesync_serverE)
                  000b574e    0000000e     pa_blocks.lib : Cy_maint_dcomms.obj (.const:.typeinfo:_ZTIN9Pa_blocks22Cy_maint_action_consts13Imaint_actionE)
                  000b575c    0000000e     veronte.lib : Bitmgr.obj (.const:.typeinfo:_ZTSN3Ver6BitmgrE)
                  000b576a    0000000e                 : Licmgr.obj (.const:.typeinfo:_ZTSN3Ver6LicmgrE)
                  000b5778    0000000e     base.lib : Spkt.obj (.const:.typeinfo:_ZTSN4Base5CRC32E)
                  000b5786    0000000e              : Spkt.obj (.const:.typeinfo:_ZTSN4Base5CksumE)
                  000b5794    0000000e              : Evact.obj (.const:.typeinfo:_ZTSN4Base5EvactE)
                  000b57a2    0000000e              : Fstr1.obj (.const:.typeinfo:_ZTSN4Base5Fstr1E)
                  000b57b0    0000000e              : FMCPmgr.obj (.const:.typeinfo:_ZTSN4Base5IFMCPE)
                  000b57be    0000000e     veronte.lib : Halsuite_amz.obj (.const:.typeinfo:_ZTSN4Base5IGpioE)
                  000b57cc    0000000e     DFS2.lib : DSF2_file.obj (.const:.typeinfo:_ZTSN4Base5IfileE)
                  000b57da    0000000e     veronte.lib : Vcfchecker.obj (.const:.typeinfo:_ZTSN4Base5IstepE)
                  000b57e8    0000000e                 : Maps_updater.obj (.const:.typeinfo:_ZTSN4Base5ItaskE)
                  000b57f6    0000000e                 : Halsuite_amz.obj (.const:_ZTVN12Dsp28335_ent5GPIOvE)
                  000b5804    0000000e                 : Xpccansuite.obj (.const:_ZTVN4Base10FcanmsgmgrINS_12Xfmsgcan_hdlILj0ELj0ELj0EE14Xfmsgcan_arrayINS_8Xcfg_desINS_15Xfmsgcanp0arrayILj0EEENS_9Tuntraits10DesdefaultIS6_EEEEEENS3_INS4_INS_15Xfmsgcanc0arrayILj0ELj0EEENS7_15Arraytun_size16INS7_9Cset_onlyINS_10Xfmsgcanc0ILj0EEEEESD_NS7_8No_checkISD_EEEEEEEEEE)
                  000b5812    0000000e                 : Xpccansuite.obj (.const:_ZTVN4Base12FcanproducerINS_8Xcfg_desINS_15Xfmsgcanp0arrayILj0EEENS_9Tuntraits10DesdefaultIS3_EEEEEE)
                  000b5820    0000000e     base.lib : Fmsgproducer.obj (.const:_ZTVN4Base12FmsgproducerE)
                  000b582e    0000000e              : Stanag_parser.obj (.const:_ZTVN4Base13Stanag_parserE)
                  000b583c    0000000e              : Fstr1.obj (.const:_ZTVN4Base5Fstr1E)
                  000b584a    0000000e     veronte.lib : Halsuite_amz.obj (.const:_ZTVN4Base5IGpioE)
                  000b5858    0000000e                 : Xpccansuite.obj (.const:_ZTVN4Base6ItportINS_8CANframeES1_EE)
                  000b5866    0000000e                 : Halsuite_amz.obj (.const:_ZTVN4Base6ItportIhhEE)
                  000b5874    0000000e                 : Halsuite_amz.obj (.const:_ZTVN4Base6ItportIjjEE)
                  000b5882    0000000e     midlevel.lib : Cmdmgr.obj (.const:_ZTVN4Base8TwraptunINS_9Tuntraits15Arraytun_nosizeINS1_7Lossy16IjEENS_6MblockIjEENS1_8No_checkIS6_EEEES6_EE)
                  000b5890    0000000e     veronte.lib : Devsuite_amz.obj (.const:_ZTVN4Base9GPIO_nullE)
                  000b589e    0000000e                 : Veronte.obj (.const:_ZTVN6Stanag13Stanag_msg_rxE)
                  000b58ac    0000000e                 : Maps_updater.obj (.const:_ZTVN6Stanag14IStanag_rx_hdlE)
                  000b58ba    0000000e     stanag.lib : Stanag_msg_push_pkt.obj (.const:_ZTVN6Stanag19Stanag_msg_rx_asyncE)
                  000b58c8    0000000e     midlevel.lib : Msg_sender_action.obj (.const:_ZTVN8Midlevel17Msg_sender_actionE)
                  000b58d6    0000000e                  : Cy_mode_transition_allowed.obj (.const:_ZTVN8Midlevel26Cy_mode_transition_allowedE)
                  000b58e4    0000000d     veronte.lib : Can4x.obj (.const:.typeinfo:_ZTSN3Ver5Can4xE)
                  000b58f1    0000000d     base.lib : Varmgr.obj (.const:.typeinfo:_ZTSN4Base4IgetE)
                  000b58fe    0000000d     veronte.lib : Varmeas.obj (.const:.typeinfo:_ZTSN4Base4IsetE)
                  000b590b    0000000d     DFS2.lib : DSF2_file.obj (.const:.typeinfo:_ZTSN4DFS24FileE)
                  000b5918    0000000d     media.lib : Fdr.obj (.const:.typeinfo:_ZTSN5Media3FdrE)
                  000b5925    0000000d     rts2800_fpu64_eabi.lib : typeinfo.c.obj (.const:.typeinfo:_ZTSSt9type_info)
                  000b5932    0000000c     base.lib : CRC.obj (.const:.typeinfo:_ZTSN4Base3CRCE)
                  000b593e    00000002     DSP2838x_ent.lib : Cpusys_2838x.obj (.const:$P$T0$2)
                  000b5940    0000000c     stanag.lib : Alert_msg.obj (.const:_ZN6Stanag37_GLOBAL__N__13_Alert_msg_cpp_57bcba0b4strsE)
                  000b594c    0000000c     pa_blocks.lib : Fifo_imu.obj (.const:_ZN9Pa_blocks8Fifo_imu6Writer8in_coefsE)
                  000b5958    0000000c                   : Fifo_imu.obj (.const:_ZN9Pa_blocks8Fifo_imu6Writer9out_coefsE)
                  000b5964    0000000c     veronte.lib : Apos_serializator.obj (.const:_ZTVN3Ver17Apos_serializatorE)
                  000b5970    0000000c     base.lib : Field_cfg.obj (.const:_ZTVN4Base10Cksum_modnE)
                  000b597c    0000000c              : Fmsgchecker.obj (.const:_ZTVN4Base11FmsgcheckerE)
                  000b5988    0000000c     veronte.lib : Veronte.obj (.const:_ZTVN4Base11Imaint_modeE)
                  000b5994    0000000c     base.lib : Fmsgchecker.obj (.const:_ZTVN4Base11ImsgcheckerE)
                  000b59a0    0000000c              : Stanag_parser.obj (.const:_ZTVN4Base11Ipkt_parserE)
                  000b59ac    0000000c              : RTCM3parser.obj (.const:_ZTVN4Base12Chk_blk_implE)
                  000b59b8    0000000c              : Field_cfg.obj (.const:_ZTVN4Base14Cksum_sagetechE)
                  000b59c4    0000000c              : Address_handler_generic.obj (.const:_ZTVN4Base16IAddress_handlerE)
                  000b59d0    0000000c              : Address_handler_generic.obj (.const:_ZTVN4Base23Address_handler_genericE)
                  000b59dc    0000000c              : CRC.obj (.const:_ZTVN4Base3CRCE)
                  000b59e8    0000000c              : Spkt.obj (.const:_ZTVN4Base5CRC32E)
                  000b59f4    0000000c              : Spkt.obj (.const:_ZTVN4Base5CksumE)
                  000b5a00    0000000c     veronte.lib : Apos_serializator.obj (.const:_ZTVN4Base5Field18Iapos_serializatorE)
                  000b5a0c    0000000c     base.lib : CRCmav.obj (.const:_ZTVN4Base6CRCmavE)
                  000b5a18    0000000c     stanag.lib : Stanag_msg_mgr.obj (.const:_ZTVN4Base8Imsg_mgrE)
                  000b5a24    0000000c     base.lib : Taskmgr.obj (.const:_ZTVN4Base8ItaskmgrE)
                  000b5a30    0000000c     veronte.lib : Xpccansuite.obj (.const:_ZTVN4Base8ItunableE)
                  000b5a3c    0000000c     base.lib : Ckfletcher.obj (.const:_ZTVN4Base9IchecksumE)
                  000b5a48    0000000c     veronte.lib : Maps_updater.obj (.const:_ZTVN5Media10IupdatableE)
                  000b5a54    0000000c                 : Vfspermission.obj (.const:_ZTVN5Media13IfspermissionE)
                  000b5a60    0000000c     media.lib : Maint_mode_bl.obj (.const:_ZTVN5Media13Maint_mode_blE)
                  000b5a6c    0000000c     veronte.lib : Cy_string_resp.obj (.const:_ZTVN6Cyphal14Cy_string_respE)
                  000b5a78    0000000c                 : Cy_pers_pdi_resp.obj (.const:_ZTVN6Cyphal16Cy_pers_pdi_respE)
                  000b5a84    0000000c     midlevel.lib : Cy_soft_conf_check.obj (.const:_ZTVN6Cyphal18Cy_soft_conf_checkE)
                  000b5a90    0000000c                  : CyphalStanag_tx_hnd.obj (.const:_ZTVN6Cyphal19CyphalStanag_tx_hndE)
                  000b5a9c    0000000c     stanag.lib : Auth_request.obj (.const:_ZTVN6Stanag18IConnection_getterE)
                  000b5aa8    0000000c                : Stanag_status_msgs.obj (.const:_ZTVN6Stanag19Ispecial_conversionE)
                  000b5ab4    0000000c                : Stanag_status_msgs.obj (.const:_ZTVN6Stanag23Special_conversion_nullE)
                  000b5ac0    0000000a     base.lib : Vrefdst.obj (.const:$P$T1$1)
                  000b5aca    0000000a              : Evact.obj (.const:.typeinfo:_ZTIN4Base5EvactE)
                  000b5ad4    0000000a     main_cpu1.obj (.const:.typeinfo:_ZTIN4Base8FifospscINS_8Msg_dataEEE)
                  000b5ade    0000000a     DSP28x.lib : SCI.obj (.const:_ZTVN12Dsp28335_ent10ISCI_ioctlE)
                  000b5ae8    0000000a                : SCI.obj (.const:_ZTVN12Dsp28335_ent3SCIE)
                  000b5af2    0000000a     veronte.lib : Halsuite_amz.obj (.const:_ZTVN12Dsp28335_ent9DMAmp_blkIjEE)
                  000b5afc    0000000a                 : Halsuite_amz.obj (.const:_ZTVN12Dsp28335_ent9DMApm_blkIjEE)
                  000b5b06    0000000a     base.lib : FMCP_varmgr.obj (.const:_ZTVN4Base11FMCP_varmgrE)
                  000b5b10    0000000a     veronte.lib : Xpcu8suite.obj (.const:_ZTVN4Base11Iconnect_rxE)
                  000b5b1a    0000000a                 : Xpcu8suite.obj (.const:_ZTVN4Base11Iconnect_txE)
                  000b5b24    0000000a     stanag.lib : Stanag_msg_mgr.obj (.const:_ZTVN4Base11Imsg_senderE)
                  000b5b2e    0000000a     midlevel.lib : Cyphal_tx_mgr.obj (.const:_ZTVN4Base11Ipkt_senderE)
                  000b5b38    0000000a     veronte.lib : Veronte.obj (.const:_ZTVN4Base12ITemp_getterE)
                  000b5b42    0000000a                 : Halsuite_amz.obj (.const:_ZTVN4Base13Itport_blk_chIjEE)
                  000b5b4c    0000000a     base.lib : Message_received_hnd.obj (.const:_ZTVN4Base20Message_received_hnd7BuilderE)
                  000b5b56    0000000a              : FMCPmgr.obj (.const:_ZTVN4Base5IFMCPE)
                  000b5b60    0000000a     veronte.lib : Hvar_cpu1.obj (.const:_ZTVN4Base6XcmvarINS_3FidENS_9Tuntraits10U16strCxetINS_7FeatureEEEE7BuilderE)
                  000b5b6a    0000000a                 : Hvar_cpu1.obj (.const:_ZTVN4Base6XcmvarINS_4BvarENS_9Tuntraits10U16bool_16IbEEE7BuilderE)
                  000b5b74    0000000a                 : Hvar_cpu1.obj (.const:_ZTVN4Base6XcmvarINS_4RvarENS_9Tuntraits12U16str_floatEE7BuilderE)
                  000b5b7e    0000000a                 : Hvar_cpu1.obj (.const:_ZTVN4Base6XcmvarINS_4UvarENS_9Tuntraits9U16str_16IjEEE7BuilderE)
                  000b5b88    0000000a                 : Hvar_cpu1.obj (.const:_ZTVN4Base6XcmvarINS_8Bvar_mapENS_9Tuntraits10U16strCxetINS_8Hbmapvar4TypeEEEE7BuilderE)
                  000b5b92    0000000a                 : Veronte.obj (.const:_ZTVN4Base7StepperIN3Ver8HalsuiteEXadL_ZNS2_4stepEvEEEE)
                  000b5b9c    0000000a     base.lib : FMCP_null.obj (.const:_ZTVN4Base9FMCP_nullE)
                  000b5ba6    0000000a     midlevel.lib : Comstats.obj (.const:_ZTVN4Base9IcomstatsE)
                  000b5bb0    0000000a     veronte.lib : Hvar_cpu1.obj (.const:_ZTVN4Base9IstrbuildE)
                  000b5bba    0000000a     stanag.lib : Stanag_msg_mgr.obj (.const:_ZTVN6Stanag8Msg_fifoE)
                  000b5bc4    0000000a     devices.lib : LMT86.obj (.const:_ZTVN7Devices5LMT86E)
                  000b5bce    0000000a                 : Ntcs0603.obj (.const:_ZTVN7Devices8Ntcs0603E)
                  000b5bd8    0000000a     midlevel.lib : Irxfw.obj (.const:_ZTVN8Midlevel32_GLOBAL__N__9_Irxfw_cpp_16a35c0e12IrxfwbuilderE)
                  000b5be2    0000000a                  : Irxfw.obj (.const:_ZTVN8Midlevel32_GLOBAL__N__9_Irxfw_cpp_16a35c0e13NotifybuilderE)
                  000b5bec    0000000a     base.lib : CANin_p.obj (.const:cfg$1)
                  000b5bf6    0000000a     veronte.lib : Bitmgr.obj (.const:max_vs$3)
                  000b5c00    0000000a                 : Bitmgr.obj (.const:min_vs$4)
                  000b5c0a    0000000a     pa_blocks.lib : Cy_maint_dcomms.obj (.const)
                  000b5c14    00000009     DSP2837x_ent.lib : CAN.obj (.const:canBitValues$3)
                  000b5c1d    00000001     --HOLE-- [fill = 0]
                  000b5c1e    00000008     geomodel.lib : Apos.obj (.const:_ZTVN3Geo16Iheight_computerE)
                  000b5c26    00000008                  : Apos.obj (.const:_ZTVN3Geo31_GLOBAL__N__8_Apos_cpp_ad6fc63620Height_computer_nullE)
                  000b5c2e    00000008     veronte.lib : Xpcu8suite.obj (.const:_ZTVN3Ver10Xpcu8suiteE)
                  000b5c36    00000008                 : Halsuite_amz.obj (.const:_ZTVN3Ver12Halsuite_amzE)
                  000b5c3e    00000008                 : Halsuite.obj (.const:_ZTVN3Ver8HalsuiteE)
                  000b5c46    00000008     midlevel.lib : CyphalCAN_out.obj (.const:_ZTVN4Base10ItconsumerIN6Cyphal10Cyphal_msgEEE)
                  000b5c4e    00000008     veronte.lib : Xpccansuite.obj (.const:_ZTVN4Base10ItconsumerINS_8CANframeEEE)
                  000b5c56    00000008                 : Halsuite_amz.obj (.const:_ZTVN4Base10ItconsumerIhEE)
                  000b5c5e    00000008                 : Halsuite_amz.obj (.const:_ZTVN4Base10ItconsumerIjEE)
                  000b5c66    00000008     base.lib : Pkt_router.obj (.const:_ZTVN4Base10Pkt_routerE)
                  000b5c6e    00000008     first.lib : Endian16_big.obj (.const:_ZTVN4Base12Endian16_bigE)
                  000b5c76    00000008               : Endian32_big.obj (.const:_ZTVN4Base12Endian32_bigE)
                  000b5c7e    00000008               : Endian64_big.obj (.const:_ZTVN4Base12Endian64_bigE)
                  000b5c86    00000008     veronte.lib : Xpccansuite.obj (.const:_ZTVN4Base12FcanconsumerINS_8Xcfg_desINS_15Xfmsgcanc0arrayILj0ELj0EEENS_9Tuntraits15Arraytun_size16INS4_9Cset_onlyINS_10Xfmsgcanc0ILj0EEEEES3_NS4_8No_checkIS3_EEEEEEEE)
                  000b5c8e    00000008     base.lib : Fmsgconsumer.obj (.const:_ZTVN4Base12FmsgconsumerE)
                  000b5c96    00000008     veronte.lib : Veronte.obj (.const:_ZTVN4Base13Routing_tableILj2ELj16EEE)
                  000b5c9e    00000008                 : Veronte.obj (.const:_ZTVN4Base14Irouting_tableE)
                  000b5ca6    00000008     first.lib : Endian16_little.obj (.const:_ZTVN4Base15Endian16_littleE)
                  000b5cae    00000008               : Endian32_little.obj (.const:_ZTVN4Base15Endian32_littleE)
                  000b5cb6    00000008               : Endian64_little.obj (.const:_ZTVN4Base15Endian64_littleE)
                  000b5cbe    00000008     veronte.lib : Veronte_dsp.obj (.const:_ZTVN4Base5RngitIN3Ver11Xpcu8_trait2XC3IdxEEE)
                  000b5cc6    00000008                 : Veronte_dsp.obj (.const:_ZTVN4Base5RngitIN3Ver11Xpcu8_trait2XP3IdxEEE)
                  000b5cce    00000008     base.lib : Fmsgchecker.obj (.const:_ZTVN4Base5RngitINS_4BvarEEE)
                  000b5cd6    00000008     veronte.lib : Xpcu8suite.obj (.const:_ZTVN4Base5RngitIjEE)
                  000b5cde    00000008     midlevel.lib : Cmdmgr.obj (.const:_ZTVN4Base6IcmdfwE)
                  000b5ce6    00000008     veronte.lib : Xpccansuite.obj (.const:_ZTVN4Base8CANout_cE)
                  000b5cee    00000008     first.lib : Endian3.obj (.const:_ZTVN4Base9Iendian16E)
                  000b5cf6    00000008               : Endian3.obj (.const:_ZTVN4Base9Iendian32E)
                  000b5cfe    00000008               : Endian3.obj (.const:_ZTVN4Base9Iendian64E)
                  000b5d06    00000008     veronte.lib : Veronte_dsp.obj (.const:_ZTVN4Base9IiteratorIN3Ver11Xpcu8_trait2XC3IdxEEE)
                  000b5d0e    00000008                 : Veronte_dsp.obj (.const:_ZTVN4Base9IiteratorIN3Ver11Xpcu8_trait2XP3IdxEEE)
                  000b5d16    00000008     base.lib : Fmsgchecker.obj (.const:_ZTVN4Base9IiteratorINS_4BvarEEE)
                  000b5d1e    00000008     veronte.lib : Xpcu8suite.obj (.const:_ZTVN4Base9IiteratorIjEE)
                  000b5d26    00000008                 : Tmsuite.obj (.const:_ZTVN4Base9TelemetryINS_12FtelemetryodEEE)
                  000b5d2e    00000008                 : Tmsuite.obj (.const:_ZTVN4Base9TelemetryINS_8FvecdataINS_6TmvdatELm600ELj4EEEEE)
                  000b5d36    00000008     midlevel.lib : Cy_msg_id_gen.obj (.const:_ZTVN6Cyphal13Cy_msg_id_genE)
                  000b5d3e    00000008     stanag.lib : Auth_response.obj (.const:_ZTVN6Stanag13Auth_responseE)
                  000b5d46    00000008     veronte.lib : Veronte.obj (.const:_ZTVN6Stanag13Stanag_msg_txE)
                  000b5d4e    00000008                 : Maps_updater.obj (.const:_ZTVN6Stanag14IStanag_msg_txE)
                  000b5d56    00000008                 : Maps_updater.obj (.const:_ZTVN6Stanag14IStanag_rx_pktE)
                  000b5d5e    00000008     stanag.lib : Fly_term_report.obj (.const:_ZTVN6Stanag15Fly_term_reportE)
                  000b5d66    00000008                : Alert_msg.obj (.const:_ZTVN6Stanag9Alert_msgE)
                  000b5d6e    00000008     midlevel.lib : Secure_CAN.obj (.const:_ZTVN7Devices10Secure_CAN11CAN_wrap_exIN12Dsp28335_ent6CAN_FDEEE)
                  000b5d76    00000008                  : Secure_CAN.obj (.const:_ZTVN7Devices10Secure_CAN8CAN_wrapIN12Dsp28335_ent3CANEEE)
                  000b5d7e    00000008                  : Secure_CAN.obj (.const:_ZTVN7Devices10Secure_CAN8CAN_wrapIN12Dsp28335_ent6CAN_FDEEE)
                  000b5d86    00000008                  : Secure_CAN.obj (.const:_ZTVN7Devices8ICAN_drvE)
                  000b5d8e    00000008                  : Default_cfg.obj (.const:rx_cfg$2)
                  000b5d96    00000006                  : Secure_CAN.obj (.const:$P$T15$3)
                  000b5d9c    00000006     base.lib : Cyphal.obj (.const:$P$T15$5)
                  000b5da2    00000006     midlevel.lib : CyphalStanag_rx_hnd.obj (.const:$P$T19$1)
                  000b5da8    00000006                  : Cyphal_rx_hnd.obj (.const:$P$T6$1)
                  000b5dae    00000006                  : CyphalCAN_in.obj (.const:$P$T61$2)
                  000b5db4    00000006                  : Cyphal_tx_mgr.obj (.const:$P$T70$2)
                  000b5dba    00000006                  : Cyphal_tx_mgr.obj (.const:$P$T72$3)
                  000b5dc0    00000006     rts2800_fpu64_eabi.lib : typeinfo.c.obj (.const:.typeinfo:_ZTIN10__cxxabiv117__class_type_infoE)
                  000b5dc6    00000006                            : typeinfo.c.obj (.const:.typeinfo:_ZTIN10__cxxabiv117__pbase_type_infoE)
                  000b5dcc    00000006                            : typeinfo.c.obj (.const:.typeinfo:_ZTIN10__cxxabiv119__pointer_type_infoE)
                  000b5dd2    00000006                            : typeinfo.c.obj (.const:.typeinfo:_ZTIN10__cxxabiv120__si_class_type_infoE)
                  000b5dd8    00000006                            : typeinfo.c.obj (.const:.typeinfo:_ZTIN10__cxxabiv121__vmi_class_type_infoE)
                  000b5dde    00000006                            : typeinfo.c.obj (.const:.typeinfo:_ZTIN10__cxxabiv123__fundamental_type_infoE)
                  000b5de4    00000006     DSP28x.lib : SCI.obj (.const:.typeinfo:_ZTIN12Dsp28335_ent3SCIE)
                  000b5dea    00000006     veronte.lib : Halsuite_amz.obj (.const:.typeinfo:_ZTIN12Dsp28335_ent5GPIOvE)
                  000b5df0    00000006     DSP28x.lib : I2Cif.obj (.const:.typeinfo:_ZTIN12Dsp28335_ent5I2CifE)
                  000b5df6    00000006     DSP2838x_ent.lib : PMbusdrv_drv.obj (.const:.typeinfo:_ZTIN12Dsp28335_ent9PMbus_drvE)
                  000b5dfc    00000004     veronte.lib : CPU1_CM_shared.obj (.const:$P$T10$1)
                  000b5e00    00000006     geomodel.lib : Apos.obj (.const:.typeinfo:_ZTIN3Geo31_GLOBAL__N__8_Apos_cpp_ad6fc63620Height_computer_nullE)
                  000b5e06    00000006     veronte.lib : Vcfchecker.obj (.const:.typeinfo:_ZTIN3Ver10VcfcheckerE)
                  000b5e0c    00000006                 : Xpcu8suite.obj (.const:.typeinfo:_ZTIN3Ver10Xpcu8suiteE)
                  000b5e12    00000006                 : Xpccansuite.obj (.const:.typeinfo:_ZTIN3Ver11XpccansuiteE)
                  000b5e18    00000006                 : Halsuite_amz.obj (.const:.typeinfo:_ZTIN3Ver12Halsuite_amzE)
                  000b5e1e    00000006                 : Apos_serializator.obj (.const:.typeinfo:_ZTIN3Ver17Apos_serializatorE)
                  000b5e24    00000006                 : Can4x.obj (.const:.typeinfo:_ZTIN3Ver5Can4xE)
                  000b5e2a    00000006                 : Logbook.obj (.const:.typeinfo:_ZTIN3Ver7LogbookE)
                  000b5e30    00000006                 : Tmsuite.obj (.const:.typeinfo:_ZTIN3Ver7TmsuiteE)
                  000b5e36    00000006                 : Varmeas.obj (.const:.typeinfo:_ZTIN3Ver7VarmeasE)
                  000b5e3c    00000004                 : Halsuite.obj (.const:$P$T17$1)
                  000b5e40    00000006                 : ADCsuite.obj (.const:.typeinfo:_ZTIN3Ver8ADCsuiteE)
                  000b5e46    00000006                 : Devsuite_amz.obj (.const:.typeinfo:_ZTIN3Ver8DevsuiteE)
                  000b5e4c    00000006                 : Isensimrx.obj (.const:.typeinfo:_ZTIN3Ver9IsensimrxE)
                  000b5e52    00000006                 : Reset_ver_pa.obj (.const:.typeinfo:_ZTIN3Ver9Reset_verE)
                  000b5e58    00000006     base.lib : Field_cfg.obj (.const:.typeinfo:_ZTIN4Base10Cksum_modnE)
                  000b5e5e    00000006     veronte.lib : Xpccansuite.obj (.const:.typeinfo:_ZTIN4Base10FcanmsgmgrINS_12Xfmsgcan_hdlILj0ELj0ELj0EE14Xfmsgcan_arrayINS_8Xcfg_desINS_15Xfmsgcanp0arrayILj0EEENS_9Tuntraits10DesdefaultIS6_EEEEEENS3_INS4_INS_15Xfmsgcanc0arrayILj0ELj0EEENS7_15Arraytun_size16INS7_9Cset_onlyINS_10Xfmsgcanc0ILj0EEEEESD_NS7_8No_checkISD_EEEEEEEEEE)
                  000b5e64    00000006     base.lib : Pkt_router.obj (.const:.typeinfo:_ZTIN4Base10Pkt_routerE)
                  000b5e6a    00000006              : FMCP_varmgr.obj (.const:.typeinfo:_ZTIN4Base11FMCP_varmgrE)
                  000b5e70    00000006              : Fmsgchecker.obj (.const:.typeinfo:_ZTIN4Base11FmsgcheckerE)
                  000b5e76    00000006     veronte.lib : Halsuite.obj (.const:.typeinfo:_ZTIN4Base11Port_bufferINS_13Port_stats_txIN12Dsp28335_ent3SCIEEENS_13Port_stats_rxIS3_EEEE)
                  000b5e7c    00000004     midlevel.lib : Cy_msg_id_gen.obj (.const:$P$T2$1)
                  000b5e80    00000006     veronte.lib : Halsuite_amz.obj (.const:.typeinfo:_ZTIN4Base11Port_bufferINS_13Port_stats_txINS_8TportcutIN12Dsp28335_ent3SCIEhEEEENS_13Port_stats_rxIS4_EEEE)
                  000b5e86    00000006     base.lib : Vrefdstbuff.obj (.const:.typeinfo:_ZTIN4Base11VrefdstbuffE)
                  000b5e8c    00000006              : RTCM3parser.obj (.const:.typeinfo:_ZTIN4Base12Chk_blk_implE)
                  000b5e92    00000006     first.lib : Endian16_big.obj (.const:.typeinfo:_ZTIN4Base12Endian16_bigE)
                  000b5e98    00000006               : Endian32_big.obj (.const:.typeinfo:_ZTIN4Base12Endian32_bigE)
                  000b5e9e    00000006               : Endian64_big.obj (.const:.typeinfo:_ZTIN4Base12Endian64_bigE)
                  000b5ea4    00000006     veronte.lib : Xpccansuite.obj (.const:.typeinfo:_ZTIN4Base12FcanconsumerINS_8Xcfg_desINS_15Xfmsgcanc0arrayILj0ELj0EEENS_9Tuntraits15Arraytun_size16INS4_9Cset_onlyINS_10Xfmsgcanc0ILj0EEEEES3_NS4_8No_checkIS3_EEEEEEEE)
                  000b5eaa    00000006     base.lib : Fmsgconsumer.obj (.const:.typeinfo:_ZTIN4Base12FmsgconsumerE)
                  000b5eb0    00000006     veronte.lib : Veronte.obj (.const:.typeinfo:_ZTIN4Base13Routing_tableILj2ELj16EEE)
                  000b5eb6    00000006                 : Halsuite_amz.obj (.const:.typeinfo:_ZTIN4Base13Tport_w_r_blkIjjEE)
                  000b5ebc    00000004                 : Sysuid_cpu1_amz.obj (.const:$P$T2$1)
                  000b5ec0    00000006     base.lib : Field_cfg.obj (.const:.typeinfo:_ZTIN4Base14Cksum_sagetechE)
                  000b5ec6    00000006     first.lib : Endian16_little.obj (.const:.typeinfo:_ZTIN4Base15Endian16_littleE)
                  000b5ecc    00000006               : Endian32_little.obj (.const:.typeinfo:_ZTIN4Base15Endian32_littleE)
                  000b5ed2    00000006               : Endian64_little.obj (.const:.typeinfo:_ZTIN4Base15Endian64_littleE)
                  000b5ed8    00000006     base.lib : Message_received_hnd.obj (.const:.typeinfo:_ZTIN4Base20Message_received_hnd7BuilderE)
                  000b5ede    00000006              : Address_handler_generic.obj (.const:.typeinfo:_ZTIN4Base23Address_handler_genericE)
                  000b5ee4    00000006              : CRC.obj (.const:.typeinfo:_ZTIN4Base3CRCE)
                  000b5eea    00000006     veronte.lib : Varmeas.obj (.const:.typeinfo:_ZTIN4Base4IsetE)
                  000b5ef0    00000006     base.lib : Spkt.obj (.const:.typeinfo:_ZTIN4Base5CRC32E)
                  000b5ef6    00000006              : Spkt.obj (.const:.typeinfo:_ZTIN4Base5CksumE)
                  000b5efc    00000004     veronte.lib : Veronte.obj (.const:$P$T21)
                  000b5f00    00000006     base.lib : Fstr1.obj (.const:.typeinfo:_ZTIN4Base5Fstr1E)
                  000b5f06    00000006     veronte.lib : Veronte_dsp.obj (.const:.typeinfo:_ZTIN4Base5RngitIN3Ver11Xpcu8_trait2XC3IdxEEE)
                  000b5f0c    00000006                 : Veronte_dsp.obj (.const:.typeinfo:_ZTIN4Base5RngitIN3Ver11Xpcu8_trait2XP3IdxEEE)
                  000b5f12    00000006     base.lib : Fmsgchecker.obj (.const:.typeinfo:_ZTIN4Base5RngitINS_4BvarEEE)
                  000b5f18    00000006     veronte.lib : Xpcu8suite.obj (.const:.typeinfo:_ZTIN4Base5RngitIjEE)
                  000b5f1e    00000006                 : Xpccansuite.obj (.const:.typeinfo:_ZTIN4Base5TportIN12Dsp28335_ent3CANES2_NS_8CANframeES3_EE)
                  000b5f24    00000006                 : Halsuite_amz.obj (.const:.typeinfo:_ZTIN4Base5TportIN12Dsp28335_ent3SPIES2_jjEE)
                  000b5f2a    00000006                 : Halsuite_amz.obj (.const:.typeinfo:_ZTIN4Base5TportIN12Dsp28335_ent5McbspES2_jjEE)
                  000b5f30    00000006                 : Xpccansuite.obj (.const:.typeinfo:_ZTIN4Base5TportIN12Dsp28335_ent6CAN_FDES2_NS_8CANframeES3_EE)
                  000b5f36    00000006                 : Halsuite_amz.obj (.const:.typeinfo:_ZTIN4Base5TportINS_12U8pkfifospscES1_hhEE)
                  000b5f3c    00000004                 : Sysuid_cpu1_amz.obj (.const:$P$T3$2)
                  000b5f40    00000006     base.lib : Actmgr.obj (.const:.typeinfo:_ZTIN4Base6ActmgrE)
                  000b5f46    00000006              : CRCmav.obj (.const:.typeinfo:_ZTIN4Base6CRCmavE)
                  000b5f4c    00000006              : Vardst.obj (.const:.typeinfo:_ZTIN4Base6VardstE)
                  000b5f52    00000006              : Xcmqwr.obj (.const:.typeinfo:_ZTIN4Base6XcmqwrE)
                  000b5f58    00000006     veronte.lib : Hvar_cpu1.obj (.const:.typeinfo:_ZTIN4Base6XcmvarINS_3FidENS_9Tuntraits10U16strCxetINS_7FeatureEEEE7BuilderE)
                  000b5f5e    00000006                 : Hvar_cpu1.obj (.const:.typeinfo:_ZTIN4Base6XcmvarINS_4BvarENS_9Tuntraits10U16bool_16IbEEE7BuilderE)
                  000b5f64    00000006                 : Hvar_cpu1.obj (.const:.typeinfo:_ZTIN4Base6XcmvarINS_4RvarENS_9Tuntraits12U16str_floatEE7BuilderE)
                  000b5f6a    00000006                 : Hvar_cpu1.obj (.const:.typeinfo:_ZTIN4Base6XcmvarINS_4UvarENS_9Tuntraits9U16str_16IjEEE7BuilderE)
                  000b5f70    00000006                 : Hvar_cpu1.obj (.const:.typeinfo:_ZTIN4Base6XcmvarINS_8Bvar_mapENS_9Tuntraits10U16strCxetINS_8Hbmapvar4TypeEEEE7BuilderE)
                  000b5f76    00000006                 : Xpccansuite.obj (.const:.typeinfo:_ZTIN4Base7CANin_pE)
                  000b5f7c    00000004     base.lib : Sysver.obj (.const:$P$T4$3)
                  000b5f80    00000006              : Session.obj (.const:.typeinfo:_ZTIN4Base7SessionE)
                  000b5f86    00000006     veronte.lib : Veronte.obj (.const:.typeinfo:_ZTIN4Base7StepperIN3Ver8HalsuiteEXadL_ZNS2_4stepEvEEEE)
                  000b5f8c    00000006     base.lib : Vrefdst.obj (.const:.typeinfo:_ZTIN4Base7VrefdstE)
                  000b5f92    00000006     veronte.lib : Veronte.obj (.const:.typeinfo:_ZTIN4Base7Xcfgmgr5TxcfgINS_8Xcfg_desIN12Dsp28335_ent10CAN_FD_cfgENS_9Tuntraits10DesdefaultIS4_EEEENS3_6CAN_FDEEE)
                  000b5f98    00000006                 : Veronte.obj (.const:.typeinfo:_ZTIN4Base7Xcfgmgr5TxcfgINS_8Xcfg_desIN12Dsp28335_ent6CANcfgENS_9Tuntraits10DesdefaultIS4_EEEENS3_3CANEEE)
                  000b5f9e    00000006                 : Veronte.obj (.const:.typeinfo:_ZTIN4Base7Xcfgmgr5TxcfgINS_8Xcfg_desIN12Dsp28335_ent6SCIcfgENS_9Tuntraits10DesdefaultIS4_EEEENS3_3SCIEEE)
                  000b5fa4    00000006                 : Rtaskio.obj (.const:.typeinfo:_ZTIN4Base7Xcfgmgr5TxcfgINS_8Xcfg_desIN3Ver10ArbiterCfg6ConfigENS_9Tuntraits10DesdefaultIS5_EEEES4_EE)
                  000b5faa    00000006                 : Xpccansuite.obj (.const:.typeinfo:_ZTIN4Base7Xcfgmgr5TxcfgINS_8Xcfg_desIN3Ver10Can_4x_cfgENS_9Tuntraits10DesdefaultIS4_EEEENS3_5Can4xEEE)
                  000b5fb0    00000006                 : Rtaskio.obj (.const:.typeinfo:_ZTIN4Base7Xcfgmgr5TxcfgINS_8Xcfg_desIN3Ver9Xfreqmgr0ENS_9Tuntraits10DesdefaultIS4_EEEENS3_7RtaskioEEE)
                  000b5fb6    00000006                 : Devsuite_amz.obj (.const:.typeinfo:_ZTIN4Base7Xcfgmgr5TxcfgINS_8Xcfg_desIN7Devices14Adis165053_cfgENS_9Tuntraits10DesdefaultIS4_EEEENS3_10Adis165053EEE)
                  000b5fbc    00000004                 : Halsuite_amz.obj (.const:$P$T49$1)
                  000b5fc0    00000006                 : Devsuite_amz.obj (.const:.typeinfo:_ZTIN4Base7Xcfgmgr5TxcfgINS_8Xcfg_desIN8Maverick13Notch_lpf_cfgENS_9Tuntraits10DesdefaultIS4_EEEENS3_19Biquad_notch_lpf_3dEEE)
                  000b5fc6    00000006                 : Veronte.obj (.const:.typeinfo:_ZTIN4Base7Xcfgmgr5TxcfgINS_8Xcfg_desINS_10Xcomstats0ENS_9Tuntraits10DesdefaultIS3_EEEEN8Midlevel8ComstatsEEE)
                  000b5fcc    00000006                 : Xpccansuite.obj (.const:.typeinfo:_ZTIN4Base7Xcfgmgr5TxcfgINS_8Xcfg_desINS_11CANin_suiteILj6EEENS_9Tuntraits10DesdefaultIS4_EEEEN3Ver11XpccansuiteEEE)
                  000b5fd2    00000006                 : Xpccansuite.obj (.const:.typeinfo:_ZTIN4Base7Xcfgmgr5TxcfgINS_8Xcfg_desINS_11CANsc_suiteILj6EEENS_9Tuntraits10DesdefaultIS4_EEEEN3Ver11XpccansuiteEEE)
                  000b5fd8    00000006                 : Xpccansuite.obj (.const:.typeinfo:_ZTIN4Base7Xcfgmgr5TxcfgINS_8Xcfg_desINS_11TnarrayreszINS_7Xpcmap0ELm19EEENS_9Tuntraits15Arraytun_size16INS_3XpcIN3Ver15Xpccantrait_verEE9Tuntrait0ES5_NS6_8No_checkIS5_EEEEEENS9_11XpccansuiteEEE)
                  000b5fde    00000006                 : Xpcu8suite.obj (.const:.typeinfo:_ZTIN4Base7Xcfgmgr5TxcfgINS_8Xcfg_desINS_11TnarrayreszINS_7Xpcmap0ELm45EEENS_9Tuntraits15Arraytun_size16INS_3XpcIN3Ver11Xpcu8_traitEE9Tuntrait0ES5_NS6_8No_checkIS5_EEEEEENS9_10Xpcu8suiteEEE)
                  000b5fe4    00000006                 : Xpccansuite.obj (.const:.typeinfo:_ZTIN4Base7Xcfgmgr5TxcfgINS_8Xcfg_desINS_12CANout_suiteILj6EEENS_9Tuntraits10DesdefaultIS4_EEEEN3Ver11XpccansuiteEEE)
                  000b5fea    00000006                 : Veronte.obj (.const:.typeinfo:_ZTIN4Base7Xcfgmgr5TxcfgINS_8Xcfg_desINS_7TnarrayINS_11TnarrayreszINS_4BvarELm20EEELm3EEENS_9Tuntraits15Arraytun_nosizeINS8_15Arraytun_size16INS8_7Lossy16IS5_EES6_NS8_8No_checkIS6_EEEES7_NSD_IS7_EEEEEEN3Ver6BitmgrEEE)
                  000b5ff0    00000006     base.lib : Xcfgmgr.obj (.const:.typeinfo:_ZTIN4Base7XcfgmgrE)
                  000b5ff6    00000006              : Xcpktrd.obj (.const:.typeinfo:_ZTIN4Base7XcpktrdE)
                  000b5ffc    00000004     stanag.lib : Stanag_msg_mgr.obj (.const:$P$T58$1)
                  000b6000    00000006     veronte.lib : Xpccansuite.obj (.const:.typeinfo:_ZTIN4Base8CANout_cE)
                  000b6006    00000006     stanag.lib : Stanag_msg_mgr.obj (.const:.typeinfo:_ZTIN4Base8Imsg_mgrE)
                  000b600c    00000006     midlevel.lib : Cmdmgr.obj (.const:.typeinfo:_ZTIN4Base8TwraptunINS_9Tuntraits15Arraytun_nosizeINS1_7Lossy16IjEENS_6MblockIjEENS1_8No_checkIS6_EEEES6_EE)
                  000b6012    00000006     base.lib : Xclogsvc.obj (.const:.typeinfo:_ZTIN4Base8XclogsvcE)
                  000b6018    00000006              : FMCP_null.obj (.const:.typeinfo:_ZTIN4Base9FMCP_nullE)
                  000b601e    00000006     veronte.lib : Veronte.obj (.const:.typeinfo:_ZTIN4Base9Fifo_portINS_11Fifo_sharedINS_11Spkt_bufferELj2EE6WriterENS3_6ReaderEEE)
                  000b6024    00000006                 : Devsuite_amz.obj (.const:.typeinfo:_ZTIN4Base9GPIO_nullE)
                  000b602a    00000006                 : Veronte.obj (.const:.typeinfo:_ZTIN4Base9Ipkt_portE)
                  000b6030    00000006                 : Tmsuite.obj (.const:.typeinfo:_ZTIN4Base9TelemetryINS_12FtelemetryodEEE)
                  000b6036    00000006                 : Tmsuite.obj (.const:.typeinfo:_ZTIN4Base9TelemetryINS_8FvecdataINS_6TmvdatELm600ELj4EEEEE)
                  000b603c    00000004     midlevel.lib : Cy_soft_conf_check.obj (.const:.string:k_dv1$5)
                  000b6040    00000006     veronte.lib : Halsuite_amz.obj (.const:.typeinfo:_ZTIN4Base9Tport_blkIjjEE)
                  000b6046    00000006     base.lib : Xcfilesvc.obj (.const:.typeinfo:_ZTIN4Base9XcfilesvcE)
                  000b604c    00000006     DFS2.lib : DSF2_file.obj (.const:.typeinfo:_ZTIN4DFS24FileE)
                  000b6052    00000006     media.lib : Maint_mode_bl.obj (.const:.typeinfo:_ZTIN5Media13Maint_mode_blE)
                  000b6058    00000006               : Flashtun_wr_null.obj (.const:.typeinfo:_ZTIN5Media16Flashtun_wr_nullE)
                  000b605e    00000006               : Logctrl.obj (.const:.typeinfo:_ZTIN5Media7LogctrlE)
                  000b6064    00000006               : Discovery.obj (.const:.typeinfo:_ZTIN5Media9DiscoveryE)
                  000b606a    00000006     midlevel.lib : Cy_msg_id_gen.obj (.const:.typeinfo:_ZTIN6Cyphal13Cy_msg_id_genE)
                  000b6070    00000006     veronte.lib : Cy_string_resp.obj (.const:.typeinfo:_ZTIN6Cyphal14Cy_string_respE)
                  000b6076    00000006     midlevel.lib : Conf_check_query.obj (.const:.typeinfo:_ZTIN6Cyphal16Conf_check_queryE)
                  000b607c    00000004                  : Cy_soft_conf_check.obj (.const:.string:k_ev1$2)
                  000b6080    00000006     veronte.lib : Cy_pers_pdi_resp.obj (.const:.typeinfo:_ZTIN6Cyphal16Cy_pers_pdi_respE)
                  000b6086    00000006     midlevel.lib : Cy_soft_conf_check.obj (.const:.typeinfo:_ZTIN6Cyphal18Cy_soft_conf_checkE)
                  000b608c    00000006                  : CyphalStanag_rx_hnd.obj (.const:.typeinfo:_ZTIN6Cyphal19CyphalStanag_rx_hndE)
                  000b6092    00000006                  : CyphalStanag_tx_hnd.obj (.const:.typeinfo:_ZTIN6Cyphal19CyphalStanag_tx_hndE)
                  000b6098    00000006     veronte.lib : Rtaskio_amz.obj (.const:.typeinfo:_ZTIN6Cyphal8Cy_statsE)
                  000b609e    00000006     stanag.lib : Fly_term_cmd.obj (.const:.typeinfo:_ZTIN6Stanag12Fly_term_cmdE)
                  000b60a4    00000006                : Auth_response.obj (.const:.typeinfo:_ZTIN6Stanag13Auth_responseE)
                  000b60aa    00000006     veronte.lib : Veronte.obj (.const:.typeinfo:_ZTIN6Stanag13Stanag_msg_rxE)
                  000b60b0    00000006                 : Veronte.obj (.const:.typeinfo:_ZTIN6Stanag13Stanag_msg_txE)
                  000b60b6    00000006                 : Veronte.obj (.const:.typeinfo:_ZTIN6Stanag14Fstgcfg_getterILj40EEE)
                  000b60bc    00000004     midlevel.lib : Cy_soft_conf_check.obj (.const:.string:k_ev2$4)
                  000b60c0    00000006     veronte.lib : Maps_updater.obj (.const:.typeinfo:_ZTIN6Stanag14IStanag_rx_pktE)
                  000b60c6    00000006     stanag.lib : Acknowledgement.obj (.const:.typeinfo:_ZTIN6Stanag15AcknowledgementE)
                  000b60cc    00000006                : Fly_term_report.obj (.const:.typeinfo:_ZTIN6Stanag15Fly_term_reportE)
                  000b60d2    00000006                : Message_request.obj (.const:.typeinfo:_ZTIN6Stanag15Message_requestE)
                  000b60d8    00000006                : Auth_handover_grant.obj (.const:.typeinfo:_ZTIN6Stanag19Auth_handover_grantE)
                  000b60de    00000006                : Stanag_msg_push_pkt.obj (.const:.typeinfo:_ZTIN6Stanag19Stanag_msg_rx_asyncE)
                  000b60e4    00000006                : Stanag_periodic_msgs.obj (.const:.typeinfo:_ZTIN6Stanag20Stanag_periodic_msgsE)
                  000b60ea    00000006                : Stanag_status_msgs.obj (.const:.typeinfo:_ZTIN6Stanag23Special_conversion_nullE)
                  000b60f0    00000006                : Alert_msg.obj (.const:.typeinfo:_ZTIN6Stanag9Alert_msgE)
                  000b60f6    00000006                : Heartbeat.obj (.const:.typeinfo:_ZTIN6Stanag9HeartbeatE)
                  000b60fc    00000004     midlevel.lib : Cy_soft_conf_check.obj (.const:.string:k_iaw$6)
                  000b6100    00000006                  : Secure_CAN.obj (.const:.typeinfo:_ZTIN7Devices10Secure_CAN11CAN_wrap_exIN12Dsp28335_ent6CAN_FDEEE)
                  000b6106    00000006                  : Secure_CAN.obj (.const:.typeinfo:_ZTIN7Devices10Secure_CAN8CAN_wrapIN12Dsp28335_ent3CANEEE)
                  000b610c    00000006                  : Secure_CAN.obj (.const:.typeinfo:_ZTIN7Devices10Secure_CAN8CAN_wrapIN12Dsp28335_ent6CAN_FDEEE)
                  000b6112    00000006     devices.lib : ADC121C021Q.obj (.const:.typeinfo:_ZTIN7Devices11ADC121C021QE)
                  000b6118    00000006                 : LMT86.obj (.const:.typeinfo:_ZTIN7Devices5LMT86E)
                  000b611e    00000006                 : MX66L.obj (.const:.typeinfo:_ZTIN7Devices5MX66LE)
                  000b6124    00000006                 : Ntcs0603.obj (.const:.typeinfo:_ZTIN7Devices8Ntcs0603E)
                  000b612a    00000006     maverick.lib : Biquad_notch_lpf_3d.obj (.const:.typeinfo:_ZTIN8Maverick19Biquad_notch_lpf_3dE)
                  000b6130    00000006     midlevel.lib : Cy_drone_mode.obj (.const:.typeinfo:_ZTIN8Midlevel13Cy_drone_modeE)
                  000b6136    00000006                  : Imu_reader_filter.obj (.const:.typeinfo:_ZTIN8Midlevel17Imu_reader_filterE)
                  000b613c    00000004     DSP28x.lib : SCI.obj (.const:.typeinfo:_ZTIN12Dsp28335_ent10ISCI_ioctlE)
                  000b6140    00000006     midlevel.lib : Meas_GPS_raw_time.obj (.const:.typeinfo:_ZTIN8Midlevel17Meas_GPS_raw_timeE)
                  000b6146    00000006                  : Msg_sender_action.obj (.const:.typeinfo:_ZTIN8Midlevel17Msg_sender_actionE)
                  000b614c    00000006                  : Cy_mode_transition.obj (.const:.typeinfo:_ZTIN8Midlevel18Cy_mode_transitionE)
                  000b6152    00000006                  : Cy_compute_unit_status.obj (.const:.typeinfo:_ZTIN8Midlevel22Cy_compute_unit_statusE)
                  000b6158    00000006                  : Cy_maintenance_port_status.obj (.const:.typeinfo:_ZTIN8Midlevel26Cy_maintenance_port_statusE)
                  000b615e    00000006                  : Irxfw.obj (.const:.typeinfo:_ZTIN8Midlevel32_GLOBAL__N__9_Irxfw_cpp_16a35c0e12IrxfwbuilderE)
                  000b6164    00000006                  : Irxfw.obj (.const:.typeinfo:_ZTIN8Midlevel32_GLOBAL__N__9_Irxfw_cpp_16a35c0e13NotifybuilderE)
                  000b616a    00000006                  : Sniffer.obj (.const:.typeinfo:_ZTIN8Midlevel7SnifferE)
                  000b6170    00000006                  : Sysreset.obj (.const:.typeinfo:_ZTIN8Midlevel8SysresetE)
                  000b6176    00000006     pa_blocks.lib : Cy_maint_dcomms.obj (.const:.typeinfo:_ZTIN9Pa_blocks15Cy_maint_dcommsE)
                  000b617c    00000004     veronte.lib : Halsuite_amz.obj (.const:.typeinfo:_ZTIN12Dsp28335_ent3DMAE)
                  000b6180    00000006     pa_blocks.lib : Cy_mon_perf_cons.obj (.const:.typeinfo:_ZTIN9Pa_blocks16Cy_mon_perf_consE)
                  000b6186    00000006     veronte.lib : Rtaskio_amz.obj (.const:.typeinfo:_ZTIN9Pa_blocks17Cyphal_rx_msg_xcdILm0EEE)
                  000b618c    00000006                 : Rtaskio_amz.obj (.const:.typeinfo:_ZTIN9Pa_blocks17Cyphal_rx_msg_xcdILm100EEE)
                  000b6192    00000006                 : Rtaskio_amz.obj (.const:.typeinfo:_ZTIN9Pa_blocks17Cyphal_rx_msg_xcdILm11EEE)
                  000b6198    00000006                 : Rtaskio_amz.obj (.const:.typeinfo:_ZTIN9Pa_blocks17Cyphal_rx_msg_xcdILm12EEE)
                  000b619e    00000006                 : Rtaskio_amz.obj (.const:.typeinfo:_ZTIN9Pa_blocks17Cyphal_rx_msg_xcdILm13EEE)
                  000b61a4    00000006                 : Rtaskio_amz.obj (.const:.typeinfo:_ZTIN9Pa_blocks17Cyphal_rx_msg_xcdILm197EEE)
                  000b61aa    00000006                 : Rtaskio_amz.obj (.const:.typeinfo:_ZTIN9Pa_blocks17Cyphal_rx_msg_xcdILm1EEE)
                  000b61b0    00000006                 : Rtaskio_amz.obj (.const:.typeinfo:_ZTIN9Pa_blocks17Cyphal_rx_msg_xcdILm267EEE)
                  000b61b6    00000006                 : Rtaskio_amz.obj (.const:.typeinfo:_ZTIN9Pa_blocks17Cyphal_rx_msg_xcdILm4EEE)
                  000b61bc    00000004     DSP28x.lib : I2Cdevice.obj (.const:.typeinfo:_ZTIN12Dsp28335_ent9I2CdeviceE)
                  000b61c0    00000006     veronte.lib : Rtaskio_amz.obj (.const:.typeinfo:_ZTIN9Pa_blocks17Cyphal_rx_msg_xcdILm65EEE)
                  000b61c6    00000006                 : Rtaskio_amz.obj (.const:.typeinfo:_ZTIN9Pa_blocks17Cyphal_rx_msg_xcdILm69EEE)
                  000b61cc    00000006                 : Rtaskio_amz.obj (.const:.typeinfo:_ZTIN9Pa_blocks17Cyphal_rx_msg_xcdILm76EEE)
                  000b61d2    00000006                 : Rtaskio_amz.obj (.const:.typeinfo:_ZTIN9Pa_blocks17Cyphal_rx_msg_xcdILm7EEE)
                  000b61d8    00000006                 : Rtaskio_amz.obj (.const:.typeinfo:_ZTIN9Pa_blocks17Cyphal_rx_msg_xcdILm82EEE)
                  000b61de    00000006     pa_blocks.lib : Cy_meas_accel_gyro.obj (.const:.typeinfo:_ZTIN9Pa_blocks18Cy_meas_accel_gyroE)
                  000b61e4    00000006                   : Gnss_raw_meas_fifo.obj (.const:.typeinfo:_ZTIN9Pa_blocks18Gnss_raw_meas_fifo6WriterE)
                  000b61ea    00000006     midlevel.lib : Secure_CAN.obj (.const:_ZN7Devices38_GLOBAL__N__14_Secure_CAN_cpp_ddf3061f14allow_non_extdE)
                  000b61f0    00000006                  : Secure_CAN.obj (.const:_ZN7Devices38_GLOBAL__N__14_Secure_CAN_cpp_ddf3061f8exit_cmdE)
                  000b61f6    00000006     veronte.lib : Vcfchecker.obj (.const:_ZTVN3Ver10VcfcheckerE)
                  000b61fc    00000006                 : Xpccansuite.obj (.const:_ZTVN3Ver11XpccansuiteE)
                  000b6202    00000006                 : Logbook.obj (.const:_ZTVN3Ver7LogbookE)
                  000b6208    00000006                 : Tmsuite.obj (.const:_ZTVN3Ver7TmsuiteE)
                  000b620e    00000006                 : ADCsuite.obj (.const:_ZTVN3Ver8ADCsuiteE)
                  000b6214    00000006                 : Devsuite_amz.obj (.const:_ZTVN3Ver8DevsuiteE)
                  000b621a    00000006                 : Reset_ver_pa.obj (.const:_ZTVN3Ver9Reset_verE)
                  000b6220    00000006                 : Vfspermission.obj (.const:_ZTVN4Base10Ihas_valueE)
                  000b6226    00000006                 : Xpccansuite.obj (.const:_ZTVN4Base10ItproducerINS_8CANframeEEE)
                  000b622c    00000006                 : Halsuite_amz.obj (.const:_ZTVN4Base10ItproducerIhEE)
                  000b6232    00000006                 : Halsuite_amz.obj (.const:_ZTVN4Base10ItproducerIjEE)
                  000b6238    00000006     midlevel.lib : Irxfw.obj (.const:_ZTVN4Base12Ispkt_senderE)
                  000b623e    00000006     veronte.lib : Xpccansuite.obj (.const:_ZTVN4Base13Ifmsg_triggerE)
                  000b6244    00000006                 : Xpccansuite.obj (.const:_ZTVN4Base13IserializableINS_5LossyEEE)
                  000b624a    00000006                 : Rtaskio_amz.obj (.const:_ZTVN4Base13IserializableINS_9U8ostreamEEE)
                  000b6250    00000006     midlevel.lib : Irxfw.obj (.const:_ZTVN4Base13Istg_msg_rcvdE)
                  000b6256    00000006     base.lib : Session.obj (.const:_ZTVN4Base13ItimeproviderE)
                  000b625c    00000006              : Fmsgmgr.obj (.const:_ZTVN4Base13Itriggers_getE)
                  000b6262    00000006     veronte.lib : Xpccansuite.obj (.const:_ZTVN4Base15IdeserializableE)
                  000b6268    00000006                 : Veronte.obj (.const:_ZTVN4Base17Imblock_retrieverIVKN6Stanag7FstgcfgEEE)
                  000b626e    00000006     pa_blocks.lib : Cy_maint_dcomms.obj (.const:_ZTVN4Base18Ideserializable_u8E)
                  000b6274    00000006     base.lib : Evact.obj (.const:_ZTVN4Base5EvactE)
                  000b627a    00000006     veronte.lib : Vcfchecker.obj (.const:_ZTVN4Base5IstepE)
                  000b6280    00000006                 : Maps_updater.obj (.const:_ZTVN4Base5ItaskE)
                  000b6286    00000006     base.lib : Actmgr.obj (.const:_ZTVN4Base6ActmgrE)
                  000b628c    00000006     veronte.lib : Veronte.obj (.const:_ZTVN4Base6IresetE)
                  000b6292    00000006     base.lib : Xcmqwr.obj (.const:_ZTVN4Base6XcmqwrE)
                  000b6298    00000006     veronte.lib : Xpccansuite.obj (.const:_ZTVN4Base7CANin_pE)
                  000b629e    00000006     maverick.lib : Biquad_notch_lpf_3d.obj (.const:_ZTVN4Base7IFilterIN8Maverick9Irvector3EEE)
                  000b62a4    00000006     base.lib : Xcmqwr.obj (.const:_ZTVN4Base7IxcmqwrE)
                  000b62aa    00000006              : Session.obj (.const:_ZTVN4Base7SessionE)
                  000b62b0    00000006     veronte.lib : Veronte.obj (.const:_ZTVN4Base7Xcfgmgr5TxcfgINS_8Xcfg_desIN12Dsp28335_ent10CAN_FD_cfgENS_9Tuntraits10DesdefaultIS4_EEEENS3_6CAN_FDEEE)
                  000b62b6    00000006                 : Veronte.obj (.const:_ZTVN4Base7Xcfgmgr5TxcfgINS_8Xcfg_desIN12Dsp28335_ent6CANcfgENS_9Tuntraits10DesdefaultIS4_EEEENS3_3CANEEE)
                  000b62bc    00000006                 : Veronte.obj (.const:_ZTVN4Base7Xcfgmgr5TxcfgINS_8Xcfg_desIN12Dsp28335_ent6SCIcfgENS_9Tuntraits10DesdefaultIS4_EEEENS3_3SCIEEE)
                  000b62c2    00000006                 : Rtaskio.obj (.const:_ZTVN4Base7Xcfgmgr5TxcfgINS_8Xcfg_desIN3Ver10ArbiterCfg6ConfigENS_9Tuntraits10DesdefaultIS5_EEEES4_EE)
                  000b62c8    00000006                 : Xpccansuite.obj (.const:_ZTVN4Base7Xcfgmgr5TxcfgINS_8Xcfg_desIN3Ver10Can_4x_cfgENS_9Tuntraits10DesdefaultIS4_EEEENS3_5Can4xEEE)
                  000b62ce    00000006                 : Rtaskio.obj (.const:_ZTVN4Base7Xcfgmgr5TxcfgINS_8Xcfg_desIN3Ver9Xfreqmgr0ENS_9Tuntraits10DesdefaultIS4_EEEENS3_7RtaskioEEE)
                  000b62d4    00000006                 : Devsuite_amz.obj (.const:_ZTVN4Base7Xcfgmgr5TxcfgINS_8Xcfg_desIN7Devices14Adis165053_cfgENS_9Tuntraits10DesdefaultIS4_EEEENS3_10Adis165053EEE)
                  000b62da    00000006                 : Devsuite_amz.obj (.const:_ZTVN4Base7Xcfgmgr5TxcfgINS_8Xcfg_desIN8Maverick13Notch_lpf_cfgENS_9Tuntraits10DesdefaultIS4_EEEENS3_19Biquad_notch_lpf_3dEEE)
                  000b62e0    00000006                 : Veronte.obj (.const:_ZTVN4Base7Xcfgmgr5TxcfgINS_8Xcfg_desINS_10Xcomstats0ENS_9Tuntraits10DesdefaultIS3_EEEEN8Midlevel8ComstatsEEE)
                  000b62e6    00000006                 : Xpccansuite.obj (.const:_ZTVN4Base7Xcfgmgr5TxcfgINS_8Xcfg_desINS_11CANin_suiteILj6EEENS_9Tuntraits10DesdefaultIS4_EEEEN3Ver11XpccansuiteEEE)
                  000b62ec    00000006                 : Xpccansuite.obj (.const:_ZTVN4Base7Xcfgmgr5TxcfgINS_8Xcfg_desINS_11CANsc_suiteILj6EEENS_9Tuntraits10DesdefaultIS4_EEEEN3Ver11XpccansuiteEEE)
                  000b62f2    00000006                 : Xpccansuite.obj (.const:_ZTVN4Base7Xcfgmgr5TxcfgINS_8Xcfg_desINS_11TnarrayreszINS_7Xpcmap0ELm19EEENS_9Tuntraits15Arraytun_size16INS_3XpcIN3Ver15Xpccantrait_verEE9Tuntrait0ES5_NS6_8No_checkIS5_EEEEEENS9_11XpccansuiteEEE)
                  000b62f8    00000006                 : Xpcu8suite.obj (.const:_ZTVN4Base7Xcfgmgr5TxcfgINS_8Xcfg_desINS_11TnarrayreszINS_7Xpcmap0ELm45EEENS_9Tuntraits15Arraytun_size16INS_3XpcIN3Ver11Xpcu8_traitEE9Tuntrait0ES5_NS6_8No_checkIS5_EEEEEENS9_10Xpcu8suiteEEE)
                  000b62fe    00000006                 : Xpccansuite.obj (.const:_ZTVN4Base7Xcfgmgr5TxcfgINS_8Xcfg_desINS_12CANout_suiteILj6EEENS_9Tuntraits10DesdefaultIS4_EEEEN3Ver11XpccansuiteEEE)
                  000b6304    00000006                 : Veronte.obj (.const:_ZTVN4Base7Xcfgmgr5TxcfgINS_8Xcfg_desINS_7TnarrayINS_11TnarrayreszINS_4BvarELm20EEELm3EEENS_9Tuntraits15Arraytun_nosizeINS8_15Arraytun_size16INS8_7Lossy16IS5_EES6_NS8_8No_checkIS6_EEEES7_NSD_IS7_EEEEEEN3Ver6BitmgrEEE)
                  000b630a    00000006     base.lib : Xcfgmgr.obj (.const:_ZTVN4Base7XcfgmgrE)
                  000b6310    00000006              : Xcpktrd.obj (.const:_ZTVN4Base7XcpktrdE)
                  000b6316    00000006              : Xclogsvc.obj (.const:_ZTVN4Base8XclogsvcE)
                  000b631c    00000006     midlevel.lib : Cmdmgr.obj (.const:_ZTVN4Base9IexecuterE)
                  000b6322    00000006     base.lib : Xcfilesvc.obj (.const:_ZTVN4Base9XcfilesvcE)
                  000b6328    00000006     veronte.lib : Licmgr.obj (.const:_ZTVN5Media7IlicsrcE)
                  000b632e    00000006                 : Rtaskio_amz.obj (.const:_ZTVN6Cyphal13Cyphal_rx_hndE)
                  000b6334    00000006                 : Rtaskio_amz.obj (.const:_ZTVN6Cyphal8Cy_statsE)
                  000b633a    00000006                 : Veronte.obj (.const:_ZTVN6Stanag14Fstgcfg_getterILj40EEE)
                  000b6340    00000006                 : Maps_updater.obj (.const:_ZTVN6Stanag14IStanag_msg_rxE)
                  000b6346    00000006     stanag.lib : Stanag_periodic_msgs.obj (.const:_ZTVN6Stanag20Stanag_periodic_msgsE)
                  000b634c    00000006     maverick.lib : Biquad_notch_lpf_3d.obj (.const:_ZTVN8Maverick19Biquad_notch_lpf_3dE)
                  000b6352    00000006     midlevel.lib : Cy_drone_mode.obj (.const:_ZTVN8Midlevel13Cy_drone_modeE)
                  000b6358    00000006                  : Cy_mode_transition.obj (.const:_ZTVN8Midlevel14Icheck_pa_modeE)
                  000b635e    00000006                  : Imu_reader_filter.obj (.const:_ZTVN8Midlevel17Imu_reader_filterE)
                  000b6364    00000006                  : Meas_GPS_raw_time.obj (.const:_ZTVN8Midlevel17Meas_GPS_raw_timeE)
                  000b636a    00000006                  : Cy_mode_transition.obj (.const:_ZTVN8Midlevel18Cy_mode_transitionE)
                  000b6370    00000006                  : Cy_compute_unit_status.obj (.const:_ZTVN8Midlevel22Cy_compute_unit_statusE)
                  000b6376    00000006                  : Cy_maintenance_port_status.obj (.const:_ZTVN8Midlevel26Cy_maintenance_port_statusE)
                  000b637c    00000006     pa_blocks.lib : Cy_mon_perf_cons.obj (.const:_ZTVN9Pa_blocks16Cy_mon_perf_consE)
                  000b6382    00000006     veronte.lib : Rtaskio_amz.obj (.const:_ZTVN9Pa_blocks17Cyphal_rx_msg_xcdILm0EEE)
                  000b6388    00000006                 : Rtaskio_amz.obj (.const:_ZTVN9Pa_blocks17Cyphal_rx_msg_xcdILm100EEE)
                  000b638e    00000006                 : Rtaskio_amz.obj (.const:_ZTVN9Pa_blocks17Cyphal_rx_msg_xcdILm11EEE)
                  000b6394    00000006                 : Rtaskio_amz.obj (.const:_ZTVN9Pa_blocks17Cyphal_rx_msg_xcdILm12EEE)
                  000b639a    00000006                 : Rtaskio_amz.obj (.const:_ZTVN9Pa_blocks17Cyphal_rx_msg_xcdILm13EEE)
                  000b63a0    00000006                 : Rtaskio_amz.obj (.const:_ZTVN9Pa_blocks17Cyphal_rx_msg_xcdILm197EEE)
                  000b63a6    00000006                 : Rtaskio_amz.obj (.const:_ZTVN9Pa_blocks17Cyphal_rx_msg_xcdILm1EEE)
                  000b63ac    00000006                 : Rtaskio_amz.obj (.const:_ZTVN9Pa_blocks17Cyphal_rx_msg_xcdILm267EEE)
                  000b63b2    00000006                 : Rtaskio_amz.obj (.const:_ZTVN9Pa_blocks17Cyphal_rx_msg_xcdILm4EEE)
                  000b63b8    00000006                 : Rtaskio_amz.obj (.const:_ZTVN9Pa_blocks17Cyphal_rx_msg_xcdILm65EEE)
                  000b63be    00000006                 : Rtaskio_amz.obj (.const:_ZTVN9Pa_blocks17Cyphal_rx_msg_xcdILm69EEE)
                  000b63c4    00000006                 : Rtaskio_amz.obj (.const:_ZTVN9Pa_blocks17Cyphal_rx_msg_xcdILm76EEE)
                  000b63ca    00000006                 : Rtaskio_amz.obj (.const:_ZTVN9Pa_blocks17Cyphal_rx_msg_xcdILm7EEE)
                  000b63d0    00000006                 : Rtaskio_amz.obj (.const:_ZTVN9Pa_blocks17Cyphal_rx_msg_xcdILm82EEE)
                  000b63d6    00000006     pa_blocks.lib : Cy_meas_accel_gyro.obj (.const:_ZTVN9Pa_blocks18Cy_meas_accel_gyroE)
                  000b63dc    00000006                   : Gnss_raw_meas_fifo.obj (.const:_ZTVN9Pa_blocks18Gnss_raw_meas_fifo6WriterE)
                  000b63e2    00000006     veronte.lib : Cy_amz_timesync_server.obj (.const:_ZTVN9Pa_blocks22Cy_amz_timesync_serverE)
                  000b63e8    00000006                 : Halsuite_amz.obj (.const:cfg$12)
                  000b63ee    00000006     devices.lib : Ubxpvt.obj (.const)
                  000b63f4    00000006     midlevel.lib : Secure_CAN.obj (.const:en_fld_cmd$1)
                  000b63fa    00000006                  : Secure_CAN.obj (.const:nodeid_mask_cmd$2)
                  000b6400    00000006     devices.lib : Ntcs0603.obj (.const:poly$10)
                  000b6406    00000006     veronte.lib : Halsuite_amz.obj (.const:sci_cfg$15)
                  000b640c    00000006                 : Halsuite.obj (.const:sci_cfg$2)
                  000b6412    00000006                 : Halsuite.obj (.const)
                  000b6418    00000005     stanag.lib : Fly_term_report.obj (.const:$P$T15$1)
                  000b641d    00000005     veronte.lib : Bitmgr.obj (.const:ids$2)
                  000b6422    00000004     geomodel.lib : Apos.obj (.const:.typeinfo:_ZTIN3Geo16Iheight_computerE)
                  000b6426    00000004     veronte.lib : Halsuite.obj (.const:.typeinfo:_ZTIN3Ver8HalsuiteE)
                  000b642a    00000004                 : Vfspermission.obj (.const:.typeinfo:_ZTIN4Base10Ihas_valueE)
                  000b642e    00000004     midlevel.lib : CyphalCAN_out.obj (.const:.typeinfo:_ZTIN4Base10ItconsumerIN6Cyphal10Cyphal_msgEEE)
                  000b6432    00000004     veronte.lib : Xpccansuite.obj (.const:.typeinfo:_ZTIN4Base10ItconsumerINS_8CANframeEEE)
                  000b6436    00000004                 : Halsuite_amz.obj (.const:.typeinfo:_ZTIN4Base10ItconsumerIhEE)
                  000b643a    00000004                 : Halsuite_amz.obj (.const:.typeinfo:_ZTIN4Base10ItconsumerIjEE)
                  000b643e    00000002     base.lib : Cyphal.obj (.const:$P$T13$3)
                  000b6440    00000004     veronte.lib : Halsuite_amz.obj (.const:.typeinfo:_ZTIN4Base10Itport_blkIjjEE)
                  000b6444    00000004                 : Xpccansuite.obj (.const:.typeinfo:_ZTIN4Base10ItproducerINS_8CANframeEEE)
                  000b6448    00000004                 : Halsuite_amz.obj (.const:.typeinfo:_ZTIN4Base10ItproducerIhEE)
                  000b644c    00000004                 : Halsuite_amz.obj (.const:.typeinfo:_ZTIN4Base10ItproducerIjEE)
                  000b6450    00000004                 : Xpcu8suite.obj (.const:.typeinfo:_ZTIN4Base11Iconnect_rxE)
                  000b6454    00000004                 : Xpcu8suite.obj (.const:.typeinfo:_ZTIN4Base11Iconnect_txE)
                  000b6458    00000004     media.lib : Logctrl.obj (.const:.typeinfo:_ZTIN4Base11IlogcontrolE)
                  000b645c    00000004     veronte.lib : Veronte.obj (.const:.typeinfo:_ZTIN4Base11Imaint_modeE)
                  000b6460    00000004     stanag.lib : Stanag_msg_mgr.obj (.const:.typeinfo:_ZTIN4Base11Imsg_senderE)
                  000b6464    00000004     base.lib : Fmsgchecker.obj (.const:.typeinfo:_ZTIN4Base11ImsgcheckerE)
                  000b6468    00000004              : Stanag_parser.obj (.const:.typeinfo:_ZTIN4Base11Ipkt_parserE)
                  000b646c    00000004     midlevel.lib : Cyphal_tx_mgr.obj (.const:.typeinfo:_ZTIN4Base11Ipkt_senderE)
                  000b6470    00000004     base.lib : Stanag_parser.obj (.const:.typeinfo:_ZTIN4Base12Espkt_parserE)
                  000b6474    00000004     veronte.lib : Veronte.obj (.const:.typeinfo:_ZTIN4Base12ITemp_getterE)
                  000b6478    00000004     main_cpu1.obj (.const:.typeinfo:_ZTIN4Base12Interface_nvE)
                  000b647c    00000004     midlevel.lib : Irxfw.obj (.const:.typeinfo:_ZTIN4Base12Ispkt_senderE)
                  000b6480    00000004     devices.lib : MX66L.obj (.const:.typeinfo:_ZTIN4Base13Iblock_deviceE)
                  000b6484    00000004     veronte.lib : Xpccansuite.obj (.const:.typeinfo:_ZTIN4Base13Ifmsg_triggerE)
                  000b6488    00000004                 : Xpccansuite.obj (.const:.typeinfo:_ZTIN4Base13IserializableINS_5LossyEEE)
                  000b648c    00000004                 : Rtaskio_amz.obj (.const:.typeinfo:_ZTIN4Base13IserializableINS_9U8ostreamEEE)
                  000b6490    00000004     midlevel.lib : Irxfw.obj (.const:.typeinfo:_ZTIN4Base13Istg_msg_rcvdE)
                  000b6494    00000004     base.lib : Session.obj (.const:.typeinfo:_ZTIN4Base13ItimeproviderE)
                  000b6498    00000004     veronte.lib : Halsuite_amz.obj (.const:.typeinfo:_ZTIN4Base13Itport_blk_chIjEE)
                  000b649c    00000004     base.lib : Fmsgmgr.obj (.const:.typeinfo:_ZTIN4Base13Itriggers_getE)
                  000b64a0    00000004     devices.lib : Sxp.obj (.const:.typeinfo:_ZTIN4Base13Port_stats_rxINS_5TportINS_12U8pkfifospscES2_hhEEEE)
                  000b64a4    00000004                 : Sxp.obj (.const:.typeinfo:_ZTIN4Base13Port_stats_txINS_5TportINS_12U8pkfifospscES2_hhEEEE)
                  000b64a8    00000004     veronte.lib : Veronte.obj (.const:.typeinfo:_ZTIN4Base14Irouting_tableE)
                  000b64ac    00000004                 : Xpccansuite.obj (.const:.typeinfo:_ZTIN4Base15IdeserializableE)
                  000b64b0    00000004     base.lib : Address_handler_generic.obj (.const:.typeinfo:_ZTIN4Base16IAddress_handlerE)
                  000b64b4    00000004     veronte.lib : Veronte.obj (.const:.typeinfo:_ZTIN4Base17Imblock_retrieverIVKN6Stanag7FstgcfgEEE)
                  000b64b8    00000004     pa_blocks.lib : Cy_maint_dcomms.obj (.const:.typeinfo:_ZTIN4Base18Ideserializable_u8E)
                  000b64bc    00000004     base.lib : Varmgr.obj (.const:.typeinfo:_ZTIN4Base4IgetE)
                  000b64c0    00000004     main_cpu1.obj (.const:.typeinfo:_ZTIN4Base5ArrayINS_8Msg_dataEEE)
                  000b64c4    00000004     base.lib : Taskmgr.obj (.const:.typeinfo:_ZTIN4Base5ArrayINS_9TaskentryEEE)
                  000b64c8    00000004     veronte.lib : Apos_serializator.obj (.const:.typeinfo:_ZTIN4Base5Field18Iapos_serializatorE)
                  000b64cc    00000004     base.lib : FMCPmgr.obj (.const:.typeinfo:_ZTIN4Base5IFMCPE)
                  000b64d0    00000004     veronte.lib : Halsuite_amz.obj (.const:.typeinfo:_ZTIN4Base5IGpioE)
                  000b64d4    00000004     DFS2.lib : DSF2_file.obj (.const:.typeinfo:_ZTIN4Base5IfileE)
                  000b64d8    00000004     veronte.lib : Vcfchecker.obj (.const:.typeinfo:_ZTIN4Base5IstepE)
                  000b64dc    00000004                 : Maps_updater.obj (.const:.typeinfo:_ZTIN4Base5ItaskE)
                  000b64e0    00000004     DSP28x.lib : I2Cif.obj (.const:.typeinfo:_ZTIN4Base6II2CifE)
                  000b64e4    00000004     midlevel.lib : Cmdmgr.obj (.const:.typeinfo:_ZTIN4Base6IcmdfwE)
                  000b64e8    00000004     DSP2837x_ent.lib : Reset_2837x.obj (.const:.typeinfo:_ZTIN4Base6IresetE)
                  000b64ec    00000004     maverick.lib : Biquad_notch_lpf_3d.obj (.const:.typeinfo:_ZTIN4Base7IFilterIN8Maverick9Irvector3EEE)
                  000b64f0    00000004     base.lib : Xcmqwr.obj (.const:.typeinfo:_ZTIN4Base7IxcmqwrE)
                  000b64f4    00000004     veronte.lib : Halsuite_amz.obj (.const:.typeinfo:_ZTIN4Base7type_isIhEE)
                  000b64f8    00000004     base.lib : Taskmgr.obj (.const:.typeinfo:_ZTIN4Base8ItaskmgrE)
                  000b64fc    00000004              : Ckfletcher.obj (.const:.typeinfo:_ZTIN4Base9IchecksumE)
                  000b6500    00000004     midlevel.lib : Comstats.obj (.const:.typeinfo:_ZTIN4Base9IcomstatsE)
                  000b6504    00000004     first.lib : Endian3.obj (.const:.typeinfo:_ZTIN4Base9Iendian16E)
                  000b6508    00000004               : Endian3.obj (.const:.typeinfo:_ZTIN4Base9Iendian32E)
                  000b650c    00000004               : Endian3.obj (.const:.typeinfo:_ZTIN4Base9Iendian64E)
                  000b6510    00000004     midlevel.lib : Cmdmgr.obj (.const:.typeinfo:_ZTIN4Base9IexecuterE)
                  000b6514    00000004     veronte.lib : Veronte_dsp.obj (.const:.typeinfo:_ZTIN4Base9IiteratorIN3Ver11Xpcu8_trait2XC3IdxEEE)
                  000b6518    00000004                 : Veronte_dsp.obj (.const:.typeinfo:_ZTIN4Base9IiteratorIN3Ver11Xpcu8_trait2XP3IdxEEE)
                  000b651c    00000004     base.lib : Fmsgchecker.obj (.const:.typeinfo:_ZTIN4Base9IiteratorINS_4BvarEEE)
                  000b6520    00000004     veronte.lib : Xpcu8suite.obj (.const:.typeinfo:_ZTIN4Base9IiteratorIjEE)
                  000b6524    00000004                 : Hvar_cpu1.obj (.const:.typeinfo:_ZTIN4Base9IstrbuildE)
                  000b6528    00000004                 : Maps_updater.obj (.const:.typeinfo:_ZTIN5Media10IupdatableE)
                  000b652c    00000004                 : Vfspermission.obj (.const:.typeinfo:_ZTIN5Media13IfspermissionE)
                  000b6530    00000004                 : Licmgr.obj (.const:.typeinfo:_ZTIN5Media7IlicsrcE)
                  000b6534    00000004                 : Rtaskio_amz.obj (.const:.typeinfo:_ZTIN6Cyphal13Cyphal_rx_hndE)
                  000b6538    00000004                 : Maps_updater.obj (.const:.typeinfo:_ZTIN6Stanag14IStanag_msg_rxE)
                  000b653c    00000004                 : Maps_updater.obj (.const:.typeinfo:_ZTIN6Stanag14IStanag_msg_txE)
                  000b6540    00000004     stanag.lib : Auth_request.obj (.const:.typeinfo:_ZTIN6Stanag18IConnection_getterE)
                  000b6544    00000004                : Stanag_status_msgs.obj (.const:.typeinfo:_ZTIN6Stanag19Ispecial_conversionE)
                  000b6548    00000004     midlevel.lib : Secure_CAN.obj (.const:.typeinfo:_ZTIN7Devices8ICAN_drvE)
                  000b654c    00000004                  : Cy_mode_transition.obj (.const:.typeinfo:_ZTIN8Midlevel14Icheck_pa_modeE)
                  000b6550    00000004     veronte.lib : Cy_amz_timesync_server.obj (.const:.typeinfo:_ZTIN8Midlevel7TP_syncE)
                  000b6554    00000004     rts2800_fpu64_eabi.lib : typeinfo.c.obj (.const:.typeinfo:_ZTISt9type_info)
                  000b6558    00000004                            : typeinfo.c.obj (.const:.typeinfo:_ZTIe)
                  000b655c    00000004                            : typeinfo.c.obj (.const:.typeinfo:_ZTSPKe)
                  000b6560    00000004     DSP2837x_ent.lib : GPIOioctl.obj (.const:_ZN12Dsp28335_ent9GPIOioctl14gpio_input_cfgE)
                  000b6564    00000004                      : GPIOioctl.obj (.const:_ZN12Dsp28335_ent9GPIOioctl15gpio_output_cfgE)
                  000b6568    00000004     midlevel.lib : Secure_CAN.obj (.const:_ZN7Devices38_GLOBAL__N__14_Secure_CAN_cpp_ddf3061f10ack_cmd_idE)
                  000b656c    00000004                  : Secure_CAN.obj (.const:_ZN7Devices38_GLOBAL__N__14_Secure_CAN_cpp_ddf3061f10cfg_cmd_idE)
                  000b6570    00000004     base.lib : Field.obj (.const)
                  000b6574    00000004     rts2800_fpu64_eabi.lib : e_powf.c.obj (.const:bp)
                  000b6578    00000004                            : e_powf.c.obj (.const:dp_h)
                  000b657c    00000004                            : e_powf.c.obj (.const:dp_l)
                  000b6580    00000004     DSP2837x_ent.lib : System_cpu1.obj (.const:gpio_in_pulldis_mux2_qsync$10)
                  000b6584    00000004                      : System_cpu1.obj (.const:gpio_in_pullen_mux2_qasync$11)
                  000b6588    00000004     veronte.lib : Halsuite_amz.obj (.const:imu_sync_cfg$10)
                  000b658c    00000004     main_cpu1.obj (.const)
                  000b6590    00000004     first.lib : Bitutils.obj (.const:mskbases$1)
                  000b6594    00000004     veronte.lib : Veronte_amz.obj (.const:pwm_cfg$2)
                  000b6598    00000004     stanag.lib : Schedule_msg_updt.obj (.const)
                  000b659c    00000004     base.lib : Spkt_hdr.obj (.const:szs$1)
                  000b65a0    00000004     veronte.lib : Arbiter.obj (.const)
                  000b65a4    00000003     midlevel.lib : IP_cfg_pa.obj (.const:.string:_ZN3Bsp6ip_idsE)
                  000b65a7    00000003     devices.lib : MX66L.obj (.const:.string:_ZN7Devices5MX66L6dev_idE)
                  000b65aa    00000003     DSP28x.lib : SPI.obj (.const:_ZN12Dsp28335_ent11triggers_rxE)
                  000b65ad    00000003                : SPI.obj (.const:_ZN12Dsp28335_ent11triggers_txE)
                  000b65b0    00000003     midlevel.lib : IP_cfg_pa.obj (.const:_ZN3Bsp7sys_apsE)
                  000b65b3    00000003     veronte.lib : Veronte_amz.obj (.const:_ZN3Ver16resp_group_arrayE)
                  000b65b6    00000003     base.lib : CANin_mgr.obj (.const:_ZN4Base37_GLOBAL__N__13_CANin_mgr_cpp_3852a3f717default_ports_pidE)
                  000b65b9    00000003              : CANout_mgr.obj (.const:_ZN4Base38_GLOBAL__N__14_CANout_mgr_cpp_611b27d513default_portsE)
                  000b65bc    00000002     DSP2838x_ent.lib : PMbusdrv_drv.obj (.const:$P$T18$2)
                  000b65be    00000002                      : PLL_2838x.obj (.const:$P$T28$5)
                  000b65c0    00000002                      : PLL_2838x.obj (.const:$P$T29$6)
                  000b65c2    00000002                      : CAN_FD.obj (.const:$P$T53$4)
                  000b65c4    00000002                      : CAN_FD.obj (.const:$P$T54$5)
                  000b65c6    00000002                      : CAN_FD_ioctl.obj (.const:$P$T63$32)
                  000b65c8    00000002                      : CAN_FD_ioctl.obj (.const:$P$T64$33)
                  000b65ca    00000002     midlevel.lib : Cyphal_tx_mgr.obj (.const:$P$T65$1)
                  000b65cc    00000002     DSP2838x_ent.lib : CAN_FD_ioctl.obj (.const:$P$T66$34)
                  000b65ce    00000002     rts2800_fpu64_eabi.lib : typeinfo.c.obj (.const:.typeinfo:_ZTSe)
                  000b65d0    00000002     DSP2838x_ent.lib : Pwmdev_2838x.obj (.const)
                  000b65d2    00000002     DSP2837x_ent.lib : Pwmdev.obj (.const:_ZN12Dsp28335_ent34_GLOBAL__N__10_Pwmdev_cpp_f8347d757mid_pwmE)
                  000b65d4    00000002     media.lib : Discovery.obj (.const:_ZN5Media37_GLOBAL__N__13_Discovery_cpp_8e099eed20current_mver_requestE)
                  000b65d6    00000002               : Discovery.obj (.const:_ZN5Media37_GLOBAL__N__13_Discovery_cpp_8e099eed21current_mver_responseE)
                  000b65d8    00000002     stanag.lib : Stanag_msgs.obj (.const:_ZN6Stanag11Stanag_msgs4msgsE)
                  000b65da    00000002     base.lib : Ipkt_parser.obj (.const)
                  000b65dc    00000002              : Session.obj (.const)
                  000b65de    00000002     first.lib : File_sync.obj (.const)
                  000b65e0    00000002               : Ubxtime.obj (.const)
                  000b65e2    00000002     stanag.lib : Auth_handover_req.obj (.const)
                  000b65e4    00000002                : Stanag_periodic_msgs.obj (.const)
                  000b65e6    00000002     veronte.lib : Xfreqmgr0.obj (.const)

.switch    0    000b65e8    000000e4     
                  000b65e8    00000044     veronte.lib : Devsimsuite.obj (.switch:_ZN3Ver11Devsimsuite4csetERN4Base5LossyE)
                  000b662c    0000002e     base.lib : Field.obj (.switch:_ZNK4Base5Field10uncompressERNS_11Lossy_errorERNS_4IsetERKNS_4IgetE)
                  000b665a    0000002c              : Field.obj (.switch:_ZNK4Base5Field8compressERNS_5LossyERKNS_4IgetE)
                  000b6686    00000028     devices.lib : Adis165053.obj (.switch:_ZN7Devices10Adis1650535step0Ev)
                  000b66ae    0000001e     veronte.lib : Devsimsuite.obj (.switch:_ZN3Ver11Devsimsuite17extract_noise_cfgERN4Base5LossyE)

.init_array 
*          0    000b66cc    00000080     
                  000b66cc    00000002     base.lib : CRCmav.obj (.init_array)
                  000b66ce    00000002     veronte.lib : ADCsuite.obj (.init_array)
                  000b66d0    00000002     pa_blocks.lib : Tllh_cs_64.obj (.init_array)
                  000b66d2    00000002     veronte.lib : Hx_imu_fifo_wr.obj (.init_array)
                  000b66d4    00000002     devices.lib : Adis165053_cfg.obj (.init_array)
                  000b66d6    00000002     midlevel.lib : Secure_CAN.obj (.init_array)
                  000b66d8    00000002     stanag.lib : Alert_msg.obj (.init_array)
                  000b66da    00000002                : Stanag_status_msgs.obj (.init_array)
                  000b66dc    00000002     DFS2.lib : DSF2_file.obj (.init_array)
                  000b66de    00000002     first.lib : PDIcheck.obj (.init_array)
                  000b66e0    00000002     veronte.lib : Herrors_ver_pa.obj (.init_array)
                  000b66e2    00000002     base.lib : Stickrawtrans.obj (.init_array)
                  000b66e4    00000002              : RTCM3parser.obj (.init_array)
                  000b66e6    00000002     veronte.lib : Ubxcfgmgr.obj (.init_array)
                  000b66e8    00000002                 : Hcfg_mode_cpu1.obj (.init_array)
                  000b66ea    00000002                 : Hxcfield.obj (.init_array)
                  000b66ec    00000002                 : Hxcfield_cpu1.obj (.init_array)
                  000b66ee    00000002                 : Hregvars_cpu1.obj (.init_array)
                  000b66f0    00000002                 : Hlicense_cpu1.obj (.init_array)
                  000b66f2    00000002     DSP2837x_ent.lib : ADC.obj (.init_array)
                  000b66f4    00000002     veronte.lib : Halsuite.obj (.init_array)
                  000b66f6    00000002                 : Devsuite_amz.obj (.init_array)
                  000b66f8    00000002                 : Hxcfile_cpu1.obj (.init_array)
                  000b66fa    00000002                 : Hevact.obj (.init_array)
                  000b66fc    00000002                 : Hauth_connections_cpu1.obj (.init_array)
                  000b66fe    00000002                 : Veronte.obj (.init_array)
                  000b6700    00000002     crypto_c28.lib : Compute_hash.obj (.init_array)
                  000b6702    00000002     veronte.lib : Veronte_amz.obj (.init_array)
                  000b6704    00000002     geomodel.lib : Apos.obj (.init_array)
                  000b6706    00000002     veronte.lib : Ubxdev.obj (.init_array)
                  000b6708    00000002                 : Gpssimdev.obj (.init_array)
                  000b670a    00000002                 : Rtaskio.obj (.init_array)
                  000b670c    00000002                 : Hapsel.obj (.init_array)
                  000b670e    00000002                 : Hapsel_cpu1.obj (.init_array)
                  000b6710    00000002                 : Hmeas.obj (.init_array)
                  000b6712    00000002                 : Can4x.obj (.init_array)
                  000b6714    00000002                 : Hstate_estimate_compact_cpu1.obj (.init_array)
                  000b6716    00000002                 : Hnav_introspect_compact_cpu1.obj (.init_array)
                  000b6718    00000002                 : Hmonitor_outputs_cpu1.obj (.init_array)
                  000b671a    00000002                 : Hmonitor_inputs_cpu1.obj (.init_array)
                  000b671c    00000002                 : Hmon_nav_inputs_cpu1.obj (.init_array)
                  000b671e    00000002                 : Hraim_outputs.obj (.init_array)
                  000b6720    00000002                 : Hraim_inputs_cpu1.obj (.init_array)
                  000b6722    00000002                 : Xpccansuite.obj (.init_array)
                  000b6724    00000002                 : Hx_nav_msg_cpu1.obj (.init_array)
                  000b6726    00000002                 : Rtaskio_amz.obj (.init_array)
                  000b6728    00000002                 : Hxcfg.obj (.init_array)
                  000b672a    00000002                 : Hmeas_cpu1.obj (.init_array)
                  000b672c    00000002                 : Hsys_cpu1.obj (.init_array)
                  000b672e    00000002                 : Maps_updater.obj (.init_array)
                  000b6730    00000002                 : Xpcu8suite.obj (.init_array)
                  000b6732    00000002                 : Veronte_dsp.obj (.init_array)
                  000b6734    00000002                 : Hxcff_cpu1.obj (.init_array)
                  000b6736    00000002                 : Hsys.obj (.init_array)
                  000b6738    00000002                 : Xcd_priv_impl.obj (.init_array)
                  000b673a    00000002                 : Xcd.obj (.init_array)
                  000b673c    00000002                 : Xcd_cpu1.obj (.init_array)
                  000b673e    00000002     DSP28x.lib : SPIcfg.obj (.init_array)
                  000b6740    00000002     DSP2838x_ent.lib : Htime_2838x.obj (.init_array)
                  000b6742    00000002     veronte.lib : Hvar.obj (.init_array)
                  000b6744    00000002                 : Hvar_cpu1.obj (.init_array)
                  000b6746    00000002                 : Sysaddr_cpu1.obj (.init_array)
                  000b6748    00000002     Vmain_cpu1.obj (.init_array)
                  000b674a    00000002     main_cpu1.obj (.init_array)

.cinit     0    000b674c    000000b4     
                  000b674c    0000007a     (.cinit..data.load) [load image, compression = lzss]
                  000b67c6    00000006     (__TI_handler_table)
                  000b67cc    00000004     (.cinit..bss.1.load) [load image, compression = zero_init]
                  000b67d0    00000004     (.cinit..bss.2.load) [load image, compression = zero_init]
                  000b67d4    00000004     (.cinit.Dmabufsection.load) [load image, compression = zero_init]
                  000b67d8    00000004     (.cinit.MEMMGR_EXT.load) [load image, compression = zero_init]
                  000b67dc    00000004     (.cinit.MEMMGR_INT.load) [load image, compression = zero_init]
                  000b67e0    00000004     (.cinit.SHARED_RAM.load) [load image, compression = zero_init]
                  000b67e4    0000001c     (__TI_cinit_table)

.binit     0    000b683e    00000008     
                  000b683e    00000008     (.binit)

.stack     1    00008040    00001000     UNINITIALIZED
                  00008040    00001000     --HOLE--

MEMMGR_EXT 
*          1    00009040    00011dfe     UNINITIALIZED
                  00009040    00011dfe     Memm_cpu1_2838x.obj (MEMMGR_EXT:retain)

MEMMGR_INT 
*          1    0001afbc    00000002     UNINITIALIZED
                  0001afbc    00000002     Memm_cpu1_2838x.obj (MEMMGR_INT:retain)

XcCPU1RegsFile 
*          1    0001ba80    00001492     NOLOAD SECTION
                  0001ba80    00001492     veronte.lib : Xcd_cpu1.obj (XcCPU1RegsFile)

XcCPU2RegsFile 
*          1    00100000    00031678     NOLOAD SECTION
                  00100000    00031678     veronte.lib : Xcd_cpu1.obj (XcCPU2RegsFile)

.data      1    0001ae3e    0000017e     UNINITIALIZED
                  0001ae3e    00000002     rts2800_fpu64_eabi.lib : _lock.c.obj (.data:_lock)
                  0001ae40    0000005c     veronte.lib : Xpcu8suite.obj (.data:xc_coms$3)
                  0001ae9c    00000010     DSP28x.lib : CAN_FD_common.obj (.data:dlc_lengths$3)
                  0001aeac    00000010     veronte.lib : Kclk.obj (.data)
                  0001aebc    00000004                 : Rtaskio.obj (.data)
                  0001aec0    0000005a                 : Xpcu8suite.obj (.data:xp_coms$2)
                  0001af1a    00000038                 : ADCsuite.obj (.data:_ZN3Ver36_GLOBAL__N__12_ADCsuite_cpp_d10a27e84infoE)
                  0001af52    00000026     midlevel.lib : Secure_CAN.obj (.data:_ZN7Devices10Secure_CAN17cfg_open_commandsE)
                  0001af78    00000006     veronte.lib : Maps_updater.obj (.data:_ZN3Ver40_GLOBAL__N__16_Maps_updater_cpp_8b73f55a9mupdt_errE)
                  0001af7e    00000002     rts2800_fpu64_eabi.lib : _lock.c.obj (.data:_unlock)
                  0001af80    0000000a     DFS2.lib : DSF2_file.obj (.data)
                  0001af8a    0000000a     veronte.lib : Rtaskio.obj (.data:_ZZN3Ver13get_arb4x_cfgEvE3cfg)
                  0001af94    00000006     pa_blocks.lib : Cy_maint_dcomms.obj (.data:_ZN9Pa_blocks43_GLOBAL__N__19_Cy_maint_dcomms_cpp_a24f33608cmd_strsE)
                  0001af9a    00000006                   : Cy_maint_dcomms.obj (.data:_ZN9Pa_blocks43_GLOBAL__N__19_Cy_maint_dcomms_cpp_a24f33609name_strsE)
                  0001afa0    00000006     rts2800_fpu64_eabi.lib : exit.c.obj (.data)
                  0001afa6    00000002     base.lib : Field.obj (.data)
                  0001afa8    00000002              : Pkt_router.obj (.data)
                  0001afaa    00000002     first.lib : PDIcheck.obj (.data)
                  0001afac    00000002     midlevel.lib : Cy_msg_id_gen.obj (.data)
                  0001afae    00000002     pring.lib : Prnd_xorshift32.obj (.data)
                  0001afb0    00000002     rts2800_fpu64_eabi.lib : dtor_list.c.obj (.data)
                  0001afb2    00000002                            : vars.c.obj (.data)
                  0001afb4    00000002     veronte.lib : Devsuite_amz.obj (.data)
                  0001afb6    00000001     base.lib : Fmsgconsumer.obj (.data)
                  0001afb7    00000001              : Fmsgproducer.obj (.data)
                  0001afb8    00000001     maverick.lib : Biquad_notch_lpf_3d.obj (.data)
                  0001afb9    00000001     rts2800_fpu64_eabi.lib : errno.c.obj (.data)
                  0001afba    00000001     stanag.lib : Alert_id.obj (.data)
                  0001afbb    00000001     veronte.lib : Halsuite.obj (.data)

Dmabufsection 
*          1    0001b940    0000013c     UNINITIALIZED
                  0001b940    0000013c     veronte.lib : Halsuite_amz.obj (.bss:_ZN3Ver6dmabufE)

SHARED_RAM 
*          1    00039000    0000044c     UNINITIALIZED
                  00039000    0000044c     veronte.lib : CPU1_CM_shared.obj (.bss:shared_cpu1_cm$3)

GETBUFFER 
*          0    0003b000    00000000     DSECT

GETWRITEIDX 
*          0    0003b000    00000000     DSECT

PUTREADIDX 
*          0    0003b000    00000000     DSECT

.TI.ramfunc.load 
*          0    000b6800    0000003d     
                  000b6800    0000003d     (.TI.ramfunc.load) [load image, compression = lzss]

.bss.1     1    00000040    00000460     UNINITIALIZED
                  00000040    000000a6     veronte.lib : Hxcfile_cpu1.obj (.bss:_ZZN3Ver7Hxcfile14get_xcffastsvcERN4Base11IlogcontrolERNS1_7SessionERVKNS1_6TdsyncINS1_8FstrFastENS1_12Tdsynctraits11Rd_blockingIS7_NS1_8Cptraits6PodrawIVS7_EEEENS8_15Disabled_structEEEE6xffast)
                  000000e6    0000001a     base.lib : Stepmgr_dsp.obj (.bss:_ZZN4Base7Stepmgr12get_instanceEvE4inst)
                  00000100    00000086     veronte.lib : Arbiter.obj (.bss:inst$2)
                  00000186    0000001c                 : Rtaskio.obj (.bss:_ZN3Ver35_GLOBAL__N__11_Rtaskio_cpp_d66b4f8f5bvarsE)
                  000001a2    0000001c                 : Halsuite_amz.obj (.bss:_ZZN3Ver8Halsuite13get_fs_driverEvE3drv)
                  000001be    00000002                 : Apos_serializator.obj (.bss:_ZZN3Ver17Apos_serializator13bind_to_fieldEvE6apos_s)
                  000001c0    00000018                 : Hxcff_cpu1.obj (.bss:_ZZN3Ver5Hxcff10get_xcmqwrEvE2xw)
                  000001d8    00000018                 : Herrors_ver_pa.obj (.bss:ff$2)
                  000001f0    00000010                 : Halsuite_amz.obj (.bss)
                  00000200    00000014     first.lib : Endian3.obj (.bss:_ZZN4Base8E3helper12get_instanceEvE1h)
                  00000214    00000014     veronte.lib : Hxcfield_cpu1.obj (.bss:fsv$10)
                  00000228    00000014                 : Hxcfield_cpu1.obj (.bss:fsv$2)
                  0000023c    00000004     DSP2837x_ent.lib : Reset_2837x.obj (.bss)
                  00000240    00000014     veronte.lib : Hxcfield_cpu1.obj (.bss:fsv$4)
                  00000254    00000014                 : Hxcfield_cpu1.obj (.bss:fsv$6)
                  00000268    00000014                 : Hxcfield_cpu1.obj (.bss:fsv$8)
                  0000027c    00000004     DSP2838x_ent.lib : Pwmdev_2838x.obj (.bss)
                  00000280    00000014     veronte.lib : Halsuite_bits_amz.obj (.bss:hlp$2)
                  00000294    0000000e                 : Hvar_cpu1.obj (.bss:features$2)
                  000002a2    0000000e                 : FormatSD_amz.obj (.bss:pdif_partition$3)
                  000002b0    0000000c                 : Xpccansuite.obj (.bss:_ZZN3Ver11Xpccansuite8get_varsEvE3res)
                  000002bc    00000004     DSP28x.lib : SPIcfg.obj (.bss)
                  000002c0    0000000c     midlevel.lib : Comstats.obj (.bss:_ZZNK8Midlevel8Comstats8Mapstats8compressERN4Base9U8ostreamEE5snull)
                  000002cc    0000000a     DSP2837x_ent.lib : DMA.obj (.bss)
                  000002d6    0000000a                      : I2Cif_2837x.obj (.bss)
                  000002e0    0000000a     base.lib : CRCmav.obj (.bss:_ZN4Base10crcmav_cfgE)
                  000002ea    0000000a              : RTCM3parser.obj (.bss:_ZN4Base6crc24qE)
                  000002f4    0000000a              : Xcfgmgr.obj (.bss:_ZZN4Base7Xcfgmgr12get_instanceEvE9singleton)
                  000002fe    00000002              : FMCP_null.obj (.bss:_ZZN4Base9FMCP_null12get_instanceEvE5dummy)
                  00000300    0000000a              : CRCpreset.obj (.bss)
                  0000030a    0000000a              : CRCpreset.obj (.bss:crc32$8)
                  00000314    0000000a              : CRCpreset.obj (.bss:crc_cyphal$2)
                  0000031e    0000000a     devices.lib : MX66L.obj (.bss)
                  00000328    0000000a     main_cpu1.obj (.bss)
                  00000332    0000000a     midlevel.lib : Comstats.obj (.bss)
                  0000033c    00000004     DFS2.lib : DSF2_file.obj (.bss:_ZN4DFS24File11hdr_buffer8E)
                  00000340    0000000a     veronte.lib : Rtaskio.obj (.bss:stats_dt$6)
                  0000034a    0000000a                 : Hstats.obj (.bss)
                  00000354    0000000a                 : Hxcff_cpu1.obj (.bss:xr$4)
                  0000035e    0000000a                 : Hraim_inputs_cpu1.obj (.bss:xw$2)
                  00000368    0000000a                 : Hx_imu_fifo_wr.obj (.bss:xw$2)
                  00000372    00000009     base.lib : Uid.obj (.bss:u$1)
                  0000037b    00000001     veronte.lib : Isensimrx.obj (.bss:_ZGVZN3Ver9Isensimrx5on_rxERN6Stanag14IStanag_msg_rx9Rx_paramsEE6hphase)
                  0000037c    00000004     DFS2.lib : DSF2_file.obj (.bss:_ZN4DFS24File7buffer8E)
                  00000380    00000008     DSP28x.lib : SCIcfg.obj (.bss)
                  00000388    00000008     devices.lib : USDdrv.obj (.bss:_ZN7Devices6USDdrv2idE)
                  00000390    00000008     veronte.lib : Halsuite_amz.obj (.bss:_ZZN3Ver8Halsuite13get_fs_driverEvE2cs)
                  00000398    00000008                 : Hvar_cpu1.obj (.bss:_ZZN4Base3JidINS_8FidtraitEE10get_gsizesEvE7idsizes)
                  000003a0    00000008     first.lib : Memmgr_c2000.obj (.bss:external_alloc$5)
                  000003a8    00000008               : Ttime.obj (.bss)
                  000003b0    00000008     veronte.lib : Halsuite_amz.obj (.bss:gpio_cs$18)
                  000003b8    00000008                 : Halsuite_amz.obj (.bss:gpio_rst$19)
                  000003c0    00000008     first.lib : Memmgr_c2000.obj (.bss:internal_alloc$4)
                  000003c8    00000008     pa_blocks.lib : Tllh_cs_64.obj (.bss)
                  000003d0    00000008     DFS2.lib : DSF2_file.obj (.bss:tout$3)
                  000003d8    00000008     veronte.lib : ADCsuite.obj (.bss)
                  000003e0    00000008                 : Rtaskio.obj (.bss)
                  000003e8    00000006     DFS2.lib : DSF2_file.obj (.bss)
                  000003ee    00000006     veronte.lib : Halsuite.obj (.bss:_ZN3Ver8Halsuite11spi_def_cfgE)
                  000003f4    00000006                 : Halsuite.obj (.bss:_ZN3Ver8Halsuite12spi_adis_cfgE)
                  000003fa    00000006     base.lib : Stickrawtrans.obj (.bss:_ZN4Base6tr_oneE)
                  00000400    00000006              : Stickrawtrans.obj (.bss:_ZN4Base7tr_middE)
                  00000406    00000006              : Stickrawtrans.obj (.bss:_ZN4Base7tr_zeroE)
                  0000040c    00000006     veronte.lib : Hxcfile_cpu1.obj (.bss:_ZZN3Ver7Hxcfile14get_xcffastsvcERN4Base11IlogcontrolERNS1_7SessionERVKNS1_6TdsyncINS1_8FstrFastENS1_12Tdsynctraits11Rd_blockingIS7_NS1_8Cptraits6PodrawIVS7_EEEENS8_15Disabled_structEEEE7wr_cpu2)
                  00000412    00000006     base.lib : Fid.obj (.bss)
                  00000418    00000006     first.lib : Endian3.obj (.bss:e3$2)
                  0000041e    00000006               : Endian3.obj (.bss:e3$4)
                  00000424    00000006               : Memmgr_c2000.obj (.bss:mgr$6)
                  0000042a    00000006     Vmain_cpu1.obj (.bss:stphelper$2)
                  00000430    00000006     veronte.lib : Hxcfield_cpu1.obj (.bss)
                  00000436    00000004     base.lib : Address_handler_generic.obj (.bss:_ZZN4Base23Address_handler_generic12get_instanceEvE3ret)
                  0000043a    00000004              : Varmgr.obj (.bss:_ZZN4Base6Varmgr12get_instanceEvE6single)
                  0000043e    00000002              : Cfgid_mode.obj (.bss)
                  00000440    00000004     devices.lib : Adis165053_cfg.obj (.bss)
                  00000444    00000004     geomodel.lib : Apos.obj (.bss)
                  00000448    00000004     midlevel.lib : Cyphal_tx_mgr.obj (.bss)
                  0000044c    00000004     veronte.lib : Sysuid_cpu1_amz.obj (.bss:otp_uid$4)
                  00000450    00000004     base.lib : Sysver.obj (.bss:sysver$2)
                  00000454    00000004     veronte.lib : CPU1_CM_shared.obj (.bss)
                  00000458    00000004                 : FormatSD_amz.obj (.bss)
                  0000045c    00000004                 : Hvar_cpu1.obj (.bss)
                  00000460    00000004                 : Rtaskio_amz.obj (.bss)
                  00000464    00000003     first.lib : Endian3.obj (.bss)
                  00000467    00000003               : Memmgr_c2000.obj (.bss)
                  0000046a    00000003     midlevel.lib : Cy_compute_unit_status.obj (.bss)
                  0000046d    00000003     veronte.lib : Hxcff_cpu1.obj (.bss)
                  00000470    00000003                 : Hxcfile_cpu1.obj (.bss)
                  00000473    00000001                 : Hvar_cpu1.obj (.bss:_ZGVZN4Base3JidINS_8FidtraitEE10get_gsizesEvE7idsizes)
                  00000474    00000002     devices.lib : MX66L.obj (.bss:max_read_t$3)
                  00000476    00000002                 : MX66L.obj (.bss:max_write_t$5)
                  00000478    00000002     rts2800_fpu64_eabi.lib : dtor_list.c.obj (.bss)
                  0000047a    00000002                            : typeinfo.c.obj (.bss)
                  0000047c    00000002     veronte.lib : Herrors_ver_pa.obj (.bss)
                  0000047e    00000002                 : Xcd_cpu1.obj (.bss)
                  00000480    00000001     midlevel.lib : Cmdmgr.obj (.bss:_ZGVZN8Midlevel6Cmdmgr10fw_commandEhN4Base3Cfg2IdERKNS1_8ItunableEE9def_props)
                  00000481    00000001     first.lib : PDIcheck.obj (.bss:_ZN4Base8PDIcheck7opecodeE)
                  00000482    00000001               : PDIcheck.obj (.bss:_ZN4Base8PDIcheck7pdicodeE)
                  00000483    00000001               : PDIcheck.obj (.bss:_ZN4Base8PDIcheck7pdimodeE)
                  00000484    00000001               : PDIcheck.obj (.bss:_ZN4Base8PDIcheck8op_errorE)
                  00000485    00000001               : PDIcheck.obj (.bss:_ZN4Base8PDIcheck8pdierrorE)
                  00000486    00000001     veronte.lib : Isensimrx.obj (.bss:_ZZN3Ver9Isensimrx5on_rxERN6Stanag14IStanag_msg_rx9Rx_paramsEE6hphase)
                  00000487    00000001     midlevel.lib : Cmdmgr.obj (.bss:_ZZN8Midlevel6Cmdmgr10fw_commandEhN4Base3Cfg2IdERKNS1_8ItunableEE9def_props)
                  00000488    00000001     base.lib : Address_handler_generic.obj (.bss)
                  00000489    00000001              : FMCP_null.obj (.bss)
                  0000048a    00000001              : Stepmgr_dsp.obj (.bss)
                  0000048b    00000001              : Sysver.obj (.bss)
                  0000048c    00000001              : Varmgr.obj (.bss)
                  0000048d    00000001              : Xcfgmgr.obj (.bss)
                  0000048e    00000001     Vmain_cpu1.obj (.bss:c1_cm_tx_lost$14)
                  0000048f    00000001     first.lib : Dsync.obj (.bss:dsnull$2)
                  00000490    00000001               : Dsync.obj (.bss)
                  00000491    00000001     midlevel.lib : Cy_mode_transition.obj (.bss)
                  00000492    00000001                  : Cy_compute_unit_status.obj (.bss:mode$2)
                  00000493    00000001                  : Cy_mode_transition.obj (.bss:mode$2)
                  00000494    00000001     Vmain_cpu1.obj (.bss:rx_cnt$11)
                  00000495    00000001     Vmain_cpu1.obj (.bss:rx_disc_cnt$12)
                  00000496    00000001     Vmain_cpu1.obj (.bss:tx_cnt$10)
                  00000497    00000001     veronte.lib : Apos_serializator.obj (.bss)
                  00000498    00000001                 : Arbiter.obj (.bss)
                  00000499    00000001                 : Halsuite_bits_amz.obj (.bss)
                  0000049a    00000001                 : Hraim_inputs_cpu1.obj (.bss)
                  0000049b    00000001                 : Hx_imu_fifo_wr.obj (.bss)
                  0000049c    00000001                 : Sysuid_cpu1_amz.obj (.bss)
                  0000049d    00000001                 : Veronte_amz.obj (.bss)
                  0000049e    00000001                 : Vpuposrd_ver_pa.obj (.bss)
                  0000049f    00000001                 : Xpccansuite.obj (.bss)

.bss.2     1    0003a000    00000800     UNINITIALIZED
                  0003a000    00000282     veronte.lib : Rtaskio_amz.obj (.bss:_ZZN3Ver7Rtaskio5buildERN4Base11ImsgcheckerERNS_11DevsimsuiteERN6Stanag14Stanag_msg_mgrERN8Midlevel6CmdmgrERNS1_10Pkt_routerERNS9_8SysresetEE3ret)
                  0003a282    00000032     DSP2838x_ent.lib : CAN_FD_ioctl.obj (.bss)
                  0003a2b4    0000000c     Vmain_cpu1.obj (.bss)
                  0003a2c0    00000184     veronte.lib : Veronte_amz.obj (.bss:_ZZN3Ver7Veronte11build_pimplERS0_E4impl)
                  0003a444    00000026                 : Hxcfile_cpu1.obj (.bss:_ZZN3Ver7Hxcfile13get_xcfilesvcERN4Base5IfileEE5xfile)
