******************************************************************************
             TMS320C2000 Linker PC v22.6.2                     
******************************************************************************
>> Linked Thu Oct 23 10:04:46 2025

OUTPUT FILE NAME:   <1x_cpu2_par1.out>
ENTRY POINT SYMBOL: "_c_int00"  address: 000afd9b


MEMORY CONFIGURATION

         name            origin    length      used     unused   attr    fill
----------------------  --------  ---------  --------  --------  ----  --------
PAGE 0:
  RAMLS_PRG             00009000   00000060  00000040  00000020  RWIX
  APP_BEGIN             00080000   00000004  00000002  00000002  RWIX
  APP_BLDR_HDR          00080004   00000034  00000034  00000000  RWIX
  FLASH_PRG             00080038   0003ffc8  00039646  00006982  RWIX
  FPUTABLES             003febdc   000006a0  00000000  000006a0  RWIX
  RESET                 003fffc0   00000002  00000000  00000002  RWIX

PAGE 1:
  BOOT_RSVD             00000000   00000120  00000000  00000120  RWIX
  RAMM                  00000120   00000780  00000000  00000780  RWIX
  STACK                 00008000   00001000  00001000  00000000  RWIX
  IRAM                  00009060   00003fa0  00003e1a  00000186  RWIX
  XCCPU1                0001bdc0   00001240  00000000  00001240  RWIX
  CMTOCPURAM            00038000   00000800  00000000  00000800  RWIX
  CPUTOCMRAM            00039000   00000800  00000000  00000800  RWIX
  CPU1TOCPU2RAM         0003a000   00000800  00000000  00000800  RWIX
  CPU2TOCPU1RAM         0003b000   00000800  00000000  00000800  RWIX
  XCCPU2                00100000   0005335e  00000000  0005335e  RWIX
  ERAM_CPU2             0015335e   001acca2  0017af81  00031d21  RWIX


SECTION ALLOCATION MAP

 output                                  attributes/
section   page    origin      length       input sections
--------  ----  ----------  ----------   ----------------
.TI.ramfunc 
*          0    00009000    00000040     UNINITIALIZED
                  00009000    00000039     DSP2837x_ent.lib : Flash_2837x.obj (.text:_ZN12Dsp28335_ent5Flash4initEv)
                  00009039    00000007     DSP28x.lib : DSP28x_DisInt.obj (.TI.ramfunc)

codestart 
*          0    00080000    00000002     
                  00080000    00000002     DSP28x_CodeStartBranch.obj (codestart)

.const:*App_blr_hdr_inst*instance* 
*          0    00080004    00000034     
                  00080004    00000034     main_cpu2.obj (.const:_ZN4Base16App_blr_hdr_instILm1556335341ELm524288ELN3Bsp6SysappE3ELh1EE8instanceE)

.text      0    00080038    00033741     
                  00080038    00000a53     pa_blocks.lib : Controllers_object.obj (.text:_ZN9Pa_blocks18Controllers_object4stepERKNS0_5InputERNS0_6OutputE)
                  00080a8b    000009e9                   : Controllers_param_mk30.obj (.text:_ZN9Pa_blocks22Controllers_param_mk30C1ERKNS_23Vsdk_controllers_paramsE)
                  00081474    0000092e                   : Roll_maneuver.obj (.text:_ZNK9Pa_blocks13Roll_maneuver34waypoint_from_waypoint_coordinatesERKNS_19Maneuver_coordinate25Waypoint_coordinate_arrayERNS_12Waypoint_msgE)
                  00081da2    000008c3                   : Tsc.obj (.text:_ZN9Pa_blocks3Tsc4stepERKNS0_5InputERNS0_6OutputE)
                  00082665    00000690                   : Tcg.obj (.text:_ZN9Pa_blocks3Tcg4stepERKNS0_5InputERNS0_6OutputE)
                  00082cf5    000005ef                   : Recovery_wrapper_control_system_object.obj (.text:_ZN9Pa_blocks38Recovery_wrapper_control_system_object3runERNS0_5InputERNS0_6OutputE)
                  000832e4    000005c0                   : Trajectory_planner.obj (.text:_ZNK9Pa_blocks18Trajectory_planner38construct_maneuver_from_route_maneuverERKNS_9Route_msgERKNS_14Route_maneuverEmRKN4Base4TllhERNS_12Waypoint_msgERNS_12Maneuver_msgE)
                  000838a4    0000057d     veronte.lib : Tunsuite_pa.obj (.text:_ZN3Ver10TunbuilderC1ERN5Media6CfgmgrE)
                  00083e21    00000577     pa_blocks.lib : Mixer_allocator.obj (.text:_ZN9Pa_blocks15Mixer_allocator4stepERKN8Maverick7RvectorES4_RKNS_12Pa_scheduler7OutputsE)
                  00084398    0000056e                   : Rwcso_input_manager.obj (.text:_ZN9Pa_blocks19Rwcso_input_manager4stepEv)
                  00084906    000004e7                   : Maneuver_coordinate.obj (.text:_ZN9Pa_blocks19Maneuver_coordinate53construct_alongtrack_speed_change_maneuver_coordinateEfffff)
                  00084ded    000004e1                   : Rwcso_output_manager.obj (.text:_ZN9Pa_blocks20Rwcso_output_manager4stepEv)
                  000852ce    000004db     vpgnc.lib : Vpu.obj (.text:_ZN5Vpgnc3VpuC1EmRKN5Media6Cfgmgr16Remain_async_crcE)
                  000857a9    00000001     DSP2837x_ent.lib : Hdual.obj (.text:_ZN12Dsp28335_ent5Hdual14assert_is_cpu2Ev)
                  000857aa    0000045c     rts2800_fpu64_eabi.lib : k_rem_pio2.c.obj (.text)
                  00085c06    0000044c     pa_blocks.lib : Aacg.obj (.text:_ZN9Pa_blocks4Aacg4stepERKNS0_5InputERNS0_6OutputE)
                  00086052    0000043c                   : Sep.obj (.text:_ZN9Pa_blocks3Sep4stepERKNS0_5InputERNS0_6OutputE)
                  0008648e    00000430                   : Maneuver_coordinate.obj (.text:_ZN9Pa_blocks19Maneuver_coordinate58construct_accelerating_position_change_maneuver_coordinateEffff)
                  000868be    000003d9                   : Recovery_route_constructor.obj (.text:_ZNK9Pa_blocks26Recovery_route_constructor42route_constructor_for_active_vtol_backyardERKNS0_5InputERKN8Maverick9Irvector3ERNS_19Command_route_entryE)
                  00086c97    0000039d                   : Recovery_controls_command_processor.obj (.text:_ZN9Pa_blocks35Recovery_controls_command_processor3runERKNS0_5InputERNS0_6OutputERNS0_8Log_dataE)
                  00087034    00000399     rts2800_fpu64_eabi.lib : e_powf.c.obj (.text)
                  000873cd    0000034b     pa_blocks.lib : Gnc_vector_saturation.obj (.text:_ZN9Pa_blocks21Gnc_vector_saturationC1ERKNS_21Saturation_parametersE)
                  00087718    00000347                   : Turn_maneuver.obj (.text:_ZN9Pa_blocks13Turn_maneuver26set_and_validate_waypointsERKNS_12Waypoint_msgES3_)
                  00087a5f    00000345                   : Recovery_mission_phase_of_flight.obj (.text:_ZNK9Pa_blocks32Recovery_mission_phase_of_flight3runERKNS0_5InputERNS0_6OutputERNS0_8Log_dataE)
                  00087da4    00000320     Blockfactory_pac.obj (.text:_ZN7Vblocks12BlockfactoryC1ERN5Vpgnc3VpuERN5Media6CfgmgrERN4Base7StepmgrERN8Midlevel5Irxfw6ParserEmRNS7_9ChecklistERNS1_12Polymgr_implERNS1_26Airframe_action_wp_publishE)
                  000880c4    000002e2     media.lib : Cfgmgr.obj (.text:_ZN5Media6Cfgmgr5on_rxERN6Stanag14IStanag_msg_rx9Rx_paramsE)
                  000883a6    000002c7     rts2800_fpu64_eabi.lib : e_rem_pio2.c.obj (.text)
                  0008866d    000002be     base.lib : Field.obj (.text:_ZN4Base5Field4csetERNS_11Lossy_errorE)
                  0008892b    000002be     pa_blocks.lib : Gnc_vector_saturation.obj (.text:_ZN9Pa_blocks21Gnc_vector_saturation8saturateERKN8Maverick9Irvector3ERKNS1_6IrquatES7_fRNS0_6OutputE)
                  00088be9    0000029c                   : Cqp.obj (.text:_ZN9Pa_blocks3Cqp17apply_constraintsENS0_10ConstraintEjjRj)
                  00088e85    0000029a                   : Cqp.obj (.text:_ZN8Maverick9TcholeskyIeE4ldltEv)
                  0008911f    00000298     rts2800_fpu64_eabi.lib : memory.c.obj (.text)
                  000893b7    0000028f     pa_blocks.lib : Cqp.obj (.text:_ZN9Pa_blocks3Cqp4stepEv)
                  00089646    00000282                   : Pa_geometric.obj (.text:_ZN9Pa_blocks12Pa_geometric39circle_from_two_points_and_two_tangentsERKN8Maverick8Rvector2ES4_S4_S4_RS2_Rf)
                  000898c8    0000027e                   : Atcg.obj (.text:_ZN9Pa_blocks4Atcg25vel_from_ned_attitude_wbfERKNS0_5InputERfRbRN8Maverick6IrquatE)
                  00089b46    00000277                   : Controllers_object.obj (.text:_ZN9Pa_blocks18Controllers_objectC1ERN4Base9AllocatorENS1_6MblockIjEERKNS_23Vsdk_controllers_paramsERNS_12Pa_schedulerERKNS_17Controllers_paramE)
                  00089dbd    00000274                   : Straight_maneuver.obj (.text:_ZN9Pa_blocks17Straight_maneuver26set_and_validate_waypointsERKNS_12Waypoint_msgES3_)
                  0008a031    00000257                   : Maneuver_coordinate.obj (.text:_ZN9Pa_blocks19Maneuver_coordinate32concatenate_maneuver_coordinatesERKS0_S2_bRS0_)
                  0008a288    00000248     crypto_c28.lib : sha256_casm_C28.obj (.text)
                  0008a4d0    00000245     maverick.lib : Find_scalar_zero_interval.obj (.text:_ZN8Maverick25Find_scalar_zero_interval4findEffRf)
                  0008a715    00000245     pa_blocks.lib : Recovery_route_constructor.obj (.text:_ZNK9Pa_blocks26Recovery_route_constructor3runERKNS0_5InputERNS0_6OutputERNS0_8Log_dataE)
                  0008a95a    0000023e     Vmain_cpu2.obj (.text:_ZN7Project10Vmain_cpu24stepEv)
                  0008ab98    0000023e     pa_blocks.lib : Recovery_wrapper_control_system_object.obj (.text:_ZN9Pa_blocks38Recovery_wrapper_control_system_objectC1ERN4Base9AllocatorERNS1_6MblockIjEERKNS_20Vsdk_recovery_paramsERKNS0_7M_paramERKNS_17Controllers_paramERNS_12Pa_schedulerERVKbSJ_RNS_12Mission_planERNS_17Mission_plan_dataERN8Midlevel5Irxfw6ParserE)
                  0008add6    0000023b                   : Roll_maneuver.obj (.text:_ZN9Pa_blocks13Roll_maneuver26set_and_validate_waypointsERKNS_12Waypoint_msgES3_)
                  0008b011    00000220                   : Switch_blender.obj (.text:_ZN9Pa_blocks14Switch_blender3runERKN8Maverick7RvectorEj)
                  0008b231    0000021d                   : Rwcso_input_manager.obj (.text:_ZN9Pa_blocks19Rwcso_input_managerC1ERNS_17Mission_plan_dataE)
                  0008b44e    0000021c                   : Tcg.obj (.text:_ZN9Pa_blocks3Tcg34compute_blended_commanded_waypointERKNS_18Modes_and_commandsERKNS_12Waypoint_msgERS4_)
                  0008b66a    0000021a                   : Cqp.obj (.text:_ZN9Pa_blocks3Cqp27update_to_remove_constraintEj)
                  0008b884    00000218                   : Recovery_wrapper_control_system_object.obj (.text:_ZN9Pa_blocks38Recovery_wrapper_control_system_object23run_recovery_controllerExRKNS_35Recovery_controls_command_processor6OutputERNS_18Controllers_object6OutputE)
                  0008ba9c    00000217                   : Roll_maneuver.obj (.text:_ZN9Pa_blocks13Roll_maneuver24set_maneuver_coordinatesEv)
                  0008bcb3    00000210                   : Land_manager.obj (.text:_ZN9Pa_blocks12Land_manager31set_slow_down_to_hover_commandsERKNS0_5InputERNS_18Modes_and_commandsE)
                  0008bec3    00000210                   : Rotation.obj (.text:_ZN9Pa_blocks8Rotation45compute_shortest_rotation_between_two_vectorsERKN8Maverick9Irvector3ES4_RNS1_6IrquatE)
                  0008c0d3    000001fe                   : Atcg.obj (.text:_ZN9Pa_blocks4Atcg4stepERKNS0_5InputERNS0_6OutputE)
                  0008c2d1    000001fd                   : Afc.obj (.text:_ZN9Pa_blocks3Afc4stepERKNS0_5InputERNS0_6OutputE)
                  0008c4ce    000001ec                   : Ttcg.obj (.text:_ZN9Pa_blocks4Ttcg4stepERKNS0_5InputERNS0_6OutputE)
                  0008c6ba    000001e6     Blockfactory_pac.obj (.text:_ZN7Vblocks12Blockfactory12step_pre_gncEv)
                  0008c8a0    000001d9     pa_blocks.lib : Cm.obj (.text:_ZN9Pa_blocks2Cm4stepERKNS0_5InputERNS0_6OutputE)
                  0008ca79    000001cd     maverick.lib : Irmatrix3.obj (.text:_ZNK8Maverick9Irmatrix36toquatERNS_6IrquatE)
                  0008cc46    000001cc     pa_blocks.lib : Ttcg.obj (.text:_ZN9Pa_blocks4Ttcg46compute_inbound_transition_route_time_requiredERKNS0_5InputERfRNS_19Maneuver_coordinateES6_)
                  0008ce12    000001c1                   : Actuator_allocator_object.obj (.text:_ZN9Pa_blocks25Actuator_allocator_object18set_mixer_log_dataERKNS_15Mixer_allocator18Allocation_resultsERKNS_12Pa_scheduler7OutputsERNS0_6OutputE)
                  0008cfd3    000001c0     vpgnc.lib : CAN_cfg_maint_astro.obj (.text:_ZN5Vpgnc3Vpu21enter_maint_mode_privEb)
                  0008d193    000001be     pa_blocks.lib : Vector_saturation.obj (.text:_ZN9Pa_blocks17Vector_saturation30apply_vec_dir_saturation_eulerERKN8Maverick9Irvector3EffffRNS_14Vec_sat_outputE)
                  0008d351    000001ba                   : Maneuver_coordinate.obj (.text:_ZN9Pa_blocks19Maneuver_coordinate58construct_rest_to_rest_position_change_maneuver_coordinateEfff)
                  0008d50b    000001b8                   : Tp_utilities.obj (.text:_ZN9Pa_blocks12Tp_utilities26verify_2d_turning_waypointERKN8Maverick8Rvector3ES4_fNS_14Turn_direction9DirectionE)
                  0008d6c3    000001b5     base.lib : Xcfilecli.obj (.text:_ZN4Base9Xcfilecli4stepEv)
                  0008d878    000001b3     pa_blocks.lib : Waypoint_msg.obj (.text:_ZN9Pa_blocks12Waypoint_msg30compute_stopping_location_vtolERKS0_)
                  0008da2b    000001a9                   : Model_dynamic.obj (.text:_ZN9Pa_blocks13Model_dynamic21run_anti_windup_logicERKN8Maverick7RvectorEfS4_)
                  0008dbd4    000001a7                   : Turn_maneuver.obj (.text:_ZNK9Pa_blocks13Turn_maneuver34waypoint_coordinates_from_waypointERKNS_12Waypoint_msgERNS_19Maneuver_coordinate25Waypoint_coordinate_arrayE)
                  0008dd7b    000001a3     base.lib : Field.obj (.text:_ZNK4Base5Field8compressERNS_5LossyERKNS_4IgetE)
                  0008df1e    0000019e     pa_blocks.lib : Recovery_mission_data_processor.obj (.text:_ZNK9Pa_blocks31Recovery_mission_data_processor3runERKNS0_5InputERNS0_6OutputERNS0_8Log_dataE)
                  0008e0bc    0000018a                   : Polynomial_coeffs.obj (.text:_ZN9Pa_blocks17Polynomial_coeffs31construct_trajectory_polynomialERKN4Base7TnarrayIfLm4EEES5_f)
                  0008e246    00000189                   : Maneuver.obj (.text:_ZN9Pa_blocks8Maneuver24set_maneuver_coordinatesEv)
                  0008e3cf    00000187                   : Vector_saturation.obj (.text:_ZN9Pa_blocks17Vector_saturation35apply_vec_dir_saturation_quaternionENS_9Norm_type4TypeERKN8Maverick9Irvector3EffRNS_14Vec_sat_outputE)
                  0008e556    00000181     media.lib : Cfgmgr.obj (.text:_ZN5Media6CfgmgrC1EN4Base6MblockIjEERKNS_13IfspermissionERNS1_7CfgsyncERNS1_5IfileENS9_3UidEmmRVKNS1_8Address0ERNS1_11Imsg_senderEPNS1_5IstepE)
                  0008e6d7    0000017a     vpgnc.lib : Vpu.obj (.text:_ZN5Vpgnc3Vpu16enter_maint_modeEb)
                  0008e851    0000016f     rts2800_fpu64_eabi.lib : vec_newdel.c.obj (.text)
                  0008e9c0    00000169                            : s_expm1f.c.obj (.text)
                  0008eb29    00000163     pa_blocks.lib : Ttcg.obj (.text:_ZN9Pa_blocks4Ttcg25evaluate_transition_logicERKNS0_5InputERNS_12Waypoint_msgE)
                  0008ec8c    00000163                   : Recovery_route_constructor.obj (.text:_ZNK9Pa_blocks26Recovery_route_constructor14process_inputsERKNS0_5InputE)
                  0008edef    00000161                   : Mission_utilities.obj (.text:_ZN9Pa_blocks17Mission_utilities18parse_mission_stepERKNS_12Mission_stepERNS_14Route_maneuverE)
                  0008ef50    0000015f     veronte.lib : Hxcfield_cpu2.obj (.text:_ZN4Base9FieldsvecINS_6TmvdatELj20EE4csetINS_11Lossy_errorEEENS_10Async_sresERNS_9Enable_ifILb1ET_E4typeE)
                  0008f0af    00000157     pa_blocks.lib : Mission_plan_msg.obj (.text:_ZN9Pa_blocks16Mission_plan_msg7Mission16parse_from_arrayERKN4Base6MblockIjEEm)
                  0008f206    00000157                   : Recovery_route_constructor.obj (.text:_ZNK9Pa_blocks26Recovery_route_constructor40route_constructor_for_active_above_paddcERKNS0_5InputERNS_19Command_route_entryE)
                  0008f35d    00000152                   : Dyn_pa_interpolator_cat_2.obj (.text:_ZNK9Pa_blocks25Dyn_pa_interpolator_cat_221Pa_interpolator_cat_211interpolateERKN7Vblocks18Multi_interpolatorERN4Base5ArrayIfEES9_)
                  0008f4af    00000151                   : Ttcg.obj (.text:_ZN9Pa_blocks4Ttcg35update_phase_of_flight_track_splineERKNS0_5InputE)
                  0008f600    0000014e                   : Mission_step.obj (.text:_ZN9Pa_blocks12Mission_step6decodeERNS_16Protobuf_decoderERKjRN4Base8OptionalINS_17Geospatial_cuboidEEE)
                  0008f74e    0000014e     base.lib : Field_cfg.obj (.text:_ZNK4Base9Field_cfg8Checksum5putckENS_6CktypeERNS_5LossyE)
                  0008f89c    0000014d     veronte.lib : Copystep.obj (.text:_ZN3Ver36_GLOBAL__N__12_Copystep_cpp_e59cf1d59Copystep04stepEv)
                  0008f9e9    00000148     pa_blocks.lib : Ttcg.obj (.text:_ZN9Pa_blocks4Ttcg33evaluate_trajectory_tracking_dataERKNS0_5InputERNS_12Waypoint_msgERN8Maverick9Irvector3ERNS_11Heading_msgE)
                  0008fb31    00000147                   : Mission_plan_msg.obj (.text:_ZN9Pa_blocks16Mission_plan_msg7Mission17decode_mission_v3ERNS_16Protobuf_decoderERKyS5_)
                  0008fc78    00000145     base.lib : Ftelemetryod.obj (.text:_ZN4Base9FieldsvecINS_8TmodvdatELj20EE3addINS_11Lossy_errorEEENS_10Async_sresERNS_9Enable_ifILb1ET_E4typeE)
                  0008fdbd    00000145     pa_blocks.lib : Recovery_controls_command_processor.obj (.text:_ZNK9Pa_blocks35Recovery_controls_command_processor18check_bounding_boxEfRKNS_26Controllers_state_estimateERKNS_23Mission_phase_of_flight4TypeERKNS_25Mission_bounding_box_dataERNS0_26Pre_flight_check_telemetryE)
                  0008ff02    0000013f                   : Trajectory_planner.obj (.text:_ZNK9Pa_blocks18Trajectory_planner27process_and_construct_routeERKNS_8Tp_inputERNS_9Route_msgE)
                  00090041    0000013e                   : Aee.obj (.text:_ZN9Pa_blocks3Aee4stepERKNS0_5InputERNS0_6OutputE)
                  0009017f    0000013d                   : Mission_plan_msg.obj (.text:_ZN9Pa_blocks16Mission_plan_msg7Mission17decode_mission_v4ERNS_16Protobuf_decoderERKyS5_)
                  000902bc    0000013c                   : Maneuver_coordinate.obj (.text:_ZN9Pa_blocks19Maneuver_coordinate21construct_polynomialsEv)
                  000903f8    0000013b                   : Mission_plan_msg.obj (.text:_ZN9Pa_blocks16Mission_plan_msg7Mission18Vehicle_parameters6decodeERNS_16Protobuf_decoderE)
                  00090533    0000013b                   : Maneuver.obj (.text:_ZN9Pa_blocks8Maneuver29set_maneuver_coordinates_VtolEffffffffff)
                  0009066e    00000138                   : Waypoint_msg.obj (.text:_ZN9Pa_blocks12Waypoint_msg24set_turning_accelerationERKNS_14Turn_direction9DirectionEf)
                  000907a6    00000138                   : Roll_maneuver.obj (.text:_ZN9Pa_blocks13Roll_maneuver27compute_delta_ground_courseEffRKNS_14Turn_direction9DirectionE)
                  000908de    00000138                   : Vector_saturation.obj (.text:_ZN9Pa_blocks17Vector_saturation61apply_vec_mag_saturation_max_direction_preserving_cylindricalERKN8Maverick9Irvector3EfffRS2_)
                  00090a16    0000012f                   : Model_dynamic.obj (.text:_ZN9Pa_blocks13Model_dynamicC1ERN4Base9AllocatorENS1_6MblockIjEERKNS_24State_space_model_paramsE)
                  00090b45    0000012e                   : Pa_geometric.obj (.text:_ZN9Pa_blocks12Pa_geometric49compute_circle_from_two_points_and_one_tangent_64ERKN4Base7TnarrayIeLm2EEES5_RKN8Maverick8Rvector2ERS7_Rf)
                  00090c73    0000012b                   : Maneuver.obj (.text:_ZN9Pa_blocks8Maneuver28set_maneuver_coordinates_WbfEfffff)
                  00090d9e    0000012b     vpgnc.lib : Vpu.obj (.text:_ZNK5Vpgnc3Vpu15get_status_dataERN4Base9U8ostreamE)
                  00090ec9    0000012a     midlevel.lib : Irxfw.obj (.text:_ZN8Midlevel5Irxfw6Parser5parseERN4Base17U16stream_r_errorE)
                  00090ff3    00000128     pa_blocks.lib : Gnc_transformation.obj (.text:_ZN8Maverick8Imatrix3IfE7matthisERKS1_)
                  0009111b    00000127     stanag.lib : Vehicle_identifier_cfg.obj (.text:_ZN6Stanag22Vehicle_identifier_cfg4csetERN4Base11Lossy_errorE)
                  00091242    00000126     pa_blocks.lib : Turn_maneuver.obj (.text:_ZNK9Pa_blocks13Turn_maneuver34waypoint_from_waypoint_coordinatesERKNS_19Maneuver_coordinate25Waypoint_coordinate_arrayERNS_12Waypoint_msgE)
                  00091368    00000124                   : Recovery_wrapper_control_system_object.obj (.text:_ZN9Pa_blocks38Recovery_wrapper_control_system_object18run_recovery_mixerERKNS_18Controllers_object6OutputERNS_25Actuator_allocator_object6OutputERNS_18Actuator_setpointsE)
                  0009148c    00000120                   : Cqp.obj (.text:_ZN9Pa_blocks3Cqp24update_to_add_constraintEv)
                  000915ac    00000120                   : Ttcg.obj (.text:_ZN9Pa_blocks4Ttcg42evaluate_inbound_transition_lowspeed_logicERNS_12Waypoint_msgE)
                  000916cc    00000120                   : Roll_maneuver.obj (.text:_ZNK9Pa_blocks13Roll_maneuver34waypoint_coordinates_from_waypointERKNS_12Waypoint_msgERNS_19Maneuver_coordinate25Waypoint_coordinate_arrayE)
                  000917ec    00000117                   : Model_dynamic.obj (.text:_ZN8Maverick16Qr_factorizationIfE9update_qrEv)
                  00091903    00000117     maverick.lib : Irmatrix3.obj (.text:_ZN8Maverick9Irmatrix311matmatT_addERKS0_S2_)
                  00091a1a    00000115     pa_blocks.lib : Vector_saturation.obj (.text:_ZN9Pa_blocks17Vector_saturation53apply_vec_mag_saturation_min_direction_preserving3dXYERKN8Maverick9Irvector3ES4_RNS_14Vec_sat_outputENS_9Norm_type4TypeE)
                  00091b2f    00000114     media.lib : Cfgmgr.obj (.text:_ZN5Media6Cfgmgr9step_loadEv)
                  00091c43    00000114     pa_blocks.lib : Common_controller_params.obj (.text:_ZN9Pa_blocks24Common_controller_paramsC1Ev)
                  00091d57    00000113                   : Cy_file_transfer.obj (.text:_ZN9Pa_blocks16Cy_file_transfer8on_rx_cyEN6Cyphal17Cyphal_stg_fieldsERN6Stanag14IStanag_msg_rx9Rx_paramsE)
                  00091e6a    0000010f                   : Tllh_cs_64.obj (.text:_ZNK9Pa_blocks10Tllh_cs_6428lla_from_ned_equirectangularERKN8Maverick9Irvector3ERS0_)
                  00091f79    0000010f                   : Vehicle_state_transform.obj (.text:_ZNK9Pa_blocks23Vehicle_state_transform23transform_vehicle_stateERKNS_26Controllers_state_estimateERNS0_25Transformed_vehicle_stateE)
                  00092088    0000010d                   : Tcg.obj (.text:_ZN9Pa_blocks3Tcg35recovery_perform_position_smoothingERKNS_18Modes_and_commandsERKNS_15Phase_of_flightERN4Base7TnarrayIfLm3EEE)
                  00092195    0000010b     vpgnc.lib : Evtmgr.obj (.text:_ZN5Vpgnc6Evtmgr4csetERN4Base11Lossy_errorE)
                  000922a0    0000010a     pa_blocks.lib : Commands_processor.obj (.text:_ZN9Pa_blocks18Commands_processor16process_commandsERKNS_12Command_fifoINS0_15Takeoff_commandELj1EEERKNS1_INS0_12Land_commandELj1EEERKNS1_INS0_25Route_command_and_controlELj1EEERKNS1_INS0_27Airspeed_modulation_commandELj1EEERKNS_20State_machines_state4Mode16Controllers_modeE)
                  000923aa    00000108     base.lib : Ftelemetryod.obj (.text:_ZN4Base9FieldsvecINS_8TmodvdatELj20EE9vdat_csetINS_11Lossy_errorEEENS_10Async_sresERNS_9Enable_ifILb1ET_E4typeEj)
                  000924b2    00000106     pa_blocks.lib : Controllers_object.obj (.text:_ZN9Pa_blocks18Controllers_object11reset_stateEv)
                  000925b8    00000105                   : Straight_maneuver.obj (.text:_ZNK9Pa_blocks17Straight_maneuver34waypoint_coordinates_from_waypointERKNS_12Waypoint_msgERNS_19Maneuver_coordinate25Waypoint_coordinate_arrayE)
                  000926bd    00000104                   : Model_dynamic.obj (.text:_ZN9Pa_blocks13Model_dynamic4stepERKN8Maverick7RvectorEfRS2_)
                  000927c1    00000103                   : Cqp.obj (.text:_ZN9Pa_blocks3Cqp28construct_active_constraintsERNS0_18Active_constraintsE)
                  000928c4    00000102     base.lib : Field.obj (.text:_ZNK4Base5Field4cgetERNS_5LossyE)
                  000929c6    00000102     rts2800_fpu64_eabi.lib : e_acosf.c.obj (.text)
                  00092ac8    000000ff     pa_blocks.lib : Model.obj (.text:_ZNK9Pa_blocks5Model11limit_inputERKN8Maverick7RvectorES4_S4_S4_S4_RS2_)
                  00092bc7    000000fe                   : Maneuver_coordinate.obj (.text:_ZN9Pa_blocks19Maneuver_coordinate45construct_position_change_maneuver_coordinateEfffffNS_15Phase_of_flightE)
                  00092cc5    000000fe                   : Waca.obj (.text:_ZN9Pa_blocks4Waca4stepERKNS0_5InputERNS0_6OutputE)
                  00092dc3    000000fc                   : Land_manager.obj (.text:_ZN9Pa_blocks12Land_manager20set_descent_commandsERKNS0_5InputERNS_18Modes_and_commandsE)
                  00092ebf    000000fb                   : Roll_maneuver.obj (.text:_ZN9Pa_blocks13Roll_maneuver25compute_maneuver_durationEfff)
                  00092fba    000000f9     Vmain_cpu2.obj (.text:_ZN7Project10Vmain_cpu2C1Ev)
                  000930b3    000000f7     pa_blocks.lib : Tsc.obj (.text:_ZN9Pa_blocks3TscC1ERKNS0_16Vsdk_parameters_ERKNS_24Common_controller_paramsERKNS0_11Parameters_ERN4Base9AllocatorENSA_6MblockIjEERNS0_9TelemetryE)
                  000931aa    000000f6                   : State_machines.obj (.text:_ZN9Pa_blocks14State_machines22run_all_state_machinesEv)
                  000932a0    000000f4                   : Vsdk_params.obj (.text:_ZN9Pa_blocks20Vsdk_recovery_paramsC1Ev)
                  00093394    000000f4                   : Mission_readiness.obj (.text:_ZNK9Pa_blocks17Mission_readiness13compute_crc32Ev)
                  00093488    000000f3                   : Takeoff_manager.obj (.text:_ZN9Pa_blocks15Takeoff_manager26set_translational_commandsERKNS0_5InputERNS_18Modes_and_commandsE)
                  0009357b    000000f3                   : Gnc_vector_saturation.obj (.text:_ZNK9Pa_blocks21Gnc_vector_saturation26apply_magnitude_saturationENS0_26Local_mag_sat_min_max_enum4TypeENS0_23Local_mag_sat_type_enum4TypeENS_9Norm_type4TypeERKN8Maverick9Irvector3ERKNS7_6IrquatEfRNS_14Vec_sat_outputE)
                  0009366e    000000f2     vblocks.lib : Dyn_multi_interpolator.obj (.text:_ZN7Vblocks22Dyn_multi_interpolator4csetERN4Base11Lossy_errorERNS1_9AllocatorERNS_22Multi_interpolator_tunERNS1_6MblockIjEE)
                  00093760    000000f1     pa_blocks.lib : Ttcg.obj (.text:_ZN9Pa_blocks4Ttcg32update_tracked_route_informationERKNS_25Current_route_informationERb)
                  00093851    000000ef     media.lib : Cfgmgr.obj (.text:_ZN5Media6Cfgmgr14step_sync_cfgsERN4Base7TimeoutE)
                  00093940    000000ef     maverick.lib : Irmatrix3.obj (.text:_ZN8Maverick9Irmatrix36matmatERKS0_S2_)
                  00093a2f    000000ef     pa_blocks.lib : Input_processor.obj (.text:_ZN9Pa_blocks15Input_processor21process_input_signalsERKNS_26Controllers_state_estimateERNS_16Processed_inputsE)
                  00093b1e    000000ec     maverick.lib : Irmatrix3.obj (.text:_ZNK8Maverick9Irmatrix37adjointERS0_)
                  00093c0a    000000eb                  : Irmatrix3.obj (.text:_ZN8Maverick9Irmatrix37matmatTERKS0_S2_)
                  00093cf5    000000ea     pa_blocks.lib : Waypoint_msg.obj (.text:_ZN9Pa_blocks12Waypoint_msg26scale_waypoint_groundspeedEf)
                  00093ddf    000000ea     base.lib : Cfgsync.obj (.text:_ZNK4Base7Cfgsync7get_idsERNS_5LossyERKj)
                  00093ec9    000000e9     geomodel.lib : Gellipsoid.obj (.text:_ZN3Geo10Gellipsoid9ecef2geo3ERKN8Maverick9Irvector3ERN4Base4TllhE)
                  00093fb2    000000e8     pa_blocks.lib : Mission_utilities.obj (.text:_ZN9Pa_blocks17Mission_utilities21is_initial_plan_validERKNS_12Initial_planERKj)
                  0009409a    000000e7                   : Takeoff_action.obj (.text:_ZN9Pa_blocks14Takeoff_action6decodeERNS_16Protobuf_decoderERKjRN4Base8OptionalINS_17Geospatial_cuboidEEE)
                  00094181    000000e7                   : Gnc_transformation.obj (.text:_ZNK9Pa_blocks18Gnc_transformation17transform_inertiaERKN8Maverick9Irmatrix3EfRKNS1_9Irvector3ERS2_)
                  00094268    000000e6                   : Controllers_param.obj (.text:_ZN9Pa_blocks17Controllers_paramC1Ev)
                  0009434e    000000e6                   : Vsdk_params.obj (.text:_ZN9Pa_blocks23Vsdk_controllers_paramsC1Ev)
                  00094434    000000e5                   : Atcg.obj (.text:_ZN9Pa_blocks4Atcg27initialize_after_switchoverERKNS_26Controllers_state_estimateE)
                  00094519    000000e5                   : Mode_state_machine.obj (.text:_ZNK9Pa_blocks18Mode_state_machine4evalENS_20State_machines_state4Mode16Controllers_modeE)
                  000945fe    000000e4                   : Mission_utilities.obj (.text:_ZN9Pa_blocks17Mission_utilities24parse_initial_conditionsERKNS_12Mission_planERKmRNS_30Route_initial_condition_paramsE)
                  000946e2    000000e3                   : Alternate_plans_buffer.obj (.text:_ZN9Pa_blocks22Alternate_plans_buffer34process_alternate_plan_into_bufferERKNS_14Alternate_planE)
                  000947c5    000000e3     maverick.lib : Irquat.obj (.text:_ZNK8Maverick6Irquat3b2nERKNS_9Irvector3ERS1_)
                  000948a8    000000e1     devices.lib : Ubxcfgdata.obj (.text:_ZN7Devices3Ubx10Ubxcfgdata4csetERN4Base11Lossy_errorE)
                  00094989    000000df     geomodel.lib : Apos.obj (.text:_ZN3Geo4Apos8move_drnERKN8Maverick9Irvector3E)
                  00094a68    000000de     veronte.lib : Hxcfield_cpu2.obj (.text:_ZN4Base9FieldsvecINS_11SniffervdatELj0EE4csetINS_11Lossy_errorEEENS_10Async_sresERNS_9Enable_ifILb1ET_E4typeE)
                  00094b46    000000dd     pa_blocks.lib : Marker_delivery_action.obj (.text:_ZN9Pa_blocks22Marker_delivery_action6decodeERNS_16Protobuf_decoderE)
                  00094c23    000000dc     maverick.lib : Irquat.obj (.text:_ZN8Maverick6Irquat8quatmultERKS0_S2_)
                  00094cff    000000db     pa_blocks.lib : Controllers_state_estimate.obj (.text:_ZN9Pa_blocks26Controllers_state_estimateC1Ev)
                  00094dda    000000da     veronte.lib : Hxcfield_cpu2.obj (.text:_ZN4Base9FieldsvecINS_6TmvdatELj0EE4csetINS_11Lossy_errorEEENS_10Async_sresERNS_9Enable_ifILb1ET_E4typeE)
                  00094eb4    000000da                 : Hxcfield_cpu2.obj (.text:_ZN4Base9FieldsvecINS_9FmsetvdatELj0EE4csetINS_11Lossy_errorEEENS_10Async_sresERNS_9Enable_ifILb1ET_E4typeE)
                  00094f8e    000000da     pa_blocks.lib : Roll_wbf_maneuver.obj (.text:_ZN9Pa_blocks17Roll_wbf_maneuver6decodeERNS_16Protobuf_decoderE)
                  00095068    000000d9                   : Recovery_wrapper_control_system_object.obj (.text:_ZN9Pa_blocks38Recovery_wrapper_control_system_object11reset_stateEv)
                  00095141    000000d9                   : Pa_irquat.obj (.text:_ZN9Pa_blocks9Pa_irquat16quaternion_slerpERKN8Maverick6IrquatES4_fRS2_)
                  0009521a    000000d9     rts2800_fpu64_eabi.lib : s_floor.c.obj (.text)
                  000952f3    000000d7     vpgnc.lib : Evtmgr.obj (.text:_ZN5Vpgnc6EvtmgrC1ERN4Base7XcpktwrERNS_6ImarksERNS_20Event_inside_checkerE)
                  000953ca    000000d6     pa_blocks.lib : Cqp.obj (.text:_ZN8Maverick9TcholeskyIeE6solverERKNS_7TvectorIeEERS3_)
                  000954a0    000000d6                   : Waca.obj (.text:_ZN9Pa_blocks4Waca29run_airspeed_modulation_logicERKNS0_5InputERfRb)
                  00095576    000000d5                   : Dyn_pa_interpolator_cat_2.obj (.text:_ZN9Pa_blocks25Dyn_pa_interpolator_cat_24csetERN4Base11Lossy_errorERN7Vblocks22Multi_interpolator_tunERNS1_9AllocatorE)
                  0009564b    000000d3     Vmain_cpu2.obj (.text:_ZN7Project10Vmain_cpu210step_statsEf)
                  0009571e    000000d3     pa_blocks.lib : Maneuver_coordinate.obj (.text:_ZNK9Pa_blocks19Maneuver_coordinate17integrate_to_timeEf)
                  000957f1    000000d1                   : Populate_messages.obj (.text:_ZN9Pa_blocks38Recovery_wrapper_control_system_object27populate_recovery_telemetryERNS_18Recovery_telemetryE)
                  000958c2    000000d1                   : Ttcg.obj (.text:_ZN9Pa_blocks4Ttcg43evaluate_inbound_transition_highspeed_logicERNS_12Waypoint_msgE)
                  00095993    000000d0     base.lib : Stickrawtrans.obj (.text:_ZN4Base13Stickrawtrans4csetERNS_11Lossy_errorE)
                  00095a63    000000d0     pa_blocks.lib : Recovery_wrapper_control_system_object.obj (.text:_ZN9Pa_blocks38Recovery_wrapper_control_system_object21output_motor_commandsEfRKNS_18Actuator_setpointsERKNS_35Recovery_controls_command_processor6OutputERNS0_6OutputE)
                  00095b33    000000d0                   : Tsc.obj (.text:_ZN9Pa_blocks3Tsc11reset_stateEv)
                  00095c03    000000d0                   : Atcg.obj (.text:_ZN9Pa_blocks4Atcg25run_vtol_hysteresis_logicERKN4Base7TnarrayIfLm2EEERKNS_11Heading_msgERKNS_20State_machines_state4Land4TypeE)
                  00095cd3    000000cf                   : Mission_utilities.obj (.text:_ZN9Pa_blocks17Mission_utilities23is_alternate_plan_validERKNS_12Initial_planERKNS_14Alternate_planE)
                  00095da2    000000cf                   : Actuator_allocator_object.obj (.text:_ZN9Pa_blocks25Actuator_allocator_object16set_mixer_returnERKNS_15Mixer_allocator18Allocation_resultsERNS0_6OutputE)
                  00095e71    000000cf                   : Recovery_wrapper_control_system_object.obj (.text:_ZN9Pa_blocks38Recovery_wrapper_control_system_object5StateC1ERNS_17Mission_plan_dataE)
                  00095f40    000000ce                   : Pa_scheduler.obj (.text:_ZN9Pa_blocks12Pa_scheduler30dispatch_allocation_parametersERKNS0_6InputsE)
                  0009600e    000000cd     veronte.lib : Hxcfield_cpu2.obj (.text:_ZN4Base9FieldsvecIN6Stanag7StgvdatELj0EE4csetINS_11Lossy_errorEEENS_10Async_sresERNS_9Enable_ifILb1ET_E4typeE)
                  000960db    000000cd     pa_blocks.lib : Recovery_controls_command_processor.obj (.text:_ZN9Pa_blocks35Recovery_controls_command_processor24perform_preflight_checksERKNS_23Mission_phase_of_flight4TypeE)
                  000961a8    000000cc                   : Pa_irquat.obj (.text:_ZN9Pa_blocks9Pa_irquat8quat2rpyERKN8Maverick6IrquatERfS5_S5_)
                  00096274    000000cc                   : Recovery_mission_data_processor.obj (.text:_ZNK9Pa_blocks31Recovery_mission_data_processor33populate_rhcp_maneuver_range_dataERKNS_12Mission_planERNS_30Rhcp_maneuver_range_data_arrayE)
                  00096340    000000cb                   : Marker_land_action.obj (.text:_ZN9Pa_blocks18Marker_land_action6decodeERNS_16Protobuf_decoderE)
                  0009640b    000000cb                   : Maneuver_coordinate.obj (.text:_ZN9Pa_blocks19Maneuver_coordinate34construct_null_maneuver_coordinateEf)
                  000964d6    000000ca     veronte.lib : Copystep.obj (.text:_ZN3Ver36_GLOBAL__N__12_Copystep_cpp_e59cf1d56HrangeIN3Bsp5HbvarEE12build_rangesEv)
                  000965a0    000000ca     pa_blocks.lib : Cy_file_transfer.obj (.text:_ZN9Pa_blocks16Cy_file_transfer10File_write4csetERN4Base9U8istreamE)
                  0009666a    000000ca                   : Turn_wbf_maneuver.obj (.text:_ZN9Pa_blocks17Turn_wbf_maneuver6decodeERNS_16Protobuf_decoderE)
                  00096734    000000c8                   : Turn_maneuver.obj (.text:_ZN9Pa_blocks13Turn_maneuver33directional_angle_between_vectorsERKN8Maverick8Rvector2ES4_RKNS_14Turn_direction9DirectionE)
                  000967fc    000000c8     rts2800_fpu64_eabi.lib : e_asinf.c.obj (.text)
                  000968c4    000000c7     pa_blocks.lib : Alternate_plan.obj (.text:_ZN9Pa_blocks14Alternate_plan6decodeERNS_16Protobuf_decoderE)
                  0009698b    000000c7                   : Maneuver_coordinate.obj (.text:_ZN9Pa_blocks19Maneuver_coordinate60construct_constant_speed_position_change_maneuver_coordinateEffff)
                  00096a52    000000c6                   : Asc.obj (.text:_ZN9Pa_blocks3Asc4stepERKNS0_5InputERNS0_6OutputE)
                  00096b18    000000c6                   : Tcg.obj (.text:_ZN9Pa_blocks3Tcg38recovery_vtol_upset_recovery_overridesERKNS_14State_machines5StateERKN8Maverick9Irvector3ERS6_RNS_12Waypoint_msgE)
                  00096bde    000000c6                   : Ttcg.obj (.text:_ZNK9Pa_blocks4Ttcg23Find_zero_closest_point1fEf)
                  00096ca4    000000c5     midlevel.lib : Irxfw.obj (.text:_ZN8Midlevel5Irxfw6Parser4stepEv)
                  00096d69    000000c5     pa_blocks.lib : Mission_utilities.obj (.text:_ZN9Pa_blocks17Mission_utilities34parse_alternate_plan_mission_stepsERKNS_12Initial_planERKNS_14Alternate_planERNS_19Command_route_entryE)
                  00096e2e    000000c5                   : Alternate_plans_buffer.obj (.text:_ZNK9Pa_blocks22Alternate_plans_buffer30get_alternate_plan_from_bufferEmRNS_14Alternate_planE)
                  00096ef3    000000c4     maverick.lib : Irmatrix3.obj (.text:_ZN8Maverick9Irmatrix313rot_from_quatERKNS_6IrquatE)
                  00096fb7    000000c4     pa_blocks.lib : Tcg.obj (.text:_ZN9Pa_blocks3TcgC1ERKNS_24Common_controller_paramsERKNS0_10Vsdk_paramERKNS0_11Parameters_ERKNS_9Lane_type4TypeEN4Base6MblockIjEERNS0_9TelemetryE)
                  0009707b    000000c2     midlevel.lib : Irxfw.obj (.text:_ZN8Midlevel5Irxfw6ParserC1ERN4Base11Ipkt_senderENS2_6MblockIKNS2_15Auth_connectionEEE)
                  0009713d    000000c0     DSP2837x_ent.lib : Pwmdev.obj (.text:_ZN12Dsp28335_ent6Pwmdev15set_module_freqEj)
                  000971fd    000000c0     pa_blocks.lib : Vsdk_navigation_params.obj (.text:_ZN9Pa_blocks22Vsdk_navigation_params19Installation_paramsC1Ev)
                  000972bd    000000bf     base.lib : Ftelemetryod.obj (.text:_ZN4Base12Ftelemetryod5Fsvod4stepEv)
                  0009737c    000000bf     pa_blocks.lib : Cqp.obj (.text:_ZN8Maverick9TcholeskyIeE4stepEv)
                  0009743b    000000bf                   : Recovery_wrapper_control_system_object.obj (.text:_ZN9Pa_blocks38Recovery_wrapper_control_system_object5InputC1ERNS_17Mission_plan_dataE)
                  000974fa    000000be                   : Recovery_controls_command_processor.obj (.text:_ZN9Pa_blocks35Recovery_controls_command_processorC1ERKNS_15Vsdk_rccp_paramERKNS_9Lane_type4TypeERNS0_5StateERNS_11Text_loggerERNS_12Mission_planE)
                  000975b8    000000bd                   : Maneuver_coordinate.obj (.text:_ZN9Pa_blocks19Maneuver_coordinate42construct_vertical_wbf_maneuver_coordinateEffffff)
                  00097675    000000bc                   : Actuator_allocator_object.obj (.text:_ZN9Pa_blocks25Actuator_allocator_object26set_rotors_only_set_pointsERKNS_15Mixer_allocator18Allocation_resultsERNS0_6OutputE)
                  00097731    000000bc                   : Recovery_controls_command_processor.obj (.text:_ZNK9Pa_blocks35Recovery_controls_command_processor29set_route_command_and_controlERKNS_9Tp_outputERKNS_19Route_tracking_dataERNS0_6OutputE)
                  000977ed    000000bb     media.lib : Cfgmgr.obj (.text:_ZN5Media6Cfgmgr14step_sync_crcsERN4Base7TimeoutE)
                  000978a8    000000b9     pa_blocks.lib : Takeoff_manager.obj (.text:_ZN9Pa_blocks15Takeoff_manager21set_attitude_commandsERKNS0_5InputERNS_18Modes_and_commandsE)
                  00097961    000000b7     veronte.lib : Copystep.obj (.text:_ZN3Ver36_GLOBAL__N__12_Copystep_cpp_e59cf1d59Copystep0C1Ev)
                  00097a18    000000b7     pa_blocks.lib : Pa_scheduler.obj (.text:_ZN9Pa_blocks12Pa_scheduler21Allocation_parametersC1Ev)
                  00097acf    000000b6                   : Mixer_allocator.obj (.text:_ZN9Pa_blocks15Mixer_allocatorC1ERN4Base9AllocatorE)
                  00097b85    000000b6                   : Atcg.obj (.text:_ZN9Pa_blocks4Atcg26vel_from_ned_attitude_vtolERKNS0_5InputERN8Maverick6IrquatE)
                  00097c3b    000000b5                   : Rwcso_output_manager.obj (.text:_ZN9Pa_blocks20Rwcso_output_managerC1Ev)
                  00097cf0    000000b5                   : Controllers_state_estimate.obj (.text:_ZN9Pa_blocks26Controllers_state_estimate4csetERN4Base5LossyE)
                  00097da5    000000b4     first.lib : Strutil.obj (.text:_ZN4Base7Strutil9as_stringEfhchcbcRNS_7VstringE)
                  00097e59    000000b3     geomodel.lib : Fmemcmd.obj (.text:_ZN3Geo7Fmemcmd6apply0Ev)
                  00097f0c    000000b2     pa_blocks.lib : Maneuver_coordinate.obj (.text:_ZNK9Pa_blocks19Maneuver_coordinate16evaluate_at_timeEfRNS_19Waypoint_coordinateE)
                  00097fbe    000000b1     vpgnc.lib : Evtmgr.obj (.text:_ZN5Vpgnc6Evtmgr5on_rxERN6Stanag14IStanag_msg_rx9Rx_paramsE)
                  0009806f    000000b1     pa_blocks.lib : Tllh_cs_64.obj (.text:_ZNK9Pa_blocks10Tllh_cs_6428ned_from_lla_equirectangularERKS0_RN8Maverick9Irvector3E)
                  00098120    000000b1                   : Land_manager.obj (.text:_ZNK9Pa_blocks12Land_manager22is_specification_validEv)
                  000981d1    000000b0     base.lib : Sticktypes.obj (.text:_ZN4Base11Stickvarcfg4csetERNS_11Lossy_errorE)
                  00098281    000000b0              : Ftelemetryod.obj (.text:_ZN4Base12Ftelemetryod5Fsvod4csetERNS_11Lossy_errorE)
                  00098331    000000af              : Cmdvar.obj (.text:_ZN4Base6Cmdvar4csetERNS_11Lossy_errorE)
                  000983e0    000000af     pa_blocks.lib : Straight_wbf_maneuver.obj (.text:_ZN9Pa_blocks21Straight_wbf_maneuver6decodeERNS_16Protobuf_decoderE)
                  0009848f    000000ae                   : Mission_utilities.obj (.text:_ZN9Pa_blocks17Mission_utilities47map_delivery_action_from_marker_delivery_actionERKNS_22Marker_delivery_actionERNS_15Delivery_actionE)
                  0009853d    000000ad                   : Atcg.obj (.text:_ZN9Pa_blocks4Atcg21vel_from_ned_attitudeERKNS0_5InputEfRfRbRN8Maverick6IrquatE)
                  000985ea    000000ad                   : Straight_maneuver.obj (.text:_ZNK9Pa_blocks17Straight_maneuver34waypoint_from_waypoint_coordinatesERKNS_19Maneuver_coordinate25Waypoint_coordinate_arrayERNS_12Waypoint_msgE)
                  00098697    000000ac     midlevel.lib : Sys_status_mgr.obj (.text:_ZN8Midlevel14Sys_status_mgr19build_extended_respERN4Base9U8ostreamE)
                  00098743    000000ac     pa_blocks.lib : Geospatial_cuboid.obj (.text:_ZN9Pa_blocks17Geospatial_cuboid6decodeERNS_16Protobuf_decoderE)
                  000987ef    000000ac                   : Controllers_object.obj (.text:_ZN9Pa_blocks18Controllers_object32compute_trim0_ncg_inertia_tensorERKN8Maverick6IrquatERNS1_9Irmatrix3E)
                  0009889b    000000ac                   : Gnc_vector_saturation.obj (.text:_ZNK9Pa_blocks21Gnc_vector_saturation26apply_direction_saturationENS0_23Local_dir_sat_type_enum4TypeENS_9Norm_type4TypeERKN8Maverick9Irvector3ERKNS5_6IrquatEfRNS_14Vec_sat_outputE)
                  00098947    000000ab     midlevel.lib : Sys_status_mgr.obj (.text:_ZN8Midlevel14Sys_status_mgr16serialize_statusERN4Base9U8ostreamE)
                  000989f2    000000ab     pa_blocks.lib : Pa_geometric.obj (.text:_ZN9Pa_blocks12Pa_geometric38get_unsigned_angle_between_two_vectorsERKN8Maverick8Rvector3ES4_Rf)
                  00098a9d    000000aa     veronte.lib : Copystep.obj (.text:_ZN3Ver36_GLOBAL__N__12_Copystep_cpp_e59cf1d56HrangeIN3Bsp5HrvarEE12build_rangesEv)
                  00098b47    000000aa     pa_blocks.lib : Mission_plan.obj (.text:_ZNK9Pa_blocks12Mission_plan29is_mission_plan_message_validEv)
                  00098bf1    000000a9     base.lib : Ftelemetryod.obj (.text:_ZN4Base12Ftelemetryod5FsvodC1ERNS_11XcfieldsvecINS_8TmodvdatELm200ELj10EEE)
                  00098c9a    000000a9     pa_blocks.lib : Cqp.obj (.text:_ZN8Maverick9TcholeskyIeE11ldlt_solverERKNS_7TvectorIeEERS3_)
                  00098d43    000000a8     midlevel.lib : Sys_status_mgr.obj (.text:_ZN8Midlevel14Sys_status_mgrC1ERNS0_14Istatus_getterERN4Base11Imsg_senderE)
                  00098deb    000000a8     pa_blocks.lib : Controllers_state.obj (.text:_ZN9Pa_blocks17Controllers_stateC1ERNS_14State_machines5StateERNS_3Tcg6OutputE)
                  00098e93    000000a8                   : Cqp.obj (.text:_ZN9Pa_blocks3CqpC1ERKN8Maverick7TmatrixIeEERKNS1_7TvectorIeEES5_S9_S5_S9_S9_S9_RN4Base9AllocatorE)
                  00098f3b    000000a8                   : Tsc.obj (.text:_ZN9Pa_blocks3Tsc26reset_previous_v2a_commandERKNS_26Controllers_state_estimateE)
                  00098fe3    000000a8                   : Atcg.obj (.text:_ZN9Pa_blocks4Atcg34update_vel_x_from_ned_rate_limitedERKN8Maverick9Irvector3Ef)
                  0009908b    000000a7                   : Timing_window.obj (.text:_ZN9Pa_blocks13Timing_window6decodeERNS_16Protobuf_decoderE)
                  00099132    000000a6                   : Maneuver_msg.obj (.text:_ZN9Pa_blocks12Maneuver_msgC1Ev)
                  000991d8    000000a6                   : Cy_maint_action.obj (.text:_ZN9Pa_blocks15Cy_maint_action10on_tx_implERN6Stanag14IStanag_msg_tx9Tx_paramsE)
                  0009927e    000000a4                   : Maneuver_coordinate.obj (.text:_ZN9Pa_blocks19Maneuver_coordinate24set_waypoint_coordinatesEN4Base6MblockINS_19Waypoint_coordinateEEE)
                  00099322    000000a4                   : Ttcg.obj (.text:_ZNK9Pa_blocks4Ttcg9Telemetry4cgetERN4Base5LossyE)
                  000993c6    000000a3     veronte.lib : Xcrdsuite.obj (.text:_ZN3Ver9XcrdsuiteC1ERN4Base11Ipkt_senderERNS1_9IstrparseERKNS1_7TnarrayINS1_15Auth_connectionELm5EEE)
                  00099469    000000a3     pa_blocks.lib : Hover_maneuver.obj (.text:_ZN9Pa_blocks14Hover_maneuver26set_and_validate_waypointsERKNS_12Waypoint_msgES3_)
                  0009950c    000000a3                   : Recovery_wrapper_control_system_object.obj (.text:_ZN9Pa_blocks38Recovery_wrapper_control_system_object23set_motor_state_requestERKNS_35Recovery_controls_command_processor6OutputEfRNS_13Motor_rpm_cmd19Motor_state_requestE)
                  000995af    000000a1                   : Pa_scheduler.obj (.text:_ZN9Pa_blocks12Pa_scheduler4csetERN4Base11Lossy_errorERNS1_9AllocatorERN7Vblocks22Multi_interpolator_tunES8_RNS1_6MblockIjEE)
                  00099650    000000a0                   : Trajectory_planner.obj (.text:_ZNK9Pa_blocks18Trajectory_planner21process_command_routeERKNS_8Tp_inputERNS_9Tp_outputERNS_11Tp_log_dataE)
                  000996f0    000000a0     rts2800_fpu64_eabi.lib : s_scalbn.c.obj (.text)
                  00099790    0000009f     devices.lib : Ubxcfgnav5.obj (.text:_ZN7Devices3Ubx10Ubxcfgnav54csetERN4Base11Lossy_errorE)
                  0009982f    0000009c     media.lib : Fstrfast.obj (.text:_ZN5Media8FstrfastC1ERN4Base8XclogmngERNS1_7XcpktwrERNS1_7SessionERVKNS1_6TdsyncINS1_8FstrFastENS1_12Tdsynctraits11Rd_blockingIS9_NS1_8Cptraits6PodrawIVS9_EEEENSA_15Disabled_structEEE)
                  000998cb    0000009c     pa_blocks.lib : Waypoint_msg.obj (.text:_ZN9Pa_blocks12Waypoint_msg36set_waypoint_alongtrack_accelerationEf)
                  00099967    0000009c                   : Vector_saturation.obj (.text:_ZN9Pa_blocks17Vector_saturation53apply_vec_mag_saturation_max_direction_preserving3dXYERKN8Maverick9Irvector3ES4_RNS_14Vec_sat_outputENS_9Norm_type4TypeE)
                  00099a03    0000009c                   : Motor_rpm_stab_tunnel.obj (.text:_ZN9Pa_blocks21Motor_rpm_stab_tunnel8on_rx_cyEN6Cyphal17Cyphal_stg_fieldsERN6Stanag14IStanag_msg_rx9Rx_paramsE)
                  00099a9f    0000009c                   : Model.obj (.text:_ZN9Pa_blocks5ModelC1ERN4Base9AllocatorENS1_6MblockIjEERKNS_24State_space_model_paramsE)
                  00099b3b    0000009c                   : Atcg.obj (.text:_ZNK9Pa_blocks4Atcg21pos_from_ned_attitudeERKNS0_5InputERKN8Maverick6IrquatEfRS5_)
                  00099bd7    0000009b                   : Mission_utilities.obj (.text:_ZN9Pa_blocks17Mission_utilities51map_delivery_action_from_markerless_delivery_actionERKNS_26Markerless_delivery_actionERNS_15Delivery_actionE)
                  00099c72    0000009b     maverick.lib : Rtable.obj (.text:_ZNK8Maverick6Rtable15interp1_linear0EfRNS_7RvectorEm)
                  00099d0d    0000009b     pa_blocks.lib : Dyn_pa_interpolator_cat_2.obj (.text:_ZNK9Pa_blocks25Dyn_pa_interpolator_cat_221Pa_interpolator_cat_219cat_1_to_flat_cat_2ERKN4Base7TnarrayIjLm3EEE)
                  00099da8    0000009a     media.lib : Cfgmgr.obj (.text:_ZN5Media6Cfgmgr21send_sync_state_asyncEv)
                  00099e42    0000009a               : Fstrfast.obj (.text:_ZN5Media8Fstrfast4stepEv)
                  00099edc    00000097               : Cfgmgr.obj (.text:_ZN5Media6Cfgmgr9step_csetEv)
                  00099f73    00000097     pa_blocks.lib : Tllh_cs_64.obj (.text:_ZN9Pa_blocks10Tllh_cs_6421compute_ecef_from_llaEv)
                  0009a00a    00000097                   : Cqp.obj (.text:_ZNK8Maverick7TmatrixIeE24lower_triangular_inverseERS1_)
                  0009a0a1    00000096                   : Vector_saturation.obj (.text:_ZN9Pa_blocks17Vector_saturation40apply_vec_mag_saturation_min_independentERKN8Maverick7RvectorES4_RNS_14Vec_sat_outputE)
                  0009a137    00000094     media.lib : Cfgmgr.obj (.text:_ZN5Media6Cfgmgr5finitEN4Base6LoadstE)
                  0009a1cb    00000094     pa_blocks.lib : Waca.obj (.text:_ZNK9Pa_blocks4Waca36apply_wind_aware_waypoint_adjustmentERKNS0_5InputERNS_12Waypoint_msgERfRb)
                  0009a25f    00000092     base.lib : Stepmgr.obj (.text:_ZN4Base7Stepmgr6step_iEj)
                  0009a2f1    00000092     pa_blocks.lib : Waypoint_msg.obj (.text:_ZN9Pa_blocks12Waypoint_msg21interpolate_waypointsERKS0_f)
                  0009a383    00000092                   : Recovery_motor_rpm_cmd.obj (.text:_ZN9Pa_blocks22Recovery_motor_rpm_cmd8on_rx_cyEN6Cyphal17Cyphal_stg_fieldsERN6Stanag14IStanag_msg_rx9Rx_paramsE)
                  0009a415    00000091     vpgnc.lib : Vpu.obj (.text:_ZN8Midlevel11Default_cfg14set_default_tmIN4Base8FvecdataINS2_6TmvdatELm600ELj4EEEEEvRNT_4Fsv0ERKNS2_6MblockIKNS2_4Vref5EntryEEERKNS6_7VecdataEj)
                  0009a4a6    00000091     pa_blocks.lib : Cy_maint_action.obj (.text:_ZN9Pa_blocks15Cy_maint_action5on_rxERN6Stanag14IStanag_msg_rx9Rx_paramsE)
                  0009a537    0000008f     base.lib : Xcmqrd.obj (.text:_ZN4Base6Xcmqrd6parse0Ev)
                  0009a5c6    0000008f     vpgnc.lib : Vpu_dsp.obj (.text:_ZN5Vpgnc3Vpu14boot_mode_initEv)
                  0009a655    0000008f     pa_blocks.lib : Ttcg.obj (.text:_ZN9Pa_blocks4Ttcg5StateC1Ev)
                  0009a6e4    0000008f     vpgnc.lib : Opranges.obj (.text:_ZNK5Vpgnc8Opranges5checkERN4Base5ErrorE)
                  0009a773    0000008f     pa_blocks.lib : Atcg.obj (.text:_ZNK9Pa_blocks4Atcg29gr_traj_from_ned_attitude_wbfERKN8Maverick9Irvector3ES4_RNS1_6IrquatE)
                  0009a802    0000008e     base.lib : Spkt.obj (.text:_ZN4Base4Spkt7end_pktEv)
                  0009a890    0000008e              : Cfgsync.obj (.text:_ZN4Base7Cfgsync8sync_allEb)
                  0009a91e    0000008e     pa_blocks.lib : Command_response.obj (.text:_ZN9Pa_blocks16Command_response4fillERKN4Base12U8pkrszarrayILm256EEENS_28Command_response_status_code2IdE)
                  0009a9ac    0000008e                   : Controllers_param.obj (.text:_ZN9Pa_blocks24State_space_model_paramsC1ILm144ELm4EEEjjjjRKjS3_RKN4Base7XrtableIXT_EXT0_EEE)
                  0009aa3a    0000008d     vpgnc.lib : Vpu.obj (.text:_ZN4Base9FieldsvecINS_6TmvdatELj0EE11add_sub_vecEj)
                  0009aac7    0000008d     pa_blocks.lib : Controllers_param.obj (.text:_ZN9Pa_blocks24State_space_model_paramsC1ILm16ELm4EEEjjjjRKjS3_RKN4Base7XrtableIXT_EXT0_EEE)
                  0009ab54    0000008d                   : Controllers_param.obj (.text:_ZN9Pa_blocks24State_space_model_paramsC1ILm18ELm4EEEjjjjRKjS3_RKN4Base7XrtableIXT_EXT0_EEE)
                  0009abe1    0000008d                   : Controllers_param.obj (.text:_ZN9Pa_blocks24State_space_model_paramsC1ILm32ELm4EEEjjjjRKjS3_RKN4Base7XrtableIXT_EXT0_EEE)
                  0009ac6e    0000008d                   : Controllers_param.obj (.text:_ZN9Pa_blocks24State_space_model_paramsC1ILm36ELm1EEEjjjjRKjS3_RKN4Base7XrtableIXT_EXT0_EEE)
                  0009acfb    0000008d                   : Controllers_param.obj (.text:_ZN9Pa_blocks24State_space_model_paramsC1ILm4ELm1EEEjjjjRKjS3_RKN4Base7XrtableIXT_EXT0_EEE)
                  0009ad88    0000008d                   : Controllers_param.obj (.text:_ZN9Pa_blocks24State_space_model_paramsC1ILm4ELm4EEEjjjjRKjS3_RKN4Base7XrtableIXT_EXT0_EEE)
                  0009ae15    0000008d                   : Controllers_param.obj (.text:_ZN9Pa_blocks24State_space_model_paramsC1ILm54ELm4EEEjjjjRKjS3_RKN4Base7XrtableIXT_EXT0_EEE)
                  0009aea2    0000008d                   : Controllers_param.obj (.text:_ZN9Pa_blocks24State_space_model_paramsC1ILm8ELm4EEEjjjjRKjS3_RKN4Base7XrtableIXT_EXT0_EEE)
                  0009af2f    0000008d                   : Markerless_delivery_action.obj (.text:_ZN9Pa_blocks26Markerless_delivery_action6decodeERNS_16Protobuf_decoderE)
                  0009afbc    0000008d                   : Pa_irquat.obj (.text:_ZN9Pa_blocks9Pa_irquat8rpy2quatEfffRN8Maverick6IrquatE)
                  0009b049    0000008c                   : Tp_utilities.obj (.text:_ZN9Pa_blocks12Tp_utilities43compute_maximum_speed_from_direction_vectorERKN8Maverick9Irvector3Efff)
                  0009b0d5    0000008c                   : Mission_plan_msg.obj (.text:_ZN9Pa_blocks16Mission_plan_msg7Mission3Crs26Equirectangular_projection6decodeERNS_16Protobuf_decoderE)
                  0009b161    0000008c                   : Trajectory_planner.obj (.text:_ZNK9Pa_blocks18Trajectory_planner19validate_ned_originERKN4Base4TllhE)
                  0009b1ed    0000008b                   : Tllh_cs_64.obj (.text:_ZN9Pa_blocks10Tllh_cs_64C1ERKN4Base4TllhE)
                  0009b278    0000008b                   : Recovery_controls_command_processor.obj (.text:_ZNK9Pa_blocks35Recovery_controls_command_processor22is_specification_validEv)
                  0009b303    0000008b     rts2800_fpu64_eabi.lib : k_sin.c.obj (.text)
                  0009b38e    0000008a     base.lib : Ftelemetryod.obj (.text:_ZN4Base6JarrayINS_5FieldEE10sub_removeEj)
                  0009b418    0000008a     vpgnc.lib : Vpu.obj (.text:_ZN4Base9FieldsvecINS_6TmvdatELj0EE13add_sub_fieldEjjNS_5FieldE)
                  0009b4a2    0000008a     pa_blocks.lib : Sep.obj (.text:_ZN9Pa_blocks3Sep6OutputC1Ev)
                  0009b52c    0000008a     veronte.lib : Hxcfield_cpu2.obj (.text:_ZNK4Base9FieldsvecINS_6TmvdatELj20EE4cgetERNS_5LossyE)
                  0009b5b6    00000089     vpgnc.lib : Vpu.obj (.text:_ZN5Vpgnc3Vpu4stepEv)
                  0009b63f    00000089     pa_blocks.lib : Maneuver_coordinate.obj (.text:_ZNK9Pa_blocks19Maneuver_coordinate22find_idx_and_time_polyEfRfRi)
                  0009b6c8    00000088                   : Initial_plan.obj (.text:_ZN9Pa_blocks12Initial_plan6decodeERNS_16Protobuf_decoderERKjRN4Base8OptionalINS_17Geospatial_cuboidEEE)
                  0009b750    00000088                   : Ttcg.obj (.text:_ZN9Pa_blocks4Ttcg34get_maneuver_time_at_closest_pointEPKNS_8ManeuverERKN8Maverick9Irvector3ERf)
                  0009b7d8    00000088                   : Ttcg.obj (.text:_ZN9Pa_blocks4TtcgC1ERKNS0_5ParamERKNS_24Common_controller_paramsERKNS0_10Vsdk_paramERKNS_9Lane_type4TypeERNS0_9TelemetryE)
                  0009b860    00000088     rts2800_fpu64_eabi.lib : fs_div28.asm.obj (.text)
                  0009b8e8    00000087     pa_blocks.lib : Cm.obj (.text:_ZNK9Pa_blocks2Cm30set_default_modes_and_commandsEv)
                  0009b96f    00000086     base.lib : Espkt.obj (.text:_ZN4Base5EspktC1Ev)
                  0009b9f5    00000086     pa_blocks.lib : Vsdk_params.obj (.text:_ZN9Pa_blocks20Vsdk_recovery_params4csetERN4Base11Lossy_errorE)
                  0009ba7b    00000086                   : Roll_maneuver.obj (.text:_ZNK9Pa_blocks13Roll_maneuver16evaluate_at_timeEfRNS_12Waypoint_msgE)
                  0009bb01    00000086                   : Recovery_route_constructor.obj (.text:_ZNK9Pa_blocks26Recovery_route_constructor11reset_stateEv)
                  0009bb87    00000086                   : Sep.obj (.text:_ZNK9Pa_blocks3Sep33extract_schedule_dynamic_pressureERKNS_27State_estimate_field_status4TypeERKN8Maverick6IrquatEffffRKNS5_9Irvector3E)
                  0009bc0d    00000085                   : Switch_blender.obj (.text:_ZNK9Pa_blocks14Switch_blender14check_validityEv)
                  0009bc92    00000085                   : Atcg.obj (.text:_ZNK9Pa_blocks4Atcg25gr_traj_from_ned_attitudeERKNS0_5InputERKN8Maverick6IrquatEfRS5_)
                  0009bd17    00000084                   : Saturation_parameters.obj (.text:_ZN9Pa_blocks21Saturation_parametersC1Ev)
                  0009bd9b    00000084                   : Tcg.obj (.text:_ZN9Pa_blocks3Tcg11reset_stateEv)
                  0009be1f    00000084                   : Mission_plan.obj (.text:_ZNK9Pa_blocks12Mission_plan14alternate_planEm)
                  0009bea3    00000083     devices.lib : Ubxcfgnavx5.obj (.text:_ZN7Devices3Ubx11Ubxcfgnavx54csetERN4Base11Lossy_errorE)
                  0009bf26    00000083     pa_blocks.lib : Actuator_allocator_object.obj (.text:_ZN9Pa_blocks25Actuator_allocator_object19set_mixer_telemetryERNS0_6OutputE)
                  0009bfa9    00000082                   : Tllh_cs_64.obj (.text:_ZN9Pa_blocks10Tllh_cs_644copyERKS0_)
                  0009c02b    00000082                   : Trajectory_planner.obj (.text:_ZNK9Pa_blocks18Trajectory_planner43populate_phase_of_flight_transition_indicesERKNS_19Command_route_entryERNS_9Route_msgE)
                  0009c0ad    00000082                   : Recovery_route_constructor.obj (.text:_ZNK9Pa_blocks26Recovery_route_constructor17initialize_outputERNS0_6OutputERNS0_8Log_dataE)
                  0009c12f    00000081     maverick.lib : Irmatrix3.obj (.text:_ZN8Maverick9Irmatrix315euler321abc2L01Efff)
                  0009c1b0    00000081     pa_blocks.lib : Tp_utilities.obj (.text:_ZN9Pa_blocks12Tp_utilities24verify_straight_waypointERKN8Maverick8Rvector3ES4_S4_)
                  0009c231    00000081                   : Tsc.obj (.text:_ZN9Pa_blocks3Tsc9Telemetry5resetEv)
                  0009c2b2    00000081                   : Ttcg.obj (.text:_ZN9Pa_blocks4Ttcg5State5resetEv)
                  0009c333    00000081                   : Maneuver.obj (.text:_ZN9Pa_blocks8Maneuver18construct_maneuverEv)
                  0009c3b4    00000081                   : Recovery_route_constructor.obj (.text:_ZNK9Pa_blocks26Recovery_route_constructor46get_return_home_route_command_from_maneuver_idEmmRNS_19Command_route_entryE)
                  0009c435    00000080     base.lib : Uclk.obj (.text:_ZN4Base4Uclk4csetERNS_11Lossy_errorE)
                  0009c4b5    00000080     stanag.lib : Acknowledgement.obj (.text:_ZN6Stanag15Acknowledgement5on_rxERNS_14IStanag_msg_rx9Rx_paramsE)
                  0009c535    00000080     pa_blocks.lib : Pa_scheduler.obj (.text:_ZN9Pa_blocks12Pa_schedulerC1Ev)
                  0009c5b5    00000080                   : Cy_command_response.obj (.text:_ZN9Pa_blocks19Cy_command_responseC1ERN4Base11Imsg_senderEfj)
                  0009c635    00000080                   : Gnc_transformation.obj (.text:_ZNK9Pa_blocks18Gnc_transformation23transform_accelerationsERKN8Maverick9Irvector3ES4_S4_RS2_S5_)
                  0009c6b5    00000080                   : Atcg.obj (.text:_ZNK9Pa_blocks4Atcg25pos_from_ned_attitude_wbfERKN8Maverick9Irvector3ERNS1_6IrquatE)
                  0009c735    0000007f     base.lib : Xcfilecli.obj (.text:_ZN4Base9XcfilecliC1ERVKNS_10XcfilectrlERNS_6TdsyncINS_9XcfilereqENS_12Tdsynctraits11Rd_blockingIS5_NS_8Cptraits6PodrawIVS5_EEEENS6_2WrIS5_NS8_8OperatorIS5_S5_EEEEEERNS_8XcbufferILm512EEERVKSK_)
                  0009c7b4    0000007f     pa_blocks.lib : Mission_plan.obj (.text:_ZNK9Pa_blocks12Mission_plan22get_takeoff_parametersERNS_22Takeoff_command_paramsE)
                  0009c833    0000007e                   : Turn_maneuver.obj (.text:_ZN9Pa_blocks13Turn_maneuver19signed_delta_courseEffNS_14Turn_direction9DirectionE)
                  0009c8b1    0000007e                   : Hover_vtol_maneuver.obj (.text:_ZN9Pa_blocks19Hover_vtol_maneuver6decodeERNS_16Protobuf_decoderE)
                  0009c92f    0000007d     base.lib : Kfieldset.obj (.text:_ZNK4Base9Kfieldset14get_hash_asyncERmRj)
                  0009c9ac    0000007d     pa_blocks.lib : Motor_rpm_cmd.obj (.text:_ZNK9Pa_blocks13Motor_rpm_cmd4cgetERN4Base5LossyE)
                  0009ca29    0000007d     rts2800_fpu64_eabi.lib : dtor_list.c.obj (.text)
                  0009caa6    0000007c     media.lib : Cfgmgr.obj (.text:_ZN5Media6Cfgmgr11step_close0Ev)
                  0009cb22    0000007c     pa_blocks.lib : Velocity_3d.obj (.text:_ZN9Pa_blocks11Velocity_3d6decodeERNS_16Protobuf_decoderE)
                  0009cb9e    0000007c                   : WGS84_point_3d.obj (.text:_ZN9Pa_blocks14WGS84_point_3d6decodeERNS_16Protobuf_decoderE)
                  0009cc1a    0000007c     base.lib : Flogic.obj (.text:_ZNK4Base6Flogic5checkERPVKjcRNS_5ErrorE)
                  0009cc96    0000007b     pa_blocks.lib : Recovery_controls_command_processor.obj (.text:_ZNK9Pa_blocks35Recovery_controls_command_processor19set_takeoff_commandERKNS_22Takeoff_command_paramsERNS0_6OutputE)
                  0009cd11    0000007a     veronte.lib : Copystep.obj (.text:_ZN3Ver36_GLOBAL__N__12_Copystep_cpp_e59cf1d56HrangeIN3Bsp5HuvarEE12build_rangesEv)
                  0009cd8b    0000007a     pa_blocks.lib : Cqp.obj (.text:_ZN9Pa_blocks3Cqp23compute_step_directionsEv)
                  0009ce05    00000079                   : Recovery_mission_data_processor.obj (.text:_ZN9Pa_blocks31Recovery_mission_data_processor6OutputC1Ev)
                  0009ce7e    00000079                   : Recovery_route_constructor.obj (.text:_ZNK9Pa_blocks26Recovery_route_constructor46get_route_initial_velocity_from_state_estimateERKNS_26Controllers_state_estimateERN8Maverick9Irvector3E)
                  0009cef7    00000079                   : Recovery_controls_command_processor.obj (.text:_ZNK9Pa_blocks35Recovery_controls_command_processor25is_straight_land_requiredERKNS0_5InputE)
                  0009cf70    00000078                   : Vector_saturation.obj (.text:_ZN9Pa_blocks17Vector_saturation40apply_vec_mag_saturation_max_independentERKN8Maverick9Irvector3ES4_RNS_14Vec_sat_outputE)
                  0009cfe8    00000078                   : Sep.obj (.text:_ZN9Pa_blocks3Sep6Output4copyERKS1_)
                  0009d060    00000077                   : Waca.obj (.text:_ZN9Pa_blocks4Waca26set_commanded_airspeed_easERKNS0_5InputERNS0_6OutputE)
                  0009d0d7    00000077                   : Trajectory_planner.obj (.text:_ZNK9Pa_blocks18Trajectory_planner25validate_environment_dataERKNS_18Environment_valuesE)
                  0009d14e    00000077     rts2800_fpu64_eabi.lib : k_cos.c.obj (.text)
                  0009d1c5    00000076     base.lib : Cyphal_common_types.obj (.text:_ZN19Cyphal_common_types16get_truncated_idERN4Base12U8pkrszarrayILm256EEE)
                  0009d23b    00000076     veronte.lib : Hxcfield_cpu2.obj (.text:_ZN3Ver8Hxcfield8get_ftmcEv)
                  0009d2b1    00000076     vpgnc.lib : Event.obj (.text:_ZN5Vpgnc5Event4csetERN4Base11Lossy_errorE)
                  0009d327    00000076     base.lib : Field_BCD.obj (.text:_ZNK4Base9Field_BCD8compressERNS_5LossyEm)
                  0009d39d    00000075     geomodel.lib : Geomodel.obj (.text:_ZN3Geo8Geomodel8ecef2nedERKN4Base5TllcsERKN8Maverick9Irvector3ERS6_)
                  0009d412    00000075     first.lib : Strutil.obj (.text:_ZN4Base7Strutil23as_string_padding_rightEmhhRNS_7VstringE)
                  0009d487    00000075     media.lib : Cfgmgr.obj (.text:_ZN5Media6Cfgmgr12Actionhelper7processEhRKN4Base8Spkt_hdrERNS2_11Lossy_errorERS0_)
                  0009d4fc    00000075     pa_blocks.lib : Waypoint_msg.obj (.text:_ZN9Pa_blocks12Waypoint_msg22evaluate_route_at_timeERKNS_9Route_msgEf)
                  0009d571    00000074     vpgnc.lib : Event.obj (.text:_ZN5Vpgnc5Event4stepERNS0_5InputE)
                  0009d5e5    00000074     devices.lib : Adis165053_cfg.obj (.text:_ZN7Devices14Adis165053_cfg4csetERN4Base11Lossy_errorE)
                  0009d659    00000074     pa_blocks.lib : Pa_scheduler.obj (.text:_ZN9Pa_blocks12Pa_scheduler27pick_scheduler_and_evaluateERKNS_20Rotors_health_statusERKNS0_6InputsE)
                  0009d6cd    00000074                   : Actuator_allocator_object.obj (.text:_ZN9Pa_blocks25Actuator_allocator_object21populate_mixer_outputERNS0_6OutputERKNS_15Mixer_allocator18Allocation_resultsERKNS_12Pa_scheduler7OutputsE)
                  0009d741    00000073     geomodel.lib : Geomodel.obj (.text:_ZN3Geo8Geomodel8ned2ecefERKN4Base5TllcsERKN8Maverick9Irvector3ERS6_)
                  0009d7b4    00000073     veronte.lib : Static_cfg.obj (.text:_ZN3Ver10Static_cfgC1ERKN4Base7CfgsyncERKN5Media7IcfgcrcERKNS1_10Ihas_valueE)
                  0009d827    00000073                 : Hxcfield_cpu2.obj (.text:_ZN3Ver8Hxcfield12get_stgfmsetEv)
                  0009d89a    00000073     media.lib : Cfgmgr.obj (.text:_ZN4Base8Hash_mapINS_8Sync_map7ElementEE4pushERKS2_)
                  0009d90d    00000073     base.lib : Xcfilecli.obj (.text:_ZN4Base9Xcfilecli10seek_asyncElNS_5Ifile9Seek_modeE)
                  0009d980    00000073     pa_blocks.lib : Straight_vtol_maneuver.obj (.text:_ZN9Pa_blocks22Straight_vtol_maneuver6decodeERNS_16Protobuf_decoderE)
                  0009d9f3    00000072     veronte.lib : Hxcfield_cpu2.obj (.text:_ZN3Ver8Hxcfield7get_ftmEv)
                  0009da65    00000072                 : Hxcfield_cpu2.obj (.text:_ZN3Ver8Hxcfield8get_fsnfEv)
                  0009dad7    00000072                 : Hxcfield_cpu2.obj (.text:_ZN3Ver8Hxcfield9get_fmsetEv)
                  0009db49    00000072     pa_blocks.lib : Maneuver_coordinate.obj (.text:_ZN9Pa_blocks19Maneuver_coordinate49scale_constant_speed_maneuver_coordinate_durationEfff)
                  0009dbbb    00000072                   : Recovery_controls_command_processor.obj (.text:_ZNK9Pa_blocks35Recovery_controls_command_processor11reset_stateEv)
                  0009dc2d    00000071     base.lib : Field.obj (.text:_ZNK4Base5Field8get_sizeEv)
                  0009dc9e    00000071     pa_blocks.lib : Maneuver.obj (.text:_ZNK9Pa_blocks8Maneuver16evaluate_at_timeEfRNS_12Waypoint_msgE)
                  0009dd0f    00000070     vpgnc.lib : Vpu.obj (.text:_ZN4Base11Spkt_buffer4copyERKNS_4SpktE)
                  0009dd7f    00000070     base.lib : Rvarsensor3D_cfg.obj (.text:_ZN4Base16Rvarsensor3D_cfg4csetERNS_11Lossy_errorE)
                  0009ddef    00000070              : CPUrc_all.obj (.text:_ZN4Base9CPUrc_all7computeEff)
                  0009de5f    00000070     vpgnc.lib : Evtmgr.obj (.text:_ZN5Vpgnc6Evtmgr9evhi_stepEv)
                  0009decf    00000070     pa_blocks.lib : Mission_plan_data.obj (.text:_ZNK9Pa_blocks17Mission_plan_data13compute_crc32Ev)
                  0009df3f    0000006f     veronte.lib : Pwm_suite.obj (.text:_ZN12Dsp28335_ent8PwmsuiteINS_6PwmdevELj16EE4csetERN4Base11Lossy_errorE)
                  0009dfae    0000006f                 : Hvar_cpu2.obj (.text:_ZN3Bsp12get_featuresEv)
                  0009e01d    0000006f     pa_blocks.lib : Tllh_cs_64.obj (.text:_ZN9Pa_blocks10Tllh_cs_64C1Ev)
                  0009e08c    0000006f                   : Cy_file_transfer.obj (.text:_ZN9Pa_blocks16Cy_file_transferC1EN4Base6MblockIjEENS2_IKhEERm)
                  0009e0fb    0000006f                   : Mixer_allocator.obj (.text:_ZNK8Maverick7TmatrixIeE26upper_triangular_backsolveIeeEEvRKNS_6TarrayIT_EERNS3_IT0_EE)
                  0009e16a    0000006f     rts2800_fpu64_eabi.lib : s_cos.c.obj (.text)
                  0009e1d9    0000006e     veronte.lib : Vpuposrd_ver_pa.obj (.text:_ZN4Base8Vpuposrd7get_posEv)
                  0009e247    0000006e     pa_blocks.lib : Mission_utilities.obj (.text:_ZN9Pa_blocks17Mission_utilities32parse_initial_plan_mission_stepsERKNS_12Initial_planERKNS0_10Route_typeERNS_19Command_route_entryE)
                  0009e2b5    0000006e                   : Sep.obj (.text:_ZN9Pa_blocks3SepC1ERN4Base9AllocatorENS1_6MblockIjEERKNS0_11Vsdk_param_ERKNS_24Common_controller_paramsERKNS0_11Parameters_ERNS_12Pa_schedulerERNS0_9TelemetryE)
                  0009e323    0000006e     veronte.lib : Vfspermission.obj (.text:_ZNK3Ver13Vfspermission13is_wr_allowedEN4Base5Ifile3UidE)
                  0009e391    0000006d     first.lib : Strutil.obj (.text:_ZN4Base7Strutil22as_string_padding_leftEmhhRNS_7VstringE)
                  0009e3fe    0000006d     vpgnc.lib : Evtmgr.obj (.text:_ZN5Vpgnc6Evtmgr4stepEv)
                  0009e46b    0000006d     pa_blocks.lib : Control_builder.obj (.text:_ZN9Pa_blocks15Control_builder5buildEv)
                  0009e4d8    0000006d                   : Recovery_mission_data_processor.obj (.text:_ZN9Pa_blocks19append_sorted_firstERKNS_11Uint32_pairERN4Base11TnarrayreszIS0_Lm50EEE)
                  0009e545    0000006d                   : Recovery_motor_rpm_cmd.obj (.text:_ZN9Pa_blocks22Recovery_motor_rpm_cmd10on_tx_implERN6Stanag14IStanag_msg_tx9Tx_paramsE)
                  0009e5b2    0000006d                   : Recovery_wrapper_control_system_object.obj (.text:_ZN9Pa_blocks38Recovery_wrapper_control_system_object27get_motor_performance_inputERKNS0_5InputE)
                  0009e61f    0000006c                   : Rotation.obj (.text:_ZN8Maverick8Ivector3IeE5crossERKS1_S3_)
                  0009e68b    0000006c                   : Mission_plan_msg.obj (.text:_ZN9Pa_blocks16Mission_plan_msg7Mission11Environment6decodeERNS_16Protobuf_decoderE)
                  0009e6f7    0000006c                   : Mission_plan_msg.obj (.text:_ZN9Pa_blocks16Mission_plan_msg7Mission7Version6decodeERNS_16Protobuf_decoderE)
                  0009e763    0000006c                   : Cy_command_response.obj (.text:_ZN9Pa_blocks19Cy_command_response4stepEPKNS_16Command_responseE)
                  0009e7cf    0000006c                   : Tsc.obj (.text:_ZN9Pa_blocks3Tsc27initialize_after_switchoverERKNS_15Phase_of_flightERKNS_26Controllers_state_estimateE)
                  0009e83b    0000006c                   : Recovery_motor_rpm_cmd.obj (.text:_ZNK9Pa_blocks22Recovery_motor_rpm_cmd4cgetERN4Base5LossyE)
                  0009e8a7    0000006b                   : Controllers_object.obj (.text:_ZN9Pa_blocks18Controllers_object42compute_trim0_ncg_from_vtol_transformationERKN8Maverick6IrquatE)
                  0009e912    0000006b                   : Populate_messages.obj (.text:_ZN9Pa_blocks38Recovery_wrapper_control_system_object38populate_recovery_controller_telemetryERNS_29Recovery_controller_telemetryEf)
                  0009e97d    0000006b     rts2800_fpu64_eabi.lib : s_sin.c.obj (.text)
                  0009e9e8    0000006a     crypto_c28.lib : sha256.obj (.text:SHA256_finalizeWordWise)
                  0009ea52    0000006a     vpgnc.lib : Vpu.obj (.text:_ZN4Base9Allocator21allocate_new_array_itINS_3VarINS_3FidEE6CommitENS_5RngitIS3_EEEEPT_mT0_)
                  0009eabc    0000006a     maverick.lib : Irmatrix3.obj (.text:_ZN8Maverick9Irmatrix33addERKS0_)
                  0009eb26    0000006a                  : Irmatrix3.obj (.text:_ZN8Maverick9Irmatrix33sumERKS0_S2_)
                  0009eb90    0000006a                  : Rtable.obj (.text:_ZNK8Maverick6Rtable14interp1_linearEfRNS_7RvectorE)
                  0009ebfa    0000006a     pa_blocks.lib : Recovery_route_constructor.obj (.text:_ZNK9Pa_blocks26Recovery_route_constructor26run_rrc_mode_state_machineERKNS0_5InputE)
                  0009ec64    00000069                   : Mission_utilities.obj (.text:_ZN9Pa_blocks17Mission_utilities19deserialize_missionERKNS_17Mission_plan_dataERKNS_27Upload_mission_plan_wrapperERNS_12Mission_planE)
                  0009eccd    00000069                   : Mission_plan.obj (.text:_ZNK9Pa_blocks12Mission_plan24get_bounding_volume_dataERNS_25Mission_bounding_box_dataE)
                  0009ed36    00000069                   : Recovery_mission_data_processor.obj (.text:_ZNK9Pa_blocks31Recovery_mission_data_processor25extract_route_final_pointERKNS_19Command_route_entryERN4Base4TllhE)
                  0009ed9f    00000068     midlevel.lib : Default_cfg.obj (.text:_ZN8Midlevel11Default_cfg18set_default_can_rxERN4Base11TnarrayreszIN12Dsp28335_ent6CANcfg5RxcfgELm32EEEbb)
                  0009ee07    00000068     first.lib : Endian16_big.obj (.text:_ZNK4Base12Endian16_big10get_uint16ERjPKjRmi)
                  0009ee6f    00000067     veronte.lib : Pwm_suite.obj (.text:_ZN12Dsp28335_ent8PwmsuiteINS_6PwmdevELj16EEC1EN4Base6Memmgr4TypeENS3_5RngitINS1_5PWMidEEENS3_9Range_dynINS3_4RvarEEE)
                  0009eed6    00000067     first.lib : Rvar.obj (.text:_ZN4Base13user_writableENS_4RvarE)
                  0009ef3d    00000067     base.lib : Xcfilecli.obj (.text:_ZN4Base8XcbufferILm512EE6Reader4readERNS_10U8pkmblockERm)
                  0009efa4    00000067     pa_blocks.lib : Cqp.obj (.text:_ZN8Maverick9TcholeskyIeEC1ERKNS_7TmatrixIeEERN4Base9AllocatorE)
                  0009f00b    00000067                   : Gnc_transformation.obj (.text:_ZN9Pa_blocks18Gnc_transformation7combineERKNS0_12Build_paramsES3_)
                  0009f072    00000067                   : Tcg.obj (.text:_ZN9Pa_blocks3Tcg6OutputC1Ev)
                  0009f0d9    00000067                   : Ttcg.obj (.text:_ZN9Pa_blocks4Ttcg21update_recovery_routeERKNS_9Route_msgE)
                  0009f140    00000067                   : Ttcg.obj (.text:_ZN9Pa_blocks4Ttcg5InputC1ERKNS_25Current_route_informationERKNS_9Route_msgERKbRKN4Base4TllhESD_RKfSF_RKNSA_7TnarrayIfLm3EEESF_S9_RKNS_12Waypoint_msgESF_RKNS_20State_machines_state4Mode16Controllers_modeERKNS_18Rotor_failure_case4TypeES9_S9_)
                  0009f1a7    00000067     first.lib : Endian16_big.obj (.text:_ZNK4Base12Endian16_big10put_uint16ERKjPjRmi)
                  0009f20e    00000067     pa_blocks.lib : Recovery_mission_phase_of_flight.obj (.text:_ZNK9Pa_blocks32Recovery_mission_phase_of_flight22is_specification_validEv)
                  0009f275    00000066     geomodel.lib : Apos.obj (.text:_ZN3Geo4Apos8llh_diffERKN4Base4TllhES4_RNS1_12Tllh_low_resE)
                  0009f2db    00000066     veronte.lib : Vfspermission.obj (.text:_ZN3Ver13VfspermissionC1ERVKN4Base10Cfgid_modeERN5Media10IupdatableE)
                  0009f341    00000066                 : Vfspermission.obj (.text:_ZN4Base8Hash_mapINS_7Hashers11Element_u16EE4pushERKS2_)
                  0009f3a7    00000066     first.lib : U8ostream.obj (.text:_ZN4Base9U8ostream13put_uint64_leEy)
                  0009f40d    00000066     pa_blocks.lib : Ttcg.obj (.text:_ZN9Pa_blocks4Ttcg9Telemetry5resetEv)
                  0009f473    00000065     base.lib : Channelmgrcfg.obj (.text:_ZN4Base13Channelmgrcfg6Chncfg4csetERNS_11Lossy_errorE)
                  0009f4d8    00000065              : Xcfilecli.obj (.text:_ZN4Base9Xcfilecli11write_asyncERKNS_12U8pkmblock_kERm)
                  0009f53d    00000065     media.lib : Cfgcrc_async.obj (.text:_ZN5Media12Cfgcrc_async7computeEv)
                  0009f5a2    00000065               : Cfgmgr.obj (.text:_ZN5Media6Cfgmgr13start_save_opEN4Base3Cfg2IdENS1_7AddressERKy)
                  0009f607    00000065     pa_blocks.lib : Model_dynamic.obj (.text:_ZN8Maverick16Qr_factorizationIfE8invert_rEv)
                  0009f66c    00000065                   : Sep.obj (.text:_ZN9Pa_blocks3Sep17get_estimated_llaERKNS0_5InputERbRN4Base4TllhE)
                  0009f6d1    00000065     maverick.lib : Irmatrix3.obj (.text:_ZNK8Maverick9Irmatrix33detEv)
                  0009f736    00000065     pa_blocks.lib : Recovery_mission_data_processor.obj (.text:_ZNK9Pa_blocks31Recovery_mission_data_processor18initialize_outputsERNS0_6OutputERNS0_8Log_dataE)
                  0009f79b    00000065                   : Recovery_wrapper_control_system_object.obj (.text:_ZNK9Pa_blocks38Recovery_wrapper_control_system_object22is_specification_validEv)
                  0009f800    00000064                   : State_machines.obj (.text:_ZN9Pa_blocks14State_machines40eval_track_spline_attitude_within_limitsEv)
                  0009f864    00000064                   : Route_tracking_data.obj (.text:_ZN9Pa_blocks19Route_tracking_dataC1Ev)
                  0009f8c8    00000063     devices.lib : Ubxcfgtmode3.obj (.text:_ZN7Devices3Ubx12Ubxcfgtmode34csetERN4Base11Lossy_errorE)
                  0009f92b    00000063     pa_blocks.lib : Mixer_allocator.obj (.text:_ZN8Maverick7TmatrixIeE11matTdiagmatIefeEEvRKNS0_IT_EERKNS_6TarrayIT0_EERKNS0_IT1_EE)
                  0009f98e    00000063                   : Flight_dynamics.obj (.text:_ZN9Pa_blocks15Flight_dynamics39groundspeed_3d_from_tas_and_wind_vectorERKN8Maverick9Irvector3EfS4_)
                  0009f9f1    00000063                   : MonRec_controller_command.obj (.text:_ZN9Pa_blocks25MonRec_controller_command5resetEv)
                  0009fa54    00000062     DSP2837x_ent.lib : Pwmdev.obj (.text:_ZN12Dsp28335_ent6Pwmdev14apply_settingsEv)
                  0009fab6    00000062     geomodel.lib : Apos.obj (.text:_ZN3Geo4Apos7relthisERKN4Base9Apos_dataES4_RN8Maverick9Irvector3E)
                  0009fb18    00000062     vpgnc.lib : Vpu.obj (.text:_ZN5Vpgnc3Vpu21build_status_bit_listEv)
                  0009fb7a    00000062     stanag.lib : Stanag_ack_mgr.obj (.text:_ZN6Stanag14Stanag_ack_mgr10manage_ackEN4Base8Msg_data8Ack_typeERNS1_8Spkt_hdrERKNS1_10StimestampEjRNS_8Msg_fifoEPNS_14IStanag_rx_pktE)
                  0009fbdc    00000062     pa_blocks.lib : Cy_maint_action.obj (.text:_ZN9Pa_blocks15Cy_maint_actionC1ERN4Base11Imsg_senderEPN6Stanag14IStanag_rx_pktE)
                  0009fc3e    00000062                   : Recovery_wrapper_control_system_object.obj (.text:_ZN9Pa_blocks38Recovery_wrapper_control_system_object25is_mission_data_availableERKNS0_5InputE)
                  0009fca0    00000062                   : Tcg.obj (.text:_ZN9Pa_blocks3Tcg9Telemetry5resetEv)
                  0009fd02    00000062     base.lib : Cmdvar.obj (.text:_ZNK4Base6Cmdvar4cgetERNS_5LossyE)
                  0009fd64    00000062     rts2800_fpu64_eabi.lib : s_tanf.c.obj (.text)
                  0009fdc6    00000061     first.lib : Vref.obj (.text:_ZN4Base4Vref4csetERNS_11Lossy_errorE)
                  0009fe27    00000061     media.lib : Cfgmgr.obj (.text:_ZN5Media6Cfgmgr4loadEN4Base6LoadstEPNS1_5IfileEPNS1_5IstepE)
                  0009fe88    00000061     pa_blocks.lib : Cqp.obj (.text:_ZN8Maverick7TmatrixIeE7matmatTIeeEEvRKNS0_IT_EERKNS0_IT0_EE)
                  0009fee9    00000061                   : Motor_rpm_cmd.obj (.text:_ZN9Pa_blocks13Motor_rpm_cmd4csetERN4Base5LossyE)
                  0009ff4a    00000061                   : Ttcg.obj (.text:_ZN9Pa_blocks4Ttcg9TelemetryC1Ev)
                  0009ffab    00000060     veronte.lib : Hxcfield_cpu2.obj (.text:_ZN3Ver8Hxcfield12get_tm_fsvecEv)
                  000a000b    00000060     base.lib : Sticktypes.obj (.text:_ZN4Base11Stickppmcfg4csetERNS_11Lossy_errorE)
                  000a006b    00000060              : Cyphal.obj (.text:_ZN6Cyphal10Cyphal_msgC1EN4Base10U8pkmblockE)
                  000a00cb    00000060     pa_blocks.lib : Mixer_allocator.obj (.text:_ZN8Maverick7TmatrixIfE7matmatTIeeEEvRKNS0_IT_EERKNS0_IT0_EE)
                  000a012b    00000060                   : Recovery_mission_phase_of_flight.obj (.text:_ZNK9Pa_blocks32Recovery_mission_phase_of_flight8Log_data4cgetERN4Base5LossyE)
                  000a018b    0000005f     crypto_c28.lib : sha256.obj (.text:SHA256_addDataWordWiseSwapped)
                  000a01ea    0000005f     base.lib : Taskmgr.obj (.text:_ZN4Base7Taskmgr8add_taskERNS_5ItaskEf)
                  000a0249    0000005f              : Xclkcfg.obj (.text:_ZN4Base7Xclkcfg9cset_typeERNS_11Lossy_errorE)
                  000a02a8    0000005f     vpgnc.lib : Opranges.obj (.text:_ZN5Vpgnc8Opranges3Rng4csetERN4Base11Lossy_errorE)
                  000a0307    0000005f     maverick.lib : Irvector3.obj (.text:_ZN8Maverick9Irvector310matvec_addERKNS_9Irmatrix3ERKS0_)
                  000a0366    0000005f                  : Irvector3.obj (.text:_ZN8Maverick9Irvector310matvec_subERKNS_9Irmatrix3ERKS0_)
                  000a03c5    0000005f     base.lib : Field_real_dec_ASCII.obj (.text:_ZNK4Base20Field_real_dec_ASCII8compressERNS_5LossyERKNS_4IgetERKj)
                  000a0424    0000005f     pa_blocks.lib : Recovery_route_constructor.obj (.text:_ZNK9Pa_blocks26Recovery_route_constructor18is_route_vtol_onlyERKm)
                  000a0483    0000005f                   : Recovery_mission_data_processor.obj (.text:_ZNK9Pa_blocks31Recovery_mission_data_processor27package_command_route_entryERKNS_12Mission_planENS_17Mission_utilities10Route_typeEmRNS_21Command_route_entriesE)
                  000a04e2    0000005e     vpgnc.lib : Vpu.obj (.text:_ZN5Vpgnc3Vpu21can_consistency_checkERN4Base5ErrorE)
                  000a0540    0000005e     vblocks.lib : Multi_interpolator_tun.obj (.text:_ZN7Vblocks22Multi_interpolator_tun12set_sectionsEN4Base6MblockIfEE)
                  000a059e    0000005e     midlevel.lib : Synchronized_time.obj (.text:_ZN8Midlevel17Synchronized_time4csetERN4Base5LossyE)
                  000a05fc    0000005e     pa_blocks.lib : Pa_scheduler.obj (.text:_ZN9Pa_blocks12Pa_scheduler21apply_density_scalingEfRNS0_21Allocation_parametersE)
                  000a065a    0000005e     media.lib : Fstrfast.obj (.text:_ZNK5Media8Fstrfast7send_stEN4Base7AddressERNS1_9U8ostreamE)
                  000a06b8    0000005d     base.lib : Fsniffer.obj (.text:_ZN4Base11Sniffervdat4csetERNS_11Lossy_errorERKNS_9KfieldsetE)
                  000a0715    0000005d              : Msg_data.obj (.text:_ZN4Base8Msg_data4csetERNS_11U16stream_rE)
                  000a0772    0000005d     vpgnc.lib : Opmgr.obj (.text:_ZN4Base8TuncacheIN5Vpgnc14Rvar_op_commit7RoptypeEE4csetERNS_11Lossy_errorE)
                  000a07cf    0000005d     pa_blocks.lib : Gnc_body_transformations.obj (.text:_ZN9Pa_blocks24Gnc_body_transformationsC1ERKNS_18Gnc_transformation12Build_paramsES4_RKN4Base7TnarrayIfLm3EEE)
                  000a082c    0000005d                   : Actuator_allocator_object.obj (.text:_ZN9Pa_blocks25Actuator_allocator_object11reset_stateEv)
                  000a0889    0000005d     base.lib : Session.obj (.text:_ZNK4Base7Session16get_current_timeEv)
                  000a08e6    0000005d     pa_blocks.lib : Recovery_controls_command_processor.obj (.text:_ZNK9Pa_blocks35Recovery_controls_command_processor8Log_data4cgetERN4Base5LossyE)
                  000a0943    0000005c     DSP2837x_ent.lib : Pwmdev.obj (.text:_ZN12Dsp28335_ent6Pwmdev15compute_dep_cfgEv)
                  000a099f    0000005c     first.lib : Lossy.obj (.text:_ZN4Base5Lossy15put_float_ibitsEfjffll)
                  000a09fb    0000005c               : Lossy.obj (.text:_ZN4Base5Lossy15put_float_ubitsEfjffmm)
                  000a0a57    0000005c     devices.lib : Ubxcfgdata.obj (.text:_ZN7Devices3Ubx10UbxcfggnssILj3EE4csetERN4Base11Lossy_errorE)
                  000a0ab3    0000005c     pa_blocks.lib : Rotation.obj (.text:_ZN8Maverick8Ivector3IeE10norm2alizeEv)
                  000a0b0f    0000005c                   : Mission_plan_msg.obj (.text:_ZN9Pa_blocks16Mission_plan_msg7Mission3Crs6decodeERNS_16Protobuf_decoderE)
                  000a0b6b    0000005b     base.lib : Cyphal_common_types.obj (.text:_ZN19Cyphal_common_types18deserialize_stringERN4Base5LossyERNS0_12U8pkrszarrayILm256EEE)
                  000a0bc6    0000005b     geomodel.lib : Gellipsoid.obj (.text:_ZN3Geo10Gellipsoid7geoevolEfffRKN8Maverick9Irvector3ERN4Base12Tllh_low_resE)
                  000a0c21    0000005b     base.lib : Rtaskrc.obj (.text:_ZN4Base7Rtaskrc7computeEf)
                  000a0c7c    0000005b     media.lib : Cfgmgr.obj (.text:_ZN5Media6Cfgmgr17recover_from_toutEv)
                  000a0cd7    0000005b     vblocks.lib : Multi_interpolator.obj (.text:_ZN7Vblocks18Multi_interpolator16get_interp_pointERKN4Base5ArrayIfEEf)
                  000a0d32    0000005b     pa_blocks.lib : Maneuver_coordinate.obj (.text:_ZN9Pa_blocks19Maneuver_coordinate7shift_xEf)
                  000a0d8d    0000005b     base.lib : Kfieldset.obj (.text:_ZNK4Base9Kfieldset8get_hashEv)
                  000a0de8    0000005a     first.lib : Lossy.obj (.text:_ZN4Base5Lossy10get_mblockEj)
                  000a0e42    0000005a     pa_blocks.lib : Controllers_object.obj (.text:_ZN8Maverick8Ivector3IfE6matvecERKNS_8Imatrix3IfEERKS1_)
                  000a0e9c    0000005a     midlevel.lib : Radio_sync_cfg.obj (.text:_ZN8Midlevel19Radio_sync_cfg_type6Params4csetERN4Base11Lossy_errorE)
                  000a0ef6    0000005a     pa_blocks.lib : Land_manager.obj (.text:_ZN9Pa_blocks12Land_manager11reset_stateEv)
                  000a0f50    0000005a                   : Roll_maneuver.obj (.text:_ZN9Pa_blocks13Roll_maneuverC1ERKNS_12Maneuver_msgE)
                  000a0faa    0000005a                   : State_machines.obj (.text:_ZN9Pa_blocks14State_machinesC1ERKNS_26Controllers_state_estimateERKNS_17Controllers_stateERKNS_16Processed_inputsERKNS_22Command_received_typesERKNS0_6ParamsERKNS_24Common_controller_paramsERKN4Base5TtimeERNS0_5StateERKNS_9Lane_type4TypeE)
                  000a1004    0000005a                   : Maneuver_instance.obj (.text:_ZN9Pa_blocks17Maneuver_instanceC1ERKNS_12Maneuver_msgE)
                  000a105e    0000005a                   : Controllers_param_mk30.obj (.text:_ZN9Pa_blocks25Tstate_space_model_paramsILj0ELj6ELj3ELj4EE5set_dERA4_A3_A6_Kf)
                  000a10b8    0000005a                   : Controllers_param_mk30.obj (.text:_ZN9Pa_blocks25Tstate_space_model_paramsILj1ELj3ELj1ELj4EE5set_dERA4_A1_A3_Kf)
                  000a1112    0000005a                   : Controllers_param_mk30.obj (.text:_ZN9Pa_blocks25Tstate_space_model_paramsILj2ELj6ELj2ELj4EE5set_dERA4_A2_A6_Kf)
                  000a116c    0000005a                   : Controllers_param_mk30.obj (.text:_ZN9Pa_blocks25Tstate_space_model_paramsILj3ELj6ELj3ELj4EE5set_cERA4_A3_A3_Kf)
                  000a11c6    0000005a                   : Controllers_param_mk30.obj (.text:_ZN9Pa_blocks25Tstate_space_model_paramsILj3ELj6ELj3ELj4EE5set_dERA4_A3_A6_Kf)
                  000a1220    0000005a                   : Controllers_param_mk30.obj (.text:_ZN9Pa_blocks25Tstate_space_model_paramsILj6ELj6ELj6ELj4EE5set_cERA4_A6_A6_Kf)
                  000a127a    0000005a                   : Controllers_param_mk30.obj (.text:_ZN9Pa_blocks25Tstate_space_model_paramsILj6ELj6ELj6ELj4EE5set_dERA4_A6_A6_Kf)
                  000a12d4    0000005a                   : Recovery_wrapper_control_system_object.obj (.text:_ZN9Pa_blocks38Recovery_wrapper_control_system_object27get_mission_readiness_inputEfRKNS0_5InputE)
                  000a132e    0000005a                   : Sep.obj (.text:_ZN9Pa_blocks3Sep30vtolncg_from_vf_transformationERKNS_24Common_controller_paramsE)
                  000a1388    0000005a     vblocks.lib : Multi_interpolator.obj (.text:_ZNK7Vblocks18Multi_interpolator14interpolate_atERKN4Base6MblockIKfEERNS1_5ArrayIfEE)
                  000a13e2    00000059     first.lib : Lossy.obj (.text:_ZN4Base11put_n_tfuncIjLm16EXadL_ZNS_5Lossy10put_uint16EjEEEEvRS1_RKNS_6MblockIKT_EE)
                  000a143b    00000059     pa_blocks.lib : Tp_utilities.obj (.text:_ZN9Pa_blocks12Tp_utilities25parse_wbf_velocity_vectorERKNS_14Route_maneuverERN8Maverick9Irvector3E)
                  000a1494    00000059                   : Gps_land_action.obj (.text:_ZN9Pa_blocks15Gps_land_action6decodeERNS_16Protobuf_decoderE)
                  000a14ed    00000059                   : Maneuver_coordinate.obj (.text:_ZN9Pa_blocks19Maneuver_coordinate49construct_outbound_transition_maneuver_coordinateEf)
                  000a1546    00000059     rts2800_fpu64_eabi.lib : s_scalbnf.c.obj (.text)
                  000a159f    00000058     pa_blocks.lib : Cy_file_transfer.obj (.text:_ZN9Pa_blocks16Cy_file_transfer5writeEyN4Base12U8pkmblock_kE)
                  000a15f7    00000058                   : Mission_utilities.obj (.text:_ZN9Pa_blocks17Mission_utilities26is_mission_plan_data_validERKNS_17Mission_plan_dataERKNS_27Upload_mission_plan_wrapperE)
                  000a164f    00000058                   : Vector_saturation.obj (.text:_ZN9Pa_blocks17Vector_saturation49apply_vec_mag_saturation_min_direction_preservingERKN8Maverick7RvectorES4_RNS_14Vec_sat_outputENS_9Norm_type4TypeE)
                  000a16a7    00000058                   : Controllers_param_mk30.obj (.text:_ZN9Pa_blocks25Tstate_space_model_paramsILj1ELj3ELj1ELj4EE5set_bERA4_A1_A3_Kf)
                  000a16ff    00000058                   : Controllers_param_mk30.obj (.text:_ZN9Pa_blocks25Tstate_space_model_paramsILj2ELj2ELj2ELj4EE5set_cERA4_A2_A2_Kf)
                  000a1757    00000058                   : Controllers_param_mk30.obj (.text:_ZN9Pa_blocks25Tstate_space_model_paramsILj2ELj2ELj2ELj4EE5set_dERA4_A2_A2_Kf)
                  000a17af    00000058                   : Controllers_param_mk30.obj (.text:_ZN9Pa_blocks25Tstate_space_model_paramsILj2ELj6ELj2ELj4EE5set_bERA4_A2_A6_Kf)
                  000a1807    00000058                   : Controllers_param_mk30.obj (.text:_ZN9Pa_blocks25Tstate_space_model_paramsILj2ELj6ELj2ELj4EE5set_cERA4_A2_A2_Kf)
                  000a185f    00000058                   : Controllers_param_mk30.obj (.text:_ZN9Pa_blocks25Tstate_space_model_paramsILj3ELj6ELj3ELj4EE5set_bERA4_A3_A6_Kf)
                  000a18b7    00000058                   : Controllers_param_mk30.obj (.text:_ZN9Pa_blocks25Tstate_space_model_paramsILj6ELj6ELj6ELj4EE5set_bERA4_A6_A6_Kf)
                  000a190f    00000058                   : Pa_irquat.obj (.text:_ZN9Pa_blocks9Pa_irquat8quat2yawERKN8Maverick6IrquatE)
                  000a1967    00000058     base.lib : Presence_vec.obj (.text:_ZNK4Base12Presence_vec9read_dataEj)
                  000a19bf    00000058     pa_blocks.lib : Mission_plan.obj (.text:_ZNK9Pa_blocks12Mission_plan22get_environment_valuesERNS_18Environment_valuesE)
                  000a1a17    00000058     rts2800_fpu64_eabi.lib : s_ceilf.c.obj (.text)
                  000a1a6f    00000057     first.lib : PDIcheck.obj (.text:_ZN4Base8PDIcheck7commit0ERKNS_5ErrorE)
                  000a1ac6    00000057     base.lib : Xcfilecli.obj (.text:_ZN4Base9Xcfilecli10open_asyncENS_5Ifile3UidENS1_9Open_modeE)
                  000a1b1d    00000057     pa_blocks.lib : Model_dynamic.obj (.text:_ZN8Maverick7TmatrixIfE7matmatTIffEEvRKNS0_IT_EERKNS0_IT0_EE)
                  000a1b74    00000057                   : Gnc_vector_saturation.obj (.text:_ZN9Pa_blocks21Saturation_parameters21AssessStrictMonotonicILm7EEEbN4Base7TnarrayIfXT_EEEm)
                  000a1bcb    00000057     first.lib : Endian16_little.obj (.text:_ZNK4Base15Endian16_little10put_uint16ERKjPjRmi)
                  000a1c22    00000056     crypto_c28.lib : Compute_hash.obj (.text:_ZN10Crypto_c2812compute_hashERKN4Base8Mblock_sERNS0_7TnarrayImLm8EEE)
                  000a1c78    00000056     vpgnc.lib : Vpu.obj (.text:_ZN5Vpgnc3Vpu22xpc8_consistency_checkERN4Base5ErrorE)
                  000a1cce    00000056     pa_blocks.lib : Controllers_param_mk30.obj (.text:_ZN9Pa_blocks25Tstate_space_model_paramsILj1ELj1ELj1ELj4EE5set_cERA4_A1_A1_Kf)
                  000a1d24    00000056                   : Controllers_param_mk30.obj (.text:_ZN9Pa_blocks25Tstate_space_model_paramsILj1ELj1ELj1ELj4EE5set_dERA4_A1_A1_Kf)
                  000a1d7a    00000056                   : Controllers_param_mk30.obj (.text:_ZN9Pa_blocks25Tstate_space_model_paramsILj1ELj3ELj1ELj4EE5set_cERA4_A1_A1_Kf)
                  000a1dd0    00000056                   : Controllers_param_mk30.obj (.text:_ZN9Pa_blocks25Tstate_space_model_paramsILj2ELj2ELj2ELj4EE5set_bERA4_A2_A2_Kf)
                  000a1e26    00000056                   : Gnc_transformation.obj (.text:_ZNK9Pa_blocks18Gnc_transformation7inverseEv)
                  000a1e7c    00000056                   : Tcg.obj (.text:_ZNK9Pa_blocks3Tcg9Telemetry4cgetERN4Base5LossyE)
                  000a1ed2    00000055     geomodel.lib : Fidcache.obj (.text:_ZN3Geo8Fidcache13compute_path0EN4Base3FidE)
                  000a1f27    00000055     first.lib : Strutil.obj (.text:_ZN4Base7Strutil6to_hexEmhRNS_7VstringE)
                  000a1f7c    00000055     base.lib : Xcfilecli.obj (.text:_ZN4Base9Xcfilecli10read_asyncERNS_10U8pkmblockERm)
                  000a1fd1    00000055     vpgnc.lib : Event.obj (.text:_ZN5Vpgnc5Event16compute_durationEb)
                  000a2026    00000055     midlevel.lib : Xstanag_notifier.obj (.text:_ZN8Midlevel16Xstanag_notifier5parseERN4Base17U16stream_r_errorE)
                  000a207b    00000055     pa_blocks.lib : Controllers_param_mk30.obj (.text:_ZN9Pa_blocks25Tstate_space_model_paramsILj3ELj3ELj3ELj1EE5set_cERA1_A3_A3_Kf)
                  000a20d0    00000055                   : Controllers_param_mk30.obj (.text:_ZN9Pa_blocks25Tstate_space_model_paramsILj3ELj3ELj3ELj1EE5set_dERA1_A3_A3_Kf)
                  000a2125    00000055                   : Tsc.obj (.text:_ZNK9Pa_blocks3Tsc22is_specification_validEv)
                  000a217a    00000054                   : Cqp.obj (.text:_ZN8Maverick7TmatrixIeE6expandEjj)
                  000a21ce    00000054                   : Controllers_param_mk30.obj (.text:_ZN9Pa_blocks25Tstate_space_model_paramsILj1ELj1ELj1ELj4EE5set_bERA4_A1_A1_Kf)
                  000a2222    00000054                   : Route_msg.obj (.text:_ZN9Pa_blocks9Route_msgC1Ev)
                  000a2276    00000053     base.lib : Fref.obj (.text:_ZN4Base4Fref4csetERNS_11Lossy_errorE)
                  000a22c9    00000053     pa_blocks.lib : Mixer_allocator.obj (.text:_ZN8Maverick7TmatrixIeE6matmatIffEEvRKNS0_IT_EERKNS0_IT0_EE)
                  000a231c    00000053     maverick.lib : Irmatrix3.obj (.text:_ZN8Maverick9Irmatrix35scaleEf)
                  000a236f    00000053                  : Irvector3.obj (.text:_ZN8Maverick9Irvector37matTvecERKNS_9Irmatrix3ERKS0_)
                  000a23c2    00000053     pa_blocks.lib : Maneuver_coordinate.obj (.text:_ZN9Pa_blocks19Maneuver_coordinate6resizeEm)
                  000a2415    00000053                   : Controllers_param_mk30.obj (.text:_ZN9Pa_blocks25Tstate_space_model_paramsILj3ELj3ELj3ELj1EE5set_bERA1_A3_A3_Kf)
                  000a2468    00000053                   : Controllers_param_mk30.obj (.text:_ZN9Pa_blocks25Tstate_space_model_paramsILj3ELj6ELj3ELj4EE5set_aERA4_A3_A3_Kf)
                  000a24bb    00000053                   : Controllers_param_mk30.obj (.text:_ZN9Pa_blocks25Tstate_space_model_paramsILj6ELj6ELj6ELj4EE5set_aERA4_A6_A6_Kf)
                  000a250e    00000053                   : Track_spline_state_machine.obj (.text:_ZN9Pa_blocks26Track_spline_state_machine4evalENS_20State_machines_state12Track_spline4TypeE)
                  000a2561    00000053                   : Track_spline_manager.obj (.text:_ZNK9Pa_blocks20Track_spline_manager40get_flight_controller_modes_and_commandsERKNS_15Phase_of_flightERKNS_20State_machines_state12Track_spline4TypeERNS_18Modes_and_commandsE)
                  000a25b4    00000052     first.lib : Lossy.obj (.text:_ZN4Base11get_n_tfuncIfLm32EXadL_ZNS_5Lossy9get_floatERfEEEEvRS1_RNS_5ArrayIT_EEm)
                  000a2606    00000052     media.lib : Cfgmgr.obj (.text:_ZN5Media6Cfgmgr15fload_blocking0EfNS0_5StateE)
                  000a2658    00000052     midlevel.lib : Cy_msg_id_gen.obj (.text:_ZN6Cyphal41_GLOBAL__N__17_Cy_msg_id_gen_cpp_833419e712get_m_prefixEv)
                  000a26aa    00000052     vblocks.lib : Multi_interpolator.obj (.text:_ZN7Vblocks18Multi_interpolatorC1ERKNS0_12Build_paramsE)
                  000a26fc    00000052     midlevel.lib : Errors_irx.obj (.text:_ZN8Midlevel10Errors_irxC1ERN4Base7IerrorsE)
                  000a274e    00000052     vpgnc.lib : Vpu.obj (.text:_ZN8Midlevel11Default_cfg18get_default_can_inIN4Base11CANin_suiteILj6EEEEERKT_bb)
                  000a27a0    00000052     pa_blocks.lib : Modes_and_commands.obj (.text:_ZN9Pa_blocks18Modes_and_commandsC1Ev)
                  000a27f2    00000052     vpgnc.lib : Varinit.obj (.text:_ZNK5Vpgnc7Varinit6Value05applyEv)
                  000a2844    00000051     base.lib : Xcfilecli.obj (.text:_ZN4Base8XcbufferILm512EE6Writer5writeERKNS_12U8pkmblock_kE)
                  000a2895    00000051     media.lib : Cfgmgr.obj (.text:_ZN5Media6Cfgmgr7add_cmdEN4Base3Cfg2IdERNS1_8ItunableE)
                  000a28e6    00000051     pa_blocks.lib : Mission_utilities.obj (.text:_ZN9Pa_blocks17Mission_utilities21parse_route_maneuversERKNS_12Mission_planEmRNS_19Command_route_entryE)
                  000a2937    00000051                   : Recovery_motor_rpm_cmd.obj (.text:_ZN9Pa_blocks22Recovery_motor_rpm_cmd4csetERN4Base5LossyE)
                  000a2988    00000051                   : Controllers_param_mk30.obj (.text:_ZN9Pa_blocks25Tstate_space_model_paramsILj1ELj1ELj1ELj1EE5set_cERA1_A1_A1_Kf)
                  000a29d9    00000051                   : Controllers_param_mk30.obj (.text:_ZN9Pa_blocks25Tstate_space_model_paramsILj1ELj1ELj1ELj1EE5set_dERA1_A1_A1_Kf)
                  000a2a2a    00000051                   : Controllers_param_mk30.obj (.text:_ZN9Pa_blocks25Tstate_space_model_paramsILj2ELj2ELj2ELj4EE5set_aERA4_A2_A2_Kf)
                  000a2a7b    00000051                   : Controllers_param_mk30.obj (.text:_ZN9Pa_blocks25Tstate_space_model_paramsILj2ELj6ELj2ELj4EE5set_aERA4_A2_A2_Kf)
                  000a2acc    00000051     first.lib : Ttime.obj (.text:_ZNK4Base5Ttime9get_msecsEv)
                  000a2b1d    00000050     base.lib : Evactcfg.obj (.text:_ZN4Base9Evactcfg04csetERNS_11Lossy_errorE)
                  000a2b6d    00000050     media.lib : Fstrfast.obj (.text:_ZN5Media8Fstrfast6commitEv)
                  000a2bbd    00000050     first.lib : Real16.obj (.text:_ZN6Real1614single_to_halfEf)
                  000a2c0d    00000050     maverick.lib : Irvector3.obj (.text:_ZN8Maverick9Irvector37matthisERKNS_9Irmatrix3E)
                  000a2c5d    00000050     pa_blocks.lib : Tp_utilities.obj (.text:_ZN9Pa_blocks12Tp_utilities44compute_minimum_position_change_displacementEffff)
                  000a2cad    00000050                   : Mission_plan_msg.obj (.text:_ZN9Pa_blocks16Mission_plan_msg7MissionC1Ev)
                  000a2cfd    00000050                   : Maneuver.obj (.text:_ZN9Pa_blocks8Maneuver21set_maneuver_durationEv)
                  000a2d4d    00000050     base.lib : Field.obj (.text:_ZNK4Base5Field13user_writableEv)
                  000a2d9d    00000050     pa_blocks.lib : Recovery_controls_command_processor.obj (.text:_ZNK9Pa_blocks35Recovery_controls_command_processor27generate_controller_commandERKNS0_5InputERKNS_23Mission_phase_of_flight4TypeERKNS_22Takeoff_command_paramsERKNS_9Tp_outputERNS0_6OutputE)
                  000a2ded    0000004f     media.lib : Cfgmgr.obj (.text:_ZN5Media6Cfgmgr12get_itunableEN4Base3Cfg2IdE)
                  000a2e3c    0000004f     pa_blocks.lib : State_machines.obj (.text:_ZN9Pa_blocks14State_machines37eval_takeoff_total_inertial_speed_lowEv)
                  000a2e8b    0000004f                   : Mission_utilities.obj (.text:_ZN9Pa_blocks17Mission_utilities36is_upload_mission_plan_wrapper_validERKNS_27Upload_mission_plan_wrapperE)
                  000a2eda    0000004f                   : Takeoff_state_machine.obj (.text:_ZN9Pa_blocks21Takeoff_state_machine4evalENS_20State_machines_state12Takeoff_mode4ModeE)
                  000a2f29    0000004f                   : Controllers_param_mk30.obj (.text:_ZN9Pa_blocks25Tstate_space_model_paramsILj1ELj1ELj1ELj1EE5set_bERA1_A1_A1_Kf)
                  000a2f78    0000004f                   : Controllers_param_mk30.obj (.text:_ZN9Pa_blocks25Tstate_space_model_paramsILj1ELj1ELj1ELj4EE5set_aERA4_A1_A1_Kf)
                  000a2fc7    0000004f                   : Controllers_param_mk30.obj (.text:_ZN9Pa_blocks25Tstate_space_model_paramsILj1ELj3ELj1ELj4EE5set_aERA4_A1_A1_Kf)
                  000a3016    0000004f                   : Recovery_controls_command_processor.obj (.text:_ZN9Pa_blocks35Recovery_controls_command_processor5StateC1Ev)
                  000a3065    0000004f                   : Trajectory_planner.obj (.text:_ZNK9Pa_blocks18Trajectory_planner15construct_routeERNS_9Route_msgE)
                  000a30b4    0000004f                   : Tsc.obj (.text:_ZNK9Pa_blocks3Tsc9Telemetry4cgetERN4Base5LossyE)
                  000a3103    0000004f     rts2800_fpu64_eabi.lib : typeinfo.c.obj (.text)
                  000a3152    0000004e     geomodel.lib : Gellipsoid.obj (.text:_ZN3Geo10Gellipsoid8geo2ecefERKN4Base5TllcsEfRNS_5TecefE)
                  000a31a0    0000004e     base.lib : Meastypes.obj (.text:_ZN4Base13GNSS_week_tow12set_total_msEx)
                  000a31ee    0000004e              : Spkt.obj (.text:_ZN4Base4Spkt15update_raw_dataEv)
                  000a323c    0000004e     first.lib : Strutil.obj (.text:_ZN4Base7Strutil21real_to_upper_hex_strEfRNS_9U8pkarrayILm8EEE)
                  000a328a    0000004e               : Endian3.obj (.text:_ZN4Base8E3helper12get_instanceEv)
                  000a32d8    0000004e               : U8istream.obj (.text:_ZN4Base9U8istream13get_uint64_leEv)
                  000a3326    0000004e     media.lib : Cfgmgr.obj (.text:_ZN5Media6Cfgmgr13start_load_opEN4Base3Cfg2IdENS1_7AddressERKy)
                  000a3374    0000004e     devices.lib : Ubxcfgport.obj (.text:_ZN7Devices3Ubx10Ubxcfgport4csetERN4Base11Lossy_errorE)
                  000a33c2    0000004e     pa_blocks.lib : Recovery_wrapper_control_system_object.obj (.text:_ZN9Pa_blocks12Command_fifoINS_16Command_responseELj1EE12emplace_backERKS1_)
                  000a3410    0000004e                   : Route_maneuver.obj (.text:_ZN9Pa_blocks14Route_maneuverC1Ev)
                  000a345e    0000004e                   : Flight_dynamics.obj (.text:_ZN9Pa_blocks15Flight_dynamics21compute_ground_courseERKN8Maverick9Irvector3E)
                  000a34ac    0000004e                   : Controllers_param_mk30.obj (.text:_ZN9Pa_blocks25Tstate_space_model_paramsILj3ELj3ELj3ELj1EE5set_aERA1_A3_A3_Kf)
                  000a34fa    0000004e                   : DComms_cfg.obj (.text:_ZN9Pa_blocks38_GLOBAL__N__14_DComms_cfg_cpp_7a086dbd15check_regs_cfgsERKN4Base11TnarrayreszINS_10DComms_cfg7Reg_cfgELm30EEE)
                  000a3548    0000004e                   : Ttcg.obj (.text:_ZN9Pa_blocks4Ttcg6OutputC1Ev)
                  000a3596    0000004e                   : Land_state_machine.obj (.text:_ZNK9Pa_blocks18Land_state_machine4evalENS_20State_machines_state4Land4TypeE)
                  000a35e4    0000004d     base.lib : Fmsg_cfg.obj (.text:_ZN4Base8Fmsg_cfg4csetERNS_11Lossy_errorE)
                  000a3631    0000004d     vpgnc.lib : Event.obj (.text:_ZN5Vpgnc5Event7step_wpERKNS_13Evt_wp_groupsE)
                  000a367e    0000004d     pa_blocks.lib : Model_dynamic.obj (.text:_ZN8Maverick7TmatrixIfE6matmatIffEEvRKNS0_IT_EERKNS0_IT0_EE)
                  000a36cb    0000004d     midlevel.lib : Sys_status_mgr.obj (.text:_ZN8Midlevel14Sys_status_mgr18send_extended_respEb)
                  000a3718    0000004d     pa_blocks.lib : Model_dynamic.obj (.text:_ZN9Pa_blocks13Model_dynamic11reset_stateEv)
                  000a3765    0000004d                   : Motor_rpm_cmd.obj (.text:_ZN9Pa_blocks13Motor_rpm_cmdC1Ev)
                  000a37b2    0000004d                   : Cy_maint_action.obj (.text:_ZN9Pa_blocks15Cy_maint_action9step_taskEv)
                  000a37ff    0000004d                   : Input_processor.obj (.text:_ZN9Pa_blocks15Input_processor21Input_processor_paramC1Ev)
                  000a384c    0000004d                   : Recovery_telemetry.obj (.text:_ZNK9Pa_blocks18Recovery_telemetry4cgetERN4Base5LossyE)
                  000a3899    0000004c     base.lib : Cyphal_common_types.obj (.text:_ZN19Cyphal_common_types16serialize_stringERN4Base5LossyERKNS0_12U8pkrszarrayILm256EEE)
                  000a38e5    0000004c              : Cyphal_common_types.obj (.text:_ZN19Cyphal_common_types16serialize_stringERN4Base9U8ostreamERKNS0_12U8pkrszarrayILm256EEE)
                  000a3931    0000004c     media.lib : Cfgmgr.obj (.text:_ZN4Base12Data_mutatorINS_11Lossy_error15Mutator_traits8ENS_9U8istream12Data_traits8EEC1ERS3_)
                  000a397d    0000004c     first.lib : PDIcheck.obj (.text:_ZN4Base8PDIcheck7Opflush4stepEv)
                  000a39c9    0000004c     base.lib : Field.obj (.text:_ZN4Rfun11safe_divideIeEET_S1_S1_S1_)
                  000a3a15    0000004c     stanag.lib : Acknowledgement.obj (.text:_ZN6Stanag15Acknowledgement5on_txERNS_14IStanag_msg_tx9Tx_paramsE)
                  000a3a61    0000004c     pa_blocks.lib : Actuator_allocator_object.obj (.text:_ZN9Pa_blocks25Actuator_allocator_object16set_mixer_statusERNS0_6OutputE)
                  000a3aad    0000004c                   : Sep.obj (.text:_ZN9Pa_blocks3Sep11Vsdk_param_4csetERN4Base11Lossy_errorE)
                  000a3af9    0000004c                   : Sep.obj (.text:_ZN9Pa_blocks3Sep5State5resetEv)
                  000a3b45    0000004c                   : Sep.obj (.text:_ZN9Pa_blocks3Sep9Telemetry5resetEv)
                  000a3b91    0000004c     geomodel.lib : Rpos.obj (.text:_ZNK3Geo4Rpos7relthisERKN8Maverick9Irvector3ERNS_4AposE)
                  000a3bdd    0000004b     base.lib : Cfgid_mode.obj (.text:_ZN4Base10Cfgid_mode4csetERNS_11Lossy_errorE)
                  000a3c28    0000004b     first.lib : Bvar.obj (.text:_ZN4Base13user_writableENS_4BvarE)
                  000a3c73    0000004b     base.lib : Sync.obj (.text:_ZN4Base4Sync12set_modifiedERKNS_5LossyE)
                  000a3cbe    0000004b     media.lib : Cfgmgr.obj (.text:_ZN5Media6Cfgmgr10start_saveEN4Base3Cfg2IdENS1_7AddressE)
                  000a3d09    0000004b     vpgnc.lib : Varinit.obj (.text:_ZN5Vpgnc7Varinit4csetERN4Base11Lossy_errorE)
                  000a3d54    0000004b     pa_blocks.lib : Land_state.obj (.text:_ZN9Pa_blocks10Land_state5resetEv)
                  000a3d9f    0000004b                   : Vector_saturation.obj (.text:_ZN9Pa_blocks17Vector_saturation49apply_vec_mag_saturation_max_direction_preservingERKN8Maverick7RvectorES4_RNS_14Vec_sat_outputENS_9Norm_type4TypeE)
                  000a3dea    0000004b                   : Recovery_route_constructor.obj (.text:_ZNK9Pa_blocks26Recovery_route_constructor8Log_data4cgetERN4Base5LossyE)
                  000a3e35    0000004a     first.lib : Memmgr_c2000.obj (.text:_ZN4Base6Memmgr12get_instanceEv)
                  000a3e7f    0000004a     pa_blocks.lib : Command_response.obj (.text:_ZN9Pa_blocks16Command_response4csetERN4Base5LossyE)
                  000a3ec9    0000004a                   : Vsdk_navigation_params.obj (.text:_ZN9Pa_blocks22Vsdk_navigation_params15Onground_paramsC1Ev)
                  000a3f13    0000004a                   : Controllers_param_mk30.obj (.text:_ZN9Pa_blocks25Tstate_space_model_paramsILj1ELj1ELj1ELj1EE5set_aERA1_A1_A1_Kf)
                  000a3f5d    0000004a                   : Recovery_route_constructor.obj (.text:_ZN9Pa_blocks26Recovery_route_constructor5StateC1Ev)
                  000a3fa7    0000004a                   : Hover_maneuver.obj (.text:_ZNK9Pa_blocks14Hover_maneuver16evaluate_at_timeEfRNS_12Waypoint_msgE)
                  000a3ff1    00000049                   : Model_dynamic.obj (.text:_ZN9Pa_blocks13Model_dynamic42compute_state_satisfying_prescribed_outputERKNS0_8ElementsERKN8Maverick7RvectorERS5_)
                  000a403a    00000049                   : Controllers_object.obj (.text:_ZN9Pa_blocks18Controllers_object28handle_recovery_status_inputERKNS_12Command_fifoINS0_24Recovery_switchover_dataELj1EEE)
                  000a4083    00000049                   : Rotation.obj (.text:_ZN9Pa_blocks8Rotation12is_valid_dcmERKN8Maverick9Irmatrix3E)
                  000a40cc    00000048     geomodel.lib : Gellipsoid.obj (.text:_ZN3Geo10Gellipsoid9geoevol_1EfffRKN4Base12Tllh_low_resERN8Maverick9Irvector3E)
                  000a4114    00000048     media.lib : Cfgmgr.obj (.text:_ZN5Media6Cfgmgr3addEN4Base3Cfg2IdERNS1_14Itunable_asyncE)
                  000a415c    00000048               : Cfgmgr.obj (.text:_ZN5Media6Cfgmgr3addEN4Base3Cfg2IdERNS1_21Ideserializable_asyncE)
                  000a41a4    00000048     pa_blocks.lib : Maneuver_coordinate.obj (.text:_ZN9Pa_blocks19Maneuver_coordinate25waypoint_coordinate_timesERKN4Base11TnarrayreszIfLm6EEE)
                  000a41ec    00000048     DSP2837x_ent.lib : Pwmdev.obj (.text:_ZNK12Dsp28335_ent6Pwmdev13get_frequencyEv)
                  000a4234    00000048     DSP28x.lib : SCIcfg.obj (.text:_ZNK12Dsp28335_ent6SCIcfg8validateEv)
                  000a427c    00000047     media.lib : Cfgmgr.obj (.text:_ZN5Media6Cfgmgr9step_saveEv)
                  000a42c3    00000047     maverick.lib : Rtable.obj (.text:_ZN8Maverick6RtableC1EN4Base6MblockIKfEES4_)
                  000a430a    00000047     pa_blocks.lib : Model_dynamic.obj (.text:_ZN9Pa_blocks13Model_dynamic34form_state_reset_solution_b_vectorERKN8Maverick7RmatrixERKNS1_7RvectorE)
                  000a4351    00000047                   : Mixer_allocator.obj (.text:_ZN9Pa_blocks15Mixer_allocator16hysteresis_checkERKN8Maverick7RvectorERKN4Base6MblockIKfEEfRS2_)
                  000a4398    00000047                   : Sep.obj (.text:_ZN9Pa_blocks3Sep11Vsdk_param_C1Ev)
                  000a43df    00000047                   : Atcg.obj (.text:_ZN9Pa_blocks4Atcg10Vsdk_param4csetERN4Base5LossyE)
                  000a4426    00000047     base.lib : Cfgid_mode.obj (.text:_ZNVK4Base10Cfgid_mode10wr_allowedENS_3Cfg2IdE)
                  000a446d    00000046     geomodel.lib : Apos.obj (.text:_ZN3Geo4Apos7move_rnERKN8Maverick9Irvector3E)
                  000a44b3    00000046     veronte.lib : Static_cfg.obj (.text:_ZN3Ver10Static_cfg18static_cfg_changedEv)
                  000a44f9    00000046     base.lib : Spkt.obj (.text:_ZN4Base4SpktC1ENS_10U8pkmblockEb)
                  000a453f    00000046              : Sticktypes.obj (.text:_ZN4Base8Stickout4csetERNS_11Lossy_errorE)
                  000a4585    00000046     media.lib : Cfgmgr.obj (.text:_ZN5Media6Cfgmgr14fload_blockingEN4Base3Cfg2IdE)
                  000a45cb    00000046               : Fstrfast.obj (.text:_ZN5Media8Fstrfast5on_rxERN6Stanag14IStanag_msg_rx9Rx_paramsE)
                  000a4611    00000046     maverick.lib : Irmatrix3.obj (.text:_ZN8Maverick9Irmatrix35skewpERKNS_9Irvector3E)
                  000a4657    00000046     pa_blocks.lib : DComms_cfg.obj (.text:_ZN9Pa_blocks10DComms_cfg7Reg_cfg4csetERN4Base11Lossy_errorE)
                  000a469d    00000046                   : Pa_profiling.obj (.text:_ZN9Pa_blocks12Pa_profiling3tocEb)
                  000a46e3    00000046                   : State_machines.obj (.text:_ZN9Pa_blocks14State_machines51eval_track_spline_position_error_within_limits_vtolEv)
                  000a4729    00000046                   : Tsc.obj (.text:_ZN9Pa_blocks3Tsc9TelemetryC1Ev)
                  000a476f    00000046                   : Ttcg.obj (.text:_ZN9Pa_blocks4Ttcg6Output26initialize_optional_valuesEv)
                  000a47b5    00000046     maverick.lib : Irmatrix3.obj (.text:_ZNK8Maverick9Irmatrix36to_yprERfS1_S1_)
                  000a47fb    00000046     midlevel.lib : Sys_status_mgr.obj (.text:_ZNK8Midlevel14Sys_status_mgr8add_bitsERKN4Base6MblockIKNS1_4BvarEEERNS1_7BitmaskIyEEj)
                  000a4841    00000046     pa_blocks.lib : Polynomial_coeffs.obj (.text:_ZNK9Pa_blocks17Polynomial_coeffs15eval_integral_1Eff)
                  000a4887    00000046                   : Recovery_route_constructor.obj (.text:_ZNK9Pa_blocks26Recovery_route_constructor22passive_route_selectorERKNS_19Route_tracking_dataERNS_19Command_route_entryE)
                  000a48cd    00000045     first.lib : U16stream_r.obj (.text:_ZN4Base11U16stream_r10get_uint64Ev)
                  000a4912    00000045     base.lib : Action.obj (.text:_ZN4Base6Action4csetERNS_11Lossy_errorE)
                  000a4957    00000045              : Xpcmap0.obj (.text:_ZN4Base7Xpcmap013cset_validateERNS_11Lossy_errorEjjj)
                  000a499c    00000045              : Cfgsync.obj (.text:_ZN4Base8Hash_mapINS_8Sync_map7ElementEE3getERKj)
                  000a49e1    00000045     media.lib : Cfgmgr.obj (.text:_ZN5Media6Cfgmgr11send_configEN4Base7AddressENS1_3Cfg2IdEPKNS1_14Itunable_asyncE)
                  000a4a26    00000045     vpgnc.lib : Vpu.obj (.text:_ZN8Midlevel11Default_cfg19get_default_can_outIN4Base12CANout_suiteILj6EEEEERKT_NS2_7CANport4PortE)
                  000a4a6b    00000045     midlevel.lib : CAN_term_cfg.obj (.text:_ZN8Midlevel12CAN_term_cfg4csetERN4Base11Lossy_errorE)
                  000a4ab0    00000045     pa_blocks.lib : Actuator_allocator_object.obj (.text:_ZN9Pa_blocks12Command_fifoINS_9Mixer_logELj1EE12emplace_backEv)
                  000a4af5    00000045                   : State_machines.obj (.text:_ZN9Pa_blocks14State_machines5State5resetEv)
                  000a4b3a    00000045                   : Motor_performance.obj (.text:_ZN9Pa_blocks17Motor_performance4csetERN4Base5LossyE)
                  000a4b7f    00000045                   : Recovery_mission_phase_of_flight.obj (.text:_ZN9Pa_blocks32Recovery_mission_phase_of_flight8Log_dataC1Ev)
                  000a4bc4    00000045     media.lib : Cfgmgr.obj (.text:_ZNK4Base8Hash_mapINS_8Sync_map7ElementEE3getERKj)
                  000a4c09    00000044     veronte.lib : Xcrdsuite.obj (.text:_ZN4Base6XcmvarINS_3FidENS_9Tuntraits10U16strCxetINS_7FeatureEEEE6Parser5parseERNS_17U16stream_r_errorE)
                  000a4c4d    00000044     pa_blocks.lib : Roll_maneuver.obj (.text:_ZN4Rfun27interpolation_with_clippingIfEET_N4Base12JSF116_paramIS1_E4typeES5_S5_S5_S5_f)
                  000a4c91    00000044     midlevel.lib : CyphalStanag_tx_hnd.obj (.text:_ZN6Cyphal19CyphalStanag_tx_hnd5on_txERN6Stanag14IStanag_msg_tx9Tx_paramsE)
                  000a4cd5    00000044     stanag.lib : Stanag_pulling.obj (.text:_ZN6Stanag17Stanag_serializer5on_txEPNS_14IStanag_msg_txERN4Base4SpktERKNS3_7AddressERKNS3_8Msg_dataERNS1_9Tx_paramsE)
                  000a4d19    00000044     pa_blocks.lib : Rwcso_input_manager.obj (.text:_ZN9Pa_blocks12Command_fifoINS_27Command_contingency_wrapperELj1EE12emplace_backEv)
                  000a4d5d    00000044                   : Rwcso_input_manager.obj (.text:_ZN9Pa_blocks24Cyphal_cset_command_fifoINS_25Mission_readiness_wrapperELj1EE8on_rx_cyEN6Cyphal17Cyphal_stg_fieldsERN6Stanag14IStanag_msg_rx9Rx_paramsE)
                  000a4da1    00000044                   : Rwcso_input_manager.obj (.text:_ZN9Pa_blocks24Cyphal_cset_command_fifoINS_27Command_contingency_wrapperELj1EE8on_rx_cyEN6Cyphal17Cyphal_stg_fieldsERN6Stanag14IStanag_msg_rx9Rx_paramsE)
                  000a4de5    00000044                   : Cm.obj (.text:_ZN9Pa_blocks2CmC1ERKNS_24Common_controller_paramsERKNS_18Vsdk_common_paramsERKNS0_10Vsdk_paramERKNS0_5ParamE)
                  000a4e29    00000044                   : Tcg.obj (.text:_ZN9Pa_blocks3Tcg9TelemetryC1Ev)
                  000a4e6d    00000044                   : Waca.obj (.text:_ZN9Pa_blocks4WacaC1ERKNS0_5ParamERKNS_24Common_controller_paramsERKNS0_10Vsdk_paramEN4Base6MblockIjEERNS0_9TelemetryE)
                  000a4eb1    00000043     base.lib : Auth_connection.obj (.text:_ZN4Base15Auth_connection14get_connectionERS0_NS_7AddressENS_15Stanag_msg_type8Msg_typeERKNS_6MblockIKS0_EE)
                  000a4ef4    00000043     first.lib : Ttime.obj (.text:_ZN4Base32_GLOBAL__N__9_Ttime_cpp_8429a5a816get_msecs_factorEv)
                  000a4f37    00000043     veronte.lib : Pwm_suite.obj (.text:_ZN4Base9Allocator21allocate_new_array_itIN12Dsp28335_ent6PwmdevENS_5RngitINS3_5PWMidEEEEEPT_mT0_)
                  000a4f7a    00000043     base.lib : Uclkmgr.obj (.text:_ZN4Base9Allocator21allocate_new_array_itINS_4UclkENS_5RngitINS_4RvarEEEEEPT_mT0_)
                  000a4fbd    00000043     media.lib : Cfgmgr.obj (.text:_ZN5Media6Cfgmgr4stepEv)
                  000a5000    00000043     midlevel.lib : Sys_status_mgr.obj (.text:_ZN8Midlevel14Sys_status_mgr4stepEv)
                  000a5043    00000043     pa_blocks.lib : Pa_profiling.obj (.text:_ZN9Pa_blocks12Pa_profiling7publishEv)
                  000a5086    00000043                   : Flight_dynamics.obj (.text:_ZN9Pa_blocks15Flight_dynamics26inertia_matrix_from_vectorERKN4Base7TnarrayIfLm6EEERN8Maverick9Irmatrix3E)
                  000a50c9    00000043                   : Mission_step.obj (.text:_ZN9Pa_blocks16Protobuf_decoder13decode_varintIyEEbRT_)
                  000a510c    00000043                   : Maneuver_coordinate.obj (.text:_ZN9Pa_blocks19Maneuver_coordinate10scale_timeEf)
                  000a514f    00000043                   : Track_spline_manager.obj (.text:_ZN9Pa_blocks20Track_spline_manager4stepERKNS0_5InputERNS0_6OutputE)
                  000a5192    00000043                   : Recovery_motor_rpm_cmd.obj (.text:_ZN9Pa_blocks22Recovery_motor_rpm_cmdC1Ev)
                  000a51d5    00000043                   : Rwcso_input_manager.obj (.text:_ZN9Pa_blocks24Cyphal_cset_command_fifoINS_27Upload_mission_plan_wrapperELj1EE8on_rx_cyEN6Cyphal17Cyphal_stg_fieldsERN6Stanag14IStanag_msg_rx9Rx_paramsE)
                  000a5218    00000043     veronte.lib : Vfspermission.obj (.text:_ZNK4Base8Hash_mapINS_7Hashers11Element_u16EE3getERKj)
                  000a525b    00000042     vpgnc.lib : Vpu.obj (.text:_ZN12Dsp28335_ent8PwmsuiteINS_6PwmdevELj16EE7disableEv)
                  000a529d    00000042     veronte.lib : Hvar_cpu2.obj (.text:_ZN3Bsp5Hrvar5RangeC1EN4Base6MblockIVKfEENS2_4RvarES6_)
                  000a52df    00000042                 : Hvar_cpu2.obj (.text:_ZN3Bsp5Huvar5RangeC1EN4Base6MblockIVKjEENS2_4UvarES6_)
                  000a5321    00000042     base.lib : Feature.obj (.text:_ZN4Base12Data_mutatorINS_11Lossy_error16Mutator_traits16ENS_17U16stream_r_error13Data_traits16EEC1ERS3_)
                  000a5363    00000042              : Rvarsensor1D_cfg.obj (.text:_ZN4Base16Rvarsensor1D_cfg4csetERNS_11Lossy_errorE)
                  000a53a5    00000042     first.lib : Timeout.obj (.text:_ZN4Base7TimeoutC1Ef)
                  000a53e7    00000042     veronte.lib : Tunsuite_pa.obj (.text:_ZN4Base7XrtableILm12ELm3EE8cset_colERNS_11Lossy_errorEj)
                  000a5429    00000042                 : Tunsuite_pa.obj (.text:_ZN4Base7XrtableILm2ELm3EE8cset_colERNS_11Lossy_errorEj)
                  000a546b    00000042     vpgnc.lib : Varinit.obj (.text:_ZN5Vpgnc7Varinit6Value04csetERN4Base11Lossy_errorE)
                  000a54ad    00000042     pa_blocks.lib : Tp_utilities.obj (.text:_ZN9Pa_blocks12Tp_utilities29verify_straight_waypoint_horzERKN8Maverick8Rvector2ES4_S4_)
                  000a54ef    00000042                   : Cy_maint_action.obj (.text:_ZN9Pa_blocks15Cy_maint_action9on_rx_pktERN6Stanag14IStanag_rx_pkt6ParamsE)
                  000a5531    00000042                   : Integrators_state_machine.obj (.text:_ZN9Pa_blocks25Integrators_state_machine4evalENS_20State_machines_state16Integrators_mode4ModeE)
                  000a5573    00000042     first.lib : Vref.obj (.text:_ZNK4Base4Vref4kgetEv)
                  000a55b5    00000042     pa_blocks.lib : Recovery_controls_command_processor.obj (.text:_ZNK9Pa_blocks35Recovery_controls_command_processor14process_inputsERKNS0_5InputE)
                  000a55f7    00000041     veronte.lib : Tunsuite_pa.obj (.text:_ZN12Dsp28335_ent8TGPIOtunINS_9GPIOmux16EE4csetERN4Base11Lossy_errorE)
                  000a5638    00000041                 : Hvar_cpu2.obj (.text:_ZN3Bsp5Hbvar5RangeC1EN4Base6MblockIVKbEENS2_4BvarES6_)
                  000a5679    00000041     first.lib : Lossy.obj (.text:_ZN4Base5Lossy9put_floatEfffh)
                  000a56ba    00000041     veronte.lib : Hxcfield_cpu2.obj (.text:_ZN4Base8TwrapdesINS_9Tuntraits9Wsync_desINS_6TdsyncINS_11FstrtfieldsENS_12Tdsynctraits11Rd_blockingIS4_NS_8Cptraits6PodrawIVS4_EEEENS5_15Disabled_structEEENS1_10DesdefaultIS4_EEEERSD_E4csetERNS_11Lossy_errorE)
                  000a56fb    00000041                 : Tunsuite_pa.obj (.text:_ZN4Base9Tuntraits15Arraytun_nosizeINS0_8TupletunINS0_9Cset_onlyIN6Stanag14Subsystem_data8Key_dataEEENS0_7Lossy16INS_4UvarEEEEENS_11TnarrayreszINS_5TupleIS6_S9_EELm64EEENS0_8No_checkISF_EEE8str2elemERSF_RNS_11Lossy_errorE)
                  000a573c    00000041     stanag.lib : Stanag_msg_push_pkt.obj (.text:_ZN6Stanag19Stanag_msg_rx_async9on_rx_pktERNS_14IStanag_rx_pkt6ParamsE)
                  000a577d    00000041     pa_blocks.lib : Cqp.obj (.text:_ZN8Maverick7TmatrixIeE10remove_rowEj)
                  000a57be    00000041                   : Tllh_cs_64.obj (.text:_ZN8Maverick7TmatrixIeE10resize_matEjj)
                  000a57ff    00000041                   : Cqp.obj (.text:_ZN8Maverick7TmatrixIfE10resize_matEjj)
                  000a5840    00000041                   : Input_processor.obj (.text:_ZN9Pa_blocks15Input_processorC1ERKNS_24Common_controller_paramsERKNS0_21Input_processor_paramE)
                  000a5881    00000041                   : Controllers_object.obj (.text:_ZN9Pa_blocks18Controllers_object39transform_wrench_from_trim0_ncg_to_vtolERKN8Maverick9Irvector3ES4_RKNS1_6IrquatERS2_S8_)
                  000a58c2    00000041                   : Vsdk_params.obj (.text:_ZN9Pa_blocks29Vsdk_actuatorallocator_params4csetERN4Base11Lossy_errorE)
                  000a5903    00000041                   : Vector_saturation.obj (.text:_ZN9Pa_blocks45_GLOBAL__N__21_Vector_saturation_cpp_dbbd679714calculate_normENS_9Norm_type4TypeERKN8Maverick7RvectorERb)
                  000a5944    00000041                   : Upload_mission_plan.obj (.text:_ZNK9Pa_blocks19Upload_mission_plan13compute_crc32Ev)
                  000a5985    00000041     rts2800_fpu64_eabi.lib : autoinit.c.obj (.text:__TI_auto_init)
                  000a59c6    00000040     DSP28x.lib : SCIcfg.obj (.text:_ZN12Dsp28335_ent6SCIcfg4csetERN4Base11Lossy_errorE)
                  000a5a06    00000040     vpgnc.lib : Evtmgr.obj (.text:_ZN4Base12Data_mutatorINS_5Lossy15Mutator_traits8IS1_EENS_9U8istream12Data_traits8EEC1ERS4_)
                  000a5a46    00000040     base.lib : Xclk.obj (.text:_ZN4Base4Xclk4stepEv)
                  000a5a86    00000040     first.lib : Lossy.obj (.text:_ZN4Base5Lossy10put_uint16Ejjj)
                  000a5ac6    00000040     media.lib : Cfgmgr.obj (.text:_ZN5Media6Cfgmgr10start_loadEN4Base3Cfg2IdENS1_7AddressE)
                  000a5b06    00000040     pa_blocks.lib : Vehicle_state_transform.obj (.text:_ZN8Maverick8Ivector3IfE5crossERKS1_S3_)
                  000a5b46    00000040     vpgnc.lib : Vpu.obj (.text:_ZN8Midlevel11Default_cfg18get_default_can_scIN4Base11CANsc_suiteILj6EEEEERKT_fb)
                  000a5b86    00000040     pa_blocks.lib : Protobuf_decoder.obj (.text:_ZN9Pa_blocks16Protobuf_decoder13decode_stringEN4Base10U8pkmblockE)
                  000a5bc6    00000040                   : Recovery_wrapper_control_system_object.obj (.text:_ZN9Pa_blocks38Recovery_wrapper_control_system_object39check_motor_disabled_low_rpm_and_disarmEfRNS_13Motor_rpm_cmd19Motor_state_requestE)
                  000a5c06    00000040                   : Ttcg.obj (.text:_ZN9Pa_blocks4Ttcg28is_inbound_maneuver_completeEv)
                  000a5c46    00000040     base.lib : Xclk.obj (.text:_ZNK4Base4Xclk3tocEv)
                  000a5c86    00000040     pa_blocks.lib : Pre_flight_checks.obj (.text:_ZNK9Pa_blocks17Pre_flight_checks4cgetERN4Base5LossyE)
                  000a5cc6    0000003f     vpgnc.lib : Evt_wp_groups.obj (.text:_ZN4Base14Tunarray_asyncINS_4TdesINS_11TnarrayreszIjLm8EEENS_9Tuntraits10TundefaultIS3_EEEELb0EE4csetERNS_11Lossy_errorE)
                  000a5d05    0000003f     base.lib : Xclk.obj (.text:_ZN4Base4Xclk3ticEf)
                  000a5d44    0000003f     first.lib : Lossy.obj (.text:_ZN4Base5Lossy10put_uint32Emmm)
                  000a5d83    0000003f     base.lib : Tmvdat.obj (.text:_ZN4Base6Tmvdat10cset_asyncERNS_11Lossy_errorERKNS_9KfieldsetERj)
                  000a5dc2    0000003f              : Feature.obj (.text:_ZN4Base7Feature4csetERNS_17U16stream_r_errorE)
                  000a5e01    0000003f              : Xclkcfg.obj (.text:_ZN4Base7Xclkcfg11cset_periodERNS_11Lossy_errorE)
                  000a5e40    0000003f     veronte.lib : Copystep.obj (.text:_ZN4Base9Allocator21allocate_new_array_itIN3Bsp5HrvarENS_5RngitINS_4RvarEEEEEPT_mT0_)
                  000a5e7f    0000003f     base.lib : Ftelemetryod.obj (.text:_ZN4Base9FieldsvecINS_8TmodvdatELj20EE6removeEj)
                  000a5ebe    0000003f     pa_blocks.lib : Polynomial.obj (.text:_ZN9Pa_blocks10PolynomialC1Ev)
                  000a5efd    0000003f                   : Controllers_object.obj (.text:_ZN9Pa_blocks12Command_fifoINS_14Scheduler_dataELj1EE12emplace_backERKS1_)
                  000a5f3c    0000003f                   : Land_manager.obj (.text:_ZN9Pa_blocks12Land_managerC1ERKNS0_5ParamERKNS_24Common_controller_paramsERNS_10Land_stateE)
                  000a5f7b    0000003f                   : Pa_geometric.obj (.text:_ZN9Pa_blocks12Pa_geometric46compute_circle_from_two_points_and_one_tangentERKN8Maverick8Rvector2ES4_S4_RS2_Rf)
                  000a5fba    0000003f                   : State_machines.obj (.text:_ZN9Pa_blocks14State_machines37initialize_track_spline_state_machineERNS_20State_machines_state12Track_spline4TypeE)
                  000a5ff9    0000003f                   : Ttcg.obj (.text:_ZN9Pa_blocks4Ttcg29is_outbound_maneuver_completeEv)
                  000a6038    0000003e     base.lib : Presence_vec.obj (.text:_ZN4Base12Presence_vec10initializeEy)
                  000a6076    0000003e     veronte.lib : Hvar.obj (.text:_ZN4Base8Hbmapvar3getERNS0_4TypeE)
                  000a60b4    0000003e     vpgnc.lib : Vpu.obj (.text:_ZN5Vpgnc3Vpu15get_status_bitsEv)
                  000a60f2    0000003e     pa_blocks.lib : Model_dynamic.obj (.text:_ZN8Maverick16Qr_factorizationIfEC1ERKNS_7TmatrixIfEERN4Base9AllocatorE)
                  000a6130    0000003e     maverick.lib : Irmatrix3.obj (.text:_ZN8Maverick9Irmatrix34rotxEf)
                  000a616e    0000003e                  : Irmatrix3.obj (.text:_ZN8Maverick9Irmatrix34rotzEf)
                  000a61ac    0000003e     pa_blocks.lib : Actuator_allocator_object.obj (.text:_ZN9Pa_blocks12Command_fifoINS_18Actuator_setpointsELj1EE12emplace_backEv)
                  000a61ea    0000003e                   : Recovery_wrapper_control_system_object.obj (.text:_ZN9Pa_blocks12Command_fifoINS_18Controllers_object12Mixer_returnELj1EE12emplace_backEv)
                  000a6228    0000003e                   : Model_dynamic.obj (.text:_ZN9Pa_blocks13Model_dynamic8ElementsC1ERN4Base9AllocatorERKNS_24State_space_model_paramsE)
                  000a6266    0000003e                   : Turn_maneuver.obj (.text:_ZN9Pa_blocks13Turn_maneuverC1ERKNS_12Maneuver_msgE)
                  000a62a4    0000003e                   : Maneuver_coordinate.obj (.text:_ZN9Pa_blocks19Maneuver_coordinate25flip_sign_of_coefficientsEv)
                  000a62e2    0000003e                   : Ttcg.obj (.text:_ZN9Pa_blocks4Ttcg26increment_current_maneuverEv)
                  000a6320    0000003e     vblocks.lib : Multi_interpolator.obj (.text:_ZNK7Vblocks18Multi_interpolator8collapseEj)
                  000a635e    0000003e     pa_blocks.lib : Sep.obj (.text:_ZNK9Pa_blocks3Sep9Telemetry4cgetERN4Base5LossyE)
                  000a639c    0000003d     base.lib : Spkt.obj (.text:_ZN4Base4Spkt7set_hdrERKNS_8Spkt_hdrE)
                  000a63d9    0000003d     first.lib : U8ostream.obj (.text:_ZN4Base9U8ostream13put_uint32_beEm)
                  000a6416    0000003d               : U8ostream.obj (.text:_ZN4Base9U8ostream13put_uint32_leEm)
                  000a6453    0000003d     pa_blocks.lib : Rwcso_output_manager.obj (.text:_ZN9Pa_blocks12Command_fifoINS_16Command_responseELj1EE4ElemC1Ev)
                  000a6490    0000003d                   : Controllers_object.obj (.text:_ZN9Pa_blocks12Command_fifoINS_21Controllers_telemetryELj1EE12emplace_backEv)
                  000a64cd    0000003d                   : Rwcso_input_manager.obj (.text:_ZN9Pa_blocks12Command_fifoINS_25Mission_readiness_wrapperELj1EE12emplace_backEv)
                  000a650a    0000003d                   : Recovery_wrapper_control_system_object.obj (.text:_ZN9Pa_blocks12Command_fifoINS_29Recovery_controller_telemetryELj1EE12emplace_backEv)
                  000a6547    0000003d                   : Gnc_model_gain.obj (.text:_ZN9Pa_blocks14Gnc_model_gain4stepERKN8Maverick7RvectorEfRS2_)
                  000a6584    0000003d                   : Mission_readiness.obj (.text:_ZN9Pa_blocks17Mission_readinessC1Ev)
                  000a65c1    0000003d                   : Vehicle_state_transform.obj (.text:_ZN9Pa_blocks23Vehicle_state_transformC1ERKNS0_5ParamE)
                  000a65fe    0000003d                   : Tcg.obj (.text:_ZN9Pa_blocks3Tcg24update_tsc_tracking_modeERKNS_15Phase_of_flightEffNS_18Speed_change_phase4TypeE)
                  000a663b    0000003d     base.lib : Spkt.obj (.text:_ZNK4Base4Spkt11get_payloadEv)
                  000a6678    0000003d     vpgnc.lib : Evt_wp_groups.obj (.text:_ZNK5Vpgnc13Evt_wp_groups7matchesEjj)
                  000a66b5    0000003d     midlevel.lib : Cy_msg_id_gen.obj (.text:_ZNK6Cyphal13Cy_msg_id_gen4cgetERN4Base5LossyE)
                  000a66f2    0000003d     maverick.lib : Irmatrix3.obj (.text:_ZNK8Maverick9Irmatrix36invertERS0_)
                  000a672f    0000003d     pa_blocks.lib : Polynomial_coeffs.obj (.text:_ZNK9Pa_blocks17Polynomial_coeffs8eval_derEf)
                  000a676c    0000003d                   : Recovery_controls_command_processor.obj (.text:_ZNK9Pa_blocks35Recovery_controls_command_processor25set_straight_land_commandERNS0_6OutputE)
                  000a67a9    0000003d     first.lib : U8pkmblock.obj (.text:_ZNV4Base10U8pkmblock5writeERKNS_12U8pkmblock_kE)
                  000a67e6    0000003c     veronte.lib : Hxcfile_cpu2.obj (.text:_ZN3Ver7Hxcfile13get_xcfilecliEv)
                  000a6822    0000003c                 : Hxcfile_cpu2.obj (.text:_ZN3Ver7Hxcfile14get_xcffastcliEv)
                  000a685e    0000003c     base.lib : Spkt_hdr.obj (.text:_ZN4Base8Spkt_hdr4csetERNS_9U8istreamE)
                  000a689a    0000003c     pa_blocks.lib : Slew_rate_filter.obj (.text:_ZN9Pa_blocks16Slew_rate_filter4stepEf)
                  000a68d6    0000003c                   : Maneuver_coordinate.obj (.text:_ZN9Pa_blocks19Maneuver_coordinate23set_polynomial_by_indexERKNS_10PolynomialEj)
                  000a6912    0000003c                   : Afc.obj (.text:_ZN9Pa_blocks3AfcC1ERN4Base9AllocatorENS1_6MblockIjEERKNS0_11Parameters_ERNS0_9TelemetryE)
                  000a694e    0000003c     base.lib : Field_real_hex_ASCII.obj (.text:_ZNK4Base20Field_real_hex_ASCII8compressERNS_5LossyERKNS_4IgetERKj)
                  000a698a    0000003b     veronte.lib : Herrors_ver_pa.obj (.text:_ZN4Base7Herrors19get_xcerr_rd_remoteEv)
                  000a69c5    0000003b     first.lib : Timeout.obj (.text:_ZN4Base7Timeout13set_timeout_sEf)
                  000a6a00    0000003b     pa_blocks.lib : Cqp.obj (.text:_ZN8Maverick7TvectorIeE10norm2alizeEv)
                  000a6a3b    0000003b                   : Rwcso_input_manager.obj (.text:_ZN9Pa_blocks12Command_fifoINS_17Motor_performanceELj6EE12emplace_backEv)
                  000a6a76    0000003b                   : Recovery_wrapper_control_system_object.obj (.text:_ZN9Pa_blocks12Command_fifoINS_17Pre_flight_checksELj1EE12emplace_backEv)
                  000a6ab1    0000003b                   : Recovery_wrapper_control_system_object.obj (.text:_ZN9Pa_blocks12Command_fifoINS_18Commands_processor12Land_commandELj1EE12emplace_backEv)
                  000a6aec    0000003b                   : Recovery_wrapper_control_system_object.obj (.text:_ZN9Pa_blocks12Command_fifoINS_18Commands_processor15Takeoff_commandELj1EE12emplace_backEv)
                  000a6b27    0000003b                   : Recovery_wrapper_control_system_object.obj (.text:_ZN9Pa_blocks12Command_fifoINS_18Commands_processor25Route_command_and_controlELj1EE12emplace_backEv)
                  000a6b62    0000003b                   : Controllers_object.obj (.text:_ZN9Pa_blocks12Command_fifoINS_18Controllers_object18Controllers_statusELj1EE12emplace_backERKS2_)
                  000a6b9d    0000003b                   : Recovery_wrapper_control_system_object.obj (.text:_ZN9Pa_blocks12Command_fifoINS_18Recovery_telemetryELj1EE12emplace_backEv)
                  000a6bd8    0000003b                   : Recovery_wrapper_control_system_object.obj (.text:_ZN9Pa_blocks12Command_fifoINS_22Recovery_motor_rpm_cmdELj1EE12emplace_backEv)
                  000a6c13    0000003b                   : Rwcso_input_manager.obj (.text:_ZN9Pa_blocks12Command_fifoINS_25MonRec_controller_commandELj1EE12emplace_backEv)
                  000a6c4e    0000003b                   : Rwcso_input_manager.obj (.text:_ZN9Pa_blocks12Command_fifoINS_26Controllers_state_estimateELj1EE12emplace_backEv)
                  000a6c89    0000003b                   : Rwcso_input_manager.obj (.text:_ZN9Pa_blocks12Command_fifoINS_27Upload_mission_plan_wrapperELj1EE12emplace_backEv)
                  000a6cc4    0000003b                   : Vsdk_rccp_param.obj (.text:_ZN9Pa_blocks15Vsdk_rccp_param4csetERN4Base11Lossy_errorE)
                  000a6cff    0000003b                   : Controllers_param.obj (.text:_ZN9Pa_blocks25Tstate_space_model_paramsILj1ELj3ELj1ELj4EEC1Ev)
                  000a6d3a    0000003b                   : Controllers_param.obj (.text:_ZN9Pa_blocks25Tstate_space_model_paramsILj2ELj2ELj2ELj4EEC1Ev)
                  000a6d75    0000003b                   : Controllers_param.obj (.text:_ZN9Pa_blocks25Tstate_space_model_paramsILj2ELj6ELj2ELj4EEC1Ev)
                  000a6db0    0000003b                   : Controllers_param.obj (.text:_ZN9Pa_blocks25Tstate_space_model_paramsILj3ELj3ELj3ELj1EEC1Ev)
                  000a6deb    0000003b                   : Controllers_param.obj (.text:_ZN9Pa_blocks25Tstate_space_model_paramsILj3ELj6ELj3ELj4EEC1Ev)
                  000a6e26    0000003b                   : Controllers_param.obj (.text:_ZN9Pa_blocks25Tstate_space_model_paramsILj6ELj6ELj6ELj4EEC1Ev)
                  000a6e61    0000003b                   : Atcg.obj (.text:_ZN9Pa_blocks4Atcg10Vsdk_paramC1Ev)
                  000a6e9c    0000003b     geomodel.lib : Fidcache.obj (.text:_ZNK3Geo8Fidcache10compute_rnERN8Maverick9Irvector3E)
                  000a6ed7    0000003b     vpgnc.lib : Vlimits.obj (.text:_ZNK5Vpgnc7Vlimits9is_insideERKN4Base11TnarrayreszIjLm32EEE)
                  000a6f12    0000003b     pa_blocks.lib : Gnc_body_transformations.obj (.text:_ZNK9Pa_blocks24Gnc_body_transformations15vtol_cg_from_vfERKN8Maverick9Irvector3E)
                  000a6f4d    0000003b                   : Recovery_controller_telemetry.obj (.text:_ZNK9Pa_blocks29Recovery_controller_telemetry4cgetERN4Base5LossyE)
                  000a6f88    0000003b                   : Recovery_mission_phase_of_flight.obj (.text:_ZNK9Pa_blocks32Recovery_mission_phase_of_flight32route_landing_info_from_route_idEmRNS_25Route_landing_informationE)
                  000a6fc3    0000003a     crypto_c28.lib : sha256.obj (.text:SHA256_startWordWise)
                  000a6ffd    0000003a     DSP2838x_ent.lib : CAN_FD_cfg.obj (.text:_ZN12Dsp28335_ent10CAN_FD_cfg4csetERN4Base11Lossy_errorE)
                  000a7037    0000003a     veronte.lib : Hxcfield_cpu2.obj (.text:_ZN3Ver41_GLOBAL__N__17_Hxcfield_cpu2_cpp_b4af5a3213get_htun_tmodEv)
                  000a7071    0000003a                 : Tunsuite_pa.obj (.text:_ZN4Base18Routing_table_dataILj2ELj16EE4csetERNS_11Lossy_errorE)
                  000a70ab    0000003a     vpgnc.lib : Vpu.obj (.text:_ZN5Vpgnc3Vpu10sync_xctunEv)
                  000a70e5    0000003a     pa_blocks.lib : Recovery_wrapper_control_system_object.obj (.text:_ZN9Pa_blocks12Command_fifoINS_15Recovery_alertsELj1EE12emplace_backEv)
                  000a711f    0000003a                   : Recovery_wrapper_control_system_object.obj (.text:_ZN9Pa_blocks12Command_fifoINS_18Controllers_object24Recovery_switchover_dataELj1EE12emplace_backEv)
                  000a7159    0000003a                   : Actuator_allocator_object.obj (.text:_ZN9Pa_blocks12Command_fifoINS_25Actuator_allocator_object12Mixer_statusELj1EE12emplace_backEv)
                  000a7193    0000003a                   : Controllers_object.obj (.text:_ZN9Pa_blocks12Command_fifoINS_26Forces_and_torques_requestELj1EE12emplace_backERKS1_)
                  000a71cd    0000003a                   : Recovery_wrapper_control_system_object.obj (.text:_ZN9Pa_blocks12Command_fifoINS_33Recovery_mission_readiness_signalELj1EE12emplace_backEv)
                  000a7207    0000003a                   : Controllers_param.obj (.text:_ZN9Pa_blocks25Tstate_space_model_paramsILj0ELj6ELj3ELj4EEC1Ev)
                  000a7241    0000003a                   : Route_msg.obj (.text:_ZN9Pa_blocks9Route_msg5clearEv)
                  000a727b    0000003a     first.lib : Endian64_big.obj (.text:_ZNK4Base12Endian64_big10get_uint64ERyPKjRmi)
                  000a72b5    0000003a               : Endian64_little.obj (.text:_ZNK4Base15Endian64_little10get_uint64ERyPKjRmi)
                  000a72ef    0000003a     base.lib : Fref.obj (.text:_ZNK4Base4Fref3getERNS_7FeatureE)
                  000a7329    0000003a     media.lib : Fstrfast.obj (.text:_ZNK5Media8Fstrfast4cgetERN4Base5LossyE)
                  000a7363    0000003a     pa_blocks.lib : Mission_plan.obj (.text:_ZNK9Pa_blocks12Mission_plan19get_delivery_actionERNS_15Delivery_actionE)
                  000a739d    0000003a                   : Gnc_transformation.obj (.text:_ZNK9Pa_blocks18Gnc_transformation16transform_wrenchERKN8Maverick9Irvector3ES4_RS2_S5_)
                  000a73d7    00000039     veronte.lib : Pwm_suite.obj (.text:_ZN12Dsp28335_ent8PwmsuiteINS_6PwmdevELj16EE9set_valueEjf)
                  000a7410    00000039     base.lib : Tllhcompressed.obj (.text:_ZN4Base14Tllhcompressed3setERKNS_4TllhE)
                  000a7449    00000039              : Sysver.obj (.text:_ZN4Base6Sysver14publish_sysverEv)
                  000a7482    00000039     first.lib : Strutil.obj (.text:_ZN4Base7Strutil23upper_hex_str_to_uint32ERNS_5LossyEhRm)
                  000a74bb    00000039     veronte.lib : Hxcfield_cpu2.obj (.text:_ZN4Base8TwrapdesINS_9Tuntraits9Wsync_desINS_6TdsyncINS_11Fstr1fieldsENS_12Tdsynctraits11Rd_blockingIS4_NS_8Cptraits6PodrawIVS4_EEEENS5_15Disabled_structEEENS1_10DesdefaultIS4_EEEERSD_E4csetERNS_11Lossy_errorE)
                  000a74f4    00000039                 : Hxcfield_cpu2.obj (.text:_ZN4Base8TwrapdesINS_9Tuntraits9Wsync_desINS_6TdsyncINS_8FstrFastENS_12Tdsynctraits11Rd_blockingIS4_NS_8Cptraits6PodrawIVS4_EEEENS5_15Disabled_structEEENS1_10DesdefaultIS4_EEEERSD_E4csetERNS_11Lossy_errorE)
                  000a752d    00000039     vpgnc.lib : Event.obj (.text:_ZN5Vpgnc5Event9step_uvarEN4Base4UvarE)
                  000a7566    00000039     pa_blocks.lib : Polynomial_coeffs.obj (.text:_ZN8Maverick7TmatrixIfE7diagmatERKNS_6TarrayIfEERKS1_)
                  000a759f    00000039     maverick.lib : Notch_cfg.obj (.text:_ZN8Maverick9Notch_cfg4csetERN4Base11Lossy_errorE)
                  000a75d8    00000039     pa_blocks.lib : Mission_utilities.obj (.text:_ZN9Pa_blocks17Mission_utilities25get_delivery_action_indexERKNS_12Initial_planERm)
                  000a7611    00000039                   : Controllers_param.obj (.text:_ZN9Pa_blocks25Tstate_space_model_paramsILj1ELj1ELj1ELj1EEC1Ev)
                  000a764a    00000039                   : Controllers_param.obj (.text:_ZN9Pa_blocks25Tstate_space_model_paramsILj1ELj1ELj1ELj4EEC1Ev)
                  000a7683    00000039                   : Tcg.obj (.text:_ZN9Pa_blocks3Tcg5StateC1Ev)
                  000a76bc    00000039     maverick.lib : Irmatrix3.obj (.text:_ZNK8Maverick9Irmatrix39transposeERS0_)
                  000a76f5    00000039     pa_blocks.lib : Trajectory_planner.obj (.text:_ZNK9Pa_blocks18Trajectory_planner3runERKNS_8Tp_inputERNS_9Tp_outputERNS_11Tp_log_dataE)
                  000a772e    00000039                   : Ttcg.obj (.text:_ZNK9Pa_blocks4Ttcg21get_current_route_msgEv)
                  000a7767    00000038     base.lib : Fid.obj (.text:_ZN4Base13user_writableENS_3FidE)
                  000a779f    00000038              : Pchrono.obj (.text:_ZN4Base7Pchrono3ticEv)
                  000a77d7    00000038              : Taskmgr.obj (.text:_ZN4Base7Taskmgr4stepEv)
                  000a780f    00000038     first.lib : Vstring.obj (.text:_ZN4Base7Vstring3setEPKcmm)
                  000a7847    00000038     base.lib : Tmovdat.obj (.text:_ZN4Base8Tmodvdat10cset_asyncERNS_11Lossy_errorERKNS_9KfieldsetERj)
                  000a787f    00000038              : CANgpio_p.obj (.text:_ZN4Base9CANgpio_p6Config11compute_depEhRNS_5ErrorE)
                  000a78b7    00000038     pa_blocks.lib : Roll_maneuver.obj (.text:_ZN4Rfun23interpolation_parameterIfEET_N4Base12JSF116_paramIS1_E4typeES5_S5_)
                  000a78ef    00000038                   : Polynomial_coeffs.obj (.text:_ZN8Maverick7TmatrixIfE7matdiagERKS1_RKNS_6TarrayIfEE)
                  000a7927    00000038     maverick.lib : Nllpfcfg.obj (.text:_ZN8Maverick8Nllpfcfg4csetERN4Base5LossyE)
                  000a795f    00000038     pa_blocks.lib : Vsdk_rccp_param.obj (.text:_ZN9Pa_blocks15Vsdk_rccp_paramC1Ev)
                  000a7997    00000038                   : Mission_step.obj (.text:_ZN9Pa_blocks16Protobuf_decoder13decode_varintImEEbRT_)
                  000a79cf    00000038                   : Battery_summary.obj (.text:_ZN9Pa_blocks26Battery_pack_health_alerts4csetERN4Base5LossyE)
                  000a7a07    00000038                   : Recovery_wrapper_control_system_object.obj (.text:_ZN9Pa_blocks38Recovery_wrapper_control_system_object32check_pre_flight_switchover_testEf)
                  000a7a3f    00000038                   : Ttcg.obj (.text:_ZN9Pa_blocks4Ttcg33reset_inbound_transition_maneuverEv)
                  000a7a77    00000038                   : Ttcg.obj (.text:_ZN9Pa_blocks4Ttcg5ParamC1Ev)
                  000a7aaf    00000037     veronte.lib : Tunsuite_pa.obj (.text:_ZN4Base7XrtableILm12ELm3EE4csetERNS_11Lossy_errorE)
                  000a7ae6    00000037                 : Tunsuite_pa.obj (.text:_ZN4Base7XrtableILm2ELm3EE4csetERNS_11Lossy_errorE)
                  000a7b1d    00000037                 : Hxcfield_cpu2.obj (.text:_ZN4Base9Tuntraits15Arraytun_nosizeINS0_8TupletunINS0_7Lossy16IjEENS0_15Arraytun_size16INS0_9Cset_onlyINS_8Fmsg_cfgEEENS_11TnarrayreszIS7_Lm32EEENS0_8No_checkISA_EEEEEENS9_INS_5TupleIjSA_EELm2EEENSB_ISH_EEE8str2elemERSH_RNS_11Lossy_errorE)
                  000a7b54    00000037                 : Hxcfield_cpu2.obj (.text:_ZN4Base9Tuntraits15Arraytun_nosizeINS0_8TupletunINS0_7Lossy16IjEENS0_15Arraytun_size16INS0_9Cset_onlyINS_8Fmsg_cfgEEENS_11TnarrayreszIS7_Lm32EEENS0_8No_checkISA_EEEEEENS9_INS_5TupleIjSA_EELm3EEENSB_ISH_EEE8str2elemERSH_RNS_11Lossy_errorE)
                  000a7b8b    00000037     DSP2838x_ent.lib : CAN_FD_cfg.obj (.text:_ZN4Base9Tuntraits6ResizeINS0_7Lossy16IjEENS_11TnarrayreszIN12Dsp28335_ent6CANcfg5RxcfgELm32EEEE8str2elemERS8_RNS_11Lossy_errorE)
                  000a7bc2    00000037     veronte.lib : Tunsuite_pa.obj (.text:_ZN4Base9Tuntraits6ResizeINS0_7Lossy16IjEENS_11TnarrayreszIN6Stanag11Stanag_port8Port_cfgELm6EEEE8str2elemERS8_RNS_11Lossy_errorE)
                  000a7bf9    00000037                 : Tunsuite_pa.obj (.text:_ZN4Base9Tuntraits6ResizeINS0_7Lossy16IjEENS_11TnarrayreszIN6Stanag15Stanag_msg_cfgs9Cfg_entryELm20EEEE8str2elemERS8_RNS_11Lossy_errorE)
                  000a7c30    00000037     stanag.lib : Fstgcfg.obj (.text:_ZN4Base9Tuntraits6ResizeINS0_7Lossy16IjEENS_11TnarrayreszIN6Stanag7Fstgcfg5EntryELm5EEEE8str2elemERS8_RNS_11Lossy_errorE)
                  000a7c67    00000037     veronte.lib : Hxcfield_cpu2.obj (.text:_ZN4Base9Tuntraits6ResizeINS0_7Lossy16IjEENS_11TnarrayreszIN6Stanag7FstgcfgELm40EEEE8str2elemERS7_RNS_11Lossy_errorE)
                  000a7c9e    00000037                 : Tunsuite_pa.obj (.text:_ZN4Base9Tuntraits6ResizeINS0_7Lossy16IjEENS_11TnarrayreszIN7Devices8TPS9266410Config_regELm40EEEE8str2elemERS8_RNS_11Lossy_errorE)
                  000a7cd5    00000037                 : Tunsuite_pa.obj (.text:_ZN4Base9Tuntraits6ResizeINS0_7Lossy16IjEENS_11TnarrayreszIN7Devices8TPS926649Led_stateELm13EEEE8str2elemERS8_RNS_11Lossy_errorE)
                  000a7d0c    00000037                 : Tunsuite_pa.obj (.text:_ZN4Base9Tuntraits6ResizeINS0_7Lossy16IjEENS_11TnarrayreszIN8Midlevel10Lights_cfg16Indication_stateELm10EEEE8str2elemERS8_RNS_11Lossy_errorE)
                  000a7d43    00000037                 : Tunsuite_pa.obj (.text:_ZN4Base9Tuntraits6ResizeINS0_7Lossy16IjEENS_11TnarrayreszIN8Midlevel10Lights_cfg19Indication_sequenceELm11EEEE8str2elemERS8_RNS_11Lossy_errorE)
                  000a7d7a    00000037     pa_blocks.lib : DComms_cfg.obj (.text:_ZN4Base9Tuntraits6ResizeINS0_7Lossy16IjEENS_11TnarrayreszIN9Pa_blocks10DComms_cfg10Freq_entryELm64EEEE8str2elemERS8_RNS_11Lossy_errorE)
                  000a7db1    00000037                   : DComms_cfg.obj (.text:_ZN4Base9Tuntraits6ResizeINS0_7Lossy16IjEENS_11TnarrayreszIN9Pa_blocks10DComms_cfg7Reg_cfgELm30EEEE8str2elemERS8_RNS_11Lossy_errorE)
                  000a7de8    00000037     veronte.lib : Tunsuite_pa.obj (.text:_ZN4Base9Tuntraits6ResizeINS0_7Lossy16IjEENS_11TnarrayreszINS_18Routing_table_dataILj2ELj16EE5TableELm2EEEE8str2elemERS8_RNS_11Lossy_errorE)
                  000a7e1f    00000037                 : Tunsuite_pa.obj (.text:_ZN4Base9Tuntraits6ResizeINS0_7Lossy16IjEENS_11TnarrayreszINS_19Routing_table_entryELm16EEEE8str2elemERS6_RNS_11Lossy_errorE)
                  000a7e56    00000037                 : Tunsuite_pa.obj (.text:_ZN4Base9Tuntraits6ResizeINS0_7Lossy16IjEENS_11TnarrayreszINS_4BvarELm20EEEE8str2elemERS6_RNS_11Lossy_errorE)
                  000a7e8d    00000037                 : Hxcfield_cpu2.obj (.text:_ZN4Base9Tuntraits6ResizeINS0_7Lossy16IjEENS_11TnarrayreszINS_5FieldELm128EEEE8str2elemERS6_RNS_11Lossy_errorE)
                  000a7ec4    00000037                 : Tunsuite_pa.obj (.text:_ZN4Base9Tuntraits6ResizeINS0_7Lossy16IjEENS_11TnarrayreszINS_5TupleIN6Stanag14Subsystem_data8Key_dataENS_4UvarEEELm64EEEE8str2elemERSB_RNS_11Lossy_errorE)
                  000a7efb    00000037                 : Hxcfield_cpu2.obj (.text:_ZN4Base9Tuntraits6ResizeINS0_7Lossy16IjEENS_11TnarrayreszINS_5TupleIjNS4_INS_8Fmsg_cfgELm32EEEEELm2EEEE8str2elemERS9_RNS_11Lossy_errorE)
                  000a7f32    00000037                 : Hxcfield_cpu2.obj (.text:_ZN4Base9Tuntraits6ResizeINS0_7Lossy16IjEENS_11TnarrayreszINS_5TupleIjNS4_INS_8Fmsg_cfgELm32EEEEELm3EEEE8str2elemERS9_RNS_11Lossy_errorE)
                  000a7f69    00000037                 : Hxcfield_cpu2.obj (.text:_ZN4Base9Tuntraits6ResizeINS0_7Lossy16IjEENS_11TnarrayreszINS_6PFieldELm128EEEE8str2elemERS6_RNS_11Lossy_errorE)
                  000a7fa0    00000037                 : Tunsuite_pa.obj (.text:_ZN4Base9Tuntraits6ResizeINS0_7Lossy16IjEENS_11TnarrayreszINS_7CANin_p6ConfigELm6EEEE8str2elemERS7_RNS_11Lossy_errorE)
                  000a7fd7    00000037                 : Tunsuite_pa.obj (.text:_ZN4Base9Tuntraits6ResizeINS0_7Lossy16IjEENS_11TnarrayreszINS_7Xpcmap0ELm19EEEE8str2elemERS6_RNS_11Lossy_errorE)
                  000a800e    00000037                 : Tunsuite_pa.obj (.text:_ZN4Base9Tuntraits6ResizeINS0_7Lossy16IjEENS_11TnarrayreszINS_7Xpcmap0ELm45EEEE8str2elemERS6_RNS_11Lossy_errorE)
                  000a8045    00000037                 : Tunsuite_pa.obj (.text:_ZN4Base9Tuntraits6ResizeINS0_7Lossy16IjEENS_11TnarrayreszINS_8CANout_c6ConfigELm6EEEE8str2elemERS7_RNS_11Lossy_errorE)
                  000a807c    00000037                 : Hxcfield_cpu2.obj (.text:_ZN4Base9Tuntraits6ResizeINS0_7Lossy16IjEENS_11TnarrayreszINS_8Fmsg_cfgELm32EEEE8str2elemERS6_RNS_11Lossy_errorE)
                  000a80b3    00000037                 : Tunsuite_pa.obj (.text:_ZN4Base9Tuntraits6ResizeINS0_7Lossy16IjEENS_11TnarrayreszINS_9CANgpio_p6ConfigELm2EEEE8str2elemERS7_RNS_11Lossy_errorE)
                  000a80ea    00000037                 : Tunsuite_pa.obj (.text:_ZN4Base9Tuntraits6ResizeINS0_7Lossy16IjEENS_11TnarrayreszINS_9SerialCAN6ConfigELm6EEEE8str2elemERS7_RNS_11Lossy_errorE)
                  000a8121    00000037     pa_blocks.lib : DComms_cfg.obj (.text:_ZN4Base9Tuntraits6ResizeINS0_7Lossy16IjEENS_11TnarrayreszIcLm17EEEE8str2elemERS5_RNS_11Lossy_errorE)
                  000a8158    00000037     veronte.lib : Tunsuite_pa.obj (.text:_ZN4Base9Tuntraits6ResizeINS0_7Lossy16IjEENS_11TnarrayreszIhLm20EEEE8str2elemERS5_RNS_11Lossy_errorE)
                  000a818f    00000037     base.lib : Evactcfg.obj (.text:_ZN4Base9Tuntraits6ResizeINS0_7Lossy16IjEENS_11TnarrayreszIjLm128EEEE8str2elemERS5_RNS_11Lossy_errorE)
                  000a81c6    00000037              : Action.obj (.text:_ZN4Base9Tuntraits6ResizeINS0_7Lossy16IjEENS_11TnarrayreszIjLm200EEEE8str2elemERS5_RNS_11Lossy_errorE)
                  000a81fd    00000037     veronte.lib : Tunsuite_pa.obj (.text:_ZN4Base9Tuntraits6ResizeINS0_7Lossy16IjEENS_11TnarrayreszIjLm32EEEE8str2elemERS5_RNS_11Lossy_errorE)
                  000a8234    00000037     base.lib : Evactcfg.obj (.text:_ZN4Base9Tuntraits6ResizeINS0_7Lossy16IjEENS_11TnarrayreszIjLm8EEEE8str2elemERS5_RNS_11Lossy_errorE)
                  000a826b    00000037              : Xcfilecli.obj (.text:_ZN4Base9Xcfilecli11close_asyncEv)
                  000a82a2    00000037     pa_blocks.lib : Cqp.obj (.text:_ZN8Maverick15rmatrix_matTmatIeEEvRKNS_7TmatrixIT_EES5_RS3_)
                  000a82d9    00000037                   : Vsdk_params.obj (.text:_ZN9Pa_blocks19Vsdk_logging_paramsC1Ev)
                  000a8310    00000037     midlevel.lib : Cy_msg_id_gen.obj (.text:_ZNK6Cyphal13Cy_msg_id_gen4cgetERN4Base9U8ostreamE)
                  000a8347    00000037     pa_blocks.lib : Mission_plan.obj (.text:_ZNK9Pa_blocks12Mission_plan18get_lla_ned_originERN4Base4TllhE)
                  000a837e    00000037                   : State_machines.obj (.text:_ZNK9Pa_blocks14State_machines57eval_land_time_spent_in_slow_down_to_hover_state_exceededEv)
                  000a83b5    00000037                   : Cy_maint_action.obj (.text:_ZThn4_N9Pa_blocks15Cy_maint_action16get_cyphal_flagsEv)
                  000a83ec    00000036     base.lib : Tllhcompressed.obj (.text:_ZN4Base14Tllhcompressed4csetERNS_11Lossy_errorE)
                  000a8422    00000036     media.lib : PDI_loader.obj (.text:_ZN5Media10PDI_loader4loadERNS_6CfgmgrEN4Base6LoadstEb)
                  000a8458    00000036               : Cfgmgr.obj (.text:_ZN5Media6Cfgmgr7add_cmdEN4Base3Cfg2IdERNS1_14Itunable_asyncE)
                  000a848e    00000036     pa_blocks.lib : Model_dynamic.obj (.text:_ZN8Maverick16Qr_factorizationIfE5solveERKNS_7TvectorIfEERS3_)
                  000a84c4    00000036     maverick.lib : Irquat.obj (.text:_ZN8Maverick6Irquat6invertEv)
                  000a84fa    00000036     pa_blocks.lib : Tp_utilities.obj (.text:_ZN9Pa_blocks12Tp_utilities29verify_straight_waypoint_vertERKfS2_S2_)
                  000a8530    00000036                   : Control_builder.obj (.text:_ZN9Pa_blocks15Control_builderC1ERNS_17Mission_plan_dataERN4Base6MblockIjEERN8Midlevel5Irxfw6ParserE)
                  000a8566    00000036                   : Controllers_object.obj (.text:_ZN9Pa_blocks18Controllers_object12Mixer_return9TelemetryC1Ev)
                  000a859c    00000036                   : Vsdk_navigation_params.obj (.text:_ZN9Pa_blocks22Vsdk_navigation_paramsC1Ev)
                  000a85d2    00000036                   : Recovery_mission_data_processor.obj (.text:_ZN9Pa_blocks31Recovery_mission_data_processor6Output5resetEv)
                  000a8608    00000036                   : Sep.obj (.text:_ZN9Pa_blocks3Sep9TelemetryC1Ev)
                  000a863e    00000035     veronte.lib : Pa_node_ids.obj (.text:_ZN3Ver7Fastbus11get_node_idEv)
                  000a8673    00000035     base.lib : Tllcs.obj (.text:_ZN4Base5Tllcs7computeERKNS_6LonlatE)
                  000a86a8    00000035     vpgnc.lib : Opranges.obj (.text:_ZN4Base8TunarrayIN5Vpgnc8Opranges3RngELb0EEC1IS3_Lj40EEERNS_8ArraymskIT_XT0_EEE)
                  000a86dd    00000035     base.lib : Fsniffer.obj (.text:_ZN4Base8TunarrayINS_10Vmap_entryELb0EEC1IS1_Lj150EEERNS_8ArraymskIT_XT0_EEE)
                  000a8712    00000035     veronte.lib : Hevact_cpu2.obj (.text:_ZN4Base8TunarrayINS_6ActionELb0EEC1IS1_Lj120EEERNS_8ArraymskIT_XT0_EEE)
                  000a8747    00000035                 : Hevact_cpu2.obj (.text:_ZN4Base8TunarrayINS_9Evactcfg0ELb0EEC1IS1_Lj100EEERNS_8ArraymskIT_XT0_EEE)
                  000a877c    00000035     first.lib : U8ostream.obj (.text:_ZN4Base9U8ostream13put_uint64_beEyj)
                  000a87b1    00000035     media.lib : Cfgmgr.obj (.text:_ZN5Media6Cfgmgr9start_setEN4Base3Cfg2IdENS1_7AddressE)
                  000a87e6    00000035     pa_blocks.lib : Mixer_allocator.obj (.text:_ZN8Maverick7TvectorIeE6matvecIeeEEvRKNS_7TmatrixIT_EEPKT0_)
                  000a881b    00000035                   : Mission_plan.obj (.text:_ZN9Pa_blocks12Mission_planC1Ev)
                  000a8850    00000035                   : State_machines.obj (.text:_ZN9Pa_blocks14State_machines46eval_track_spline_position_error_within_limitsEv)
                  000a8885    00000035                   : Gnc_model_dynamic.obj (.text:_ZN9Pa_blocks17Gnc_model_dynamicC1ERN4Base9AllocatorENS1_6MblockIjEERKNS_24State_space_model_paramsE)
                  000a88ba    00000035     veronte.lib : Vfspermission.obj (.text:_ZNK3Ver13Vfspermission15is_cset_allowedEN4Base3Cfg2IdE)
                  000a88ef    00000035     base.lib : Message_received_hnd.obj (.text:_ZNK4Base20Message_received_hnd9step_privERKNS_11TnarrayreszIjLm32EEERjRKNS0_6Parser11Event_queueE)
                  000a8924    00000035     pa_blocks.lib : DComms_cfg.obj (.text:_ZNK9Pa_blocks10DComms_cfg7Dynamic4cgetERN4Base5LossyE)
                  000a8959    00000035     base.lib : Stickrawtrans.obj (.text:__sti___17_Stickrawtrans_cpp_75c19331)
                  000a898e    00000034     DSP2837x_ent.lib : Pwmdev.obj (.text:_ZN12Dsp28335_ent6PwmdevC1ENS0_5PWMidE)
                  000a89c2    00000034     DSP28x.lib : Stackchk.obj (.text:_ZN12Dsp28335_ent8Stackchk5checkEv)
                  000a89f6    00000034     first.lib : Uvar.obj (.text:_ZN4Base13user_writableENS_4UvarE)
                  000a8a2a    00000034     base.lib : Field_real_dec_ASCII.obj (.text:_ZN4Base20Field_real_dec_ASCII4csetERNS_11Lossy_errorE)
                  000a8a5e    00000034     vpgnc.lib : Rvar_op_commit.obj (.text:_ZN4Base8TunarrayINS_8TwraptunINS_9Tuntraits11Lossy_floatEfEELb1EEC1IS4_Lj40EEERNS_8ArraymskIT_XT0_EEE)
                  000a8a92    00000034               : CAN_cfg_maint_astro.obj (.text:_ZN5Vpgnc47_GLOBAL__N__23_CAN_cfg_maint_astro_cpp_2770a0d014set_can_in_cfgERN4Base7CANin_p6ConfigEmjjm)
                  000a8ac6    00000034     stanag.lib : Stanag_msg_cfgs.obj (.text:_ZN6Stanag15Stanag_msg_cfgs9Cfg_entry4csetERN4Base11Lossy_errorE)
                  000a8afa    00000034     maverick.lib : Rvector.obj (.text:_ZN8Maverick7RvectorC1EN4Base6MblockIfEE)
                  000a8b2e    00000034     pa_blocks.lib : Cqp.obj (.text:_ZN8Maverick7TmatrixIeE9transposeEv)
                  000a8b62    00000034     maverick.lib : Dotfpu.obj (.text:_ZN8Maverick7dot_fpuEPKfS1_j)
                  000a8b96    00000034     pa_blocks.lib : Maneuver_msg.obj (.text:_ZN9Pa_blocks12Maneuver_msg11set_invalidEv)
                  000a8bca    00000034                   : Gnc_model_gain.obj (.text:_ZN9Pa_blocks14Gnc_model_gainC1ERN4Base9AllocatorENS1_6MblockIjEERKNS_24State_space_model_paramsE)
                  000a8bfe    00000034                   : Mission_plan_msg.obj (.text:_ZN9Pa_blocks16Protobuf_decoder13decode_varintIjEEbRT_)
                  000a8c32    00000034                   : Motor_performance.obj (.text:_ZN9Pa_blocks17Esc_health_alerts4csetERN4Base5LossyE)
                  000a8c66    00000034                   : Afc.obj (.text:_ZN9Pa_blocks3Afc9Telemetry5resetEv)
                  000a8c9a    00000034     maverick.lib : Irquat.obj (.text:_ZNK8Maverick6Irquat6norm22Ev)
                  000a8cce    00000034     pa_blocks.lib : Mission_plan.obj (.text:_ZNK9Pa_blocks12Mission_plan28alternate_plan_index_from_idEm)
                  000a8d02    00000034                   : Ttcg.obj (.text:_ZNK9Pa_blocks4Ttcg22is_specification_validEv)
                  000a8d36    00000033     base.lib : Message_received_hnd.obj (.text:_ZN4Base20Message_received_hnd6ParserC1Ev)
                  000a8d69    00000033              : Ftelemetryod.obj (.text:_ZN4Base6Tuncrc7computeINS_5FieldEEEmRKT_)
                  000a8d9c    00000033     veronte.lib : Hvar_cpu2.obj (.text:_ZN4Base8Hbmapvar3setERKNS0_4TypeE)
                  000a8dcf    00000033                 : Tunsuite_pa.obj (.text:_ZN4Base8TunarrayINS_13Channelmgrcfg6ChncfgELb0EEC1IS2_Lj4EEERNS_8ArraymskIT_XT0_EEE)
                  000a8e02    00000033                 : Tunsuite_pa.obj (.text:_ZN4Base8TunarrayINS_13Channelmgrcfg6ChnselELb0EEC1IS2_Lj12EEERNS_8ArraymskIT_XT0_EEE)
                  000a8e35    00000033     base.lib : Sticktypes.obj (.text:_ZN4Base8TunarrayINS_8StickoutELb0EEC1IS1_Lj2EEERNS_8ArraymskIT_XT0_EEE)
                  000a8e68    00000033     vpgnc.lib : Vpu.obj (.text:_ZN4Base9FieldsvecINS_6TmvdatELj0EE8sub_vdatEjS1_)
                  000a8e9b    00000033     media.lib : Cfgmgr.obj (.text:_ZN5Media6Cfgmgr14start_load_crcEN4Base3Cfg2IdENS1_7AddressE)
                  000a8ece    00000033     devices.lib : Ubxcfgrate.obj (.text:_ZN7Devices3Ubx10Ubxcfgrate4csetERN4Base11Lossy_errorE)
                  000a8f01    00000033     maverick.lib : Irquat.obj (.text:_ZN8Maverick6Irquat8quat_addERKS0_)
                  000a8f34    00000033     pa_blocks.lib : Mixer_allocator.obj (.text:_ZN8Maverick7TvectorIeE6matvecIfeEEvRKNS_7TmatrixIT_EEPKT0_)
                  000a8f67    00000033                   : DComms_cfg.obj (.text:_ZN9Pa_blocks10DComms_cfg11Reg_str_cfg4csetERN4Base11Lossy_errorE)
                  000a8f9a    00000033                   : Actuator_allocator_object.obj (.text:_ZN9Pa_blocks12Command_fifoINS_15Mixer_telemetryELj1EE12emplace_backEv)
                  000a8fcd    00000033                   : Protobuf_decoder.obj (.text:_ZN9Pa_blocks16Protobuf_decoder19skip_unknown_fieldsEyy)
                  000a9000    00000033                   : MonRec_controller_command.obj (.text:_ZN9Pa_blocks25MonRec_controller_command4csetERN4Base5LossyE)
                  000a9033    00000033                   : Recovery_mission_phase_of_flight.obj (.text:_ZN9Pa_blocks32Recovery_mission_phase_of_flight5Param4csetERN4Base11Lossy_errorE)
                  000a9066    00000033                   : Ttcg.obj (.text:_ZN9Pa_blocks4Ttcg27initialize_after_switchoverERKNS_26Controllers_state_estimateE)
                  000a9099    00000033     first.lib : Endian16_little.obj (.text:_ZNK4Base15Endian16_little10get_uint16ERjPKjRmi)
                  000a90cc    00000032     media.lib : Cfgmgr.obj (.text:_ZN4Base12Data_mutatorINS_11Lossy_error15Mutator_traits8ENS_9U8istream12Data_traits8EED1Ev)
                  000a90fe    00000032     base.lib : Feature.obj (.text:_ZN4Base12Data_mutatorINS_11Lossy_error16Mutator_traits16ENS_17U16stream_r_error13Data_traits16EED1Ev)
                  000a9130    00000032     vpgnc.lib : Evtmgr.obj (.text:_ZN4Base12Data_mutatorINS_5Lossy15Mutator_traits8IS1_EENS_9U8istream12Data_traits8EED1Ev)
                  000a9162    00000032     pa_blocks.lib : Motor_rpm_cmd.obj (.text:_ZN4Base12Data_mutatorINS_5Lossy15Mutator_traits8IS1_EENS_9U8ostream12Data_traits8IS4_EEEC1ERS4_)
                  000a9194    00000032     base.lib : Field.obj (.text:_ZN4Base5Field14check_overflowEmj)
                  000a91c6    00000032     first.lib : Lossy.obj (.text:_ZN4Base5Lossy9put_ubitsERKyj)
                  000a91f8    00000032     base.lib : Tmvdat.obj (.text:_ZN4Base6Tmvdat4csetERNS_11Lossy_errorERKNS_9KfieldsetE)
                  000a922a    00000032     pa_blocks.lib : Maneuver_coordinate.obj (.text:_ZN4Rfun13near_eq_norm2IN4Base7TnarrayIfLm4EEES3_fEEbRKT_RKT0_T1_)
                  000a925c    00000032     media.lib : Cfgmgr.obj (.text:_ZN5Media6Cfgmgr5on_txERN6Stanag14IStanag_msg_tx9Tx_paramsE)
                  000a928e    00000032     vpgnc.lib : Evtmgr.obj (.text:_ZN5Vpgnc6Evtmgr5on_txERN6Stanag14IStanag_msg_tx9Tx_paramsE)
                  000a92c0    00000032     base.lib : Cyphal.obj (.text:_ZN6Cyphal8CyCAN_id9build_msgEhjh)
                  000a92f2    00000032     pa_blocks.lib : Cqp.obj (.text:_ZN8Maverick7TmatrixIeE3eyeEv)
                  000a9324    00000032                   : Pa_scheduler.obj (.text:_ZN8Maverick7TvectorIfE10matvec_addERKNS_7TmatrixIfEEPKf)
                  000a9356    00000032                   : Mixer_allocator.obj (.text:_ZN8Maverick7TvectorIfE6matvecIfeEEvRKNS_7TmatrixIT_EEPKT0_)
                  000a9388    00000032     maverick.lib : Irmatrix3.obj (.text:_ZN8Maverick9Irmatrix33eyeEf)
                  000a93ba    00000032     pa_blocks.lib : Site_config.obj (.text:_ZN9Pa_blocks11Site_config6Config4csetERN4Base11Lossy_errorE)
                  000a93ec    00000032                   : Rwcso_input_manager.obj (.text:_ZN9Pa_blocks12Command_fifoINS_15Battery_summaryELj1EE12emplace_backEv)
                  000a941e    00000032                   : Rwcso_input_manager.obj (.text:_ZN9Pa_blocks12Command_fifoINS_21Mission_reset_commandELj1EE12emplace_backEv)
                  000a9450    00000032                   : Recovery_wrapper_control_system_object.obj (.text:_ZN9Pa_blocks12Command_fifoINS_24Onground_controller_infoELj1EE12emplace_backEv)
                  000a9482    00000032                   : Model_dynamic.obj (.text:_ZN9Pa_blocks13Model_dynamic39perform_state_reset_to_specified_outputERKN8Maverick7RvectorE)
                  000a94b4    00000032                   : Roll_maneuver.obj (.text:_ZN9Pa_blocks13Roll_maneuver7invalidERNS_12Maneuver_msgE)
                  000a94e6    00000032                   : Takeoff_state.obj (.text:_ZN9Pa_blocks13Takeoff_state5resetEv)
                  000a9518    00000032                   : Flight_dynamics.obj (.text:_ZN9Pa_blocks15Flight_dynamics41equivalent_airspeed_from_dynamic_pressureEf)
                  000a954a    00000032                   : Controllers_param_mk30.obj (.text:_ZN9Pa_blocks21Saturation_parameters47set_saturation_limits_interpolation_breakpointsILm1EEEvRKN4Base7TnarrayIfXT_EEE)
                  000a957c    00000032                   : Sep.obj (.text:_ZN9Pa_blocks3Sep36get_estimated_wind_relative_velocityERKNS0_5InputERKN8Maverick9Irvector3ES7_RS5_)
                  000a95ae    00000032                   : Atcg.obj (.text:_ZN9Pa_blocks4Atcg9Telemetry5resetEv)
                  000a95e0    00000032     base.lib : Field_cfg.obj (.text:_ZNK4Base9Field_cfg8Checksum26bits_required_for_encodingEh)
                  000a9612    00000032     pa_blocks.lib : Track_spline_manager.obj (.text:_ZNK9Pa_blocks20Track_spline_manager22wind_threshold_monitorERKN8Maverick9Irvector3ERNS_21Wind_threshold_status14Wind_thresholdE)
                  000a9644    00000032                   : Forces_and_torques_request.obj (.text:_ZNK9Pa_blocks26Forces_and_torques_request9Telemetry4cgetERN4Base5LossyE)
                  000a9676    00000032                   : Ttcg.obj (.text:_ZNK9Pa_blocks4Ttcg22current_lla_ned_originERN4Base4TllhE)
                  000a96a8    00000031     geomodel.lib : Gellipsoid.obj (.text:_ZN3Geo10ecoradius2EfRfS0_)
                  000a96d9    00000031     vpgnc.lib : Vpu.obj (.text:_ZN4Base18Routing_table_dataILj2ELj16EE11set_defaultEv)
                  000a970a    00000031     base.lib : Message_received_hnd.obj (.text:_ZN4Base20Message_received_hnd6Parser6appendEjj)
                  000a973b    00000031              : Stepmgr.obj (.text:_ZN4Base7StepmgrC1Ev)
                  000a976c    00000031     veronte.lib : Tunsuite_pa.obj (.text:_ZN4Base8TwrapdesINS_9Tuntraits9Wsync_desINS_6TdsyncINS_13ChannelmgrcfgENS_12Tdsynctraits11Rd_blockingIS4_NS_8Cptraits6PodrawIVS4_EEEENS5_15Disabled_structEEENS1_10DesdefaultIS4_EEEERSD_E4csetERNS_11Lossy_errorE)
                  000a979d    00000031     base.lib : Fmsetvdat.obj (.text:_ZN4Base9Fmsetvdat4csetERNS_11Lossy_errorERKNS_9KfieldsetE)
                  000a97ce    00000031     vpgnc.lib : Event.obj (.text:_ZN5Vpgnc5Event15step_kbit_allokEb)
                  000a97ff    00000031     veronte.lib : Tunsuite_pa.obj (.text:_ZN8Midlevel10Lights_cfg4csetERN4Base11Lossy_errorE)
                  000a9830    00000031     midlevel.lib : Sys_status_mgr.obj (.text:_ZN8Midlevel14Sys_status_mgr5on_rxERN6Stanag14IStanag_msg_rx9Rx_paramsE)
                  000a9861    00000031     pa_blocks.lib : Controllers_object.obj (.text:_ZN9Pa_blocks12Command_fifoINS_21Mission_reset_commandELj1EE12emplace_backERKS1_)
                  000a9892    00000031                   : Controllers_param_mk30.obj (.text:_ZN9Pa_blocks22Controllers_param_mk3012get_instanceEv)
                  000a98c3    00000031                   : Forces_and_torques_request.obj (.text:_ZN9Pa_blocks26Forces_and_torques_requestC1Ev)
                  000a98f4    00000031                   : Atcg.obj (.text:_ZN9Pa_blocks4AtcgC1ERN4Base9AllocatorENS1_6MblockIjEERKNS_24Common_controller_paramsERKNS0_10Vsdk_paramERKNS0_6Param_ERNS0_9TelemetryE)
                  000a9925    00000031     vblocks.lib : Multi_interpolator.obj (.text:_ZNK7Vblocks18Multi_interpolator10get_cornerEj)
                  000a9956    00000031     pa_blocks.lib : Recovery_controls_command_processor.obj (.text:_ZNK9Pa_blocks35Recovery_controls_command_processor26Pre_flight_check_telemetry4cgetERN4Base5LossyE)
                  000a9987    00000031                   : Aacg.obj (.text:_ZNK9Pa_blocks4Aacg9Telemetry4cgetERN4Base5LossyE)
                  000a99b8    00000030     crypto_c28.lib : sha256.obj (.text:SHA256_finalizeWordWiseSwapped)
                  000a99e8    00000030     DSP2837x_ent.lib : Pwmdev.obj (.text:_ZN12Dsp28335_ent6Pwmdev6Config4csetERN4Base11Lossy_errorE)
                  000a9a18    00000030     veronte.lib : Xcrdsuite.obj (.text:_ZN4Base6XcmvarINS_4RvarENS_9Tuntraits12U16str_floatEE6Parser5parseERNS_17U16stream_r_errorE)
                  000a9a48    00000030                 : Tunsuite_pa.obj (.text:_ZN4Base9Tuntraits15Arraytun_nosizeINS0_10DesdefaultINS_8CANout_c6ConfigEEENS_11TnarrayreszIS4_Lm6EEENS0_8No_checkIS7_EEE8str2elemERS7_RNS_11Lossy_errorE)
                  000a9a78    00000030     vpgnc.lib : Event.obj (.text:_ZN5Vpgnc5Event10step_timerERKN4Base7UclkmgrE)
                  000a9aa8    00000030     midlevel.lib : CyphalStanag_rx_hnd.obj (.text:_ZN6Cyphal19CyphalStanag_rx_hnd9on_rx_pktERN6Stanag14IStanag_rx_pkt6ParamsE)
                  000a9ad8    00000030     pa_blocks.lib : Cqp.obj (.text:_ZN8Maverick7TmatrixIeE13remove_columnEj)
                  000a9b08    00000030                   : Model_dynamic.obj (.text:_ZN8Maverick7TmatrixIfE3eyeEv)
                  000a9b38    00000030     maverick.lib : Irquat.obj (.text:_ZN8Maverick8Ivector3IfE10norm2alizeEv)
                  000a9b68    00000030     pa_blocks.lib : Polynomial.obj (.text:_ZN9Pa_blocks10Polynomial23derivative_coefficientsERKNS_17Polynomial_coeffsERS1_)
                  000a9b98    00000030                   : Recovery_wrapper_control_system_object.obj (.text:_ZN9Pa_blocks12Command_fifoIPNS_17Mission_plan_dataELj1EE12emplace_backERKS2_)
                  000a9bc8    00000030                   : Gnc_rotation.obj (.text:_ZN9Pa_blocks12Gnc_rotationC1ERKN4Base7TnarrayIfLm9EEE)
                  000a9bf8    00000030                   : Flight_dynamics.obj (.text:_ZN9Pa_blocks15Flight_dynamics38true_airspeed_from_equivalent_airspeedEff)
                  000a9c28    00000030                   : Pa_irquat.obj (.text:_ZN9Pa_blocks9Pa_irquat14quat_mult_rectERKN8Maverick6IrquatES4_RS2_)
                  000a9c58    00000030     base.lib : Tllhcompressed.obj (.text:_ZNK4Base14Tllhcompressed3getERNS_4TllhE)
                  000a9c88    00000030     pa_blocks.lib : Turn_maneuver.obj (.text:_ZNK9Pa_blocks13Turn_maneuver12delta_courseEv)
                  000a9cb8    00000030                   : Gnc_transformation.obj (.text:_ZNK9Pa_blocks18Gnc_transformation15transform_twistERKN8Maverick9Irvector3ES4_RS2_S5_)
                  000a9ce8    00000030                   : Maneuver_coordinate.obj (.text:_ZNK9Pa_blocks19Maneuver_coordinate18evaluate_x_at_timeEf)
                  000a9d18    00000030                   : Recovery_route_constructor.obj (.text:_ZNK9Pa_blocks26Recovery_route_constructor31get_rhcp_branch_off_maneuver_idERKmRm)
                  000a9d48    00000030                   : Route_msg.obj (.text:_ZNK9Pa_blocks9Route_msg34get_maneuver_index_from_route_timeEf)
                  000a9d78    00000030     rts2800_fpu64_eabi.lib : cpy_tbl.c.obj (.text)
                  000a9da8    0000002f     DSP2837x_ent.lib : Pwmdev.obj (.text:_ZN12Dsp28335_ent6Pwmdev3setEf)
                  000a9dd7    0000002f     base.lib : Fsniffer.obj (.text:_ZN4Base10Vmap_entry4csetERNS_11Lossy_errorE)
                  000a9e06    0000002f              : Xcmqrd.obj (.text:_ZN4Base6Xcmqrd4stepEf)
                  000a9e35    0000002f              : Feature.obj (.text:_ZN4Base7Feature4csetERNS_11Lossy_errorE)
                  000a9e64    0000002f              : Fieldset.obj (.text:_ZN4Base8Fieldset17cset_nosize_asyncERNS_11Lossy_errorEjRj)
                  000a9e93    0000002f     vpgnc.lib : Vlimits.obj (.text:_ZN4Base9Allocator18allocate_new_arrayINS_5LimitEEEPT_m)
                  000a9ec2    0000002f     first.lib : Atunarray.obj (.text:_ZN4Base9Atunarray12cset_elementERNS_11Lossy_errorE)
                  000a9ef1    0000002f     veronte.lib : Tunsuite_pa.obj (.text:_ZN4Base9Tuntraits15Arraytun_nosizeINS0_10TundefaultIN7Devices8TPS926649Led_stateEEENS_11TnarrayreszIS5_Lm13EEENS0_8No_checkIS8_EEE8str2elemERS8_RNS_11Lossy_errorE)
                  000a9f20    0000002f     vpgnc.lib : Evt_wp_groups.obj (.text:_ZN5Vpgnc13Evt_wp_groupsC1Ev)
                  000a9f4f    0000002f               : Evtmgr.obj (.text:_ZN5Vpgnc6Evtmgr18build_cmd_uclk_tunEv)
                  000a9f7e    0000002f     pa_blocks.lib : Cy_file_transfer.obj (.text:_ZN9Pa_blocks16Cy_file_transfer10File_write10check_pathERKN4Base6MblockIKhEE)
                  000a9fad    0000002f                   : Controllers_object.obj (.text:_ZN9Pa_blocks18Controllers_object27initialize_after_switchoverEv)
                  000a9fdc    0000002f                   : Cm.obj (.text:_ZN9Pa_blocks2Cm5StateC1ERNS_13Takeoff_stateE)
                  000aa00b    0000002f                   : Command_routes_and_deviations_params.obj (.text:_ZN9Pa_blocks36Command_routes_and_deviations_params31Track_spline_with_offset_params4csetERN4Base5LossyE)
                  000aa03a    0000002f                   : Controllers_object.obj (.text:_ZNK9Pa_blocks18Controllers_object12Mixer_return9Telemetry4cgetERN4Base5LossyE)
                  000aa069    0000002f                   : Controllers_object.obj (.text:_ZNK9Pa_blocks18Controllers_object26compute_is_nav_initializedERKNS0_5InputE)
                  000aa098    0000002f                   : Trajectory_planner.obj (.text:_ZNK9Pa_blocks18Trajectory_planner33process_current_route_informationERKNS_25Current_route_informationERNS_9Tp_outputERNS_11Tp_log_dataE)
                  000aa0c7    0000002e     DSP2837x_ent.lib : System_cpu2.obj (.text:_ZN12Dsp28335_ent13init_sys_cpu2Ev)
                  000aa0f5    0000002e     base.lib : Presence_vec.obj (.text:_ZN4Base12Presence_vecC1ERKS0_j)
                  000aa123    0000002e     veronte.lib : Xcrdsuite.obj (.text:_ZN4Base6XcmvarINS_8Bvar_mapENS_9Tuntraits10U16strCxetINS_8Hbmapvar4TypeEEEE6Parser5parseERNS_17U16stream_r_errorE)
                  000aa151    0000002e                 : Tunsuite_pa.obj (.text:_ZN4Base8TwrapdesINS_9Tuntraits9Wsync_desINS_6TdsyncIN6Stanag17Stanag_period_cfgENS_12Tdsynctraits11Rd_blockingIS5_NS_8Cptraits6PodrawIVS5_EEEENS6_15Disabled_structEEENS1_10DesdefaultIS5_EEEERSE_E4csetERNS_11Lossy_errorE)
                  000aa17f    0000002e     first.lib : Allocator.obj (.text:_ZN4Base9Allocator16Allocator_buffer8allocateEmm)
                  000aa1ad    0000002e     veronte.lib : Tunsuite_pa.obj (.text:_ZN4Base9Tuntraits15Arraytun_nosizeINS0_10DesdefaultIN6Stanag11Stanag_port8Port_cfgEEENS_11TnarrayreszIS5_Lm6EEENS0_8No_checkIS8_EEE8str2elemERS8_RNS_11Lossy_errorE)
                  000aa1db    0000002e     media.lib : Cfgcrcpub.obj (.text:_ZN5Media9CfgcrcpubC1ERNS_7IcfgcrcERN3Bsp5HuvarES5_S5_S5_)
                  000aa209    0000002e     base.lib : Cyphal.obj (.text:_ZN6Cyphal10Cyphal_msg7MutatorC1ERS0_)
                  000aa237    0000002e     devices.lib : Ubxcfgmsgrate.obj (.text:_ZN7Devices3Ubx13Ubxcfgmsgrate4csetERN4Base5LossyE)
                  000aa265    0000002e     midlevel.lib : Irxfw.obj (.text:_ZN8Midlevel5Irxfw6Parser10add_rx_hdlEN4Base15Stanag_msg_type8Msg_typeERN6Stanag14IStanag_rx_hdlE)
                  000aa293    0000002e                  : Irxfw.obj (.text:_ZN8Midlevel5Irxfw6Parser10add_tx_hdlEN4Base15Stanag_msg_type8Msg_typeERN6Stanag14IStanag_msg_txE)
                  000aa2c1    0000002e     pa_blocks.lib : DComms_cfg.obj (.text:_ZN9Pa_blocks10DComms_cfg7Dynamic4csetERN4Base11Lossy_errorE)
                  000aa2ef    0000002e                   : State_machines.obj (.text:_ZN9Pa_blocks14State_machines6Params12Track_spline4csetERN4Base11Lossy_errorE)
                  000aa31d    0000002e                   : Command_contingency_wrapper.obj (.text:_ZN9Pa_blocks19Command_contingencyC1Ev)
                  000aa34b    0000002e                   : Vsdk_navigation_params.obj (.text:_ZN9Pa_blocks22Vsdk_navigation_params15Onground_params4csetERN4Base11Lossy_errorE)
                  000aa379    0000002e                   : Recovery_mission_phase_of_flight.obj (.text:_ZN9Pa_blocks32Recovery_mission_phase_of_flight5ParamC1Ev)
                  000aa3a7    0000002e     base.lib : Varmgr.obj (.text:_ZNK4Base6Varmgr3getENS_3FidERNS_7FeatureE)
                  000aa3d5    0000002e     pa_blocks.lib : State_machines.obj (.text:_ZNK9Pa_blocks14State_machines9Telemetry4cgetERN4Base5LossyE)
                  000aa403    0000002e                   : Atcg.obj (.text:_ZNK9Pa_blocks4Atcg9Telemetry4cgetERN4Base5LossyE)
                  000aa431    0000002e     rts2800_fpu64_eabi.lib : copy_decompress_lzss.c.obj (.text:decompress:lzss)
                  000aa45f    0000002d     DSP2837x_ent.lib : Emif1.obj (.text:_ZN12Dsp28335_ent5Emif14lockEv)
                  000aa48c    0000002d     base.lib : Xclk.obj (.text:_ZN4Base4Xclk14on_change_typeEv)
                  000aa4b9    0000002d              : Field.obj (.text:_ZN4Base5Field11build_fieldERKNS_4Vref5EntryE)
                  000aa4e6    0000002d              : Varmgr.obj (.text:_ZN4Base6Varmgr3setENS_3FidERKNS_7FeatureE)
                  000aa513    0000002d     vpgnc.lib : Vpu.obj (.text:_ZN4Base9Allocator18allocate_new_arrayINS_8Sync_map7ElementEEEPT_m)
                  000aa540    0000002d     base.lib : CRCpreset.obj (.text:_ZN4Base9get_crc32Ev)
                  000aa56d    0000002d     media.lib : Cfgmgr.obj (.text:_ZN5Media6Cfgmgr21fload_blocking_failedEv)
                  000aa59a    0000002d               : Cfgmgr.obj (.text:_ZN5Media6Cfgmgr9step_openEv)
                  000aa5c7    0000002d     vpgnc.lib : Rvar_op_commit.obj (.text:_ZN5Vpgnc14Rvar_op_commit4stepEv)
                  000aa5f4    0000002d               : Rvar_op_commit.obj (.text:_ZN5Vpgnc14Rvar_op_commit7RoptypeC1Ev)
                  000aa621    0000002d     pa_blocks.lib : Dyn_pa_interpolator_cat_2.obj (.text:_ZN8Maverick7TvectorIfE6matvecIffEEvRKNS_7TmatrixIT_EEPKT0_)
                  000aa64e    0000002d                   : State_machines.obj (.text:_ZN9Pa_blocks14State_machines45eval_track_spline_angular_rates_within_limitsEv)
                  000aa67b    0000002d                   : Cy_maint_action.obj (.text:_ZN9Pa_blocks15Cy_maint_action16get_cyphal_flagsEv)
                  000aa6a8    0000002d                   : Controllers_object.obj (.text:_ZN9Pa_blocks18Controllers_object39transform_wrench_from_vtol_to_trim0_ncgERKN8Maverick9Irvector3ES4_RKNS1_6IrquatERS2_S8_)
                  000aa6d5    0000002d                   : Recovery_route_constructor.obj (.text:_ZN9Pa_blocks26Recovery_route_constructor5InputC1ERKNS_21Command_route_entriesERKNS_30Rhcp_maneuver_range_data_arrayERKNS_25MonRec_controller_commandE)
                  000aa702    0000002d                   : Recovery_controls_command_processor.obj (.text:_ZN9Pa_blocks35Recovery_controls_command_processor5InputC1ERKNS_17Mission_plan_dataE)
                  000aa72f    0000002d                   : Recovery_controls_command_processor.obj (.text:_ZN9Pa_blocks35Recovery_controls_command_processor6Output5resetEv)
                  000aa75c    0000002d                   : Aacg.obj (.text:_ZN9Pa_blocks4Aacg9Telemetry5resetEv)
                  000aa789    0000002d     first.lib : Endian32_big.obj (.text:_ZNK4Base12Endian32_big10get_uint32ERmPKjS1_i)
                  000aa7b6    0000002d               : Endian32_little.obj (.text:_ZNK4Base15Endian32_little10get_uint32ERmPKjS1_i)
                  000aa7e3    0000002d     pa_blocks.lib : Rotation.obj (.text:_ZNK8Maverick8Ivector3IeE3dotERKS1_)
                  000aa810    0000002c     veronte.lib : Hevact_cpu2.obj (.text:_ZN3Ver6Hevact11get_actionsEv)
                  000aa83c    0000002c                 : Hevact_cpu2.obj (.text:_ZN3Ver6Hevact9get_evactEv)
                  000aa868    0000002c                 : Hstick_cpu2.obj (.text:_ZN3Ver6Hstick15get_stickvarcfgEv)
                  000aa894    0000002c                 : Hstick_cpu2.obj (.text:_ZN3Ver6Hstick16get_stickppm1cfgEv)
                  000aa8c0    0000002c                 : Hstick_cpu2.obj (.text:_ZN3Ver6Hstick16get_stickppm3cfgEv)
                  000aa8ec    0000002c                 : Hxcfield_cpu2.obj (.text:_ZN3Ver8Hxcfield12get_fstrfastEv)
                  000aa918    0000002c                 : Hxcfield_cpu2.obj (.text:_ZN3Ver8Hxcfield14get_fstgmsgvecEv)
                  000aa944    0000002c                 : Hxcfield_cpu2.obj (.text:_ZN3Ver8Hxcfield17get_fmsg8consumerEv)
                  000aa970    0000002c                 : Hxcfield_cpu2.obj (.text:_ZN3Ver8Hxcfield17get_fmsg8producerEv)
                  000aa99c    0000002c                 : Hxcfield_cpu2.obj (.text:_ZN3Ver8Hxcfield9get_fstrtEv)
                  000aa9c8    0000002c                 : Pwm_suite.obj (.text:_ZN3Ver9Pwm_suiteC1EN4Base6Memmgr4TypeENS1_5RngitIN12Dsp28335_ent6Pwmdev5PWMidEEENS1_9Range_dynINS1_4RvarEEE)
                  000aa9f4    0000002c     base.lib : CRC.obj (.text:_ZN4Base3CRC11update_byteEh)
                  000aaa20    0000002c              : Limit.obj (.text:_ZN4Base5Limit4csetERNS_11Lossy_errorE)
                  000aaa4c    0000002c     first.lib : Lossy.obj (.text:_ZN4Base5Lossy10compute_ckERNS_9IchecksumEjj)
                  000aaa78    0000002c     base.lib : Taskmgr.obj (.text:_ZN4Base9Allocator18allocate_new_arrayINS_9TaskentryEEEPT_m)
                  000aaaa4    0000002c     media.lib : Cfgmgr.obj (.text:_ZN5Media6Cfgmgr3addEN4Base3Cfg2IdERNS1_8ItunableE)
                  000aaad0    0000002c     vblocks.lib : Multi_interpolator.obj (.text:_ZN7Vblocks18Multi_interpolator12Build_paramsC1EjN4Base6MblockIN6Blocks10DynrvectorEEENS3_IfEERNS2_9AllocatorES9_)
                  000aaafc    0000002c     base.lib : Tcal3D.obj (.text:_ZN8Maverick8Ivector3IfE6vecresERKS1_S3_)
                  000aab28    0000002c     maverick.lib : Irvector3.obj (.text:_ZN8Maverick9Irvector36lincmbEfRKS0_fS2_)
                  000aab54    0000002c     midlevel.lib : Errors_irx.obj (.text:_ZN8Midlevel10Errors_irx5on_txERN6Stanag14IStanag_msg_tx9Tx_paramsE)
                  000aab80    0000002c     pa_blocks.lib : DComms_cfg.obj (.text:_ZN9Pa_blocks10DComms_cfg10Freq_entry4csetERN4Base11Lossy_errorE)
                  000aabac    0000002c                   : Tp_utilities.obj (.text:_ZN9Pa_blocks12Tp_utilities26verify_hover_waypoint_horzERKN8Maverick8Rvector2ES4_)
                  000aabd8    0000002c                   : Vsdk_navigation_params.obj (.text:_ZN9Pa_blocks22Vsdk_navigation_params4csetERN4Base11Lossy_errorE)
                  000aac04    0000002c                   : Populate_messages.obj (.text:_ZN9Pa_blocks38Recovery_wrapper_control_system_object24populate_recovery_alertsERNS_15Recovery_alertsE)
                  000aac30    0000002c                   : Ttcg.obj (.text:_ZN9Pa_blocks4Ttcg22set_mission_ned_originERKN4Base4TllhE)
                  000aac5c    0000002c     base.lib : Xclkcfg.obj (.text:_ZNK4Base7Xclkcfg9cget_typeERNS_5LossyE)
                  000aac88    0000002c     pa_blocks.lib : Ttcg.obj (.text:_ZNK9Pa_blocks4Ttcg17Find_zero_delta_v1fEf)
                  000aacb4    0000002b     veronte.lib : Vfspermission.obj (.text:_ZN3Ver13Vfspermission8fill_mapEN4Base6MblockIKNS1_3Cfg2IdEEERNS1_8Hash_mapINS1_7Hashers11Element_u16EEE)
                  000aacdf    0000002b     vpgnc.lib : Vpu.obj (.text:_ZN4Base6JarrayINS_5FieldEE7sub_addEj)
                  000aad0a    0000002b     veronte.lib : Hvar_cpu2.obj (.text:_ZN4Base6JarrayINS_6TdsyncINS_7FeatureENS_12Tdsynctraits11Rd_blockingIS2_NS_8Cptraits6PodrawIVS2_EEEENS3_2WrIS2_NS5_8OperatorIS2_S2_EEEEEEE7sub_addEj)
                  000aad35    0000002b                 : Copystep.obj (.text:_ZN4Base6MblockIVKfE24sub_mblock_with_start_atEm)
                  000aad60    0000002b                 : Tunsuite_pa.obj (.text:_ZN4Base6MblockIfE24sub_mblock_with_start_atEm)
                  000aad8b    0000002b     pa_blocks.lib : Mixer_allocator.obj (.text:_ZN4Base9Allocator18allocate_new_arrayIeEEPT_m)
                  000aadb6    0000002b     veronte.lib : Hxcfield_cpu2.obj (.text:_ZN4Base9Tuntraits15Arraytun_nosizeINS0_9Cset_onlyINS_6PFieldEEENS_11TnarrayreszIS3_Lm128EEENS0_8No_checkIS6_EEE8str2elemERS6_RNS_11Lossy_errorE)
                  000aade1    0000002b     media.lib : PDI_loader.obj (.text:_ZN5Media10PDI_loader9load_privEN4Base6LoadstES2_)
                  000aae0c    0000002b     base.lib : Cyphal.obj (.text:_ZN6Cyphal17Cyphal_stg_fields5buildEhbby)
                  000aae37    0000002b     pa_blocks.lib : Mixer_allocator.obj (.text:_ZN8Maverick7TvectorIeE7matTvecERKNS_7TmatrixIeEERKS1_)
                  000aae62    0000002b                   : Tp_utilities.obj (.text:_ZN9Pa_blocks12Tp_utilities21verify_hover_waypointERKN8Maverick8Rvector3ES4_)
                  000aae8d    0000002b                   : Model_dynamic.obj (.text:_ZN9Pa_blocks13Model_dynamic26copy_compatible_state_fromERKNS_5ModelE)
                  000aaeb8    0000002b                   : Turn_maneuver.obj (.text:_ZN9Pa_blocks13Turn_maneuver7invalidERNS_12Maneuver_msgE)
                  000aaee3    0000002b                   : State_machines.obj (.text:_ZN9Pa_blocks14State_machines11Vsdk_paramsC1Ev)
                  000aaf0e    0000002b                   : Maneuver_coordinate.obj (.text:_ZN9Pa_blocks19Maneuver_coordinateC1Ev)
                  000aaf39    0000002b     base.lib : Xcfilecli.obj (.text:_ZNK4Base5XccliINS_10XcfilectrlENS_9XcfilereqEE4sendERS2_)
                  000aaf64    0000002b     media.lib : Fstrfast.obj (.text:_ZNK4Base5XccliINS_9XclogctrlENS_8XclogreqEE4sendERS2_)
                  000aaf8f    0000002b     maverick.lib : Rtable.obj (.text:_ZNK4Base6MblockIKfE24sub_mblock_with_start_atEm)
                  000aafba    0000002b     base.lib : Feature.obj (.text:_ZNK4Base7Feature4cgetERNS_5LossyE)
                  000aafe5    0000002b              : Pchrono.obj (.text:_ZNK4Base7Pchrono3tocEv)
                  000ab010    0000002b     pa_blocks.lib : Maneuver_coordinate.obj (.text:_ZNK9Pa_blocks19Maneuver_coordinate12get_durationEv)
                  000ab03b    0000002b                   : Recovery_route_constructor.obj (.text:_ZNK9Pa_blocks26Recovery_route_constructor31get_route_command_from_route_idEmRNS_19Command_route_entryE)
                  000ab066    0000002b                   : Aacg.obj (.text:_ZNK9Pa_blocks4Aacg22is_specification_validEv)
                  000ab091    00000001     DSP28x.lib : Warning.obj (.text:_ZN3Bsp13warning_assrtEb)
                  000ab092    0000002b     rts2800_fpu64_eabi.lib : e_sqrt.c.obj (.text)
                  000ab0bd    0000002a     base.lib : Cyphal_common_types.obj (.text:_ZN19Cyphal_common_types14put_array_sizeEmRN4Base9U8ostreamEm)
                  000ab0e7    0000002a     veronte.lib : Hstick_cpu2.obj (.text:_ZN3Ver6Hstick16get_stickppm0cfgEv)
                  000ab111    0000002a                 : Hstick_cpu2.obj (.text:_ZN3Ver6Hstick16get_stickppm2cfgEv)
                  000ab13b    0000002a                 : Hxcfield_cpu2.obj (.text:_ZN3Ver8Hxcfield15get_fstrpfieldsEv)
                  000ab165    0000002a                 : Hxcfield_cpu2.obj (.text:_ZN3Ver8Hxcfield9get_fstr1Ev)
                  000ab18f    0000002a                 : Hvar_cpu2.obj (.text:_ZN4Base5JemapINS_6TdsyncINS_7FeatureENS_12Tdsynctraits11Rd_blockingIS2_NS_8Cptraits6PodrawIVS2_EEEENS3_2WrIS2_NS5_8OperatorIS2_S2_EEEEEENS_3JidINS_8FidtraitEEENS_3FidEE7get_ptrESI_)
                  000ab1b9    0000002a     first.lib : Lossy.obj (.text:_ZN4Base5Lossy6put_ckEmiNS_10EndiannessE)
                  000ab1e3    0000002a               : Lossy.obj (.text:_ZN4Base5Lossy8put_charEc)
                  000ab20d    0000002a               : Lossy.obj (.text:_ZN4Base5Lossy9put_bool1Eb)
                  000ab237    0000002a               : Lossy.obj (.text:_ZN4Base5Lossy9put_uint8Eh)
                  000ab261    0000002a     base.lib : Varmgr.obj (.text:_ZN4Base6Varmgr12get_instanceEv)
                  000ab28b    0000002a     veronte.lib : Pwm_suite.obj (.text:_ZN4Base9Allocator18allocate_new_arrayIN12Dsp28335_ent8PwmsuiteINS2_6PwmdevELj16EE6ConfigEEEPT_m)
                  000ab2b5    0000002a     vpgnc.lib : Opmgr.obj (.text:_ZN4Base9Allocator18allocate_new_arrayIN5Vpgnc14Rvar_op_commit7RoptypeEEEPT_m)
                  000ab2df    0000002a               : Evtmgr.obj (.text:_ZN4Base9Allocator18allocate_new_arrayIN5Vpgnc5EventEEEPT_m)
                  000ab309    0000002a     pa_blocks.lib : Route_msg.obj (.text:_ZN4Base9Allocator18allocate_new_arrayIN9Pa_blocks12Maneuver_msgEEEPT_m)
                  000ab333    0000002a                   : Command_route_entries.obj (.text:_ZN4Base9Allocator18allocate_new_arrayIN9Pa_blocks19Command_route_entryEEEPT_m)
                  000ab35d    0000002a                   : Ttcg.obj (.text:_ZN4Base9Allocator18allocate_new_arrayIN9Pa_blocks9Route_msgEEEPT_m)
                  000ab387    0000002a     vpgnc.lib : Evt_wp_groups.obj (.text:_ZN4Base9Allocator18allocate_new_arrayINS_4TdesINS_11TnarrayreszIjLm8EEENS_9Tuntraits10TundefaultIS4_EEEEEEPT_m)
                  000ab3b1    0000002a     media.lib : Fstrfast.obj (.text:_ZN4Base9Allocator18allocate_new_arrayINS_5FieldEEEPT_m)
                  000ab3db    0000002a     base.lib : Stepmgr.obj (.text:_ZN4Base9Allocator18allocate_new_arrayINS_7Stepmgr5Step0EEEPT_m)
                  000ab405    0000002a     maverick.lib : Rvector.obj (.text:_ZN4Base9Allocator18allocate_new_arrayIfEEPT_m)
                  000ab42f    0000002a     base.lib : CANgpio_p.obj (.text:_ZN4Base9CANgpio_p6Config5buildEfmbh)
                  000ab459    0000002a              : Fheader.obj (.text:_ZN4Base9Tuntraits6ResizeINS0_7Lossy16IjEENS_5ArrayINS_5FieldEEEE8str2elemERS6_RNS_11Lossy_errorE)
                  000ab483    0000002a     devices.lib : Ubxcfgsbas.obj (.text:_ZN7Devices3Ubx10Ubxcfgsbas4csetERN4Base11Lossy_errorE)
                  000ab4ad    0000002a     pa_blocks.lib : Takeoff_manager.obj (.text:_ZN9Pa_blocks15Takeoff_manager4stepERKNS0_5InputERNS0_6OutputE)
                  000ab4d7    0000002a                   : Maneuver_coordinate.obj (.text:_ZN9Pa_blocks19Maneuver_coordinate11set_invalidEv)
                  000ab501    0000002a                   : Gnc_vector_saturation.obj (.text:_ZN9Pa_blocks21Saturation_parameters17IsMatrixDataValidILm2EEEbRKN4Base7XrtableIXT_ELm7EEE)
                  000ab52b    0000002a                   : Gnc_vector_saturation.obj (.text:_ZN9Pa_blocks21Saturation_parameters17IsMatrixDataValidILm3EEEbRKN4Base7XrtableIXT_ELm7EEE)
                  000ab555    0000002a                   : Gnc_vector_saturation.obj (.text:_ZN9Pa_blocks21Saturation_parameters17IsMatrixDataValidILm4EEEbRKN4Base7XrtableIXT_ELm7EEE)
                  000ab57f    0000002a                   : Gnc_vector_saturation.obj (.text:_ZN9Pa_blocks21Saturation_parameters24IsSaturationLimitDataSetILm2EEEbRKN4Base7XrtableIXT_ELm7EEEm)
                  000ab5a9    0000002a                   : Gnc_vector_saturation.obj (.text:_ZN9Pa_blocks21Saturation_parameters24IsSaturationLimitDataSetILm3EEEbRKN4Base7XrtableIXT_ELm7EEEm)
                  000ab5d3    0000002a                   : Gnc_vector_saturation.obj (.text:_ZN9Pa_blocks21Saturation_parameters24IsSaturationLimitDataSetILm4EEEbRKN4Base7XrtableIXT_ELm7EEEm)
                  000ab5fd    0000002a                   : Populate_messages.obj (.text:_ZN9Pa_blocks38Recovery_wrapper_control_system_object33populate_onground_controller_infoERNS_24Onground_controller_infoE)
                  000ab627    0000002a                   : Sep.obj (.text:_ZN9Pa_blocks3Sep5StateC1ERNS_17Gnc_model_dynamicES3_S3_)
                  000ab651    0000002a                   : Land_manager.obj (.text:_ZNK9Pa_blocks12Land_manager20set_controller_modesERKNS0_5InputERNS_18Modes_and_commandsE)
                  000ab67b    00000029     DSP28x.lib : CANcfg.obj (.text:_ZN12Dsp28335_ent6CANcfg5Rxcfg4csetERN4Base11Lossy_errorE)
                  000ab6a4    00000029     veronte.lib : Hvar_cpu2.obj (.text:_ZN3Bsp5Hrvar9get_blockEN4Base4RvarES2_)
                  000ab6cd    00000029     base.lib : CRC.obj (.text:_ZN4Base3CRC6Config4csetERNS_5LossyE)
                  000ab6f6    00000029     veronte.lib : Copystep.obj (.text:_ZN4Base6MblockIVKbE24sub_mblock_with_start_atEm)
                  000ab71f    00000029                 : Copystep.obj (.text:_ZN4Base6MblockIVKjE24sub_mblock_with_start_atEm)
                  000ab748    00000029     devices.lib : Adis165053.obj (.text:_ZN4Base6MblockIjE24sub_mblock_with_start_atEm)
                  000ab771    00000029     first.lib : PDIcheck.obj (.text:_ZN4Base8PDIcheck6commitEjRKNS_5ErrorE)
                  000ab79a    00000029               : U8ostream.obj (.text:_ZN4Base9U8ostream13put_uint16_beEj)
                  000ab7c3    00000029               : U8ostream.obj (.text:_ZN4Base9U8ostream13put_uint16_leEj)
                  000ab7ec    00000029     vpgnc.lib : Evtmgr.obj (.text:_ZN5Vpgnc6Evtmgr9evlo_stepEj)
                  000ab815    00000029     midlevel.lib : CyphalStanag_rx_hnd.obj (.text:_ZN6Cyphal19CyphalStanag_rx_hnd10call_on_rxERN6Stanag14IStanag_msg_rx9Rx_paramsE)
                  000ab83e    00000029     pa_blocks.lib : Model_dynamic.obj (.text:_ZN8Maverick7TvectorIfE7matTvecERKNS_7TmatrixIfEERKS1_)
                  000ab867    00000029                   : Pa_profiling.obj (.text:_ZN9Pa_blocks12Pa_profilingC1EN4Base4RvarES2_)
                  000ab890    00000029                   : Switch_blender.obj (.text:_ZN9Pa_blocks14Switch_blender6State_5resetEv)
                  000ab8b9    00000029                   : Vector_saturation.obj (.text:_ZN9Pa_blocks17Vector_saturation23is_activated_saturationERKN8Maverick7RvectorES4_)
                  000ab8e2    00000029                   : Controllers_object.obj (.text:_ZN9Pa_blocks18Controllers_object5Input5clearEv)
                  000ab90b    00000029                   : Tcg.obj (.text:_ZN9Pa_blocks3Tcg10Vsdk_param4csetERN4Base11Lossy_errorE)
                  000ab934    00000029                   : Model.obj (.text:_ZN9Pa_blocks5Model10step_modelERKN8Maverick7RvectorEfRS2_)
                  000ab95d    00000029     first.lib : Endian32_big.obj (.text:_ZNK4Base12Endian32_big10put_uint32ERKmPjRmi)
                  000ab986    00000029               : Endian32_little.obj (.text:_ZNK4Base15Endian32_little10put_uint32ERKmPjRmi)
                  000ab9af    00000029     pa_blocks.lib : Waypoint_msg.obj (.text:__sti___16_Waypoint_msg_cpp_a253279e)
                  000ab9d8    00000029                   : Maneuver_coordinate.obj (.text:__sti___23_Maneuver_coordinate_cpp_4e08081b)
                  000aba01    00000029     main_cpu2.obj (.text:main)
                  000aba2a    00000029     maverick.lib : dotp.obj (.text)
                  000aba53    00000029     rts2800_fpu64_eabi.lib : exit.c.obj (.text)
                  000aba7c    00000028     pa_blocks.lib : Tcg.obj (.text:_ZN19Cyphal_common_types29serialize_float16_fixed_arrayIeLm3EEEvRKN4Base7TnarrayIT_XT0_EEERNS1_5LossyE)
                  000abaa4    00000028     veronte.lib : Hvar_cpu2.obj (.text:_ZN3Bsp5Huvar9get_blockEN4Base4UvarES2_)
                  000abacc    00000028     base.lib : Int_decimator.obj (.text:_ZN4Base13Int_decimator4stepEv)
                  000abaf4    00000028              : Field_real_hex_ASCII.obj (.text:_ZN4Base20Field_real_hex_ASCII4csetERNS_11Lossy_errorE)
                  000abb1c    00000028     veronte.lib : Tunsuite_pa.obj (.text:_ZN4Base5Xcal0ILj12EE4csetERNS_11Lossy_errorE)
                  000abb44    00000028                 : Tunsuite_pa.obj (.text:_ZN4Base5Xcal0ILj2EE4csetERNS_11Lossy_errorE)
                  000abb6c    00000028                 : Hxcff.obj (.text:_ZN4Base5Xcwr0INS_11Spkt_bufferEEC1ILm7EEERVKNS_6XcffrdIS1_EERVNS_6XcffwrIS1_XT_EEE)
                  000abb94    00000028     base.lib : Herrors.obj (.text:_ZN4Base7Herrors10get_err_rdEv)
                  000abbbc    00000028              : Stepmgr.obj (.text:_ZN4Base7Stepmgr3addENS0_2IdERNS_5IstepE)
                  000abbe4    00000028     vblocks.lib : Dyn_multi_interpolator.obj (.text:_ZN4Base9Allocator18allocate_new_arrayIN6Blocks10DynrvectorEEEPT_m)
                  000abc0c    00000028                 : Multi_interpolator.obj (.text:_ZN4Base9Allocator18allocate_new_arrayIN7Vblocks18Multi_interpolator12Interp_pointEEEPT_m)
                  000abc34    00000028     pa_blocks.lib : Cqp.obj (.text:_ZN4Base9Allocator18allocate_new_arrayIN9Pa_blocks3Cqp10ConstraintEEEPT_m)
                  000abc5c    00000028     midlevel.lib : Irxfw.obj (.text:_ZN4Base9Allocator18allocate_new_arrayINS_8Msg_dataEEEPT_m)
                  000abc84    00000028                  : Irxfw.obj (.text:_ZN4Base9Allocator18allocate_new_arrayIPN6Stanag14IStanag_msg_txEEEPT_m)
                  000abcac    00000028                  : Irxfw.obj (.text:_ZN4Base9Allocator18allocate_new_arrayIPN6Stanag14IStanag_rx_hdlEEEPT_m)
                  000abcd4    00000028     pa_blocks.lib : Cy_maint_action.obj (.text:_ZN4Base9Allocator18allocate_new_arrayIPN9Pa_blocks22Cy_maint_action_consts13Imaint_actionEEEPT_m)
                  000abcfc    00000028     media.lib : Cfgmgr.obj (.text:_ZN4Base9Allocator18allocate_new_arrayIPNS_14Itunable_asyncEEEPT_m)
                  000abd24    00000028               : Cfgmgr.obj (.text:_ZN4Base9Allocator18allocate_new_arrayIPNS_21Ideserializable_asyncEEEPT_m)
                  000abd4c    00000028     base.lib : CANgpio_p.obj (.text:_ZN4Base9CANgpio_p6Config4csetERNS_11Lossy_errorE)
                  000abd74    00000028     media.lib : Cfgcrcpub.obj (.text:_ZN5Media9Cfgcrcpub4stepEv)
                  000abd9c    00000028     vblocks.lib : Multi_interpolator_tun.obj (.text:_ZN7Vblocks22Multi_interpolator_tun8Pdi_data4csetERN4Base11Lossy_errorE)
                  000abdc4    00000028     maverick.lib : Irvector3.obj (.text:_ZN8Maverick9Irvector310lincmb_addEfRKS0_)
                  000abdec    00000028     pa_blocks.lib : Land_manager.obj (.text:_ZN9Pa_blocks12Land_manager4stepERKNS0_5InputERNS0_6OutputE)
                  000abe14    00000028                   : Straight_maneuver.obj (.text:_ZN9Pa_blocks17Straight_maneuverC1ERKNS_12Maneuver_msgE)
                  000abe3c    00000028                   : Controllers_object.obj (.text:_ZN9Pa_blocks18Controllers_object50compute_angular_acceleration_from_moment_trim0_ncgERKN8Maverick9Irvector3ERKNS1_6IrquatERS2_)
                  000abe64    00000028                   : Recovery_telemetry.obj (.text:_ZN9Pa_blocks18Recovery_telemetryC1Ev)
                  000abe8c    00000028                   : Upload_mission_plan.obj (.text:_ZN9Pa_blocks19Upload_mission_planC1Ev)
                  000abeb4    00000028                   : Power_on_builtin_test.obj (.text:_ZN9Pa_blocks21Power_on_builtin_test4stepERKNS_26Controllers_state_estimateE)
                  000abedc    00000028                   : Recovery_controller_telemetry.obj (.text:_ZN9Pa_blocks29Recovery_controller_telemetryC1Ev)
                  000abf04    00000028                   : Recovery_controls_command_processor.obj (.text:_ZN9Pa_blocks35Recovery_controls_command_processor8Log_dataC1Ev)
                  000abf2c    00000028                   : Tp_input.obj (.text:_ZN9Pa_blocks8Tp_input5resetEv)
                  000abf54    00000028     base.lib : Spkt_hdr.obj (.text:_ZNK4Base8Spkt_hdr4cgetERNS_9U8ostreamE)
                  000abf7c    00000028              : Xclkcfg.obj (.text:_ZNK8Maverick8Ivector3IfE3dotERKS1_)
                  000abfa4    00000028     pa_blocks.lib : Straight_maneuver.obj (.text:_ZNK9Pa_blocks17Straight_maneuver12displacementEv)
                  000abfcc    00000028                   : Controllers_telemetry.obj (.text:_ZNK9Pa_blocks21Controllers_telemetry4cgetERN4Base5LossyE)
                  000abff4    00000028     rts2800_fpu64_eabi.lib : s_copysign.c.obj (.text)
                  000ac01c    00000027     veronte.lib : Hvar_cpu2.obj (.text:_ZN3Bsp5Hbvar9get_blockEN4Base4BvarES2_)
                  000ac043    00000027     DSP28x.lib : Absolute_time.obj (.text:_ZN4Base13Absolute_time10get_utc_msEv)
                  000ac06a    00000027     pa_blocks.lib : Maneuver_coordinate.obj (.text:_ZN4Base16Binary_search_ltIN9Pa_blocks19Waypoint_coordinateEfXadL_ZNS1_19Maneuver_coordinate9less_thanERKS2_fEEE18search_equal_upperENS_6MblockIS4_EEf)
                  000ac091    00000027     veronte.lib : Pwm_suite.obj (.text:_ZN4Base5ArrayIN12Dsp28335_ent6PwmdevEEC1INS2_5PWMidEEEmNS_6Memmgr4TypeENS_5RngitIT_EE)
                  000ac0b8    00000027     vpgnc.lib : Vpu.obj (.text:_ZN4Base5ArrayINS_3VarINS_3FidEE6CommitEEC1IS2_EEmNS_6Memmgr4TypeENS_5RngitIT_EE)
                  000ac0df    00000027     base.lib : Uclkmgr.obj (.text:_ZN4Base5ArrayINS_4UclkEEC1INS_4RvarEEEmNS_6Memmgr4TypeENS_5RngitIT_EE)
                  000ac106    00000027     pa_blocks.lib : Cqp.obj (.text:_ZN4Base5ArrayIeE6appendERKe)
                  000ac12d    00000027     first.lib : Lossy.obj (.text:_ZN4Base5Lossy10put_uint16Ej)
                  000ac154    00000027               : Lossy.obj (.text:_ZN4Base5Lossy10put_uint32Em)
                  000ac17b    00000027               : Lossy.obj (.text:_ZN4Base5Lossy10put_uint64ERKy)
                  000ac1a2    00000027     base.lib : Xcfile.obj (.text:_ZN4Base6Xcfile10open_asyncENS_5Ifile3UidENS1_9Open_modeE)
                  000ac1c9    00000027              : Cfgsync.obj (.text:_ZN4Base7Cfgsync12set_modifiedENS_3Cfg2IdEm)
                  000ac1f0    00000027              : Cfgsync.obj (.text:_ZN4Base7Cfgsync8set_syncENS_3Cfg2IdEm)
                  000ac217    00000027              : Herrors.obj (.text:_ZN4Base7Herrors10get_err_wrEv)
                  000ac23e    00000027     first.lib : U8istream.obj (.text:_ZN4Base9U8istream13get_uint32_beEv)
                  000ac265    00000027               : U8istream.obj (.text:_ZN4Base9U8istream13get_uint32_leEv)
                  000ac28c    00000027     media.lib : Cfgmgr.obj (.text:_ZN5Media6Cfgmgr3addEN4Base3Cfg2IdERNS1_15IdeserializableE)
                  000ac2b3    00000027     vpgnc.lib : Oprvar.obj (.text:_ZN5Vpgnc6OprvarC1Ev)
                  000ac2da    00000027     Vmain_cpu2.obj (.text:_ZN7Project10Vmain_cpu212get_instanceEv)
                  000ac301    00000027     pa_blocks.lib : Cqp.obj (.text:_ZN8Maverick7TmatrixIeE7vecvectERKNS_6TarrayIeEES5_)
                  000ac328    00000027                   : Command_route_entry.obj (.text:_ZN9Pa_blocks19Command_route_entryC1Ev)
                  000ac34f    00000027                   : Vsdk_params.obj (.text:_ZN9Pa_blocks20Vsdk_recovery_params12get_instanceEv)
                  000ac376    00000027     first.lib : Endian64_big.obj (.text:_ZNK4Base12Endian64_big10put_uint64ERKyPjRmi)
                  000ac39d    00000027               : Endian64_little.obj (.text:_ZNK4Base15Endian64_little10put_uint64ERKyPjRmi)
                  000ac3c4    00000027     pa_blocks.lib : Site_config.obj (.text:_ZNK9Pa_blocks11Site_config6Config4cgetERN4Base5LossyE)
                  000ac3eb    00000027                   : Trajectory_planner.obj (.text:_ZNK9Pa_blocks18Trajectory_planner37is_current_maneuver_information_validERKNS_25Current_route_informationERKNS_9Route_msgE)
                  000ac412    00000027                   : Tllh_cs_64.obj (.text:__sti___14_Tllh_cs_64_cpp_e8e2ceae)
                  000ac439    00000001     veronte.lib : Copystep.obj (.text:_ZN3Bsp5Hbvar5RangeD1Ev)
                  000ac43a    00000027     rts2800_fpu64_eabi.lib : e_sqrtf.c.obj (.text)
                  000ac461    00000026     DSP2838x_ent.lib : CAN_FD_cfg.obj (.text:_ZN12Dsp28335_ent10CAN_FD_cfg7Timings4csetERN4Base11Lossy_errorE)
                  000ac487    00000026     pa_blocks.lib : Gnc_model_set.obj (.text:_ZN19Cyphal_common_types19serialize_array_rszIN9Pa_blocks10Real16_amzELm6EN4Base11TnarrayreszIS2_Lm6EEEEEvRKT1_RNS3_5LossyEm)
                  000ac4ad    00000026     veronte.lib : Hxcff.obj (.text:_ZN3Ver5Hxcff10get_xcmqrdEv)
                  000ac4d3    00000026                 : Hxcff.obj (.text:_ZN3Ver5Hxcff11get_xcpktwrEv)
                  000ac4f9    00000026     pa_blocks.lib : Motor_rpm_cmd.obj (.text:_ZN4Base12Data_mutatorINS_5Lossy15Mutator_traits8IS1_EENS_9U8ostream12Data_traits8IS4_EEED1Ev)
                  000ac51f    00000026     veronte.lib : Tunsuite_pa.obj (.text:_ZN4Base13CANgpio_suiteILj2ELh55EE4csetERNS_11Lossy_errorE)
                  000ac545    00000026     first.lib : Lossy.obj (.text:_ZN4Base5Lossy9get_uint8ERhhh)
                  000ac56b    00000026     veronte.lib : Hvar_cpu2.obj (.text:_ZN4Base6JarrayINS_6TdsyncINS_7FeatureENS_12Tdsynctraits11Rd_blockingIS2_NS_8Cptraits6PodrawIVS2_EEEENS3_2WrIS2_NS5_8OperatorIS2_S2_EEEEEEE4initERKNS_6KarrayIjEE)
                  000ac591    00000026     base.lib : Vref_wr.obj (.text:_ZN4Base6kvset0ERKNS_4VrefERNS_4IsetEf)
                  000ac5b7    00000026              : CANin_p.obj (.text:_ZN4Base7CANin_p6Config4csetERNS_11Lossy_errorE)
                  000ac5dd    00000026     vpgnc.lib : Vpu.obj (.text:_ZN4Base8Hash_mapINS_8Sync_map7ElementEEC1ERKNS3_6ConfigE)
                  000ac603    00000026     pa_blocks.lib : Cy_maint_action.obj (.text:_ZN4Base9Allocator18allocate_new_arrayIN9Pa_blocks22Cy_maint_action_consts13Command_typesEEEPT_m)
                  000ac629    00000026     midlevel.lib : Irxfw.obj (.text:_ZN4Base9Allocator18allocate_new_arrayINS_15Stanag_msg_type8Msg_typeEEEPT_m)
                  000ac64f    00000026     media.lib : Cfgmgr.obj (.text:_ZN4Base9Allocator18allocate_new_arrayINS_3Cfg2IdEEEPT_m)
                  000ac675    00000026     vpgnc.lib : Vpu.obj (.text:_ZN4Base9Allocator18allocate_new_arrayINS_4BvarEEEPT_m)
                  000ac69b    00000026     veronte.lib : Vfspermission.obj (.text:_ZN4Base9Allocator18allocate_new_arrayINS_7Hashers11Element_u16EEEPT_m)
                  000ac6c1    00000026     pa_blocks.lib : Mixer_allocator.obj (.text:_ZN4Base9Allocator18allocate_new_arrayIbEEPT_m)
                  000ac6e7    00000026     first.lib : Lossy.obj (.text:_ZN4Base9Allocator18allocate_new_arrayIjEEPT_m)
                  000ac70d    00000026     veronte.lib : Tunsuite_pa.obj (.text:_ZN4Base9Tuntraits15Arraytun_nosizeINS0_10TundefaultIN8Midlevel10Lights_cfg19Indication_sequenceEEENS_11TnarrayreszIS5_Lm11EEENS0_8No_checkIS8_EEE8str2elemERS8_RNS_11Lossy_errorE)
                  000ac733    00000026     geomodel.lib : Apos.obj (.text:_ZN8Maverick8Ivector3IfE6vecsubERKS1_)
                  000ac759    00000026     pa_blocks.lib : Polynomial.obj (.text:_ZN9Pa_blocks10Polynomial11compute_depEv)
                  000ac77f    00000026                   : Polynomial.obj (.text:_ZN9Pa_blocks10Polynomial21integral_coefficientsERKNS_17Polynomial_coeffsERS1_)
                  000ac7a5    00000026                   : Route_msg.obj (.text:_ZN9Pa_blocks20get_mblock_maneuversINS_12Maneuver_msgEEERN4Base6MblockIT_EEv)
                  000ac7cb    00000026                   : Route_msg.obj (.text:_ZN9Pa_blocks20get_mblock_maneuversIfEERN4Base6MblockIT_EEv)
                  000ac7f1    00000026                   : Recovery_controls_command_processor.obj (.text:_ZN9Pa_blocks35Recovery_controls_command_processor6OutputC1Ev)
                  000ac817    00000026                   : Aacg.obj (.text:_ZN9Pa_blocks4Aacg9TelemetryC1Ev)
                  000ac83d    00000026                   : Waca.obj (.text:_ZN9Pa_blocks4Waca10Vsdk_paramC1Ev)
                  000ac863    00000026     base.lib : Field_cfg.obj (.text:_ZNK4Base10Cksum_modn9get_valueEv)
                  000ac889    00000026              : Message_received_hnd.obj (.text:_ZNK4Base20Message_received_hnd4stepERKNS_11TnarrayreszIjLm32EEERjNS_10Event_type4TypeE)
                  000ac8af    00000026     media.lib : Cfgcrc_async.obj (.text:_ZNK5Media12Cfgcrc_async3hasEN4Base3Cfg2IdE)
                  000ac8d5    00000026     pa_blocks.lib : State_machines.obj (.text:_ZNK9Pa_blocks14State_machines32eval_land_ground_speed_below_maxEv)
                  000ac8fb    00000026                   : Controllers_object.obj (.text:_ZNK9Pa_blocks18Controllers_object22is_specification_validEv)
                  000ac921    00000025                   : Roll_maneuver.obj (.text:_ZN4Base11TnarrayreszIN9Pa_blocks19Maneuver_coordinateELm2EE6appendERKS2_)
                  000ac946    00000025     base.lib : Herrors.obj (.text:_ZN4Base17Fifospscrd_commitIVKjNS_10SPSCtraits8InternalENS2_8ExternalEEC1EPS1_S6_S6_RVKS6_)
                  000ac96b    00000025              : Herrors.obj (.text:_ZN4Base17Fifospscwr_commitIVjNS_10SPSCtraits8ExternalENS2_12Internal_refEEC1EPS1_S6_RVKPVKjRVS6_)
                  000ac990    00000025     pa_blocks.lib : Ttcg.obj (.text:_ZN4Base5ArrayIN9Pa_blocks9Route_msgEE6appendERKS2_)
                  000ac9b5    00000025     first.lib : Endian3.obj (.text:_ZN4Base7Endian315get_ebbb_presetEv)
                  000ac9da    00000025               : Strutil.obj (.text:_ZN4Base7Strutil24upper_hex_char_to_nibbleEhRh)
                  000ac9ff    00000025               : Strutil.obj (.text:_ZN4Base7Strutil9as_stringEmhhRNS_7VstringENS0_7PaddingE)
                  000aca24    00000025     base.lib : Uclkmgr.obj (.text:_ZN4Base7Uclkmgr4csetERNS_11Lossy_errorE)
                  000aca49    00000025     veronte.lib : Vfspermission.obj (.text:_ZN4Base8Hash_mapINS_7Hashers11Element_u16EEC1ERKNS3_6ConfigE)
                  000aca6e    00000025                 : Tunsuite_pa.obj (.text:_ZN4Base9Tuntraits15Arraytun_nosizeINS0_10TundefaultIN7Devices8TPS9266410Config_regEEENS_11TnarrayreszIS5_Lm40EEENS0_8No_checkIS8_EEE8str2elemERS8_RNS_11Lossy_errorE)
                  000aca93    00000025                 : Tunsuite_pa.obj (.text:_ZN4Base9Tuntraits15Arraytun_nosizeINS0_10TundefaultIN8Midlevel10Lights_cfg16Indication_stateEEENS_11TnarrayreszIS5_Lm10EEENS0_8No_checkIS8_EEE8str2elemERS8_RNS_11Lossy_errorE)
                  000acab8    00000025     stanag.lib : Fstgcfg.obj (.text:_ZN4Base9Tuntraits15Arraytun_nosizeINS0_9Cset_onlyIN6Stanag7Fstgcfg5EntryEEENS_11TnarrayreszIS5_Lm5EEENS0_8No_checkIS8_EEE8str2elemERS8_RNS_11Lossy_errorE)
                  000acadd    00000025     vpgnc.lib : Evtmgr.obj (.text:_ZN5Vpgnc6Evtmgr11evhi_commitEv)
                  000acb02    00000025     maverick.lib : Irmatrix3.obj (.text:_ZN8Maverick9Irmatrix39transposeEv)
                  000acb27    00000025     pa_blocks.lib : Model_dynamic.obj (.text:_ZN9Pa_blocks13Model_dynamic4stepERKN8Maverick7RvectorEfS4_RS2_)
                  000acb4c    00000025                   : Command_route_entries.obj (.text:_ZN9Pa_blocks32get_mblock_command_route_entriesEv)
                  000acb71    00000025                   : Asc.obj (.text:_ZN9Pa_blocks3AscC1ERN4Base9AllocatorENS1_6MblockIjEERKNS0_11Parameters_ERNS0_9TelemetryE)
                  000acb96    00000024     DSP28x.lib : CANcfg.obj (.text:_ZN12Dsp28335_ent6CANcfg4csetERN4Base11Lossy_errorE)
                  000acbba    00000024     DSP2837x_ent.lib : Sysuid_cpu2.obj (.text:_ZN3Bsp7get_uidEb)
                  000acbde    00000024     geomodel.lib : Fidcache.obj (.text:_ZN3Geo8Fidcache17compute_path_loopEN4Base3FidE)
                  000acc02    00000024     veronte.lib : Code_hash_amz.obj (.text:_ZN3Ver17compute_code_hashEmm)
                  000acc26    00000024     base.lib : Meastypes.obj (.text:_ZN4Base13Mabs_time_fix4initEv)
                  000acc4a    00000024     vblocks.lib : Multi_interpolator.obj (.text:_ZN4Base16Binary_search_ltIffXadL_ZNS_20Binary_search_lt_def17default_less_thanIffEEbNS_12JSF116_paramIT_E4typeENS3_IT0_E4typeEEEE18search_equal_upperENS_6MblockIKfEEf)
                  000acc6e    00000024     veronte.lib : Copystep.obj (.text:_ZN4Base5ArrayIN3Bsp5HrvarEEC1INS_4RvarEEEmNS_6Memmgr4TypeENS_5RngitIT_EE)
                  000acc92    00000024     base.lib : CANid.obj (.text:_ZN4Base5CANid4csetERNS_11Lossy_errorE)
                  000accb6    00000024     first.lib : Endian3.obj (.text:_ZN4Base7Endian315get_elll_presetEv)
                  000accda    00000024     base.lib : Feature.obj (.text:_ZN4Base7Feature9check_relENS_3FidE)
                  000accfe    00000024              : Session.obj (.text:_ZN4Base7SessionC1ERVKNS_7SystimeES3_)
                  000acd22    00000024              : Uclkmgr.obj (.text:_ZN4Base7Uclkmgr4stepEv)
                  000acd46    00000024     media.lib : Updatable_null.obj (.text:_ZN5Media14Updatable_null12get_instanceEv)
                  000acd6a    00000024               : Cfgmgr.obj (.text:_ZN5Media6Cfgmgr19send_load_op_resultEN4Base7AddressERKyNS1_3Cfg2IdEb)
                  000acd8e    00000024               : Cfgmgr.obj (.text:_ZN5Media6Cfgmgr19send_save_op_resultEN4Base7AddressERKyNS1_3Cfg2IdEb)
                  000acdb2    00000024     vblocks.lib : Blockfactory_amz.obj (.text:_ZN7Vblocks12Blockfactory13get_marks_mgrEv)
                  000acdd6    00000024     pa_blocks.lib : Tp_utilities.obj (.text:_ZN9Pa_blocks12Tp_utilities26verify_hover_waypoint_vertERKfS2_)
                  000acdfa    00000024                   : Hover_maneuver.obj (.text:_ZN9Pa_blocks14Hover_maneuverC1ERKNS_12Maneuver_msgE)
                  000ace1e    00000024                   : Trajectory_planner.obj (.text:_ZN9Pa_blocks18Shallow_copy_arrayINS_12Maneuver_msgEE6appendERKS1_)
                  000ace42    00000024                   : Recovery_route_constructor.obj (.text:_ZN9Pa_blocks18Shallow_copy_arrayINS_19Command_route_entryEE6appendERKS1_)
                  000ace66    00000024                   : Gnc_vector_saturation.obj (.text:_ZN9Pa_blocks21Gnc_vector_saturation6Output3setERKN8Maverick9Irvector3Ebbbbb)
                  000ace8a    00000024                   : Vsdk_navigation_params.obj (.text:_ZN9Pa_blocks22Vsdk_navigation_params19Installation_params4csetERN4Base11Lossy_errorE)
                  000aceae    00000024                   : MonRec_controller_command.obj (.text:_ZN9Pa_blocks25MonRec_controller_commandC1Ev)
                  000aced2    00000024                   : Cqp.obj (.text:_ZN9Pa_blocks3Cqp7ResultsC1EjRN4Base9AllocatorE)
                  000acef6    00000024     base.lib : Uclk.obj (.text:_ZNK4Base4Uclk4cgetERNS_5LossyE)
                  000acf1a    00000023     pa_blocks.lib : Mission_utilities.obj (.text:_ZN4Base11TnarrayreszIN9Pa_blocks14Route_maneuverELm300EE6appendERKS2_)
                  000acf3d    00000023     base.lib : Routing_table_entry.obj (.text:_ZN4Base19Routing_table_entry4csetERNS_11Lossy_errorE)
                  000acf60    00000023              : Xclk.obj (.text:_ZN4Base4XclkC1ERKNS_7XclkcfgE)
                  000acf83    00000023     veronte.lib : Xcrdsuite.obj (.text:_ZN4Base6XcmvarINS_4BvarENS_9Tuntraits10U16bool_16IbEEE6Parser5parseERNS_17U16stream_r_errorE)
                  000acfa6    00000023     media.lib : Cfgmgr.obj (.text:_ZN5Media6Cfgmgr22compute_gfcrc_blockingEv)
                  000acfc9    00000023     vpgnc.lib : CAN_cfg_maint_astro.obj (.text:_ZN5Vpgnc47_GLOBAL__N__23_CAN_cfg_maint_astro_cpp_2770a0d011set_can_cfgERN4Base7CANin_p6ConfigERNS1_8CANout_c6ConfigERNS1_9SerialCAN6ConfigEmjjmm)
                  000acfec    00000023     maverick.lib : Irvector3.obj (.text:_ZN8Maverick9Irvector36vecsumERKS0_S2_)
                  000ad00f    00000023     pa_blocks.lib : Gnc_model_set.obj (.text:_ZN9Pa_blocks13Gnc_model_set9Telemetry5resetEj)
                  000ad032    00000023                   : Evasive_maneuver.obj (.text:_ZN9Pa_blocks16Evasive_maneuverC1ERKNS_12Maneuver_msgE)
                  000ad055    00000023                   : Recovery_wrapper_control_system_object.obj (.text:_ZN9Pa_blocks38Recovery_wrapper_control_system_object18all_motors_low_rpmEv)
                  000ad078    00000023                   : Tcg.obj (.text:_ZN9Pa_blocks3Tcg10Vsdk_paramC1Ev)
                  000ad09b    00000023     base.lib : Limit.obj (.text:_ZNK4Base5Limit5checkEv)
                  000ad0be    00000023     pa_blocks.lib : Tcg.obj (.text:_ZNK9Pa_blocks3Tcg29get_previous_waypoint_commandEv)
                  000ad0e1    00000022     DSP2838x_ent.lib : CAN_FD_cfg.obj (.text:_ZN12Dsp28335_ent10CAN_FD_cfg12validate_arbEv)
                  000ad103    00000022     veronte.lib : Hvar_cpu2.obj (.text:_ZN3Bsp5Hfvar3setERKN4Base7FeatureE)
                  000ad125    00000022     pa_blocks.lib : Roll_maneuver.obj (.text:_ZN4Base11TnarrayreszIN9Pa_blocks19Waypoint_coordinateELm6EE6appendERKS2_)
                  000ad147    00000022                   : Recovery_route_constructor.obj (.text:_ZN4Base11TnarrayreszIN9Pa_blocks24Rhcp_maneuver_range_dataELm52EE6appendERKS2_)
                  000ad169    00000022     base.lib : Errors_single.obj (.text:_ZN4Base13Errors_single4readERNS_9U8ostreamE)
                  000ad18b    00000022              : CRC.obj (.text:_ZN4Base3CRC9update_leEPKvm)
                  000ad1ad    00000022     pa_blocks.lib : Cqp.obj (.text:_ZN4Base5ArrayIN9Pa_blocks3Cqp10ConstraintEE6appendERKS3_)
                  000ad1cf    00000022     base.lib : Pdiver.obj (.text:_ZN4Base6Pdiver4csetERNS_11Lossy_errorE)
                  000ad1f1    00000022              : Cfgsync.obj (.text:_ZN4Base7Cfgsync12set_modifiedENS_3Cfg2IdERKNS_5LossyE)
                  000ad213    00000022     first.lib : Vstring.obj (.text:_ZN4Base7VstringC1ENS_6MblockIcEE)
                  000ad235    00000022     veronte.lib : Hxcfield_cpu2.obj (.text:_ZN4Base8TwrapdesINS_9Tuntraits9Wsync_desINS_6TdsyncINS_11Pfields_cfgENS_12Tdsynctraits11Rd_blockingIS4_NS_8Cptraits6PodrawIVS4_EEEENS5_15Disabled_structEEENS1_10DesdefaultIS4_EEEERSD_E4csetERNS_11Lossy_errorE)
                  000ad257    00000022                 : Tunsuite_pa.obj (.text:_ZN4Base8TwrapdesINS_9Tuntraits9Wsync_desINS_6TdsyncINS_11TnarrayreszIN6Stanag15Stanag_msg_cfgs9Cfg_entryELm20EEENS_12Tdsynctraits11Rd_blockingIS8_NS_8Cptraits6PodrawIVS8_EEEENS9_15Disabled_structEEENS1_15Arraytun_size16INS1_9Cset_onlyIS7_EES8_NS1_8No_checkIS8_EEEEEERSH_E4csetERNS_11Lossy_errorE)
                  000ad279    00000022                 : Hxcfield_cpu2.obj (.text:_ZN4Base8TwrapdesINS_9Tuntraits9Wsync_desINS_6TdsyncINS_11TnarrayreszIN6Stanag7FstgcfgELm40EEENS_12Tdsynctraits11Rd_blockingIS7_NS_8Cptraits6PodrawIVS7_EEEENS8_15Disabled_structEEENS1_15Arraytun_size16INS1_9Cset_onlyIS6_EES7_NS1_8No_checkIS7_EEEEEERSG_E4csetERNS_11Lossy_errorE)
                  000ad29b    00000022                 : Hxcfield_cpu2.obj (.text:_ZN4Base8TwrapdesINS_9Tuntraits9Wsync_desINS_6TdsyncINS_11TnarrayreszINS_5TupleIjNS4_INS_8Fmsg_cfgELm32EEEEELm2EEENS_12Tdsynctraits11Rd_blockingIS9_NS_8Cptraits6PodrawIVS9_EEEENSA_15Disabled_structEEENS1_15Arraytun_size16INS1_8TupletunINS1_7Lossy16IjEENSJ_INS1_9Cset_onlyIS6_EES7_NS1_8No_checkIS7_EEEEEES9_NSP_IS9_EEEEEERSI_E4csetERNS_11Lossy_errorE)
                  000ad2bd    00000022                 : Hxcfield_cpu2.obj (.text:_ZN4Base8TwrapdesINS_9Tuntraits9Wsync_desINS_6TdsyncINS_11TnarrayreszINS_5TupleIjNS4_INS_8Fmsg_cfgELm32EEEEELm3EEENS_12Tdsynctraits11Rd_blockingIS9_NS_8Cptraits6PodrawIVS9_EEEENSA_15Disabled_structEEENS1_15Arraytun_size16INS1_8TupletunINS1_7Lossy16IjEENSJ_INS1_9Cset_onlyIS6_EES7_NS1_8No_checkIS7_EEEEEES9_NSP_IS9_EEEEEERSI_E4csetERNS_11Lossy_errorE)
                  000ad2df    00000022                 : Tunsuite_pa.obj (.text:_ZN4Base8TwrapdesINS_9Tuntraits9Wsync_desINS_6TdsyncINS_11TnarrayreszINS_7Xpcmap0ELm19EEENS_12Tdsynctraits11Rd_blockingIS6_NS_8Cptraits6PodrawIVS6_EEEENS7_15Disabled_structEEENS1_15Arraytun_size16INS_3XpcIN3Ver15Xpccantrait_verEE9Tuntrait0ES6_NS1_8No_checkIS6_EEEEEERSF_E4csetERNS_11Lossy_errorE)
                  000ad301    00000022                 : Tunsuite_pa.obj (.text:_ZN4Base8TwrapdesINS_9Tuntraits9Wsync_desINS_6TdsyncINS_11TnarrayreszINS_7Xpcmap0ELm45EEENS_12Tdsynctraits11Rd_blockingIS6_NS_8Cptraits6PodrawIVS6_EEEENS7_15Disabled_structEEENS1_15Arraytun_size16INS_3XpcIN3Ver11Xpcu8_traitEE9Tuntrait0ES6_NS1_8No_checkIS6_EEEEEERSF_E4csetERNS_11Lossy_errorE)
                  000ad323    00000022     first.lib : Atunarray.obj (.text:_ZN4Base9Atunarray9cset_sizeERNS_11Lossy_errorE)
                  000ad345    00000022     vpgnc.lib : Event.obj (.text:_ZN4Base9Tuntraits15Arraytun_nosizeINS0_10TundefaultIjEENS_11TnarrayreszIjLm32EEENS0_8No_checkIS5_EEE8str2elemERS5_RNS_11Lossy_errorE)
                  000ad367    00000022               : Evt_wp_groups.obj (.text:_ZN4Base9Tuntraits15Arraytun_nosizeINS0_10TundefaultIjEENS_11TnarrayreszIjLm8EEENS0_8No_checkIS5_EEE8str2elemERS5_RNS_11Lossy_errorE)
                  000ad389    00000022     veronte.lib : Tunsuite_pa.obj (.text:_ZN4Base9Tuntraits15Arraytun_nosizeINS0_7Lossy16INS_4BvarEEENS_11TnarrayreszIS3_Lm20EEENS0_8No_checkIS6_EEE8str2elemERS6_RNS_11Lossy_errorE)
                  000ad3ab    00000022     base.lib : Evactcfg.obj (.text:_ZN4Base9Tuntraits15Arraytun_nosizeINS0_7Lossy16IjEENS_11TnarrayreszIjLm128EEENS0_8No_checkIS5_EEE8str2elemERS5_RNS_11Lossy_errorE)
                  000ad3cd    00000022              : Action.obj (.text:_ZN4Base9Tuntraits15Arraytun_nosizeINS0_7Lossy16IjEENS_11TnarrayreszIjLm200EEENS0_8No_checkIS5_EEE8str2elemERS5_RNS_11Lossy_errorE)
                  000ad3ef    00000022     veronte.lib : Tunsuite_pa.obj (.text:_ZN4Base9Tuntraits15Arraytun_nosizeINS0_7Lossy16IjEENS_11TnarrayreszIjLm32EEENS0_8No_checkIS5_EEE8str2elemERS5_RNS_11Lossy_errorE)
                  000ad411    00000022     base.lib : Evactcfg.obj (.text:_ZN4Base9Tuntraits15Arraytun_nosizeINS0_7Lossy16IjEENS_11TnarrayreszIjLm8EEENS0_8No_checkIS5_EEE8str2elemERS5_RNS_11Lossy_errorE)
                  000ad433    00000022     veronte.lib : Tunsuite_pa.obj (.text:_ZN4Base9Tuntraits15Arraytun_nosizeINS_3XpcIN3Ver11Xpcu8_traitEE9Tuntrait0ENS_11TnarrayreszINS_7Xpcmap0ELm45EEENS0_8No_checkIS9_EEE8str2elemERS9_RNS_11Lossy_errorE)
                  000ad455    00000022                 : Tunsuite_pa.obj (.text:_ZN4Base9Tuntraits15Arraytun_nosizeINS_3XpcIN3Ver15Xpccantrait_verEE9Tuntrait0ENS_11TnarrayreszINS_7Xpcmap0ELm19EEENS0_8No_checkIS9_EEE8str2elemERS9_RNS_11Lossy_errorE)
                  000ad477    00000022     media.lib : Cfgmgr.obj (.text:_ZN5Media6Cfgmgr14step_comp_gcrcEv)
                  000ad499    00000022               : Cfgmgr.obj (.text:_ZN5Media6Cfgmgr14step_init_gcrcEv)
                  000ad4bb    00000022     vpgnc.lib : Oprvar.obj (.text:_ZN5Vpgnc6Oprvar4csetERN4Base11Lossy_errorE)
                  000ad4dd    00000022     devices.lib : Dev_press_cfg.obj (.text:_ZN7Devices14Dev_common_cfg4csetERN4Base11Lossy_errorE)
                  000ad4ff    00000022     pa_blocks.lib : Model_dynamic.obj (.text:_ZN8Maverick16Qr_factorizationIfE4stepERKNS_7TvectorIfEERS3_)
                  000ad521    00000022     geomodel.lib : Apos.obj (.text:_ZN8Maverick8Ivector3IfE6vecaddERKS1_)
                  000ad543    00000022     midlevel.lib : Errors_irx.obj (.text:_ZN8Midlevel10Errors_irx5on_rxERN6Stanag14IStanag_msg_rx9Rx_paramsE)
                  000ad565    00000022     pa_blocks.lib : Mixer_allocator.obj (.text:_ZN9Pa_blocks15Mixer_allocator18Allocation_resultsC1ERN4Base9AllocatorE)
                  000ad587    00000022                   : Mixer_allocator.obj (.text:_ZN9Pa_blocks15Mixer_allocator27Allocation_solve_parametersC1EjRN4Base9AllocatorE)
                  000ad5a9    00000022                   : Scheduling_data.obj (.text:_ZN9Pa_blocks15Scheduling_dataC1Ev)
                  000ad5cb    00000022                   : Hover_maneuver.obj (.text:_ZNK9Pa_blocks14Hover_maneuver34waypoint_from_waypoint_coordinatesERKNS_19Maneuver_coordinate25Waypoint_coordinate_arrayERNS_12Waypoint_msgE)
                  000ad5ed    00000022                   : Afc.obj (.text:_ZNK9Pa_blocks3Afc9Telemetry4cgetERN4Base5LossyE)
                  000ad60f    00000022     rts2800_fpu64_eabi.lib : i_div28.asm.obj (.text)
                  000ad631    00000021     DSP2838x_ent.lib : CAN_FD_cfg.obj (.text:_ZN12Dsp28335_ent10CAN_FD_cfg13validate_dataEv)
                  000ad652    00000021     pa_blocks.lib : Aee.obj (.text:_ZN19Cyphal_common_types29serialize_float16_fixed_arrayIfLm3EEEvRKN4Base7TnarrayIT_XT0_EEERNS1_5LossyE)
                  000ad673    00000021                   : Afc.obj (.text:_ZN19Cyphal_common_types29serialize_float16_fixed_arrayIfLm3EEEvRKN4Base7TnarrayIT_XT0_EEERNS1_5LossyE)
                  000ad694    00000021                   : Atcg.obj (.text:_ZN19Cyphal_common_types29serialize_float16_fixed_arrayIfLm3EEEvRKN4Base7TnarrayIT_XT0_EEERNS1_5LossyE)
                  000ad6b5    00000021                   : Sep.obj (.text:_ZN19Cyphal_common_types29serialize_float16_fixed_arrayIfLm3EEEvRKN4Base7TnarrayIT_XT0_EEERNS1_5LossyE)
                  000ad6d6    00000021                   : Tcg.obj (.text:_ZN19Cyphal_common_types29serialize_float16_fixed_arrayIfLm3EEEvRKN4Base7TnarrayIT_XT0_EEERNS1_5LossyE)
                  000ad6f7    00000021                   : Tsc.obj (.text:_ZN19Cyphal_common_types29serialize_float16_fixed_arrayIfLm3EEEvRKN4Base7TnarrayIT_XT0_EEERNS1_5LossyE)
                  000ad718    00000021                   : Waypoint_msg.obj (.text:_ZN19Cyphal_common_types29serialize_float16_fixed_arrayIfLm3EEEvRKN4Base7TnarrayIT_XT0_EEERNS1_5LossyE)
                  000ad739    00000021     base.lib : Presence_vec.obj (.text:_ZN4Base12Presence_vec4csetERNS_9U8istreamE)
                  000ad75a    00000021     vpgnc.lib : Vpu.obj (.text:_ZN4Base18Routing_table_dataILj2ELj16EE5resetEv)
                  000ad77b    00000021     first.lib : Error.obj (.text:_ZN4Base5ArrayINS_8ErrorsrcEE6appendERKS1_)
                  000ad79c    00000021               : Lossy.obj (.text:_ZN4Base5Lossy11get_float64ERe)
                  000ad7bd    00000021     base.lib : Xcmqrd.obj (.text:_ZN4Base6Xcmqrd3addENS_7XcmsgidERNS_9IstrparseE)
                  000ad7de    00000021              : Taskmgr.obj (.text:_ZN4Base7TaskmgrC1EmNS_6Memmgr4TypeEj)
                  000ad7ff    00000021     veronte.lib : Hevact_cpu2.obj (.text:_ZN4Base8TwrapdesINS_9Tuntraits9Wsync_desINS_6TdsyncINS_8ArraymskINS_6ActionELj120EEENS_12Tdsynctraits11Rd_blockingIS6_NS_8Cptraits6PodrawIVS6_EEEENS7_15Disabled_structEEENS1_11TunarraymskIS5_Lj120EEEEERSF_E4csetERNS_11Lossy_errorE)
                  000ad820    00000021                 : Hevact_cpu2.obj (.text:_ZN4Base8TwrapdesINS_9Tuntraits9Wsync_desINS_6TdsyncINS_8ArraymskINS_9Evactcfg0ELj100EEENS_12Tdsynctraits11Rd_blockingIS6_NS_8Cptraits6PodrawIVS6_EEEENS7_15Disabled_structEEENS1_11TunarraymskIS5_Lj100EEEEERSF_E4csetERNS_11Lossy_errorE)
                  000ad841    00000021     first.lib : U8ostream.obj (.text:_ZN4Base9U8ostream10put_mblockERKNS_12U8pkmblock_kE)
                  000ad862    00000021     media.lib : Cfgmgr.obj (.text:_ZN5Media6Cfgmgr18fload_crc_blockingEN4Base3Cfg2IdE)
                  000ad883    00000021     vpgnc.lib : Event.obj (.text:_ZN5Vpgnc5Event12step_wrapperERKNS_7VlimitsEb)
                  000ad8a4    00000021     devices.lib : Ubxcfgdata.obj (.text:_ZN7Devices3Ubx10UbxcfggnssILj3EE8Cfgblock4csetERN4Base11Lossy_errorE)
                  000ad8c5    00000021     maverick.lib : Irquat.obj (.text:_ZN8Maverick6Irquat5scaleEf)
                  000ad8e6    00000021     midlevel.lib : Sys_status_mgr.obj (.text:_ZN8Midlevel14Sys_status_mgr6Config4csetERN4Base11Lossy_errorE)
                  000ad907    00000021     pa_blocks.lib : Land_manager.obj (.text:_ZN9Pa_blocks12Land_manager5ParamC1Ev)
                  000ad928    00000021                   : Mission_plan.obj (.text:_ZN9Pa_blocks12Mission_plan17try_parse_missionEN4Base6MblockIjEEmb)
                  000ad949    00000021                   : State_machines.obj (.text:_ZN9Pa_blocks14State_machines36eval_takeoff_above_complete_altitudeEv)
                  000ad96a    00000021                   : Delivery_action.obj (.text:_ZN9Pa_blocks15Delivery_action26set_lla_backyard_exit_dataERN4Base4TllhE)
                  000ad98b    00000021                   : Mission_utilities.obj (.text:_ZN9Pa_blocks17Mission_utilities32is_alternate_plan_after_deliveryERKNS_12Initial_planERKNS_14Alternate_planE)
                  000ad9ac    00000021                   : Straight_maneuver.obj (.text:_ZN9Pa_blocks17Straight_maneuver7invalidERNS_12Maneuver_msgE)
                  000ad9cd    00000021                   : Commands_processor.obj (.text:_ZN9Pa_blocks18Commands_processor15Takeoff_commandC1Ev)
                  000ad9ee    00000021                   : Controllers_telemetry.obj (.text:_ZN9Pa_blocks21Controllers_telemetryC1Ev)
                  000ada0f    00000021                   : Mission_bounding_box_data.obj (.text:_ZN9Pa_blocks25Mission_bounding_box_data5resetEv)
                  000ada30    00000021                   : Mission_takeoff_landing_information.obj (.text:_ZN9Pa_blocks35Mission_takeoff_landing_informationC1Ev)
                  000ada51    00000021                   : Atcg.obj (.text:_ZN9Pa_blocks4Atcg6State_C1ERNS_17Gnc_model_dynamicE)
                  000ada72    00000021                   : Ttcg.obj (.text:_ZN9Pa_blocks4Ttcg16clear_route_dataEv)
                  000ada93    00000021                   : Ttcg.obj (.text:_ZN9Pa_blocks4Ttcg22update_phase_of_flightERKNS0_5InputE)
                  000adab4    00000021                   : Pa_irquat.obj (.text:_ZN9Pa_blocks9Pa_irquat23quat_conj_rotate_vectorERKN8Maverick6IrquatERKNS1_9Irvector3ERS5_)
                  000adad5    00000021     base.lib : CRC.obj (.text:_ZNK4Base3CRC6Config4cgetERNS_5LossyE)
                  000adaf6    00000021     pa_blocks.lib : Onground_controller_info.obj (.text:_ZNK9Pa_blocks24Onground_controller_info4cgetERN4Base5LossyE)
                  000adb17    00000021                   : Recovery_controls_command_processor.obj (.text:_ZNK9Pa_blocks35Recovery_controls_command_processor22is_state_reset_allowedEv)
                  000adb38    00000021     crypto_c28.lib : sha256.obj (.text:reverse_dword)
                  000adb59    00000021     rts2800_fpu64_eabi.lib : memmov.c.obj (.text)
                  000adb7a    00000021                            : new.c.obj (.text)
                  000adb9b    00000020     DSP2838x_ent.lib : CAN_FD_cfg.obj (.text:_ZN12Dsp28335_ent10CAN_FD_cfg10Timings_ex4csetERN4Base11Lossy_errorE)
                  000adbbb    00000020                      : Pwmdev_2838x.obj (.text:_ZN12Dsp28335_ent6Pwmdev3getENS0_5PWMidE)
                  000adbdb    00000020     maverick.lib : Rtable.obj (.text:_ZN4Base6MblockIKfE20sub_mblock_with_sizeEm)
                  000adbfb    00000020     veronte.lib : Copystep.obj (.text:_ZN4Base6MblockIVKbE20sub_mblock_with_sizeEm)
                  000adc1b    00000020                 : Copystep.obj (.text:_ZN4Base6MblockIVKfE20sub_mblock_with_sizeEm)
                  000adc3b    00000020                 : Copystep.obj (.text:_ZN4Base6MblockIVKjE20sub_mblock_with_sizeEm)
                  000adc5b    00000020                 : Tunsuite_pa.obj (.text:_ZN4Base6MblockIfE20sub_mblock_with_sizeEm)
                  000adc7b    00000020     base.lib : Stepmgr_dsp.obj (.text:_ZN4Base7Stepmgr12get_instanceEv)
                  000adc9b    00000020              : Vref_wr.obj (.text:_ZN4Base7Vref_wr4vsetEf)
                  000adcbb    00000020     vblocks.lib : Dyn_multi_interpolator.obj (.text:_ZN4Base8DynarrayIN6Blocks10DynrvectorEE12allocate_newERNS_9AllocatorEm)
                  000adcdb    00000020     base.lib : Cfgsync.obj (.text:_ZN4Base8Hash_mapINS_8Sync_map7ElementEE11get_elementERNS3_8IteratorE)
                  000adcfb    00000020     vpgnc.lib : Evtmgr.obj (.text:_ZN4Base8TunarrayINS_5LimitELb0EE4csetERNS_11Lossy_errorE)
                  000add1b    00000020               : Rvar_op_commit.obj (.text:_ZN4Base8TunarrayINS_8TwraptunINS_9Tuntraits11Lossy_floatEfEELb1EE4csetERNS_11Lossy_errorE)
                  000add3b    00000020     first.lib : Call_stat.obj (.text:_ZN4Base9Call_statC1Ef)
                  000add5b    00000020     veronte.lib : Tunsuite_pa.obj (.text:_ZN4Base9Tuntraits15Arraytun_nosizeINS0_15Arraytun_size16INS0_8TupletunINS0_9Cset_onlyIN6Stanag14Subsystem_data8Key_dataEEENS0_7Lossy16INS_4UvarEEEEENS_11TnarrayreszINS_5TupleIS7_SA_EELm64EEENS0_8No_checkISG_EEEENS_7TnarrayISG_Lm32EEENSH_ISL_EEE8str2elemERSL_RNS_11Lossy_errorE)
                  000add7b    00000020     first.lib : U8istream.obj (.text:_ZN4Base9U8istream13get_uint64_beEj)
                  000add9b    00000020     blocks.lib : Dynrvector.obj (.text:_ZN6Blocks10Dynrvector4csetERN4Base11Lossy_errorERNS1_9AllocatorE)
                  000addbb    00000020     stanag.lib : Subsystem_status.obj (.text:_ZN6Stanag14U8istream_pvec9get_fieldIN4Base10StimestampEEEbRT_)
                  000adddb    00000020     pa_blocks.lib : Mixer_allocator.obj (.text:_ZN8Maverick7TmatrixIeE8add_diagERKNS_6TarrayIeEE)
                  000addfb    00000020                   : Upload_mission_plan.obj (.text:_ZN9Pa_blocks19Upload_mission_plan4csetERN4Base5LossyE)
                  000ade1b    00000020                   : Vsdk_params.obj (.text:_ZN9Pa_blocks19Vsdk_logging_params4csetERN4Base11Lossy_errorE)
                  000ade3b    00000020                   : Controllers_telemetry.obj (.text:_ZN9Pa_blocks21Controllers_telemetry5resetEv)
                  000ade5b    00000020                   : Afc.obj (.text:_ZN9Pa_blocks3Afc11reset_stateEv)
                  000ade7b    00000020                   : Atcg.obj (.text:_ZN9Pa_blocks4Atcg5InputC1ERKNS_20State_machines_state4Mode16Controllers_modeERKN8Maverick6IrquatESA_RKfRKNS_12Waypoint_msgERKNS7_9Irvector3ERKNS2_4Land4TypeERKNS_11Heading_msgESC_)
                  000ade9b    00000020                   : Atcg.obj (.text:_ZN9Pa_blocks4Atcg9TelemetryC1Ev)
                  000adebb    00000020                   : Ttcg.obj (.text:_ZN9Pa_blocks4Ttcg27set_current_maneuver_statusENS_12Maneuver_msg6StatusE)
                  000adedb    00000020                   : Motor_performance.obj (.text:_ZN9Pa_blocks9Esc_state4csetERN4Base5LossyE)
                  000adefb    00000020     veronte.lib : Hvar_cpu2.obj (.text:_ZNK3Bsp5Hfvar3getERN4Base7FeatureE)
                  000adf1b    00000020     maverick.lib : Rtable.obj (.text:_ZNK4Base6MblockIKfE20sub_mblock_with_sizeEm)
                  000adf3b    00000020     base.lib : Cfgsync.obj (.text:_ZNK4Base8Hash_mapINS_8Sync_map7ElementEE11get_elementERNS3_8IteratorE)
                  000adf5b    00000020     vpgnc.lib : Oprvar.obj (.text:_ZNK5Vpgnc6Oprvar5checkERN4Base5ErrorE)
                  000adf7b    00000020     pa_blocks.lib : Upload_mission_plan.obj (.text:_ZNK9Pa_blocks19Upload_mission_plan4cgetERN4Base5LossyE)
                  000adf9b    00000020     geomodel.lib : Apos.obj (.text:__sti___8_Apos_cpp_ad6fc636)
                  000adfbb    0000001f     DSP2838x_ent.lib : Htime_2838x.obj (.text:_ZN3Bsp5Htime8get_timeEv)
                  000adfda    0000001f     base.lib : Channelmgrcfg.obj (.text:_ZN4Base13Channelmgrcfg6Chnsel4csetERNS_11Lossy_errorE)
                  000adff9    0000001f              : Stanag_msg_type.obj (.text:_ZN4Base15Stanag_msg_type10needs_authENS0_8Msg_typeE)
                  000ae018    0000001f     first.lib : Lossy.obj (.text:_ZN4Base5Lossy11get_n_uint8ERNS_10U8pkmblockE)
                  000ae037    0000001f               : Lossy.obj (.text:_ZN4Base5Lossy8get_int8ERc)
                  000ae056    0000001f     veronte.lib : Xcrdsuite.obj (.text:_ZN4Base6XcmvarINS_4UvarENS_9Tuntraits9U16str_16IjEEE6Parser5parseERNS_17U16stream_r_errorE)
                  000ae075    0000001f                 : Pwm_suite.obj (.text:_ZN4Base8TunarrayIN12Dsp28335_ent8PwmsuiteINS1_6PwmdevELj16EE6ConfigELb0EE4csetERNS_11Lossy_errorE)
                  000ae094    0000001f     vpgnc.lib : Evtmgr.obj (.text:_ZN4Base8TunarrayIN5Vpgnc5EventELb0EE4csetERNS_11Lossy_errorE)
                  000ae0b3    0000001f               : Opranges.obj (.text:_ZN4Base8TunarrayIN5Vpgnc8Opranges3RngELb0EE4csetERNS_11Lossy_errorE)
                  000ae0d2    0000001f     base.lib : Fsniffer.obj (.text:_ZN4Base8TunarrayINS_10Vmap_entryELb0EE4csetERNS_11Lossy_errorE)
                  000ae0f1    0000001f     veronte.lib : Tunsuite_pa.obj (.text:_ZN4Base8TunarrayINS_13Channelmgrcfg6ChncfgELb0EE4csetERNS_11Lossy_errorE)
                  000ae110    0000001f                 : Tunsuite_pa.obj (.text:_ZN4Base8TunarrayINS_13Channelmgrcfg6ChnselELb0EE4csetERNS_11Lossy_errorE)
                  000ae12f    0000001f                 : Hevact_cpu2.obj (.text:_ZN4Base8TunarrayINS_6ActionELb0EE4csetERNS_11Lossy_errorE)
                  000ae14e    0000001f     base.lib : Sticktypes.obj (.text:_ZN4Base8TunarrayINS_8StickoutELb0EE4csetERNS_11Lossy_errorE)
                  000ae16d    0000001f     veronte.lib : Hevact_cpu2.obj (.text:_ZN4Base8TunarrayINS_9Evactcfg0ELb0EE4csetERNS_11Lossy_errorE)
                  000ae18c    0000001f     blocks.lib : Dynrvector.obj (.text:_ZN6Blocks10Dynrvector8allocateERN4Base9AllocatorEm)
                  000ae1ab    0000001f     Blockfactory_pac.obj (.text:_ZN7Vblocks12Blockfactory13post_pdi_loadEv)
                  000ae1ca    0000001f     pa_blocks.lib : Pa_geometric.obj (.text:_ZN8Maverick8Ivector2IfE10norm2alizeEv)
                  000ae1e9    0000001f                   : Velocity_3d.obj (.text:_ZN9Pa_blocks11Velocity_3d4csetERN4Base5LossyE)
                  000ae208    0000001f                   : Waypoint_msg.obj (.text:_ZN9Pa_blocks12Waypoint_msg5clearEv)
                  000ae227    0000001f                   : Motor_rpm_cmd.obj (.text:_ZN9Pa_blocks13Motor_rpm_cmd8on_rx_cyEN6Cyphal17Cyphal_stg_fieldsERN6Stanag14IStanag_msg_rx9Rx_paramsE)
                  000ae246    0000001f                   : Flight_dynamics.obj (.text:_ZN9Pa_blocks15Flight_dynamics47true_airspeed_from_ground_speed_and_wind_vectorERKN8Maverick9Irvector3ES4_)
                  000ae265    0000001f                   : Command_response.obj (.text:_ZN9Pa_blocks16Command_response8on_rx_cyEN6Cyphal17Cyphal_stg_fieldsERN6Stanag14IStanag_msg_rx9Rx_paramsE)
                  000ae284    0000001f                   : Mission_utilities.obj (.text:_ZN9Pa_blocks17Mission_utilities23is_takeoff_action_validERKNS_14Takeoff_actionERKj)
                  000ae2a3    0000001f                   : Mission_utilities.obj (.text:_ZN9Pa_blocks17Mission_utilities24route_type_from_route_idEmRNS0_10Route_typeE)
                  000ae2c2    0000001f                   : Recovery_route_constructor.obj (.text:_ZN9Pa_blocks26Recovery_route_constructor6OutputC1Ev)
                  000ae2e1    0000001f                   : Tsc.obj (.text:_ZN9Pa_blocks3Tsc16Vsdk_parameters_4csetERN4Base11Lossy_errorE)
                  000ae300    0000001f                   : Tp_state.obj (.text:_ZN9Pa_blocks8Tp_stateC1Ev)
                  000ae31f    0000001f     DSP28x.lib : CANcfg.obj (.text:_ZNK12Dsp28335_ent6CANcfg8validateEv)
                  000ae33e    0000001f     base.lib : Cfgsync.obj (.text:_ZNK4Base7Cfgsync8get_mcrcENS_3Cfg2IdE)
                  000ae35d    0000001f              : Kfieldset.obj (.text:_ZNK4Base9Kfieldset13user_writableEv)
                  000ae37c    0000001f     pa_blocks.lib : Mission_plan.obj (.text:_ZNK9Pa_blocks12Mission_plan18delivery_action_idEv)
                  000ae39b    0000001f                   : Gnc_transformation.obj (.text:_ZNK9Pa_blocks18Gnc_transformation16get_build_paramsEv)
                  000ae3ba    0000001f                   : Trajectory_planner.obj (.text:_ZNK9Pa_blocks18Trajectory_planner17initialize_outputEmRNS_9Tp_outputERNS_11Tp_log_dataE)
                  000ae3d9    0000001f                   : Recovery_lane_step1.obj (.text:_ZNK9Pa_blocks19Recovery_lane_step122Recovery_state_machine4Logs4cgetERN4Base5LossyE)
                  000ae3f8    0000001f                   : Command_response.obj (.text:_ZThn4_N9Pa_blocks16Command_response16get_cyphal_flagsEv)
                  000ae417    0000001e     DSP2837x_ent.lib : Wipe_memory_c2_2838x.obj (.text:_ZN12Dsp28335_ent14wipe_memory_c2Ev)
                  000ae435    0000001e                      : ISRmgr.obj (.text:_ZN12Dsp28335_ent6ISRmgr4initEv)
                  000ae453    0000001e     veronte.lib : Hvar.obj (.text:_ZN3Bsp5Hrvar10get_kblockEN4Base4RvarES2_)
                  000ae471    0000001e     geomodel.lib : Fmemcmd.obj (.text:_ZN3Geo7Fmemcmd4csetERN4Base11Lossy_errorE)
                  000ae48f    0000001e     veronte.lib : Ext_nav_cfg.obj (.text:_ZN3Ver11Ext_nav_cfg4csetERN4Base11Lossy_errorE)
                  000ae4ad    0000001e     pa_blocks.lib : Trajectory_planner.obj (.text:_ZN4Base11TnarrayreszImLm4EE6appendERKm)
                  000ae4cb    0000001e     base.lib : Presence_vec.obj (.text:_ZN4Base12Presence_vec4csetERNS_11U16stream_rE)
                  000ae4e9    0000001e              : CRCmav.obj (.text:_ZN4Base6CRCmavC1Eh)
                  000ae507    0000001e     Vmain_cpu2.obj (.text:_ZN4Base7Timevar4stepEv)
                  000ae525    0000001e     vpgnc.lib : Vpu.obj (.text:_ZN4Base9Allocator12allocate_newIN3Ver9XcrdsuiteENS_11Vpktsend_xcENS_9IstrparseEKNS_7TnarrayINS_15Auth_connectionELm5EEEEEPT_RT0_RT1_RT2_)
                  000ae543    0000001e     veronte.lib : Tunsuite_pa.obj (.text:_ZN4Base9Tuntraits15Arraytun_nosizeINS0_10DesdefaultINS_7CANin_p6ConfigEEENS_11TnarrayreszIS4_Lm6EEENS0_8No_checkIS7_EEE8str2elemERS7_RNS_11Lossy_errorE)
                  000ae561    0000001e                 : Tunsuite_pa.obj (.text:_ZN4Base9Tuntraits15Arraytun_nosizeINS0_10DesdefaultINS_9CANgpio_p6ConfigEEENS_11TnarrayreszIS4_Lm2EEENS0_8No_checkIS7_EEE8str2elemERS7_RNS_11Lossy_errorE)
                  000ae57f    0000001e                 : Tunsuite_pa.obj (.text:_ZN4Base9Tuntraits15Arraytun_nosizeINS0_10DesdefaultINS_9SerialCAN6ConfigEEENS_11TnarrayreszIS4_Lm6EEENS0_8No_checkIS7_EEE8str2elemERS7_RNS_11Lossy_errorE)
                  000ae59d    0000001e                 : Tunsuite_pa.obj (.text:_ZN4Base9Tuntraits15Arraytun_nosizeINS0_10TundefaultINS_18Routing_table_dataILj2ELj16EE5TableEEENS_11TnarrayreszIS5_Lm2EEENS0_8No_checkIS8_EEE8str2elemERS8_RNS_11Lossy_errorE)
                  000ae5bb    0000001e                 : Tunsuite_pa.obj (.text:_ZN4Base9Tuntraits15Arraytun_nosizeINS0_10TundefaultINS_19Routing_table_entryEEENS_11TnarrayreszIS3_Lm16EEENS0_8No_checkIS6_EEE8str2elemERS6_RNS_11Lossy_errorE)
                  000ae5d9    0000001e     pa_blocks.lib : DComms_cfg.obj (.text:_ZN4Base9Tuntraits15Arraytun_nosizeINS0_4CxetIN9Pa_blocks10DComms_cfg10Freq_entryEEENS_11TnarrayreszIS5_Lm64EEENS0_8No_checkIS8_EEE8elem2strERKS8_RNS_5LossyE)
                  000ae5f7    0000001e                   : DComms_cfg.obj (.text:_ZN4Base9Tuntraits15Arraytun_nosizeINS0_4CxetIN9Pa_blocks10DComms_cfg10Freq_entryEEENS_11TnarrayreszIS5_Lm64EEENS0_8No_checkIS8_EEE8str2elemERS8_RNS_11Lossy_errorE)
                  000ae615    0000001e     veronte.lib : Tunsuite_pa.obj (.text:_ZN4Base9Tuntraits15Arraytun_nosizeINS0_9Cset_onlyIN6Stanag15Stanag_msg_cfgs9Cfg_entryEEENS_11TnarrayreszIS5_Lm20EEENS0_8No_checkIS8_EEE8str2elemERS8_RNS_11Lossy_errorE)
                  000ae633    0000001e                 : Hxcfield_cpu2.obj (.text:_ZN4Base9Tuntraits15Arraytun_nosizeINS0_9Cset_onlyIN6Stanag7FstgcfgEEENS_11TnarrayreszIS4_Lm40EEENS0_8No_checkIS7_EEE8str2elemERS7_RNS_11Lossy_errorE)
                  000ae651    0000001e                 : Hxcfield_cpu2.obj (.text:_ZN4Base9Tuntraits15Arraytun_nosizeINS0_9Cset_onlyINS_5FieldEEENS_11TnarrayreszIS3_Lm128EEENS0_8No_checkIS6_EEE8str2elemERS6_RNS_11Lossy_errorE)
                  000ae66f    0000001e     media.lib : Cfgmgr.obj (.text:_ZN5Media6Cfgmgr12is_startableEN4Base3Cfg2IdE)
                  000ae68d    0000001e     vpgnc.lib : Event.obj (.text:_ZN5Vpgnc5EventC1Ev)
                  000ae6ab    0000001e               : Opmgr.obj (.text:_ZN5Vpgnc5Opmgr16build_oprvar_tunEv)
                  000ae6c9    0000001e               : Evtmgr.obj (.text:_ZN5Vpgnc6Evtmgr16build_limits_tunEv)
                  000ae6e7    0000001e               : Opranges.obj (.text:_ZN5Vpgnc8Opranges9build_tunEv)
                  000ae705    0000001e     pa_blocks.lib : Mission_readiness.obj (.text:_ZN9Pa_blocks17Mission_readiness4csetERN4Base5LossyE)
                  000ae723    0000001e                   : Mission_utilities.obj (.text:_ZN9Pa_blocks17Mission_utilities24route_id_from_route_typeERKNS0_10Route_typeEmRm)
                  000ae741    0000001e                   : Track_spline_manager.obj (.text:_ZN9Pa_blocks20Track_spline_managerC1ERKNS0_5ParamERKNS_18Vsdk_common_paramsERNS0_5StateE)
                  000ae75f    0000001e                   : Forces_and_torques_request.obj (.text:_ZN9Pa_blocks26Forces_and_torques_request9TelemetryC1Ev)
                  000ae77d    0000001e                   : Recovery_route_constructor.obj (.text:_ZN9Pa_blocks26Recovery_route_constructor6Output5resetEv)
                  000ae79b    0000001e                   : Afc.obj (.text:_ZN9Pa_blocks3Afc9TelemetryC1Ev)
                  000ae7b9    0000001e                   : Atcg.obj (.text:_ZN9Pa_blocks4Atcg6State_5resetEv)
                  000ae7d7    0000001e     first.lib : Vref.obj (.text:_ZNK4Base4Vref4cgetERNS_5LossyE)
                  000ae7f5    0000001e     base.lib : Cfgsync.obj (.text:_ZNK4Base7Cfgsync10is_enabledENS_3Cfg2IdE)
                  000ae813    0000001e              : Checklist.obj (.text:_ZNK4Base9Checklist5checkERNS_5ErrorE)
                  000ae831    0000001e              : Kfieldset.obj (.text:_ZNK4Base9Kfieldset8compressERNS_5LossyERKNS_4IgetE)
                  000ae84f    0000001e     pa_blocks.lib : Recovery_alerts.obj (.text:_ZNK9Pa_blocks15Recovery_alerts4cgetERN4Base5LossyE)
                  000ae86d    0000001e                   : Ttcg.obj (.text:_ZNK9Pa_blocks4Ttcg24get_current_maneuver_msgEv)
                  000ae88b    0000001e     rts2800_fpu64_eabi.lib : ll_cmp28.asm.obj (.text)
                  000ae8a9    0000001d     base.lib : Cyphal_common_types.obj (.text:_ZN19Cyphal_common_types16deserialize_tllhERN4Base4TllhERNS0_5LossyE)
                  000ae8c6    0000001d     pa_blocks.lib : Aacg.obj (.text:_ZN19Cyphal_common_types29serialize_float32_fixed_arrayIfLm4EEEvRKN4Base7TnarrayIT_XT0_EEERNS1_5LossyE)
                  000ae8e3    0000001d                   : Aee.obj (.text:_ZN19Cyphal_common_types29serialize_float32_fixed_arrayIfLm4EEEvRKN4Base7TnarrayIT_XT0_EEERNS1_5LossyE)
                  000ae900    0000001d                   : Sep.obj (.text:_ZN19Cyphal_common_types29serialize_float32_fixed_arrayIfLm4EEEvRKN4Base7TnarrayIT_XT0_EEERNS1_5LossyE)
                  000ae91d    0000001d     stanag.lib : Stanag_msg_cfgs.obj (.text:_ZN4Base3MapINS_15Stanag_msg_type8Msg_typeEPN6Stanag14IStanag_msg_txEE3putERKS2_RKS5_)
                  000ae93a    0000001d     midlevel.lib : Irxfw.obj (.text:_ZN4Base3MapINS_15Stanag_msg_type8Msg_typeEPN6Stanag14IStanag_rx_hdlEE3putERKS2_RKS5_)
                  000ae957    0000001d     media.lib : Cfgmgr.obj (.text:_ZN4Base3MapINS_3Cfg2IdEPNS_14Itunable_asyncEE3putERKS2_RKS4_)
                  000ae974    0000001d               : Cfgmgr.obj (.text:_ZN4Base3MapINS_3Cfg2IdEPNS_21Ideserializable_asyncEE3putERKS2_RKS4_)
                  000ae991    0000001d     veronte.lib : Hxcff.obj (.text:_ZN4Base4XcrdC1ILm1968EEERVNS_6XcffrdIjEERVKNS_6XcffwrIjXT_EEE)
                  000ae9ae    0000001d     vpgnc.lib : Vpu.obj (.text:_ZN4Base9Fifospsc0IVNS_11Spkt_bufferENS_10SPSCtraits8ExternalENS3_12Internal_refEE5writeINS_4SpktENS_8Cptraits4CopyIKS8_S2_EEEEbNS_12JSF116_paramIT_E4typeE)
                  000ae9cb    0000001d     media.lib : Cfgmgr.obj (.text:_ZN5Media6Cfgmgr16send_load_resultEN4Base7AddressENS1_3Cfg2IdEb)
                  000ae9e8    0000001d               : Cfgmgr.obj (.text:_ZN5Media6Cfgmgr16send_save_resultEN4Base7AddressENS1_3Cfg2IdEb)
                  000aea05    0000001d     base.lib : Cyphal.obj (.text:_ZN6Cyphal10Cyphal_msg6set_idENS_8CyCAN_idE)
                  000aea22    0000001d     pa_blocks.lib : Cqp.obj (.text:_ZN8Maverick6TarrayIeE8subtractERKN4Base5ArrayIeEES6_)
                  000aea3f    0000001d                   : State_machines.obj (.text:_ZN9Pa_blocks14State_machines29initialize_land_state_machineERKNS_20State_machines_state4Mode16Controllers_modeERKNS_15Phase_of_flightERNS1_4LandE)
                  000aea5c    0000001d                   : Trajectory_planner.obj (.text:_ZN9Pa_blocks18Trajectory_plannerC1ERKNS_8Tp_paramERKNS_13Tp_vsdk_paramERKNS_9Lane_type4TypeERNS_8Tp_stateERNS_11Text_loggerE)
                  000aea79    0000001d                   : Command_contingency_wrapper.obj (.text:_ZN9Pa_blocks19Command_contingency4csetERN4Base5LossyE)
                  000aea96    0000001d                   : Takeoff_command_params.obj (.text:_ZN9Pa_blocks22Takeoff_command_paramsC1Ev)
                  000aeab3    0000001d                   : Aee.obj (.text:_ZN9Pa_blocks3Aee9Telemetry5resetEv)
                  000aead0    0000001d                   : Vector_saturation.obj (.text:_ZN9Pa_blocks45_GLOBAL__N__21_Vector_saturation_cpp_dbbd679722check_saturation_in_r3ERKN8Maverick9Irvector3Ef)
                  000aeaed    0000001d                   : Aacg.obj (.text:_ZN9Pa_blocks4Aacg6State_5resetEv)
                  000aeb0a    0000001d                   : Ttcg.obj (.text:_ZN9Pa_blocks4Ttcg23is_maneuver_id_in_routeERKNS_9Route_msgEm)
                  000aeb27    0000001d                   : Tp_input.obj (.text:_ZN9Pa_blocks8Tp_inputC1Ev)
                  000aeb44    0000001d                   : Pa_irquat.obj (.text:_ZN9Pa_blocks9Pa_irquat10quat2pitchERKN8Maverick6IrquatE)
                  000aeb61    0000001d     base.lib : Xcfile.obj (.text:_ZNK4Base6Xcfile8get_sizeERm)
                  000aeb7e    0000001d              : Cfgsync.obj (.text:_ZNK4Base7Cfgsync11is_modifiedENS_3Cfg2IdE)
                  000aeb9b    0000001d              : Kfieldset.obj (.text:_ZNK4Base9Kfieldset8get_sizeEv)
                  000aebb8    0000001d     pa_blocks.lib : DComms_cfg.obj (.text:_ZNK9Pa_blocks10DComms_cfg11Reg_str_cfg4cgetERN4Base5LossyE)
                  000aebd5    0000001d                   : Mission_plan.obj (.text:_ZNK9Pa_blocks12Mission_plan17alternate_plan_idEm)
                  000aebf2    0000001d                   : Mission_plan.obj (.text:_ZNK9Pa_blocks12Mission_plan36alternate_plan_start_mission_step_idEm)
                  000aec0f    0000001d                   : Takeoff_manager.obj (.text:_ZNK9Pa_blocks15Takeoff_manager20set_controller_modesERKNS_20State_machines_state12Takeoff_mode4ModeERNS_18Modes_and_commandsE)
                  000aec2c    0000001d                   : Recovery_route_constructor.obj (.text:_ZNK9Pa_blocks26Recovery_route_constructor22is_specification_validEv)
                  000aec49    0000001d                   : Recovery_route_constructor.obj (.text:_ZNK9Pa_blocks26Recovery_route_constructor25get_takeoff_route_commandERNS_19Command_route_entryE)
                  000aec66    0000001d     base.lib : Flogic.obj (.text:_ZNVK4Base6Flogic12next_elementERPVKjRj)
                  000aec83    0000001d     rts2800_fpu64_eabi.lib : memcpy.c.obj (.text)
                  000aeca0    0000001c     pa_blocks.lib : Controllers_state_estimate.obj (.text:_ZN19Cyphal_common_types31deserialize_float32_fixed_arrayIfLm3EEEvRN4Base7TnarrayIT_XT0_EEERNS1_5LossyE)
                  000aecbc    0000001c                   : Controllers_state_estimate.obj (.text:_ZN19Cyphal_common_types31deserialize_float32_fixed_arrayIfLm4EEEvRN4Base7TnarrayIT_XT0_EEERNS1_5LossyE)
                  000aecd8    0000001c     first.lib : Lossy.obj (.text:_ZN4Base5Lossy9get_bool1ERb)
                  000aecf4    0000001c     pa_blocks.lib : Mixer_allocator.obj (.text:_ZN4Base7Mb_util7max_valINS_6MblockIKfEEEENS_12Remove_cvrefINT_4typeEE4typeERKS6_)
                  000aed10    0000001c     base.lib : Stepmgr.obj (.text:_ZN4Base7Stepmgr5Step0C1Ev)
                  000aed2c    0000001c              : Xcfilecli.obj (.text:_ZN4Base8XcbufferILm512EE6Reader5startEv)
                  000aed48    0000001c              : Errors_single.obj (.text:_ZN4Base9Fifospsc0IVKjNS_10SPSCtraits12Internal_refENS2_8ExternalEE4readIjNS_8Cptraits8OperatorIS1_jEEEEbRT_)
                  000aed64    0000001c     pa_blocks.lib : DComms_cfg.obj (.text:_ZN4Base9Tuntraits15Arraytun_nosizeINS0_4CxetIN9Pa_blocks10DComms_cfg7Reg_cfgEEENS_11TnarrayreszIS5_Lm30EEENS0_8No_checkIS8_EEE8elem2strERKS8_RNS_5LossyE)
                  000aed80    0000001c                   : DComms_cfg.obj (.text:_ZN4Base9Tuntraits15Arraytun_nosizeINS0_4CxetIN9Pa_blocks10DComms_cfg7Reg_cfgEEENS_11TnarrayreszIS5_Lm30EEENS0_8No_checkIS8_EEE8str2elemERS8_RNS_11Lossy_errorE)
                  000aed9c    0000001c     DSP2838x_ent.lib : CAN_FD_cfg.obj (.text:_ZN4Base9Tuntraits15Arraytun_nosizeINS0_9Cset_onlyIN12Dsp28335_ent6CANcfg5RxcfgEEENS_11TnarrayreszIS5_Lm32EEENS0_8No_checkIS8_EEE8str2elemERS8_RNS_11Lossy_errorE)
                  000aedb8    0000001c     veronte.lib : Hxcfield_cpu2.obj (.text:_ZN4Base9Tuntraits15Arraytun_nosizeINS0_9Cset_onlyINS_8Fmsg_cfgEEENS_11TnarrayreszIS3_Lm32EEENS0_8No_checkIS6_EEE8str2elemERS6_RNS_11Lossy_errorE)
                  000aedd4    0000001c     vpgnc.lib : Opmgr.obj (.text:_ZN5Vpgnc5OpmgrC1ERKN4Base9ChecklistE)
                  000aedf0    0000001c     pa_blocks.lib : Cqp.obj (.text:_ZN8Maverick6TarrayIeE10lincmb_addEeRKN4Base5ArrayIeEE)
                  000aee0c    0000001c     maverick.lib : Dotfpu.obj (.text:_ZN8Maverick7dot_fpuEPKeS1_j)
                  000aee28    0000001c     pa_blocks.lib : Pa_scheduler.obj (.text:_ZN9Pa_blocks12Pa_scheduler12get_instanceEv)
                  000aee44    0000001c                   : Waypoint_msg.obj (.text:_ZN9Pa_blocks12Waypoint_msg8set_dataERKN4Base7TnarrayIfLm3EEES5_S5_)
                  000aee60    0000001c                   : Vec_sat_output.obj (.text:_ZN9Pa_blocks14Vec_sat_outputC1EN4Base6MblockIfEE)
                  000aee7c    0000001c                   : Pre_flight_checks.obj (.text:_ZN9Pa_blocks17Pre_flight_checksC1Ev)
                  000aee98    0000001c                   : Controllers_object.obj (.text:_ZN9Pa_blocks18Controllers_object50compute_moment_from_angular_acceleration_trim0_ncgERKN8Maverick9Irvector3ERKNS1_6IrquatERS2_)
                  000aeeb4    0000001c                   : Trajectory_planner.obj (.text:_ZN9Pa_blocks18Shallow_copy_arrayIfE6appendERKf)
                  000aeed0    0000001c                   : Recovery_mission_phase_of_flight.obj (.text:_ZN9Pa_blocks32Recovery_mission_phase_of_flight5InputC1ERKNS_35Mission_takeoff_landing_informationERKNS_25MonRec_controller_commandE)
                  000aeeec    0000001c                   : Tcg.obj (.text:_ZN9Pa_blocks3Tcg27initialize_after_switchoverERKNS_26Controllers_state_estimateE)
                  000aef08    0000001c     veronte.lib : Tunsuite_pa.obj (.text:_ZNK12Dsp28335_ent8TGPIOtunINS_9GPIOmux16EE8is_validEv)
                  000aef24    0000001c     pa_blocks.lib : Recovery_wrapper_control_system_object.obj (.text:_ZNK9Pa_blocks38Recovery_wrapper_control_system_object22is_state_reset_allowedEv)
                  000aef40    0000001b     first.lib : U8pkmblock.obj (.text:_ZN4Base10U8pkmblock5writeEmRKNS_12U8pkmblock_kEmm)
                  000aef5b    0000001b     vpgnc.lib : Vpu.obj (.text:_ZN4Base6Cmdvar3VarC1Ev)
                  000aef76    0000001b     base.lib : Msg_data.obj (.text:_ZN4Base8Msg_dataC1ENS_7AddressENS_15Stanag_msg_type8Msg_typeEjb)
                  000aef91    0000001b     first.lib : PDIcheck.obj (.text:_ZN4Base8PDIcheck7append0ERKNS_5ErrorE)
                  000aefac    0000001b     media.lib : Cfgcrc_async.obj (.text:_ZN5Media12Cfgcrc_async4initEN4Base4Sync7TypecrcEPm)
                  000aefc7    0000001b     pa_blocks.lib : Turn_maneuver.obj (.text:_ZN8Maverick8Ivector2IfE10lincmb_addEfRKS1_)
                  000aefe2    0000001b                   : Model_dynamic.obj (.text:_ZN9Pa_blocks13Model_dynamic36form_state_reset_solution_tau_matrixERKN8Maverick7RmatrixE)
                  000aeffd    0000001b                   : Forces_and_torques_request.obj (.text:_ZN9Pa_blocks26Forces_and_torques_request9Telemetry5resetEv)
                  000af018    0000001b                   : Vector_saturation.obj (.text:_ZN9Pa_blocks45_GLOBAL__N__21_Vector_saturation_cpp_dbbd679723avoid_angle_singularityERf)
                  000af033    0000001b     geomodel.lib : Fmemcmd.obj (.text:_ZNK3Geo7Fmemcmd4cgetERN4Base5LossyE)
                  000af04e    0000001b     base.lib : Tllhcompressed.obj (.text:_ZNK4Base14Tllhcompressed4cgetERNS_5LossyE)
                  000af069    0000001b              : Fref.obj (.text:_ZNK4Base4Fref4cgetERNS_5LossyE)
                  000af084    0000001b     pa_blocks.lib : Mixer_allocator.obj (.text:_ZNK8Maverick7TvectorIeE3dotERKS1_)
                  000af09f    0000001b                   : Tp_log_data.obj (.text:_ZNK9Pa_blocks11Tp_log_data4cgetERN4Base5LossyE)
                  000af0ba    0000001b                   : Waypoint_msg.obj (.text:_ZNK9Pa_blocks12Waypoint_msg14cget_telemetryERN4Base5LossyE)
                  000af0d5    0000001b                   : State_machines.obj (.text:_ZNK9Pa_blocks14State_machines33eval_mode_motor_rampdown_completeEv)
                  000af0f0    0000001b     veronte.lib : Copystep.obj (.text:_ZNVK4Base3VarINS_4BvarEE8RegarrayILS1_102ELS1_105EE13get_xcd_blockILS1_102ELS1_105EEENS_6MblockIVKbEEv)
                  000af10b    0000001b                 : Copystep.obj (.text:_ZNVK4Base3VarINS_4BvarEE8RegarrayILS1_108ELS1_109EE13get_xcd_blockILS1_108ELS1_109EEENS_6MblockIVKbEEv)
                  000af126    0000001b                 : Copystep.obj (.text:_ZNVK4Base3VarINS_4BvarEE8RegarrayILS1_111ELS1_113EE13get_xcd_blockILS1_111ELS1_113EEENS_6MblockIVKbEEv)
                  000af141    0000001b                 : Copystep.obj (.text:_ZNVK4Base3VarINS_4BvarEE8RegarrayILS1_1183ELS1_1189EE13get_xcd_blockILS1_1183ELS1_1189EEENS_6MblockIVKbEEv)
                  000af15c    0000001b                 : Copystep.obj (.text:_ZNVK4Base3VarINS_4BvarEE8RegarrayILS1_120ELS1_123EE13get_xcd_blockILS1_120ELS1_123EEENS_6MblockIVKbEEv)
                  000af177    0000001b                 : Copystep.obj (.text:_ZNVK4Base3VarINS_4BvarEE8RegarrayILS1_14ELS1_15EE13get_xcd_blockILS1_14ELS1_15EEENS_6MblockIVKbEEv)
                  000af192    0000001b                 : Copystep.obj (.text:_ZNVK4Base3VarINS_4BvarEE8RegarrayILS1_170ELS1_177EE13get_xcd_blockILS1_170ELS1_177EEENS_6MblockIVKbEEv)
                  000af1ad    0000001b                 : Copystep.obj (.text:_ZNVK4Base3VarINS_4BvarEE8RegarrayILS1_178ELS1_179EE13get_xcd_blockILS1_178ELS1_179EEENS_6MblockIVKbEEv)
                  000af1c8    0000001b                 : Copystep.obj (.text:_ZNVK4Base3VarINS_4BvarEE8RegarrayILS1_190ELS1_191EE13get_xcd_blockILS1_190ELS1_191EEENS_6MblockIVKbEEv)
                  000af1e3    0000001b                 : Copystep.obj (.text:_ZNVK4Base3VarINS_4BvarEE8RegarrayILS1_200ELS1_207EE13get_xcd_blockILS1_200ELS1_207EEENS_6MblockIVKbEEv)
                  000af1fe    0000001b                 : Copystep.obj (.text:_ZNVK4Base3VarINS_4BvarEE8RegarrayILS1_210ELS1_211EE13get_xcd_blockILS1_210ELS1_211EEENS_6MblockIVKbEEv)
                  000af219    0000001b                 : Copystep.obj (.text:_ZNVK4Base3VarINS_4BvarEE8RegarrayILS1_300ELS1_307EE13get_xcd_blockILS1_300ELS1_307EEENS_6MblockIVKbEEv)
                  000af234    0000001b                 : Copystep.obj (.text:_ZNVK4Base3VarINS_4BvarEE8RegarrayILS1_400ELS1_403EE13get_xcd_blockILS1_400ELS1_403EEENS_6MblockIVKbEEv)
                  000af24f    0000001b                 : Copystep.obj (.text:_ZNVK4Base3VarINS_4BvarEE8RegarrayILS1_48ELS1_93EE13get_xcd_blockILS1_48ELS1_93EEENS_6MblockIVKbEEv)
                  000af26a    0000001b                 : Copystep.obj (.text:_ZNVK4Base3VarINS_4BvarEE8RegarrayILS1_550ELS1_569EE13get_xcd_blockILS1_550ELS1_569EEENS_6MblockIVKbEEv)
                  000af285    0000001b                 : Copystep.obj (.text:_ZNVK4Base3VarINS_4BvarEE8RegarrayILS1_96ELS1_99EE13get_xcd_blockILS1_96ELS1_99EEENS_6MblockIVKbEEv)
                  000af2a0    0000001b                 : Copystep.obj (.text:_ZNVK4Base3VarINS_4RvarEE8RegarrayILS1_1450ELS1_1453EE13get_xcd_blockILS1_1450ELS1_1453EEENS_6MblockIVKfEEv)
                  000af2bb    0000001b                 : Copystep.obj (.text:_ZNVK4Base3VarINS_4RvarEE8RegarrayILS1_1483ELS1_1497EE13get_xcd_blockILS1_1483ELS1_1497EEENS_6MblockIVKfEEv)
                  000af2d6    0000001b                 : Copystep.obj (.text:_ZNVK4Base3VarINS_4RvarEE8RegarrayILS1_1500ELS1_1531EE13get_xcd_blockILS1_1500ELS1_1531EEENS_6MblockIVKfEEv)
                  000af2f1    0000001b                 : Copystep.obj (.text:_ZNVK4Base3VarINS_4RvarEE8RegarrayILS1_1600ELS1_1631EE13get_xcd_blockILS1_1600ELS1_1631EEENS_6MblockIVKfEEv)
                  000af30c    0000001b                 : Copystep.obj (.text:_ZNVK4Base3VarINS_4RvarEE8RegarrayILS1_1750ELS1_1769EE13get_xcd_blockILS1_1750ELS1_1769EEENS_6MblockIVKfEEv)
                  000af327    0000001b                 : Copystep.obj (.text:_ZNVK4Base3VarINS_4RvarEE8RegarrayILS1_2000ELS1_2005EE13get_xcd_blockILS1_2000ELS1_2005EEENS_6MblockIVKfEEv)
                  000af342    0000001b                 : Copystep.obj (.text:_ZNVK4Base3VarINS_4RvarEE8RegarrayILS1_2040ELS1_2057EE13get_xcd_blockILS1_2040ELS1_2057EEENS_6MblockIVKfEEv)
                  000af35d    0000001b                 : Copystep.obj (.text:_ZNVK4Base3VarINS_4RvarEE8RegarrayILS1_2904ELS1_2907EE13get_xcd_blockILS1_2904ELS1_2907EEENS_6MblockIVKfEEv)
                  000af378    0000001b                 : Copystep.obj (.text:_ZNVK4Base3VarINS_4RvarEE8RegarrayILS1_322ELS1_439EE13get_xcd_blockILS1_322ELS1_439EEENS_6MblockIVKfEEv)
                  000af393    0000001b                 : Copystep.obj (.text:_ZNVK4Base3VarINS_4RvarEE8RegarrayILS1_42ELS1_55EE13get_xcd_blockILS1_42ELS1_55EEENS_6MblockIVKfEEv)
                  000af3ae    0000001b                 : Copystep.obj (.text:_ZNVK4Base3VarINS_4RvarEE8RegarrayILS1_59ELS1_68EE13get_xcd_blockILS1_59ELS1_68EEENS_6MblockIVKfEEv)
                  000af3c9    0000001b                 : Copystep.obj (.text:_ZNVK4Base3VarINS_4RvarEE8RegarrayILS1_700ELS1_705EE13get_xcd_blockILS1_700ELS1_705EEENS_6MblockIVKfEEv)
                  000af3e4    0000001b                 : Copystep.obj (.text:_ZNVK4Base3VarINS_4RvarEE8RegarrayILS1_90ELS1_93EE13get_xcd_blockILS1_90ELS1_93EEENS_6MblockIVKfEEv)
                  000af3ff    0000001b                 : Copystep.obj (.text:_ZNVK4Base3VarINS_4UvarEE8RegarrayILS1_100ELS1_116EE13get_xcd_blockILS1_100ELS1_116EEENS_6MblockIVKjEEv)
                  000af41a    0000001b                 : Copystep.obj (.text:_ZNVK4Base3VarINS_4UvarEE8RegarrayILS1_150ELS1_166EE13get_xcd_blockILS1_150ELS1_166EEENS_6MblockIVKjEEv)
                  000af435    0000001b                 : Copystep.obj (.text:_ZNVK4Base3VarINS_4UvarEE8RegarrayILS1_2ELS1_18EE13get_xcd_blockILS1_2ELS1_18EEENS_6MblockIVKjEEv)
                  000af450    0000001b                 : Copystep.obj (.text:_ZNVK4Base3VarINS_4UvarEE8RegarrayILS1_396ELS1_400EE13get_xcd_blockILS1_396ELS1_400EEENS_6MblockIVKjEEv)
                  000af46b    0000001b                 : Copystep.obj (.text:_ZNVK4Base3VarINS_4UvarEE8RegarrayILS1_447ELS1_453EE13get_xcd_blockILS1_447ELS1_453EEENS_6MblockIVKjEEv)
                  000af486    0000001b                 : Copystep.obj (.text:_ZNVK4Base3VarINS_4UvarEE8RegarrayILS1_460ELS1_465EE13get_xcd_blockILS1_460ELS1_465EEENS_6MblockIVKjEEv)
                  000af4a1    0000001b                 : Copystep.obj (.text:_ZNVK4Base3VarINS_4UvarEE8RegarrayILS1_480ELS1_485EE13get_xcd_blockILS1_480ELS1_485EEENS_6MblockIVKjEEv)
                  000af4bc    0000001b                 : Copystep.obj (.text:_ZNVK4Base3VarINS_4UvarEE8RegarrayILS1_500ELS1_519EE13get_xcd_blockILS1_500ELS1_519EEENS_6MblockIVKjEEv)
                  000af4d7    0000001b     base.lib : CRCmav.obj (.text:__sti___10_CRCmav_cpp_cf8d057a)
                  000af4f2    0000001a     DSP2837x_ent.lib : Piectrl.obj (.text:_ZN12Dsp28335_ent7Piectrl4initEv)
                  000af50c    0000001a     veronte.lib : Tunsuite_pa.obj (.text:_ZN3Ver8Tunsuite12add_tunablesERN5Media6CfgmgrE)
                  000af526    0000001a     vpgnc.lib : Vpu.obj (.text:_ZN4Base10LinkedlistIRKNS_6IcheckEE14build_add_elemIS1_EEbRNS_9AllocatorERKT_)
                  000af540    0000001a     base.lib : Xcomstats0.obj (.text:_ZN4Base10Xcomstats04csetERNS_5LossyE)
                  000af55a    0000001a              : Vref_wr_tun.obj (.text:_ZN4Base11Vref_wr_tun14check_writableEv)
                  000af574    0000001a     pa_blocks.lib : Route_msg.obj (.text:_ZN4Base5ArrayIN9Pa_blocks12Maneuver_msgEEC1EmNS_6Memmgr4TypeE)
                  000af58e    0000001a                   : Command_route_entries.obj (.text:_ZN4Base5ArrayIN9Pa_blocks19Command_route_entryEEC1EmNS_6Memmgr4TypeE)
                  000af5a8    0000001a                   : Cqp.obj (.text:_ZN4Base5ArrayIN9Pa_blocks3Cqp10ConstraintEE6removeEm)
                  000af5c2    0000001a                   : Cqp.obj (.text:_ZN4Base5ArrayIeE6removeEm)
                  000af5dc    0000001a     base.lib : Xcfile.obj (.text:_ZN4Base6Xcfile11close_asyncEv)
                  000af5f6    0000001a              : Msg_data.obj (.text:_ZN4Base8Msg_dataC1ENS_7AddressENS_15Stanag_msg_type8Msg_typeEjNS_10StimestampENS0_8Ack_typeEb)
                  000af610    0000001a              : Msg_data.obj (.text:_ZN4Base8Msg_dataC1Ev)
                  000af62a    0000001a     midlevel.lib : Irxfw.obj (.text:_ZN4Base9Fifospsc0INS_8Msg_dataENS_10SPSCtraits8InternalES3_E4readIS1_NS_8Cptraits8OperatorIS1_S1_EEEEbRT_)
                  000af644    0000001a     first.lib : PDIcheck.obj (.text:_ZN4Base9Fifospsc0IVjNS_10SPSCtraits8ExternalENS2_12Internal_refEE5writeIS1_NS_8Cptraits8OperatorIS1_S1_EEEEbNS_12JSF116_paramIT_E4typeE)
                  000af65e    0000001a     stanag.lib : Stanag_msg_cfgs.obj (.text:_ZN4Base9StlvectorINS_15Stanag_msg_type8Msg_typeEE9push_backERKS2_)
                  000af678    0000001a     media.lib : Cfgmgr.obj (.text:_ZN4Base9StlvectorINS_3Cfg2IdEE9push_backERKS2_)
                  000af692    0000001a     veronte.lib : Tunsuite_pa.obj (.text:_ZN4Base9Tuntraits15Arraytun_nosizeINS0_15Arraytun_size16INS0_7Lossy16INS_4BvarEEENS_11TnarrayreszIS4_Lm20EEENS0_8No_checkIS7_EEEENS_7TnarrayIS7_Lm3EEENS8_ISC_EEE8str2elemERSC_RNS_11Lossy_errorE)
                  000af6ac    0000001a                 : Hxcfield_cpu2.obj (.text:_ZN4Base9Tuntraits15Arraytun_nosizeINS0_4CxetIKNS_5FieldEEENS_6MblockIS4_EENS0_8No_checkIS7_EEE8elem2strERKS7_RNS_5LossyE)
                  000af6c6    0000001a     first.lib : U8istream.obj (.text:_ZN4Base9U8istream13get_uint64_leEj)
                  000af6e0    0000001a     vpgnc.lib : Vlimits.obj (.text:_ZN5Vpgnc7VlimitsC1EmN4Base6Memmgr4TypeE)
                  000af6fa    0000001a     base.lib : Cyphal.obj (.text:_ZN6Cyphal10Cyphal_msg7set_lenEj)
                  000af714    0000001a     pa_blocks.lib : Mixer_allocator.obj (.text:_ZN8Maverick6TarrayIeE3addERKN4Base5ArrayIeEE)
                  000af72e    0000001a                   : Mixer_allocator.obj (.text:_ZN8Maverick6TarrayIeE8subtractIeEEvRKN4Base5ArrayIT_EE)
                  000af748    0000001a                   : Recovery_wrapper_control_system_object.obj (.text:_ZN9Pa_blocks12Command_fifoINS_18Controllers_object18Controllers_statusELj1EE4ElemC1Ev)
                  000af762    0000001a                   : Actuator_allocator_object.obj (.text:_ZN9Pa_blocks14rpm_from_krpm2ERKf)
                  000af77c    0000001a                   : Vsdk_params.obj (.text:_ZN9Pa_blocks16Vsdk_gnss_params4csetERN4Base11Lossy_errorE)
                  000af796    0000001a                   : Commands_processor.obj (.text:_ZN9Pa_blocks18Commands_processor12Land_commandC1Ev)
                  000af7b0    0000001a                   : Land_command_params.obj (.text:_ZN9Pa_blocks19Land_command_params4csetERN4Base5LossyE)
                  000af7ca    0000001a                   : Controllers_param_mk30.obj (.text:_ZN9Pa_blocks21Saturation_parameters55set_min_magnitude_saturation_limits_interpolation_tableILm3EEEvRKN4Base7TnarrayIfXT_EEE)
                  000af7e4    0000001a                   : Controllers_param_mk30.obj (.text:_ZN9Pa_blocks21Saturation_parameters56set_quat_direction_saturation_limits_interpolation_tableILm2EEEvRKN4Base7TnarrayIfXT_EEE)
                  000af7fe    0000001a                   : Mission_readiness_wrapper.obj (.text:_ZN9Pa_blocks25Mission_readiness_wrapper4csetERN4Base5LossyE)
                  000af818    0000001a                   : Controls_command_processor.obj (.text:_ZN9Pa_blocks26Controls_command_processor15Route_deviation4csetERN4Base5LossyE)
                  000af832    0000001a                   : Command_contingency_wrapper.obj (.text:_ZN9Pa_blocks27Command_contingency_wrapper4csetERN4Base5LossyE)
                  000af84c    0000001a                   : In_flight_speed_change_command_params.obj (.text:_ZN9Pa_blocks37In_flight_speed_change_command_params4csetERN4Base5LossyE)
                  000af866    0000001a                   : Vector_saturation.obj (.text:_ZN9Pa_blocks45_GLOBAL__N__21_Vector_saturation_cpp_dbbd679719check_saturation_inERKN8Maverick7RvectorEf)
                  000af880    0000001a                   : Waca.obj (.text:_ZN9Pa_blocks4Waca11reset_stateEv)
                  000af89a    0000001a     base.lib : Fsniffer.obj (.text:_ZNK4Base10Vmap_entry13user_writableEv)
                  000af8b4    0000001a              : Xcfile.obj (.text:_ZNK4Base6Xcfile14get_free_spaceEv)
                  000af8ce    0000001a              : Cfgsync.obj (.text:_ZNK4Base7Cfgsync8get_fcrcENS_3Cfg2IdE)
                  000af8e8    0000001a              : Xclkcfg.obj (.text:_ZNK4Base7Xclkcfg11cget_periodERNS_5LossyE)
                  000af902    0000001a     pa_blocks.lib : Ttcg.obj (.text:_ZNK9Pa_blocks4Ttcg22mission_lla_ned_originEv)
                  000af91c    0000001a     first.lib : PDIcheck.obj (.text:__sti___12_PDIcheck_cpp_0090a2f4)
                  000af936    00000019     vpgnc.lib : CAN_cfg_maint_astro.obj (.text:_ZN12Dsp28335_ent8PwmsuiteINS_6PwmdevELj16EE3getEj)
                  000af94f    00000019     DSP28x.lib : Stackchk.obj (.text:_ZN12Dsp28335_ent8StackchkC1Ev)
                  000af968    00000019     veronte.lib : Static_cfg.obj (.text:_ZN3Ver10Static_cfg4stepEv)
                  000af981    00000019     base.lib : Xcfilecli.obj (.text:_ZN4Base12U8pkmblock_kC1ERKS0_m)
                  000af99a    00000019              : Int_decimator.obj (.text:_ZN4Base13Int_decimator14set_decimationEff)
                  000af9b3    00000019              : Uclk.obj (.text:_ZN4Base4Uclk4stepEv)
                  000af9cc    00000019     vpgnc.lib : Vpu.obj (.text:_ZN4Base5ArrayINS_4BvarEE6appendIVKS1_EEvRKNS_6MblockIT_EE)
                  000af9e5    00000019     first.lib : Lossy.obj (.text:_ZN4Base5Lossy10get_float9EPf)
                  000af9fe    00000019               : Lossy.obj (.text:_ZN4Base5Lossy5bits4Ey)
                  000afa17    00000019               : Lossy.obj (.text:_ZN4Base5Lossy9get_floatERf)
                  000afa30    00000019               : Lossy.obj (.text:_ZN4Base5Lossy9get_uint8ERh)
                  000afa49    00000019               : Lossy.obj (.text:_ZN4Base5LossyC1ENS_6MblockIjEE)
                  000afa62    00000019     pa_blocks.lib : Mixer_allocator.obj (.text:_ZN4Base7Mb_util11count_if_eqINS_6MblockIKfEEEEmRKT_NS5_4typeE)
                  000afa7b    00000019                   : Mixer_allocator.obj (.text:_ZN4Base7Mb_util12count_if_geqINS_6MblockIKfEEEEmRKT_NS5_4typeE)
                  000afa94    00000019     base.lib : Uclkmgr.obj (.text:_ZN4Base7UclkmgrC1Ev)
                  000afaad    00000019     vpgnc.lib : Rvar_op_commit.obj (.text:_ZN4Base8TwraptunINS_9Tuntraits11Lossy_floatEfEC1Ev)
                  000afac6    00000019     base.lib : Xcfilecli.obj (.text:_ZN4Base8XcbufferILm512EE6Writer5startEv)
                  000afadf    00000019     midlevel.lib : Irxfw.obj (.text:_ZN4Base9Fifospsc0INS_8Msg_dataENS_10SPSCtraits8InternalES3_E5writeIS1_NS_8Cptraits8OperatorIS1_S1_EEEEbNS_12JSF116_paramIT_E4typeE)
                  000afaf8    00000019     veronte.lib : Tunsuite_pa.obj (.text:_ZN4Base9Tuntraits15Arraytun_nosizeINS0_10TundefaultIhEENS_11TnarrayreszIhLm20EEENS0_8No_checkIS5_EEE8str2elemERS5_RNS_11Lossy_errorE)
                  000afb11    00000019     pa_blocks.lib : DComms_cfg.obj (.text:_ZN4Base9Tuntraits15Arraytun_nosizeINS0_6Lossy8IcEENS_11TnarrayreszIcLm17EEENS0_8No_checkIS5_EEE8elem2strERKS5_RNS_5LossyE)
                  000afb2a    00000019                   : DComms_cfg.obj (.text:_ZN4Base9Tuntraits15Arraytun_nosizeINS0_6Lossy8IcEENS_11TnarrayreszIcLm17EEENS0_8No_checkIS5_EEE8str2elemERS5_RNS_11Lossy_errorE)
                  000afb43    00000019     media.lib : Cfgmgr.obj (.text:_ZN5Media6Cfgmgr10step_closeEv)
                  000afb5c    00000019     vpgnc.lib : Ftsactcmd.obj (.text:_ZN5Vpgnc9FtsactcmdC1Ev)
                  000afb75    00000019     midlevel.lib : Cy_msg_id_gen.obj (.text:_ZN6Cyphal13Cy_msg_id_genC1ERVKyPVy)
                  000afb8e    00000019     stanag.lib : U8istream_pvec.obj (.text:_ZN6Stanag14U8istream_pvec17get_avail_and_incEv)
                  000afba7    00000019                : Fstgcfg.obj (.text:_ZN6Stanag7Fstgcfg4csetERN4Base11Lossy_errorE)
                  000afbc0    00000019     maverick.lib : Irquat.obj (.text:_ZN8Maverick6Irquat9conjugateEv)
                  000afbd9    00000019                  : Irvector3.obj (.text:_ZN8Maverick9Irvector36lincmbEfRKS0_)
                  000afbf2    00000019                  : Irvector3.obj (.text:_ZN8Maverick9Irvector37signinvEv)
                  000afc0b    00000019     midlevel.lib : Sys_status_mgr.obj (.text:_ZN8Midlevel14Sys_status_mgr5on_txERN6Stanag14IStanag_msg_tx9Tx_paramsE)
                  000afc24    00000019     vpgnc.lib : Vpu.obj (.text:_ZN8Midlevel17Routing_table_cmdIN4Base18Routing_table_dataILj2ELj16EEEE4csetERNS1_11Lossy_errorE)
                  000afc3d    00000019     pa_blocks.lib : Polynomial.obj (.text:_ZN9Pa_blocks10Polynomial31construct_trajectory_polynomialERKN4Base7TnarrayIfLm4EEES5_f)
                  000afc56    00000019                   : State_machines.obj (.text:_ZN9Pa_blocks14State_machines42eval_track_spline_velocities_within_limitsEv)
                  000afc6f    00000019                   : Switch_blender.obj (.text:_ZN9Pa_blocks14Switch_blenderC1ERKNS0_6Param_EjRN4Base9AllocatorE)
                  000afc88    00000019                   : Takeoff_manager.obj (.text:_ZN9Pa_blocks15Takeoff_managerC1ERKNS0_5ParamERKNS_24Common_controller_paramsE)
                  000afca1    00000019                   : Takeoff_command_params.obj (.text:_ZN9Pa_blocks22Takeoff_command_params4csetERN4Base5LossyE)
                  000afcba    00000019                   : Upload_mission_plan_wrapper.obj (.text:_ZN9Pa_blocks27Upload_mission_plan_wrapper4csetERN4Base5LossyE)
                  000afcd3    00000019                   : Vector_saturation.obj (.text:_ZN9Pa_blocks45_GLOBAL__N__21_Vector_saturation_cpp_dbbd679728check_saturation_in_positiveERKN8Maverick7RvectorE)
                  000afcec    00000019                   : Aacg.obj (.text:_ZN9Pa_blocks4AacgC1ERKNS0_11Vsdk_param_ERKNS_24Common_controller_paramsERKNS0_11Parameters_ERNS_12Pa_schedulerERNS0_9TelemetryE)
                  000afd05    00000019                   : Trajectory_planner.obj (.text:_ZNK4Base5ArrayIKmE12get_index_ofERS1_)
                  000afd1e    00000019     stanag.lib : Stanag_msg_cfgs.obj (.text:_ZNK4Base5ArrayINS_15Stanag_msg_type8Msg_typeEE12get_index_ofERKS2_)
                  000afd37    00000019     pa_blocks.lib : Cqp.obj (.text:_ZNK8Maverick6TarrayIeE4min0Ev)
                  000afd50    00000019                   : Cqp.obj (.text:_ZNK8Maverick7TvectorIeE6norm22Ev)
                  000afd69    00000019     devices.lib : Adis165053_cfg.obj (.text:__sti___18_Adis165053_cfg_cpp_fffef51a)
                  000afd82    00000019     pa_blocks.lib : Trajectory_planner.obj (.text:__sti___22_Trajectory_planner_cpp_b3a36afc)
                  000afd9b    00000019     rts2800_fpu64_eabi.lib : boot28.asm.obj (.text)
                  000afdb4    00000019                            : s_fabs.c.obj (.text)
                  000afdcd    00000018     base.lib : Cyphal_common_types.obj (.text:_ZN19Cyphal_common_types14get_array_sizeEmRN4Base9U8istreamE)
                  000afde5    00000018     veronte.lib : Ext_nav_cfg.obj (.text:_ZN4Base12Tun_optionalIjNS_9Tuntraits10TundefaultIjEEE8str2elemERNS_8OptionalIjEERNS_11Lossy_errorE)
                  000afdfd    00000018                 : Hvar_cpu2.obj (.text:_ZN4Base3JidINS_8FidtraitEE10get_gsizesEv)
                  000afe15    00000018     stanag.lib : Stanag_msg_cfgs.obj (.text:_ZN4Base3MapINS_15Stanag_msg_type8Msg_typeEPN6Stanag14IStanag_msg_txEE9push_backERKS2_RKS5_)
                  000afe2d    00000018     midlevel.lib : Irxfw.obj (.text:_ZN4Base3MapINS_15Stanag_msg_type8Msg_typeEPN6Stanag14IStanag_rx_hdlEE9push_backERKS2_RKS5_)
                  000afe45    00000018     media.lib : Cfgmgr.obj (.text:_ZN4Base3MapINS_3Cfg2IdEPNS_14Itunable_asyncEE9push_backERKS2_RKS4_)
                  000afe5d    00000018               : Cfgmgr.obj (.text:_ZN4Base3MapINS_3Cfg2IdEPNS_21Ideserializable_asyncEE9push_backERKS2_RKS4_)
                  000afe75    00000018     base.lib : Ftelemetryod.obj (.text:_ZN4Base40_GLOBAL__N__16_Ftelemetryod_cpp_895d352011get_tcrc_mbEv)
                  000afe8d    00000018     veronte.lib : Pwm_suite.obj (.text:_ZN4Base5ArrayIN12Dsp28335_ent8PwmsuiteINS1_6PwmdevELj16EE6ConfigEEC1EmNS_6Memmgr4TypeE)
                  000afea5    00000018     vpgnc.lib : Opmgr.obj (.text:_ZN4Base5ArrayIN5Vpgnc14Rvar_op_commit7RoptypeEEC1EmNS_6Memmgr4TypeE)
                  000afebd    00000018               : Evtmgr.obj (.text:_ZN4Base5ArrayIN5Vpgnc5EventEEC1EmNS_6Memmgr4TypeE)
                  000afed5    00000018     pa_blocks.lib : Ttcg.obj (.text:_ZN4Base5ArrayIN9Pa_blocks9Route_msgEEC1EmNS_6Memmgr4TypeE)
                  000afeed    00000018     vpgnc.lib : Evt_wp_groups.obj (.text:_ZN4Base5ArrayINS_4TdesINS_11TnarrayreszIjLm8EEENS_9Tuntraits10TundefaultIS3_EEEEEC1EmNS_6Memmgr4TypeE)
                  000aff05    00000018     media.lib : Fstrfast.obj (.text:_ZN4Base5ArrayINS_5FieldEEC1EmNS_6Memmgr4TypeE)
                  000aff1d    00000018     vpgnc.lib : Vlimits.obj (.text:_ZN4Base5ArrayINS_5LimitEEC1EmNS_6Memmgr4TypeE)
                  000aff35    00000018     base.lib : Stepmgr.obj (.text:_ZN4Base5ArrayINS_7Stepmgr5Step0EEC1EmNS_6Memmgr4TypeE)
                  000aff4d    00000018     first.lib : Error.obj (.text:_ZN4Base5Error5assrtEbNS_8ErrorsrcE)
                  000aff65    00000018               : Lossy.obj (.text:_ZN4Base5Lossy10get_float4EPf)
                  000aff7d    00000018     base.lib : Xcfile.obj (.text:_ZN4Base6Xcfile10read_asyncERNS_10U8pkmblockERm)
                  000aff95    00000018              : Xcfile.obj (.text:_ZN4Base6Xcfile11write_asyncERKNS_12U8pkmblock_kERm)
                  000affad    00000018              : Hashers.obj (.text:_ZN4Base7Hashers11Hash_uint169hash_funcEj)
                  000affc5    00000018     veronte.lib : Tunsuite_pa.obj (.text:_ZN4Base8TwrapdesINS_9Tuntraits9Wsync_desINS_6TdsyncIN12Dsp28335_ent10CAN_FD_cfgENS_12Tdsynctraits11Rd_blockingIS5_NS_8Cptraits6PodrawIVS5_EEEENS6_15Disabled_structEEENS1_10DesdefaultIS5_EEEERSE_E4csetERNS_11Lossy_errorE)
                  000affdd    00000018                 : Tunsuite_pa.obj (.text:_ZN4Base8TwrapdesINS_9Tuntraits9Wsync_desINS_6TdsyncIN12Dsp28335_ent6CANcfgENS_12Tdsynctraits11Rd_blockingIS5_NS_8Cptraits6PodrawIVS5_EEEENS6_15Disabled_structEEENS1_10DesdefaultIS5_EEEERSE_E4csetERNS_11Lossy_errorE)
                  000afff5    00000018                 : Tunsuite_pa.obj (.text:_ZN4Base8TwrapdesINS_9Tuntraits9Wsync_desINS_6TdsyncIN12Dsp28335_ent6SCIcfgENS_12Tdsynctraits11Rd_blockingIS5_NS_8Cptraits6PodrawIVS5_EEEENS6_15Disabled_structEEENS1_10DesdefaultIS5_EEEERSE_E4csetERNS_11Lossy_errorE)
                  000b000d    00000018                 : Tunsuite_pa.obj (.text:_ZN4Base8TwrapdesINS_9Tuntraits9Wsync_desINS_6TdsyncIN3Ver11Ext_nav_cfgENS_12Tdsynctraits11Rd_blockingIS5_NS_8Cptraits6PodrawIVS5_EEEENS6_15Disabled_structEEENS1_10DesdefaultIS5_EEEERSE_E4csetERNS_11Lossy_errorE)
                  000b0025    00000018                 : Tunsuite_pa.obj (.text:_ZN4Base8TwrapdesINS_9Tuntraits9Wsync_desINS_6TdsyncIN3Ver9Xfreqmgr0ENS_12Tdsynctraits11Rd_blockingIS5_NS_8Cptraits6PodrawIVS5_EEEENS6_15Disabled_structEEENS1_10DesdefaultIS5_EEEERSE_E4csetERNS_11Lossy_errorE)
                  000b003d    00000018                 : Tunsuite_pa.obj (.text:_ZN4Base8TwrapdesINS_9Tuntraits9Wsync_desINS_6TdsyncIN6Stanag22Vehicle_identifier_cfgENS_12Tdsynctraits11Rd_blockingIS5_NS_8Cptraits6PodrawIVS5_EEEENS6_15Disabled_structEEENS1_10DesdefaultIS5_EEEERSE_E4csetERNS_11Lossy_errorE)
                  000b0055    00000018                 : Tunsuite_pa.obj (.text:_ZN4Base8TwrapdesINS_9Tuntraits9Wsync_desINS_6TdsyncIN7Devices14Adis165053_cfgENS_12Tdsynctraits11Rd_blockingIS5_NS_8Cptraits6PodrawIVS5_EEEENS6_15Disabled_structEEENS1_10DesdefaultIS5_EEEERSE_E4csetERNS_11Lossy_errorE)
                  000b006d    00000018                 : Tunsuite_pa.obj (.text:_ZN4Base8TwrapdesINS_9Tuntraits9Wsync_desINS_6TdsyncIN7Devices14Dev_common_cfgENS_12Tdsynctraits11Rd_blockingIS5_NS_8Cptraits6PodrawIVS5_EEEENS6_15Disabled_structEEENS1_10DesdefaultIS5_EEEERSE_E4csetERNS_11Lossy_errorE)
                  000b0085    00000018                 : Tunsuite_pa.obj (.text:_ZN4Base8TwrapdesINS_9Tuntraits9Wsync_desINS_6TdsyncIN7Devices3Ubx10UbxcfgdataENS_12Tdsynctraits11Rd_blockingIS6_NS_8Cptraits6PodrawIVS6_EEEENS7_15Disabled_structEEENS1_10DesdefaultIS6_EEEERSF_E4csetERNS_11Lossy_errorE)
                  000b009d    00000018                 : Tunsuite_pa.obj (.text:_ZN4Base8TwrapdesINS_9Tuntraits9Wsync_desINS_6TdsyncIN8Maverick13Notch_lpf_cfgENS_12Tdsynctraits11Rd_blockingIS5_NS_8Cptraits6PodrawIVS5_EEEENS6_15Disabled_structEEENS1_10DesdefaultIS5_EEEERSE_E4csetERNS_11Lossy_errorE)
                  000b00b5    00000018                 : Tunsuite_pa.obj (.text:_ZN4Base8TwrapdesINS_9Tuntraits9Wsync_desINS_6TdsyncINS_10Xcomstats0ENS_12Tdsynctraits11Rd_blockingIS4_NS_8Cptraits6PodrawIVS4_EEEENS5_15Disabled_structEEENS1_10DesdefaultIS4_EEEERSD_E4csetERNS_11Lossy_errorE)
                  000b00cd    00000018                 : Tunsuite_pa.obj (.text:_ZN4Base8TwrapdesINS_9Tuntraits9Wsync_desINS_6TdsyncINS_11CANin_suiteILj6EEENS_12Tdsynctraits11Rd_blockingIS5_NS_8Cptraits6PodrawIVS5_EEEENS6_15Disabled_structEEENS1_10DesdefaultIS5_EEEERSE_E4csetERNS_11Lossy_errorE)
                  000b00e5    00000018                 : Tunsuite_pa.obj (.text:_ZN4Base8TwrapdesINS_9Tuntraits9Wsync_desINS_6TdsyncINS_11CANsc_suiteILj6EEENS_12Tdsynctraits11Rd_blockingIS5_NS_8Cptraits6PodrawIVS5_EEEENS6_15Disabled_structEEENS1_10DesdefaultIS5_EEEERSE_E4csetERNS_11Lossy_errorE)
                  000b00fd    00000018                 : Hstick_cpu2.obj (.text:_ZN4Base8TwrapdesINS_9Tuntraits9Wsync_desINS_6TdsyncINS_11StickppmcfgENS_12Tdsynctraits11Rd_blockingIS4_NS_8Cptraits6PodrawIVS4_EEEENS5_15Disabled_structEEENS1_10DesdefaultIS4_EEEERSD_E4csetERNS_11Lossy_errorE)
                  000b0115    00000018                 : Hstick_cpu2.obj (.text:_ZN4Base8TwrapdesINS_9Tuntraits9Wsync_desINS_6TdsyncINS_11StickvarcfgENS_12Tdsynctraits11Rd_blockingIS4_NS_8Cptraits6PodrawIVS4_EEEENS5_15Disabled_structEEENS1_10DesdefaultIS4_EEEERSD_E4csetERNS_11Lossy_errorE)
                  000b012d    00000018                 : Tunsuite_pa.obj (.text:_ZN4Base8TwrapdesINS_9Tuntraits9Wsync_desINS_6TdsyncINS_12CANout_suiteILj6EEENS_12Tdsynctraits11Rd_blockingIS5_NS_8Cptraits6PodrawIVS5_EEEENS6_15Disabled_structEEENS1_10DesdefaultIS5_EEEERSE_E4csetERNS_11Lossy_errorE)
                  000b0145    00000018                 : Tunsuite_pa.obj (.text:_ZN4Base8TwrapdesINS_9Tuntraits9Wsync_desINS_6TdsyncINS_13CANgpio_suiteILj2ELh55EEENS_12Tdsynctraits11Rd_blockingIS5_NS_8Cptraits6PodrawIVS5_EEEENS6_15Disabled_structEEENS1_10DesdefaultIS5_EEEERSE_E4csetERNS_11Lossy_errorE)
                  000b015d    00000018                 : Tunsuite_pa.obj (.text:_ZN4Base8TwrapdesINS_9Tuntraits9Wsync_desINS_6TdsyncINS_13Varsens1D_cfgENS_12Tdsynctraits11Rd_blockingIS4_NS_8Cptraits6PodrawIVS4_EEEENS5_15Disabled_structEEENS1_10DesdefaultIS4_EEEERSD_E4csetERNS_11Lossy_errorE)
                  000b0175    00000018                 : Tunsuite_pa.obj (.text:_ZN4Base8TwrapdesINS_9Tuntraits9Wsync_desINS_6TdsyncINS_13Varsens3D_cfgENS_12Tdsynctraits11Rd_blockingIS4_NS_8Cptraits6PodrawIVS4_EEEENS5_15Disabled_structEEENS1_10DesdefaultIS4_EEEERSD_E4csetERNS_11Lossy_errorE)
                  000b018d    00000018                 : Tunsuite_pa.obj (.text:_ZN4Base8TwrapdesINS_9Tuntraits9Wsync_desINS_6TdsyncINS_5Xcal0ILj12EEENS_12Tdsynctraits11Rd_blockingIS5_NS_8Cptraits6PodrawIVS5_EEEENS6_15Disabled_structEEENS1_10DesdefaultIS5_EEEERSE_E4csetERNS_11Lossy_errorE)
                  000b01a5    00000018                 : Tunsuite_pa.obj (.text:_ZN4Base8TwrapdesINS_9Tuntraits9Wsync_desINS_6TdsyncINS_5Xcal0ILj2EEENS_12Tdsynctraits11Rd_blockingIS5_NS_8Cptraits6PodrawIVS5_EEEENS6_15Disabled_structEEENS1_10DesdefaultIS5_EEEERSE_E4csetERNS_11Lossy_errorE)
                  000b01bd    00000018                 : Tunsuite_pa.obj (.text:_ZN4Base8TwrapdesINS_9Tuntraits9Wsync_desINS_6TdsyncINS_7TnarrayIN12Dsp28335_ent8TGPIOtunINS5_9GPIOmux16EEELm20EEENS_12Tdsynctraits11Rd_blockingIS9_NS_8Cptraits6PodrawIVS9_EEEENSA_15Disabled_structEEENS1_15Arraytun_nosizeINS1_9Cset_onlyIS8_EES9_NS1_8No_checkIS9_EEEEEERSI_E4csetERNS_11Lossy_errorE)
                  000b01d5    00000018                 : Tunsuite_pa.obj (.text:_ZN4Base8TwrapdesINS_9Tuntraits9Wsync_desINS_6TdsyncINS_7TnarrayINS_11TnarrayreszINS_4BvarELm20EEELm3EEENS_12Tdsynctraits11Rd_blockingIS8_NS_8Cptraits6PodrawIVS8_EEEENS9_15Disabled_structEEENS1_15Arraytun_nosizeINS1_15Arraytun_size16INS1_7Lossy16IS6_EES7_NS1_8No_checkIS7_EEEES8_NSM_IS8_EEEEEERSH_E4csetERNS_11Lossy_errorE)
                  000b01ed    00000018     first.lib : Bitmblock.obj (.text:_ZN4Base9Bitmblock4copyERKS0_)
                  000b0205    00000018     base.lib : Xcmqrd.obj (.text:_ZN4Base9Fifospsc0IVKjNS_10SPSCtraits8InternalENS2_8ExternalEE4readIjNS_8Cptraits8OperatorIS1_jEEEEbRT_)
                  000b021d    00000018     vpgnc.lib : Vpu.obj (.text:_ZN5Vpgnc30_GLOBAL__N__7_Vpu_cpp_939b1fa514get_tm_entriesEv)
                  000b0235    00000018               : Opranges.obj (.text:_ZN5Vpgnc8OprangesC1ERKNS_5OpmgrE)
                  000b024d    00000018     pa_blocks.lib : Mixer_allocator.obj (.text:_ZN8Maverick6TarrayIeE5scaleERKe)
                  000b0265    00000018     midlevel.lib : Sys_status_mgr.obj (.text:_ZN8Midlevel14Sys_status_mgr11send_statusEh)
                  000b027d    00000018                  : Sys_status_mgr.obj (.text:_ZN8Midlevel42_GLOBAL__N__18_Sys_status_mgr_cpp_2a0467ea15get_common_bitsEv)
                  000b0295    00000018     pa_blocks.lib : Pa_geometric.obj (.text:_ZN9Pa_blocks12Pa_geometric7wrap2piERKf)
                  000b02ad    00000018                   : Motor_rpm_cmd.obj (.text:_ZN9Pa_blocks13Motor_rpm_cmd10on_tx_implERN6Stanag14IStanag_msg_tx9Tx_paramsE)
                  000b02c5    00000018                   : Command_response.obj (.text:_ZN9Pa_blocks16Command_response10on_tx_implERN6Stanag14IStanag_msg_tx9Tx_paramsE)
                  000b02dd    00000018                   : Takeoff_action.obj (.text:_ZN9Pa_blocks16Protobuf_decoder13decode_doubleIfEEbRT_)
                  000b02f5    00000018                   : Takeoff_command_params.obj (.text:_ZN9Pa_blocks22Takeoff_command_params5resetEv)
                  000b030d    00000018                   : Cm.obj (.text:_ZN9Pa_blocks2Cm11reset_stateEv)
                  000b0325    00000018                   : Cm.obj (.text:_ZN9Pa_blocks2Cm5InputC1ERKNS_18Commands_processor15Takeoff_commandERKNS2_12Land_commandERKNS_14State_machines5StateERKNS_26Controllers_state_estimateERKNS_3Sep6OutputERKNS_12Waypoint_msgERKNS_32Drone_mission_phase_notificationERKNS_15Phase_of_flightE)
                  000b033d    00000018                   : Cy_maint_action.obj (.text:_ZNK4Base5ArrayIN9Pa_blocks22Cy_maint_action_consts13Command_typesEE12get_index_ofERKS3_)
                  000b0355    00000018     media.lib : Cfgmgr.obj (.text:_ZNK4Base5ArrayINS_3Cfg2IdEE12get_index_ofERKS2_)
                  000b036d    00000018     vblocks.lib : Dyn_multi_interpolator.obj (.text:_ZNK4Base5ArrayIfE17is_non_descendingEv)
                  000b0385    00000018     base.lib : Spkt.obj (.text:_ZNK4Base5Cksum9get_valueEv)
                  000b039d    00000018              : CRCmav.obj (.text:_ZNK4Base6CRCmav9get_valueEv)
                  000b03b5    00000018              : Tmvdat.obj (.text:_ZNK4Base6Tmvdat4cgetERNS_5LossyE)
                  000b03cd    00000018              : Xcfile.obj (.text:_ZNK4Base6Xcfile7get_crcERm)
                  000b03e5    00000018     maverick.lib : Rtable.obj (.text:_ZNK8Maverick6Rtable9xi_searchEf)
                  000b03fd    00000018     pa_blocks.lib : Recovery_mission_data_processor.obj (.text:_ZNK9Pa_blocks31Recovery_mission_data_processor27is_in_set_of_route_commandsERKNS_21Command_route_entriesEm)
                  000b0415    00000018                   : Motor_rpm_cmd.obj (.text:_ZThn4_N9Pa_blocks13Motor_rpm_cmd16get_cyphal_flagsEv)
                  000b042d    00000018                   : Recovery_motor_rpm_cmd.obj (.text:_ZThn4_N9Pa_blocks22Recovery_motor_rpm_cmd16get_cyphal_flagsEv)
                  000b0445    00000018     rts2800_fpu64_eabi.lib : ll_aox28.asm.obj (.text)
                  000b045d    00000017     veronte.lib : Hvar_cpu2.obj (.text:_ZN3Bsp5Hrvar3setEf)
                  000b0474    00000017                 : Copystep.obj (.text:_ZN3Ver8Copystep4stepEv)
                  000b048b    00000017     base.lib : Async_transfer_data.obj (.text:_ZN4Base19Async_transfer_data4nextEv)
                  000b04a2    00000017              : Message_received_hnd.obj (.text:_ZN4Base20Message_received_hnd6Parser5parseERNS_17U16stream_r_errorE)
                  000b04b9    00000017              : Herrors.obj (.text:_ZN4Base35_GLOBAL__N__11_Herrors_cpp_b86a41c413get_cpu2_buffEv)
                  000b04d0    00000017     pa_blocks.lib : Ttcg.obj (.text:_ZN4Base5ArrayIN9Pa_blocks9Route_msgEE6resizeEm)
                  000b04e7    00000017     vpgnc.lib : Vpu.obj (.text:_ZN4Base5ArrayINS_5FieldEE6resizeEm)
                  000b04fe    00000017     first.lib : Lossy.obj (.text:_ZN4Base5Lossy10put_n_charERKNS_6MblockIKcEE)
                  000b0515    00000017               : Lossy.obj (.text:_ZN4Base5Lossy11get_n_floatERNS_6MblockIfEE)
                  000b052c    00000017               : Lossy.obj (.text:_ZN4Base5Lossy9get_ibitsERlj)
                  000b0543    00000017     pa_blocks.lib : Saturation_parameters.obj (.text:_ZN4Base7XrtableILm2ELm7EE5resetEv)
                  000b055a    00000017                   : Saturation_parameters.obj (.text:_ZN4Base7XrtableILm3ELm7EE5resetEv)
                  000b0571    00000017                   : Saturation_parameters.obj (.text:_ZN4Base7XrtableILm4ELm7EE5resetEv)
                  000b0588    00000017     Blockfactory_pac.obj (.text:_ZN4Base9Allocator15allocate_mblockIjEENS_6MblockIT_EEm)
                  000b059f    00000017     veronte.lib : Tunsuite_pa.obj (.text:_ZN4Base9Tuntraits9Wsync_desINS_6TdsyncIN8Midlevel10Lights_cfgENS_12Tdsynctraits11Rd_blockingIS4_NS_8Cptraits6PodrawIVS4_EEEENS5_15Disabled_structEEENS0_10DesdefaultIS4_EEE8str2elemERSD_RNS_11Lossy_errorE)
                  000b05b6    00000017     first.lib : U8ostream.obj (.text:_ZN4Base9U8ostream4seekEm)
                  000b05cd    00000017     geomodel.lib : Gellipsoid.obj (.text:_ZN4Rfun11safe_divideIfEET_S1_S1_S1_)
                  000b05e4    00000017     pa_blocks.lib : Mixer_allocator.obj (.text:_ZN8Maverick6TarrayIeE8mul_wiseIfEEvRKN4Base5ArrayIT_EE)
                  000b05fb    00000017                   : Mixer_allocator.obj (.text:_ZN8Maverick6TarrayIeE8subtractIfEEvRKN4Base5ArrayIT_EE)
                  000b0612    00000017                   : Site_config.obj (.text:_ZN9Pa_blocks11Site_config6Config28validate_and_convert_headingEv)
                  000b0629    00000017                   : Roll_maneuver.obj (.text:_ZN9Pa_blocks13Roll_maneuver19is_roll_in_maneuverEv)
                  000b0640    00000017                   : Roll_maneuver.obj (.text:_ZN9Pa_blocks13Roll_maneuver20is_roll_out_maneuverEv)
                  000b0657    00000017                   : Pa_turn_direction.obj (.text:_ZN9Pa_blocks14Turn_direction17turn_sense_vectorENS0_9DirectionERN8Maverick9Irvector3E)
                  000b066e    00000017                   : Battery_summary.obj (.text:_ZN9Pa_blocks15Battery_summary4csetERN4Base5LossyE)
                  000b0685    00000017                   : WGS84_point_3d.obj (.text:_ZN9Pa_blocks16Protobuf_decoder13decode_doubleIeEEbRT_)
                  000b069c    00000017     Blockfactory_pac.obj (.text:_ZN9Pa_blocks17Cy_monitoring_rcv8on_rx_cyEN6Cyphal17Cyphal_stg_fieldsERN6Stanag14IStanag_msg_rx9Rx_paramsE)
                  000b06b3    00000017     pa_blocks.lib : Mission_utilities.obj (.text:_ZN9Pa_blocks17Mission_utilities27is_marker_land_action_validERKNS_18Marker_land_actionE)
                  000b06ca    00000017                   : Polynomial_coeffs.obj (.text:_ZN9Pa_blocks17Polynomial_coeffs25flip_sign_of_coefficientsEv)
                  000b06e1    00000017                   : Current_route_information.obj (.text:_ZN9Pa_blocks25Current_route_information4csetERN4Base5LossyE)
                  000b06f8    00000017                   : Route_landing_information.obj (.text:_ZN9Pa_blocks25Route_landing_informationC1Ev)
                  000b070f    00000017                   : Recovery_route_constructor.obj (.text:_ZN9Pa_blocks26Recovery_route_constructor8Log_dataC1Ev)
                  000b0726    00000017                   : Recovery_mission_data_processor.obj (.text:_ZN9Pa_blocks31Recovery_mission_data_processorC1ERKNS0_5ParamERKNS_9Lane_type4TypeERNS0_5StateERNS_11Text_loggerERNS_12Mission_planE)
                  000b073d    00000017                   : Recovery_wrapper_control_system_object.obj (.text:_ZN9Pa_blocks38Recovery_wrapper_control_system_object34reset_recovery_vsdk_state_estimateEv)
                  000b0754    00000017     base.lib : Field_real_dec_ASCII.obj (.text:_ZNK4Base20Field_real_dec_ASCII4cgetERNS_5LossyE)
                  000b076b    00000017     pa_blocks.lib : DComms_cfg.obj (.text:_ZNK9Pa_blocks10DComms_cfg10Freq_entry4cgetERN4Base5LossyE)
                  000b0782    00000017                   : Roll_maneuver.obj (.text:_ZNK9Pa_blocks13Roll_maneuver12displacementEv)
                  000b0799    00000017                   : Command_response.obj (.text:_ZNK9Pa_blocks16Command_response4cgetERN4Base5LossyE)
                  000b07b0    00000017                   : DComms_cfg.obj (.text:_ZNV9Pa_blocks10DComms_cfg10Freq_entry4csetERN4Base5LossyE)
                  000b07c7    00000017     vpgnc.lib : Opranges.obj (.text:_ZNVK4Base8ArraymskIN5Vpgnc8Opranges3RngELj40EE10is_enabledEj)
                  000b07de    00000017     base.lib : Fsniffer.obj (.text:_ZNVK4Base8ArraymskINS_10Vmap_entryELj150EE10is_enabledEj)
                  000b07f5    00000016     FPU.lib : rnd_SP_RS.obj (.text)
                  000b080b    00000016     DSP2837x_ent.lib : GPIO.obj (.text:_ZN12Dsp28335_ent4GPIOC1ENS_6GPIOidE)
                  000b0821    00000016                      : Cpusys.obj (.text:_ZN12Dsp28335_ent6Cpusys14clk_enable_pwmEj)
                  000b0837    00000016     base.lib : Cyphal_common_types.obj (.text:_ZN19Cyphal_common_types14put_array_sizeEmRN4Base5LossyEm)
                  000b084d    00000016     veronte.lib : Copystep.obj (.text:_ZN3Ver36_GLOBAL__N__12_Copystep_cpp_e59cf1d56HrangeIN3Bsp5HbvarEE11build_rangeIN4Base3VarINS6_4BvarEE8RegarrayILS8_1183ELS8_1189EEEEENS3_5RangeERVKT_)
                  000b0863    00000016                 : Copystep.obj (.text:_ZN3Ver36_GLOBAL__N__12_Copystep_cpp_e59cf1d56HrangeIN3Bsp5HbvarEE11build_rangeIN4Base3VarINS6_4BvarEE8RegarrayILS8_300ELS8_307EEEEENS3_5RangeERVKT_)
                  000b0879    00000016                 : Copystep.obj (.text:_ZN3Ver36_GLOBAL__N__12_Copystep_cpp_e59cf1d56HrangeIN3Bsp5HbvarEE11build_rangeIN4Base3VarINS6_4BvarEE8RegarrayILS8_400ELS8_403EEEEENS3_5RangeERVKT_)
                  000b088f    00000016                 : Copystep.obj (.text:_ZN3Ver36_GLOBAL__N__12_Copystep_cpp_e59cf1d56HrangeIN3Bsp5HbvarEE11build_rangeIN4Base3VarINS6_4BvarEE8RegarrayILS8_550ELS8_569EEEEENS3_5RangeERVKT_)
                  000b08a5    00000016                 : Copystep.obj (.text:_ZN3Ver36_GLOBAL__N__12_Copystep_cpp_e59cf1d56HrangeIN3Bsp5HrvarEE11build_rangeIN4Base3VarINS6_4RvarEE8RegarrayILS8_1450ELS8_1453EEEEENS3_5RangeERVKT_)
                  000b08bb    00000016                 : Copystep.obj (.text:_ZN3Ver36_GLOBAL__N__12_Copystep_cpp_e59cf1d56HrangeIN3Bsp5HrvarEE11build_rangeIN4Base3VarINS6_4RvarEE8RegarrayILS8_1483ELS8_1497EEEEENS3_5RangeERVKT_)
                  000b08d1    00000016                 : Copystep.obj (.text:_ZN3Ver36_GLOBAL__N__12_Copystep_cpp_e59cf1d56HrangeIN3Bsp5HrvarEE11build_rangeIN4Base3VarINS6_4RvarEE8RegarrayILS8_1500ELS8_1531EEEEENS3_5RangeERVKT_)
                  000b08e7    00000016                 : Copystep.obj (.text:_ZN3Ver36_GLOBAL__N__12_Copystep_cpp_e59cf1d56HrangeIN3Bsp5HrvarEE11build_rangeIN4Base3VarINS6_4RvarEE8RegarrayILS8_1600ELS8_1631EEEEENS3_5RangeERVKT_)
                  000b08fd    00000016                 : Copystep.obj (.text:_ZN3Ver36_GLOBAL__N__12_Copystep_cpp_e59cf1d56HrangeIN3Bsp5HrvarEE11build_rangeIN4Base3VarINS6_4RvarEE8RegarrayILS8_1750ELS8_1769EEEEENS3_5RangeERVKT_)
                  000b0913    00000016                 : Copystep.obj (.text:_ZN3Ver36_GLOBAL__N__12_Copystep_cpp_e59cf1d56HrangeIN3Bsp5HrvarEE11build_rangeIN4Base3VarINS6_4RvarEE8RegarrayILS8_2000ELS8_2005EEEEENS3_5RangeERVKT_)
                  000b0929    00000016                 : Copystep.obj (.text:_ZN3Ver36_GLOBAL__N__12_Copystep_cpp_e59cf1d56HrangeIN3Bsp5HrvarEE11build_rangeIN4Base3VarINS6_4RvarEE8RegarrayILS8_2040ELS8_2057EEEEENS3_5RangeERVKT_)
                  000b093f    00000016                 : Copystep.obj (.text:_ZN3Ver36_GLOBAL__N__12_Copystep_cpp_e59cf1d56HrangeIN3Bsp5HrvarEE11build_rangeIN4Base3VarINS6_4RvarEE8RegarrayILS8_2904ELS8_2907EEEEENS3_5RangeERVKT_)
                  000b0955    00000016                 : Copystep.obj (.text:_ZN3Ver36_GLOBAL__N__12_Copystep_cpp_e59cf1d56HrangeIN3Bsp5HrvarEE11build_rangeIN4Base3VarINS6_4RvarEE8RegarrayILS8_322ELS8_439EEEEENS3_5RangeERVKT_)
                  000b096b    00000016                 : Copystep.obj (.text:_ZN3Ver36_GLOBAL__N__12_Copystep_cpp_e59cf1d56HrangeIN3Bsp5HrvarEE11build_rangeIN4Base3VarINS6_4RvarEE8RegarrayILS8_700ELS8_705EEEEENS3_5RangeERVKT_)
                  000b0981    00000016                 : Copystep.obj (.text:_ZN3Ver36_GLOBAL__N__12_Copystep_cpp_e59cf1d56HrangeIN3Bsp5HuvarEE11build_rangeIN4Base3VarINS6_4UvarEE8RegarrayILS8_396ELS8_400EEEEENS3_5RangeERVKT_)
                  000b0997    00000016                 : Copystep.obj (.text:_ZN3Ver36_GLOBAL__N__12_Copystep_cpp_e59cf1d56HrangeIN3Bsp5HuvarEE11build_rangeIN4Base3VarINS6_4UvarEE8RegarrayILS8_447ELS8_453EEEEENS3_5RangeERVKT_)
                  000b09ad    00000016                 : Copystep.obj (.text:_ZN3Ver36_GLOBAL__N__12_Copystep_cpp_e59cf1d56HrangeIN3Bsp5HuvarEE11build_rangeIN4Base3VarINS6_4UvarEE8RegarrayILS8_460ELS8_465EEEEENS3_5RangeERVKT_)
                  000b09c3    00000016                 : Copystep.obj (.text:_ZN3Ver36_GLOBAL__N__12_Copystep_cpp_e59cf1d56HrangeIN3Bsp5HuvarEE11build_rangeIN4Base3VarINS6_4UvarEE8RegarrayILS8_480ELS8_485EEEEENS3_5RangeERVKT_)
                  000b09d9    00000016                 : Copystep.obj (.text:_ZN3Ver36_GLOBAL__N__12_Copystep_cpp_e59cf1d56HrangeIN3Bsp5HuvarEE11build_rangeIN4Base3VarINS6_4UvarEE8RegarrayILS8_500ELS8_519EEEEENS3_5RangeERVKT_)
                  000b09ef    00000016                 : Xfreqmgr0.obj (.text:_ZN3Ver9Xfreqmgr04csetERN4Base5LossyE)
                  000b0a05    00000016     base.lib : Stimestamp.obj (.text:_ZN4Base10Stimestamp11get_currentEv)
                  000b0a1b    00000016              : Chk_blk_impl.obj (.text:_ZN4Base12Chk_blk_impl12update_blockERKNS_12U8pkmblock_kE)
                  000b0a31    00000016              : Presence_vec.obj (.text:_ZN4Base12Presence_vecC1Ebj)
                  000b0a47    00000016     vpgnc.lib : Opranges.obj (.text:_ZN4Base5ArrayIN5Vpgnc8Opranges3RngEEC1IS3_EENS_6MblockIT_EE)
                  000b0a5d    00000016     base.lib : Fsniffer.obj (.text:_ZN4Base5ArrayINS_10Vmap_entryEEC1IS1_EENS_6MblockIT_EE)
                  000b0a73    00000016     veronte.lib : Tunsuite_pa.obj (.text:_ZN4Base5ArrayINS_13Channelmgrcfg6ChncfgEEC1IS2_EENS_6MblockIT_EE)
                  000b0a89    00000016                 : Tunsuite_pa.obj (.text:_ZN4Base5ArrayINS_13Channelmgrcfg6ChnselEEC1IS2_EENS_6MblockIT_EE)
                  000b0a9f    00000016     vpgnc.lib : Vpu.obj (.text:_ZN4Base5ArrayINS_5FieldEEC1IS1_EENS_6MblockIT_EE)
                  000b0ab5    00000016     veronte.lib : Hevact_cpu2.obj (.text:_ZN4Base5ArrayINS_6ActionEEC1IS1_EENS_6MblockIT_EE)
                  000b0acb    00000016     midlevel.lib : Irxfw.obj (.text:_ZN4Base5ArrayINS_8Msg_dataEEC1EmNS_6Memmgr4TypeE)
                  000b0ae1    00000016     base.lib : Sticktypes.obj (.text:_ZN4Base5ArrayINS_8StickoutEEC1IS1_EENS_6MblockIT_EE)
                  000b0af7    00000016     vpgnc.lib : Vpu.obj (.text:_ZN4Base5ArrayINS_8Sync_map7ElementEEC1EmNS_6Memmgr4TypeE)
                  000b0b0d    00000016               : Rvar_op_commit.obj (.text:_ZN4Base5ArrayINS_8TwraptunINS_9Tuntraits11Lossy_floatEfEEEC1IS4_EENS_6MblockIT_EE)
                  000b0b23    00000016     veronte.lib : Hevact_cpu2.obj (.text:_ZN4Base5ArrayINS_9Evactcfg0EEC1IS1_EENS_6MblockIT_EE)
                  000b0b39    00000016     base.lib : Taskmgr.obj (.text:_ZN4Base5ArrayINS_9TaskentryEEC1EmNS_6Memmgr4TypeE)
                  000b0b4f    00000016     midlevel.lib : Irxfw.obj (.text:_ZN4Base5ArrayIPN6Stanag14IStanag_msg_txEEC1EmNS_6Memmgr4TypeE)
                  000b0b65    00000016                  : Irxfw.obj (.text:_ZN4Base5ArrayIPN6Stanag14IStanag_rx_hdlEEC1EmNS_6Memmgr4TypeE)
                  000b0b7b    00000016     pa_blocks.lib : Cy_maint_action.obj (.text:_ZN4Base5ArrayIPN9Pa_blocks22Cy_maint_action_consts13Imaint_actionEEC1EmNS_6Memmgr4TypeE)
                  000b0b91    00000016     media.lib : Cfgmgr.obj (.text:_ZN4Base5ArrayIPNS_14Itunable_asyncEEC1EmNS_6Memmgr4TypeE)
                  000b0ba7    00000016               : Cfgmgr.obj (.text:_ZN4Base5ArrayIPNS_21Ideserializable_asyncEEC1EmNS_6Memmgr4TypeE)
                  000b0bbd    00000016     maverick.lib : Rvector.obj (.text:_ZN4Base5ArrayIfEC1EmNS_6Memmgr4TypeE)
                  000b0bd3    00000016     first.lib : Dsync.obj (.text:_ZN4Base5Dsync6Reader8get_nullEv)
                  000b0be9    00000016               : Lossy.obj (.text:_ZN4Base5LossyC1ERKS0_)
                  000b0bff    00000016               : Chrono.obj (.text:_ZN4Base6ChronoC1Eb)
                  000b0c15    00000016               : Memmgr_c2000.obj (.text:_ZN4Base6Memmgr13get_allocatorENS0_4TypeE)
                  000b0c2b    00000016     base.lib : Pdiver.obj (.text:_ZN4Base6Pdiver4cgetERNS_5LossyE)
                  000b0c41    00000016              : Feature.obj (.text:_ZN4Base7Feature9build_absERKNS_4TllhE)
                  000b0c57    00000016              : Xcfilecli.obj (.text:_ZN4Base8XcbufferILm512EE6Reader3endEv)
                  000b0c6d    00000016              : Xcfilecli.obj (.text:_ZN4Base8XcbufferILm512EE6Writer3endEv)
                  000b0c83    00000016     pa_blocks.lib : Mixer_allocator.obj (.text:_ZN4Base9Allocator12allocate_newIN9Pa_blocks15Mixer_allocatorES0_EEPT_RT0_)
                  000b0c99    00000016     veronte.lib : Tunsuite_pa.obj (.text:_ZN4Base9Tuntraits15Arraytun_nosizeINS0_9Cset_onlyIN12Dsp28335_ent8TGPIOtunINS3_9GPIOmux16EEEEENS_7TnarrayIS6_Lm20EEENS0_8No_checkIS9_EEE8str2elemERS9_RNS_11Lossy_errorE)
                  000b0caf    00000016     base.lib : Sticktypes.obj (.text:_ZN4Base9Tuntraits15Arraytun_nosizeINS0_9Cset_onlyINS_13StickrawtransEEENS_7TnarrayIS3_Lm16EEENS0_8No_checkIS6_EEE8str2elemERS6_RNS_11Lossy_errorE)
                  000b0cc5    00000016     media.lib : Cfgmgr.obj (.text:_ZN5Media6Cfgmgr7str2tunERN4Base11Lossy_errorERNS1_14Itunable_asyncE)
                  000b0cdb    00000016     Vmain_cpu2.obj (.text:_ZN7Project38_GLOBAL__N__14_Vmain_cpu2_cpp_5bd1185c12Stpmgrhelper4stepEv)
                  000b0cf1    00000016     maverick.lib : Rtable.obj (.text:_ZN8Maverick6TarrayIfE6lincmbEfRKN4Base5ArrayIfEEfS6_)
                  000b0d07    00000016     midlevel.lib : Irxfw.obj (.text:_ZN8Midlevel5Irxfw6Parser3addEN4Base15Stanag_msg_type8Msg_typeERN6Stanag10Stanag_msgE)
                  000b0d1d    00000016     pa_blocks.lib : DComms_cfg.obj (.text:_ZN9Pa_blocks10DComms_cfg6Static4csetERN4Base11Lossy_errorE)
                  000b0d33    00000016                   : Rwcso_output_manager.obj (.text:_ZN9Pa_blocks12Command_fifoINS_22Recovery_motor_rpm_cmdELj1EEC1Ev)
                  000b0d49    00000016                   : State_machines.obj (.text:_ZN9Pa_blocks14State_machines41eval_takeoff_above_position_hold_altitudeEv)
                  000b0d5f    00000016                   : Gnc_transformation.obj (.text:_ZN9Pa_blocks18Gnc_transformationC1ERKNS0_12Build_paramsE)
                  000b0d75    00000016                   : Command_routes_and_deviations_params.obj (.text:_ZN9Pa_blocks36Command_routes_and_deviations_params31Track_spline_with_offset_paramsC1Ev)
                  000b0d8b    00000016     geomodel.lib : Fidcache.obj (.text:_ZNK3Geo8Fidcache16recompute_neededEv)
                  000b0da1    00000016     pa_blocks.lib : State_machines.obj (.text:_ZNK9Pa_blocks14State_machines42eval_land_agl_below_slow_descent_thresholdEv)
                  000b0db7    00000016                   : State_machines.obj (.text:_ZNK9Pa_blocks14State_machines46eval_land_agl_below_landing_attitude_thresholdEv)
                  000b0dcd    00000016                   : State_machines.obj (.text:_ZNK9Pa_blocks14State_machines50eval_mode_agl_above_land_to_track_spline_thresholdEv)
                  000b0de3    00000015     veronte.lib : Pwm_suite.obj (.text:_ZN12Dsp28335_ent8PwmsuiteINS_6PwmdevELj16EE6Config4csetERN4Base11Lossy_errorE)
                  000b0df8    00000015     base.lib : CRC.obj (.text:_ZN4Base3CRC6Config5buildEjmmmbb)
                  000b0e0d    00000015     pa_blocks.lib : Cy_maint_action.obj (.text:_ZN4Base5ArrayIN9Pa_blocks22Cy_maint_action_consts13Command_typesEEC1EmNS_6Memmgr4TypeE)
                  000b0e22    00000015                   : Cqp.obj (.text:_ZN4Base5ArrayIN9Pa_blocks3Cqp10ConstraintEE6resizeEm)
                  000b0e37    00000015     midlevel.lib : Irxfw.obj (.text:_ZN4Base5ArrayINS_15Stanag_msg_type8Msg_typeEEC1EmNS_6Memmgr4TypeE)
                  000b0e4c    00000015     media.lib : Cfgmgr.obj (.text:_ZN4Base5ArrayINS_3Cfg2IdEEC1EmNS_6Memmgr4TypeE)
                  000b0e61    00000015     vpgnc.lib : Vpu.obj (.text:_ZN4Base5ArrayINS_4BvarEEC1EmNS_6Memmgr4TypeE)
                  000b0e76    00000015     veronte.lib : Vfspermission.obj (.text:_ZN4Base5ArrayINS_7Hashers11Element_u16EEC1EmNS_6Memmgr4TypeE)
                  000b0e8b    00000015     pa_blocks.lib : Tllh_cs_64.obj (.text:_ZN4Base5ArrayIeE6resizeEm)
                  000b0ea0    00000015     maverick.lib : Rvector.obj (.text:_ZN4Base5ArrayIfE6resizeEm)
                  000b0eb5    00000015     first.lib : Lossy.obj (.text:_ZN4Base5ArrayIjEC1EmNS_6Memmgr4TypeE)
                  000b0eca    00000015               : Lossy.obj (.text:_ZN4Base5Lossy11put_n_uint8ERKNS_12U8pkmblock_kE)
                  000b0edf    00000015               : Lossy.obj (.text:_ZN4Base5Lossy15float_to_uint32Efh)
                  000b0ef4    00000015     veronte.lib : Copystep.obj (.text:_ZN4Base6MblockIVKbE10sub_mblockEmm)
                  000b0f09    00000015                 : Copystep.obj (.text:_ZN4Base6MblockIVKfE10sub_mblockEmm)
                  000b0f1e    00000015                 : Copystep.obj (.text:_ZN4Base6MblockIVKjE10sub_mblockEmm)
                  000b0f33    00000015                 : Tunsuite_pa.obj (.text:_ZN4Base6MblockIfE10sub_mblockEmm)
                  000b0f48    00000015     base.lib : Sysver.obj (.text:_ZN4Base6Sysver11get_currentEv)
                  000b0f5d    00000015              : Xcfile.obj (.text:_ZN4Base6Xcfile10seek_asyncElNS_5Ifile9Seek_modeE)
                  000b0f72    00000015              : Xcmqrd.obj (.text:_ZN4Base6XcmqrdC1ERNS_4XcrdE)
                  000b0f87    00000015              : Rtaskrc.obj (.text:_ZN4Base7RtaskrcC1Ef)
                  000b0f9c    00000015              : Stepmgr.obj (.text:_ZN4Base7Stepmgr4stepEv)
                  000b0fb1    00000015     first.lib : PDIcheck.obj (.text:_ZN4Base8PDIcheck4initEv)
                  000b0fc6    00000015     blocks.lib : Dynrvector.obj (.text:_ZN4Base9Tuntraits15Arraytun_nosizeINS0_10TundefaultIfEENS_5ArrayIfEENS0_8No_checkIS5_EEE8str2elemERS5_RNS_11Lossy_errorE)
                  000b0fdb    00000015     veronte.lib : Hxcfield_cpu2.obj (.text:_ZN4Base9Tuntraits15Arraytun_nosizeINS0_9Cset_onlyINS_5FieldEEENS_5ArrayIS3_EENS0_8No_checkIS6_EEE8str2elemERS6_RNS_11Lossy_errorE)
                  000b0ff0    00000015     base.lib : Xcfilecli.obj (.text:_ZN4Base9Xcfilecli18compute_next_stateENS0_5StateE)
                  000b1005    00000015     media.lib : Cfgmgr.obj (.text:_ZN5Media6Cfgmgr4sendEN4Base7AddressENS1_3Cfg10Config_argE)
                  000b101a    00000015     vblocks.lib : Multi_interpolator_tun.obj (.text:_ZN7Vblocks22Multi_interpolator_tunC1Ev)
                  000b102f    00000015     maverick.lib : Irquat.obj (.text:_ZN8Maverick6Irquat10norm2alizeEv)
                  000b1044    00000015     pa_blocks.lib : Vector_saturation.obj (.text:_ZN8Maverick6TarrayIfE8div_wiseERKN4Base5ArrayIfEE)
                  000b1059    00000015                   : Hover_maneuver.obj (.text:_ZN9Pa_blocks14Hover_maneuver21set_maneuver_durationEf)
                  000b106e    00000015                   : Command_response.obj (.text:_ZN9Pa_blocks16Command_response16get_cyphal_flagsEv)
                  000b1083    00000015                   : Mission_plan_data.obj (.text:_ZN9Pa_blocks17Mission_plan_dataC1Ev)
                  000b1098    00000015                   : Controllers_object.obj (.text:_ZN9Pa_blocks18Controllers_object12Mixer_return9Telemetry3setERKS1_)
                  000b10ad    00000015                   : Track_spline_manager.obj (.text:_ZN9Pa_blocks20Track_spline_manager10Vsdk_param4csetERN4Base11Lossy_errorE)
                  000b10c2    00000015                   : Track_spline_manager.obj (.text:_ZN9Pa_blocks20Track_spline_manager5InputC1Ev)
                  000b10d7    00000015                   : Actuator_allocator_object.obj (.text:_ZN9Pa_blocks25Actuator_allocator_objectC1ERKNS_29Vsdk_actuatorallocator_paramsE)
                  000b10ec    00000015                   : Mission_bounding_box_data.obj (.text:_ZN9Pa_blocks25Mission_bounding_box_dataC1Ev)
                  000b1101    00000015                   : Route_initial_condition_params.obj (.text:_ZN9Pa_blocks30Route_initial_condition_paramsC1Ev)
                  000b1116    00000015                   : Recovery_mission_phase_of_flight.obj (.text:_ZN9Pa_blocks32Recovery_mission_phase_of_flightC1ERKNS0_5ParamERKNS_9Lane_type4TypeERNS0_5StateERNS_11Text_loggerE)
                  000b112b    00000015                   : Recovery_wrapper_control_system_object.obj (.text:_ZN9Pa_blocks38Recovery_wrapper_control_system_object16all_motors_armedEv)
                  000b1140    00000015                   : Recovery_wrapper_control_system_object.obj (.text:_ZN9Pa_blocks38Recovery_wrapper_control_system_object18all_motors_enabledEv)
                  000b1155    00000015                   : Recovery_wrapper_control_system_object.obj (.text:_ZN9Pa_blocks38Recovery_wrapper_control_system_object19all_motors_disabledEv)
                  000b116a    00000015                   : Aacg.obj (.text:_ZN9Pa_blocks4Aacg11Vsdk_param_4csetERN4Base11Lossy_errorE)
                  000b117f    00000015     base.lib : CRC.obj (.text:_ZNK4Base3CRC9get_valueEv)
                  000b1194    00000015              : Field.obj (.text:_ZNK4Base5Field12compress_ftrERNS_5LossyERKNS_4IgetE)
                  000b11a9    00000015     maverick.lib : Rtable.obj (.text:_ZNK4Base6MblockIKfE10sub_mblockEmm)
                  000b11be    00000015     pa_blocks.lib : Cqp.obj (.text:_ZNK8Maverick6TarrayIeE8find_minERe)
                  000b11d3    00000015                   : Vector_saturation.obj (.text:_ZNK8Maverick7TvectorIfE3dotERKS1_)
                  000b11e8    00000015                   : Vector_saturation.obj (.text:_ZNK8Maverick7TvectorIfE6norm22Ev)
                  000b11fd    00000015                   : Trajectory_planner.obj (.text:_ZNK9Pa_blocks18Trajectory_planner21parse_phase_of_flightERKNS_14Route_maneuverERNS_15Phase_of_flightE)
                  000b1212    00000014     base.lib : Cyphal_common_types.obj (.text:_ZN19Cyphal_common_types14get_array_sizeEmRN4Base5LossyE)
                  000b1226    00000014     veronte.lib : Copystep.obj (.text:_ZN3Ver36_GLOBAL__N__12_Copystep_cpp_e59cf1d56HrangeIN3Bsp5HbvarEE11build_rangeIN4Base3VarINS6_4BvarEE8RegarrayILS8_102ELS8_105EEEEENS3_5RangeERVKT_)
                  000b123a    00000014                 : Copystep.obj (.text:_ZN3Ver36_GLOBAL__N__12_Copystep_cpp_e59cf1d56HrangeIN3Bsp5HbvarEE11build_rangeIN4Base3VarINS6_4BvarEE8RegarrayILS8_108ELS8_109EEEEENS3_5RangeERVKT_)
                  000b124e    00000014                 : Copystep.obj (.text:_ZN3Ver36_GLOBAL__N__12_Copystep_cpp_e59cf1d56HrangeIN3Bsp5HbvarEE11build_rangeIN4Base3VarINS6_4BvarEE8RegarrayILS8_111ELS8_113EEEEENS3_5RangeERVKT_)
                  000b1262    00000014                 : Copystep.obj (.text:_ZN3Ver36_GLOBAL__N__12_Copystep_cpp_e59cf1d56HrangeIN3Bsp5HbvarEE11build_rangeIN4Base3VarINS6_4BvarEE8RegarrayILS8_120ELS8_123EEEEENS3_5RangeERVKT_)
                  000b1276    00000014                 : Copystep.obj (.text:_ZN3Ver36_GLOBAL__N__12_Copystep_cpp_e59cf1d56HrangeIN3Bsp5HbvarEE11build_rangeIN4Base3VarINS6_4BvarEE8RegarrayILS8_14ELS8_15EEEEENS3_5RangeERVKT_)
                  000b128a    00000014                 : Copystep.obj (.text:_ZN3Ver36_GLOBAL__N__12_Copystep_cpp_e59cf1d56HrangeIN3Bsp5HbvarEE11build_rangeIN4Base3VarINS6_4BvarEE8RegarrayILS8_170ELS8_177EEEEENS3_5RangeERVKT_)
                  000b129e    00000014                 : Copystep.obj (.text:_ZN3Ver36_GLOBAL__N__12_Copystep_cpp_e59cf1d56HrangeIN3Bsp5HbvarEE11build_rangeIN4Base3VarINS6_4BvarEE8RegarrayILS8_178ELS8_179EEEEENS3_5RangeERVKT_)
                  000b12b2    00000014                 : Copystep.obj (.text:_ZN3Ver36_GLOBAL__N__12_Copystep_cpp_e59cf1d56HrangeIN3Bsp5HbvarEE11build_rangeIN4Base3VarINS6_4BvarEE8RegarrayILS8_190ELS8_191EEEEENS3_5RangeERVKT_)
                  000b12c6    00000014                 : Copystep.obj (.text:_ZN3Ver36_GLOBAL__N__12_Copystep_cpp_e59cf1d56HrangeIN3Bsp5HbvarEE11build_rangeIN4Base3VarINS6_4BvarEE8RegarrayILS8_200ELS8_207EEEEENS3_5RangeERVKT_)
                  000b12da    00000014                 : Copystep.obj (.text:_ZN3Ver36_GLOBAL__N__12_Copystep_cpp_e59cf1d56HrangeIN3Bsp5HbvarEE11build_rangeIN4Base3VarINS6_4BvarEE8RegarrayILS8_210ELS8_211EEEEENS3_5RangeERVKT_)
                  000b12ee    00000014                 : Copystep.obj (.text:_ZN3Ver36_GLOBAL__N__12_Copystep_cpp_e59cf1d56HrangeIN3Bsp5HbvarEE11build_rangeIN4Base3VarINS6_4BvarEE8RegarrayILS8_48ELS8_93EEEEENS3_5RangeERVKT_)
                  000b1302    00000014                 : Copystep.obj (.text:_ZN3Ver36_GLOBAL__N__12_Copystep_cpp_e59cf1d56HrangeIN3Bsp5HbvarEE11build_rangeIN4Base3VarINS6_4BvarEE8RegarrayILS8_96ELS8_99EEEEENS3_5RangeERVKT_)
                  000b1316    00000014                 : Copystep.obj (.text:_ZN3Ver36_GLOBAL__N__12_Copystep_cpp_e59cf1d56HrangeIN3Bsp5HrvarEE11build_rangeIN4Base3VarINS6_4RvarEE8RegarrayILS8_42ELS8_55EEEEENS3_5RangeERVKT_)
                  000b132a    00000014                 : Copystep.obj (.text:_ZN3Ver36_GLOBAL__N__12_Copystep_cpp_e59cf1d56HrangeIN3Bsp5HrvarEE11build_rangeIN4Base3VarINS6_4RvarEE8RegarrayILS8_59ELS8_68EEEEENS3_5RangeERVKT_)
                  000b133e    00000014                 : Copystep.obj (.text:_ZN3Ver36_GLOBAL__N__12_Copystep_cpp_e59cf1d56HrangeIN3Bsp5HrvarEE11build_rangeIN4Base3VarINS6_4RvarEE8RegarrayILS8_90ELS8_93EEEEENS3_5RangeERVKT_)
                  000b1352    00000014                 : Copystep.obj (.text:_ZN3Ver36_GLOBAL__N__12_Copystep_cpp_e59cf1d56HrangeIN3Bsp5HuvarEE11build_rangeIN4Base3VarINS6_4UvarEE8RegarrayILS8_100ELS8_116EEEEENS3_5RangeERVKT_)
                  000b1366    00000014                 : Copystep.obj (.text:_ZN3Ver36_GLOBAL__N__12_Copystep_cpp_e59cf1d56HrangeIN3Bsp5HuvarEE11build_rangeIN4Base3VarINS6_4UvarEE8RegarrayILS8_150ELS8_166EEEEENS3_5RangeERVKT_)
                  000b137a    00000014                 : Copystep.obj (.text:_ZN3Ver36_GLOBAL__N__12_Copystep_cpp_e59cf1d56HrangeIN3Bsp5HuvarEE11build_rangeIN4Base3VarINS6_4UvarEE8RegarrayILS8_2ELS8_18EEEEENS3_5RangeERVKT_)
                  000b138e    00000014     base.lib : Xclk.obj (.text:_ZN4Base4Xclk3ticEv)
                  000b13a2    00000014     pa_blocks.lib : Trajectory_planner.obj (.text:_ZN4Base5ArrayIKmEC1IS1_EENS_6MblockIT_EE)
                  000b13b6    00000014                   : Cy_maint_action.obj (.text:_ZN4Base5ArrayIN9Pa_blocks22Cy_maint_action_consts13Command_typesEE6resizeEm)
                  000b13ca    00000014     stanag.lib : Stanag_msg_cfgs.obj (.text:_ZN4Base5ArrayINS_15Stanag_msg_type8Msg_typeEE6resizeEm)
                  000b13de    00000014     media.lib : Cfgmgr.obj (.text:_ZN4Base5ArrayINS_3Cfg2IdEE6resizeEm)
                  000b13f2    00000014     vpgnc.lib : Vpu.obj (.text:_ZN4Base5ArrayINS_4BvarEE6resizeEm)
                  000b1406    00000014     first.lib : Error.obj (.text:_ZN4Base5ArrayINS_8ErrorsrcEE6resizeEm)
                  000b141a    00000014               : Vstring.obj (.text:_ZN4Base5ArrayIcE6resizeEm)
                  000b142e    00000014     veronte.lib : Tunsuite_pa.obj (.text:_ZN4Base5ArrayIfEC1IfEENS_6MblockIT_EE)
                  000b1442    00000014                 : Hvar_cpu2.obj (.text:_ZN4Base6MblockIPNS_6TdsyncINS_7FeatureENS_12Tdsynctraits11Rd_blockingIS2_NS_8Cptraits6PodrawIVS2_EEEENS3_2WrIS2_NS5_8OperatorIS2_S2_EEEEEEEC1EmNS_6Memmgr4TypeE)
                  000b1456    00000014     vpgnc.lib : Vpu.obj (.text:_ZN4Base6MblockIjEC1EmNS_6Memmgr4TypeE)
                  000b146a    00000014     midlevel.lib : Irxfw.obj (.text:_ZN4Base8FifospscINS_8Msg_dataEEC1EmNS_6Memmgr4TypeE)
                  000b147e    00000014     first.lib : Bitmblock.obj (.text:_ZN4Base9BitmblockC1EjNS_6Memmgr4TypeE)
                  000b1492    00000014               : U8istream.obj (.text:_ZN4Base9U8istream13get_uint16_beEv)
                  000b14a6    00000014               : U8istream.obj (.text:_ZN4Base9U8istream13get_uint16_leEv)
                  000b14ba    00000014     vpgnc.lib : Meta.obj (.text:_ZN5Vpgnc4Meta13register_cfgsERN5Media6CfgmgrE)
                  000b14ce    00000014               : Event.obj (.text:_ZN5Vpgnc5Event12step_rcv_msgERN4Base20Message_received_hndE)
                  000b14e2    00000014     stanag.lib : U8istream_pvec.obj (.text:_ZN6Stanag14U8istream_pvec9get_uint8Eh)
                  000b14f6    00000014     maverick.lib : R64vector3.obj (.text:_ZN8Maverick10R64vector3C1Eeee)
                  000b150a    00000014     pa_blocks.lib : Dyn_pa_interpolator_cat_2.obj (.text:_ZN8Maverick6TarrayIfE10lincmb_addEfRKN4Base5ArrayIfEE)
                  000b151e    00000014                   : Mixer_allocator.obj (.text:_ZN8Maverick7TmatrixIeEC1EPejj)
                  000b1532    00000014                   : Mixer_allocator.obj (.text:_ZN8Maverick7TmatrixIeEC1EjjRN4Base9AllocatorE)
                  000b1546    00000014                   : Pa_scheduler.obj (.text:_ZN8Maverick7TmatrixIfEC1EPfjj)
                  000b155a    00000014                   : Mixer_allocator.obj (.text:_ZN8Maverick7TmatrixIfEC1EjjRN4Base9AllocatorE)
                  000b156e    00000014                   : Vec_sat_output.obj (.text:_ZN9Pa_blocks14Vec_sat_output3setERKN8Maverick7RvectorEbb)
                  000b1582    00000014                   : Vec_sat_output.obj (.text:_ZN9Pa_blocks14Vec_sat_output3setERKN8Maverick9Irvector3Ebb)
                  000b1596    00000014                   : Mission_utilities.obj (.text:_ZN9Pa_blocks17Mission_utilities31is_marker_delivery_action_validERKNS_22Marker_delivery_actionE)
                  000b15aa    00000014                   : Rwcso_output_manager.obj (.text:_ZN9Pa_blocks20Rwcso_output_manager20update_gnc_frequencyEf)
                  000b15be    00000014                   : Route_initial_condition_params.obj (.text:_ZN9Pa_blocks30Route_initial_condition_params5resetEv)
                  000b15d2    00000014                   : Recovery_controls_command_processor.obj (.text:_ZN9Pa_blocks35Recovery_controls_command_processor26Pre_flight_check_telemetry5resetEv)
                  000b15e6    00000014                   : Recovery_controls_command_processor.obj (.text:_ZN9Pa_blocks35Recovery_controls_command_processor26Pre_flight_check_telemetryC1Ev)
                  000b15fa    00000014                   : Command_routes_and_deviations_params.obj (.text:_ZN9Pa_blocks36Command_routes_and_deviations_params21Stop_and_hover_params4csetERN4Base5LossyE)
                  000b160e    00000014                   : Cqp.obj (.text:_ZN9Pa_blocks3Cqp18Active_constraintsC1EjRN4Base9AllocatorE)
                  000b1622    00000014                   : Ttcg.obj (.text:_ZN9Pa_blocks4Ttcg11reset_stateEv)
                  000b1636    00000014     media.lib : Cfgmgr.obj (.text:_ZNK5Media34_GLOBAL__N__10_Cfgmgr_cpp_be3311b217Itunable_as_async4cgetERN4Base5LossyE)
                  000b164a    00000014     pa_blocks.lib : State_machines.obj (.text:_ZNK8Maverick8Ivector2IfE3dotERKS1_)
                  000b165e    00000014                   : Land_manager.obj (.text:_ZNK8Maverick8Ivector3IfE5dotxyERKS1_)
                  000b1672    00000014     media.lib : Cfgmgr.obj (.text:__sti___10_Cfgmgr_cpp_be3311b2)
                  000b1686    00000014     stanag.lib : Stanag_status_msgs.obj (.text:__sti___22_Stanag_status_msgs_cpp_2eb84926)
                  000b169a    00000014     rts2800_fpu64_eabi.lib : ll_mpy28.asm.obj (.text)
                  000b16ae    00000013     veronte.lib : Pwm_suite.obj (.text:_ZN12Dsp28335_ent8PwmsuiteINS_6PwmdevELj16EE6ConfigC1Ev)
                  000b16c1    00000013     geomodel.lib : Fidcache.obj (.text:_ZN3Geo8Fidcache7refreshEN4Base3FidE)
                  000b16d4    00000013     vpgnc.lib : Vpu.obj (.text:_ZN4Base11Errors_dual4readERNS_9U8ostreamE)
                  000b16e7    00000013     base.lib : CRC.obj (.text:_ZN4Base3CRCC1ERKS0_)
                  000b16fa    00000013              : Uclk.obj (.text:_ZN4Base4UclkC1ENS_4RvarE)
                  000b170d    00000013     vblocks.lib : Multi_interpolator.obj (.text:_ZN4Base5ArrayIN7Vblocks18Multi_interpolator12Interp_pointEEC1EmRNS_9AllocatorE)
                  000b1720    00000013     pa_blocks.lib : Cqp.obj (.text:_ZN4Base5ArrayIN9Pa_blocks3Cqp10ConstraintEEC1EmRNS_9AllocatorE)
                  000b1733    00000013                   : Mixer_allocator.obj (.text:_ZN4Base5ArrayIeEC1EmRNS_9AllocatorE)
                  000b1746    00000013     vblocks.lib : Multi_interpolator.obj (.text:_ZN4Base5ArrayIfEC1EmRNS_9AllocatorE)
                  000b1759    00000013     first.lib : Lossy.obj (.text:_ZN4Base5ArrayIjEC1IjEENS_6MblockIT_EE)
                  000b176c    00000013               : Lossy.obj (.text:_ZN4Base5Lossy10get_float3EPf)
                  000b177f    00000013               : Lossy.obj (.text:_ZN4Base5LossyC1EmNS_6Memmgr4TypeE)
                  000b1792    00000013     veronte.lib : Tunsuite_pa.obj (.text:_ZN4Base9Allocator12allocate_newIN3Ver10TunbuilderERN5Media6CfgmgrEEEPT_RT0_)
                  000b17a5    00000013     vpgnc.lib : Evtmgr.obj (.text:_ZN5Vpgnc34_GLOBAL__N__10_Evtmgr_cpp_40eceed37is_evhiERKNS_5EventE)
                  000b17b8    00000013               : Ftsactcmd.obj (.text:_ZN5Vpgnc9Ftsactcmd4csetERN4Base11Lossy_errorE)
                  000b17cb    00000013     pa_blocks.lib : Model_dynamic.obj (.text:_ZN8Maverick6TarrayIfE8subtractERKN4Base5ArrayIfEES6_)
                  000b17de    00000013                   : Input_processor.obj (.text:_ZN9Pa_blocks15Input_processor11reset_stateEv)
                  000b17f1    00000013                   : Mission_utilities.obj (.text:_ZN9Pa_blocks17Mission_utilities37map_delivery_action_from_mission_stepERKNS_12Mission_stepERNS_15Delivery_actionE)
                  000b1804    00000013                   : Motor_performance.obj (.text:_ZN9Pa_blocks17Motor_performanceC1Ev)
                  000b1817    00000013                   : Mission_readiness_wrapper.obj (.text:_ZN9Pa_blocks25Mission_readiness_wrapperC1Ev)
                  000b182a    00000013                   : Cm.obj (.text:_ZN9Pa_blocks2Cm10Vsdk_param4csetERN4Base11Lossy_errorE)
                  000b183d    00000013                   : Command_contingency_wrapper.obj (.text:_ZN9Pa_blocks32Command_contingency_wrapper_dataC1Ev)
                  000b1850    00000013                   : Ttcg.obj (.text:_ZN9Pa_blocks4Ttcg34reset_outbound_transition_maneuverEv)
                  000b1863    00000013                   : Waca.obj (.text:_ZN9Pa_blocks4Waca6OutputC1Ev)
                  000b1876    00000013     base.lib : Tllhcompressed.obj (.text:_ZNK4Base14Tllhcompressed4cgetERNS_9U8ostreamE)
                  000b1889    00000013              : Xcfile.obj (.text:_ZNK4Base6Xcfile4tellEv)
                  000b189c    00000013              : Taskmgr.obj (.text:_ZNK4Base7Taskmgr13get_number_ofERKNS_5ItaskE)
                  000b18af    00000013              : Uclkmgr.obj (.text:_ZNK4Base7Uclkmgr4cgetERNS_5LossyE)
                  000b18c2    00000013     pa_blocks.lib : Aee.obj (.text:_ZNK9Pa_blocks3Aee9Telemetry4cgetERN4Base5LossyE)
                  000b18d5    00000013                   : Waca.obj (.text:_ZNK9Pa_blocks4Waca9Telemetry4cgetERN4Base5LossyE)
                  000b18e8    00000012     veronte.lib : Pwm_suite.obj (.text:_ZN12Dsp28335_ent8PwmsuiteINS_6PwmdevELj16EEC2EN4Base6Memmgr4TypeENS3_5RngitINS1_5PWMidEEENS3_9Range_dynINS3_4RvarEEE)
                  000b18fa    00000012                 : Hvar_cpu2.obj (.text:_ZN3Bsp5Hbvar3setEb)
                  000b190c    00000012                 : Hvar_cpu2.obj (.text:_ZN3Bsp5Huvar3setEj)
                  000b191e    00000012     base.lib : Vref_wr_tun.obj (.text:_ZN4Base11Vref_wr_tun4csetERNS_11Lossy_errorE)
                  000b1930    00000012              : Field_cfg.obj (.text:_ZN4Base14Cksum_sagetech11update_byteEh)
                  000b1942    00000012     vpgnc.lib : Vpu.obj (.text:_ZN4Base18Routing_table_dataILj2ELj16EE16set_active_tableEj)
                  000b1954    00000012     base.lib : Pdiver.obj (.text:_ZN4Base34_GLOBAL__N__10_Pdiver_cpp_cc16dca813is_compatibleERKNS_7VersionE)
                  000b1966    00000012     pa_blocks.lib : Mixer_allocator.obj (.text:_ZN4Base5ArrayIbEC1EmRNS_9AllocatorE)
                  000b1978    00000012     first.lib : Lossy.obj (.text:_ZN4Base5ArrayIjEC1EmRNS_9AllocatorE)
                  000b198a    00000012               : Lossy.obj (.text:_ZN4Base5Lossy10get_bool16ERb)
                  000b199c    00000012     base.lib : Varmgr.obj (.text:_ZN4Base6Varmgr3setENS_4RvarEf)
                  000b19ae    00000012     first.lib : PDIcheck.obj (.text:_ZN4Base8PDIcheck12wr_availableEv)
                  000b19c0    00000012               : PDIcheck.obj (.text:_ZN4Base8PDIcheck6commitERKNS_5ErrorE)
                  000b19d2    00000012     base.lib : Spkt_hdr.obj (.text:_ZN4Base8Spkt_hdrC1EjNS_7AddressES1_NS_15Stanag_msg_type8Msg_typeENS0_9Msg_propsE)
                  000b19e4    00000012              : Spkt_hdr.obj (.text:_ZN4Base8Spkt_hdrC1Ev)
                  000b19f6    00000012     pa_blocks.lib : Pa_scheduler.obj (.text:_ZN4Base9Allocator12allocate_newIN9Pa_blocks12Pa_schedulerEEEPT_v)
                  000b1a08    00000012     midlevel.lib : Irxfw.obj (.text:_ZN6Stanag8Msg_fifo4sendEN4Base8Msg_dataE)
                  000b1a1a    00000012     pa_blocks.lib : Dyn_pa_interpolator_cat_2.obj (.text:_ZN8Maverick6TarrayIfE3addERKN4Base5ArrayIfEE)
                  000b1a2c    00000012                   : Pa_scheduler.obj (.text:_ZN8Maverick6TarrayIfE8subtractIfEEvRKN4Base5ArrayIT_EE)
                  000b1a3e    00000012                   : Mission_plan.obj (.text:_ZN9Pa_blocks12Mission_plan17try_parse_missionERNS_16Mission_plan_msgERKN4Base6MblockIjEEmb)
                  000b1a50    00000012                   : Switch_blender.obj (.text:_ZN9Pa_blocks14Switch_blender6Param_C1Ev)
                  000b1a62    00000012                   : Recovery_mission_data_processor.obj (.text:_ZN9Pa_blocks18Shallow_copy_arrayINS_19Command_route_entryEE6resizeEm)
                  000b1a74    00000012                   : Waypoint_coordinate.obj (.text:_ZN9Pa_blocks19Waypoint_coordinateC1Ev)
                  000b1a86    00000012                   : Power_on_builtin_test.obj (.text:_ZN9Pa_blocks21Power_on_builtin_test49state_estimate_has_accurate_position_and_velocityERKNS_26Controllers_state_estimateERb)
                  000b1a98    00000012                   : Dyn_pa_interpolator_cat_2.obj (.text:_ZN9Pa_blocks25Dyn_pa_interpolator_cat_221Pa_interpolator_cat_2C1ERNS1_12Build_paramsE)
                  000b1aaa    00000012                   : Upload_mission_plan_wrapper.obj (.text:_ZN9Pa_blocks27Upload_mission_plan_wrapperC1Ev)
                  000b1abc    00000012                   : Mission_takeoff_timing_information.obj (.text:_ZN9Pa_blocks34Mission_takeoff_timing_informationC1Ev)
                  000b1ace    00000012                   : Aee.obj (.text:_ZN9Pa_blocks3Aee9TelemetryC1Ev)
                  000b1ae0    00000012     base.lib : Spkt.obj (.text:_ZNK4Base4Spkt7get_hdrERNS_8Spkt_hdrE)
                  000b1af2    00000012              : Xcfile.obj (.text:_ZNK4Base6Xcfile9is_openedEv)
                  000b1b04    00000012     pa_blocks.lib : Recovery_mission_readiness_signal.obj (.text:_ZNK9Pa_blocks33Recovery_mission_readiness_signal4cgetERN4Base5LossyE)
                  000b1b16    00000012                   : Cy_file_transfer.obj (.text:_ZThn4_N9Pa_blocks16Cy_file_transfer16get_cyphal_flagsEv)
                  000b1b28    00000011     Vmain_cpu2.obj (.text:_ZN12Dsp28335_ent11GPIOtogglerINS_4GPIOEE4stepEv)
                  000b1b39    00000011     DSP2837x_ent.lib : Emif1.obj (.text:_ZN12Dsp28335_ent5Emif19cpu2_grabEv)
                  000b1b4a    00000011     pa_blocks.lib : Mixer_allocator.obj (.text:_ZN4Base5ArrayIfE4copyIeEEvRKNS0_IT_EE)
                  000b1b5b    00000011     base.lib : Spkt.obj (.text:_ZN4Base5CRC3211update_byteEh)
                  000b1b6c    00000011     first.lib : Lossy.obj (.text:_ZN4Base5Lossy11get_float64Ev)
                  000b1b7d    00000011     base.lib : Tllcs.obj (.text:_ZN4Base5Tllcs5zerosEv)
                  000b1b8e    00000011              : Xcfile.obj (.text:_ZN4Base6Xcfile11flush_asyncEv)
                  000b1b9f    00000011              : Spkt_hdr.obj (.text:_ZN4Base8Spkt_hdr9Msg_propsC1Eb)
                  000b1bb0    00000011     first.lib : Allocator.obj (.text:_ZN4Base9AllocatorC1ENS_6MblockIjEE)
                  000b1bc1    00000011     media.lib : Cfgmgr.obj (.text:_ZN5Media6Cfgmgr20send_load_op_result0Ev)
                  000b1bd2    00000011               : Cfgmgr.obj (.text:_ZN5Media6Cfgmgr20send_save_op_result0Ev)
                  000b1be3    00000011               : Cfgmgr.obj (.text:_ZN5Media6Cfgmgr7tun2strERKN4Base14Itunable_asyncERNS1_5LossyE)
                  000b1bf4    00000011               : Fstrfast.obj (.text:_ZN5Media8Fstrfast5on_txERN6Stanag14IStanag_msg_tx9Tx_paramsE)
                  000b1c05    00000011     vpgnc.lib : Oprvar.obj (.text:_ZN5Vpgnc6Oprvar9set_opmgrERKNS_5OpmgrE)
                  000b1c16    00000011               : Varinit.obj (.text:_ZN5Vpgnc7VarinitC1Ev)
                  000b1c27    00000011     pa_blocks.lib : Pa_scheduler.obj (.text:_ZN8Maverick6TarrayIfE5scaleERKf)
                  000b1c38    00000011                   : Pa_geometric.obj (.text:_ZN8Maverick8Ivector2IfE5scaleEf)
                  000b1c49    00000011                   : Straight_maneuver.obj (.text:_ZN8Maverick8Ivector2IfE6lincmbEfRKS1_)
                  000b1c5a    00000011     midlevel.lib : Default_cfg.obj (.text:_ZN8Midlevel11Default_cfg18set_default_can_fdERN12Dsp28335_ent10CAN_FD_cfgENS2_8BaudrateES4_bb)
                  000b1c6b    00000011     pa_blocks.lib : Switch_blender.obj (.text:_ZN9Pa_blocks14Switch_blender6State_C1EjRN4Base9AllocatorEj)
                  000b1c7c    00000011                   : Flight_dynamics.obj (.text:_ZN9Pa_blocks15Flight_dynamics38equivalent_airspeed_from_true_airspeedEff)
                  000b1c8d    00000011                   : Mixer_allocator.obj (.text:_ZN9Pa_blocks15Mixer_allocator5buildERN4Base9AllocatorERNS1_6MblockIjEE)
                  000b1c9e    00000011                   : Controllers_object.obj (.text:_ZN9Pa_blocks18Controllers_object6Output5clearEv)
                  000b1caf    00000011                   : Waypoint_coordinate.obj (.text:_ZN9Pa_blocks19Waypoint_coordinate10set_valuesEfRKN4Base7TnarrayIfLm4EEE)
                  000b1cc0    00000011                   : Actuator_allocator_object.obj (.text:_ZN9Pa_blocks25Actuator_allocator_object6Output5clearEv)
                  000b1cd1    00000011                   : Controls_command_processor.obj (.text:_ZN9Pa_blocks26Controls_command_processor15Route_deviationC1Ev)
                  000b1ce2    00000011                   : Command_routes_and_deviations_params.obj (.text:_ZN9Pa_blocks36Command_routes_and_deviations_params35Track_vtol_route_final_point_paramsC1Ev)
                  000b1cf3    00000011     veronte.lib : Hvar.obj (.text:_ZNK3Bsp5Hrvar3getEv)
                  000b1d04    00000011     pa_blocks.lib : Gnc_model_set.obj (.text:_ZNK9Pa_blocks13Gnc_model_set9Telemetry4cgetERN4Base5LossyE)
                  000b1d15    00000011                   : Vsdk_params.obj (.text:_ZNK9Pa_blocks15Mixer_telemetry4cgetERN4Base5LossyE)
                  000b1d26    00000011                   : Recovery_controls_command_processor.obj (.text:_ZNK9Pa_blocks35Recovery_controls_command_processor17initialize_outputERNS0_6OutputE)
                  000b1d37    00000011     devices.lib : Ubxcfgmsgrate.obj (.text:_ZNVK7Devices3Ubx13Ubxcfgmsgrate14is_msg_enabledEv)
                  000b1d48    00000011     rts2800_fpu64_eabi.lib : s_copysignf.c.obj (.text)
                  000b1d59    00000010     crypto_c28.lib : sha256.obj (.text:SHA256_cancelWordWise)
                  000b1d69    00000010     DSP2837x_ent.lib : Emif1.obj (.text:_ZN12Dsp28335_ent5Emif18set_mselEmm)
                  000b1d79    00000010                      : Pwmdev.obj (.text:_ZN12Dsp28335_ent6Pwmdev6configERKNS0_6ConfigE)
                  000b1d89    00000010     veronte.lib : Vfspermission.obj (.text:_ZN3Ver13Vfspermission19get_external_cmdidsEv)
                  000b1d99    00000010                 : Vfspermission.obj (.text:_ZN3Ver13Vfspermission20get_operation_cfgidsEv)
                  000b1da9    00000010     base.lib : Varsens1D_cfg.obj (.text:_ZN4Base12Tun_optionalINS_16Rvarsensor1D_cfgENS_9Tuntraits10TundefaultIS1_EEE8str2elemERNS_8OptionalIS1_EERNS_11Lossy_errorE)
                  000b1db9    00000010              : Varsens3D_Cfg.obj (.text:_ZN4Base12Tun_optionalINS_16Rvarsensor3D_cfgENS_9Tuntraits10TundefaultIS1_EEE8str2elemERNS_8OptionalIS1_EERNS_11Lossy_errorE)
                  000b1dc9    00000010              : CRC.obj (.text:_ZN4Base3CRC6reset0Ev)
                  000b1dd9    00000010     first.lib : Tmem.obj (.text:_ZN4Base4Tmem7set_selEPvim)
                  000b1de9    00000010               : Strutil.obj (.text:_ZN4Base7Strutil24nibble_to_upper_hex_charEhRh)
                  000b1df9    00000010     base.lib : Routing_table_entry.obj (.text:_ZN4Base8BitarrayILj16EE7set_allIvEENS_9Enable_ifILb1ET_E4typeERKy)
                  000b1e09    00000010     first.lib : Bitutils.obj (.text:_ZN4Base8Bitutils8reflect8Ej)
                  000b1e19    00000010     veronte.lib : Vpuposrd_ver_pa.obj (.text:_ZN4Base8Vpuposrd11get_rel_posERKNS_9Apos_dataERN8Maverick8Rvector3E)
                  000b1e29    00000010     base.lib : Field_BCD.obj (.text:_ZN4Base9Field_BCD4csetERNS_11Lossy_errorE)
                  000b1e39    00000010     stanag.lib : U8istream_pvec.obj (.text:_ZN6Stanag14U8istream_pvec13get_uint16_beEj)
                  000b1e49    00000010     devices.lib : Ubxcfgitfm.obj (.text:_ZN7Devices3Ubx10Ubxcfgitfm4csetERN4Base11Lossy_errorE)
                  000b1e59    00000010     maverick.lib : IIR_2cfg.obj (.text:_ZN8Maverick8IIR_2cfg4csetERN4Base5LossyE)
                  000b1e69    00000010     pa_blocks.lib : Velocity_3d.obj (.text:_ZN9Pa_blocks11Velocity_3d29velocity_3d_from_velocity_nedERKN8Maverick9Irvector3E)
                  000b1e79    00000010                   : Mission_step.obj (.text:_ZN9Pa_blocks12Mission_stepC1Ev)
                  000b1e89    00000010                   : Persistent_pdi.obj (.text:_ZN9Pa_blocks14Persistent_pdi4csetERN4Base11Lossy_errorE)
                  000b1e99    00000010                   : Gnc_model_dynamic.obj (.text:_ZN9Pa_blocks17Gnc_model_dynamic5StateC1ERN8Maverick7RvectorES4_S4_RfRbS4_)
                  000b1ea9    00000010                   : Vsdk_navigation_params.obj (.text:_ZN9Pa_blocks22Vsdk_navigation_params11Wind_params4csetERN4Base11Lossy_errorE)
                  000b1eb9    00000010                   : Vsdk_navigation_params.obj (.text:_ZN9Pa_blocks22Vsdk_navigation_params11Wind_source4csetERN4Base11Lossy_errorE)
                  000b1ec9    00000010                   : Vsdk_navigation_params.obj (.text:_ZN9Pa_blocks22Vsdk_navigation_params7Heading4csetERN4Base11Lossy_errorE)
                  000b1ed9    00000010                   : Recovery_route_constructor.obj (.text:_ZN9Pa_blocks26Recovery_route_constructorC1ERKNS0_5ParamERNS0_5StateERNS_11Text_loggerE)
                  000b1ee9    00000010                   : Recovery_wrapper_control_system_object.obj (.text:_ZN9Pa_blocks38Recovery_wrapper_control_system_object47is_recovery_state_estimate_healthy_and_ongroundEv)
                  000b1ef9    00000010                   : Cqp.obj (.text:_ZN9Pa_blocks3Cqp14publish_timingEv)
                  000b1f09    00000010                   : Ttcg.obj (.text:_ZN9Pa_blocks4Ttcg10Vsdk_param4csetERN4Base11Lossy_errorE)
                  000b1f19    00000010                   : Ttcg.obj (.text:_ZN9Pa_blocks4Ttcg24set_current_route_statusENS_9Route_msg6StatusE)
                  000b1f29    00000010                   : Waca.obj (.text:_ZN9Pa_blocks4Waca5ParamC1Ev)
                  000b1f39    00000010     media.lib : Fstrfast.obj (.text:_ZNK4Base11TnarrayreszINS_5FieldELm128EE9to_mblockEv)
                  000b1f49    00000010     pa_blocks.lib : Turn_maneuver.obj (.text:_ZNK9Pa_blocks13Turn_maneuver12displacementEv)
                  000b1f59    00000010                   : Recovery_mission_phase_of_flight.obj (.text:_ZNK9Pa_blocks32Recovery_mission_phase_of_flight11reset_stateEv)
                  000b1f69    00000010     veronte.lib : Vfspermission.obj (.text:_ZThn2_NK3Ver13Vfspermission3hasEj)
                  000b1f79    00000010     midlevel.lib : Sys_status_mgr.obj (.text:_ZThn8_N8Midlevel14Sys_status_mgr4csetERN4Base11Lossy_errorE)
                  000b1f89    0000000f     geomodel.lib : Tecef.obj (.text:_ZN3Geo5Tecef9set_wgs84ERKN4Base9Apos_dataE)
                  000b1f98    0000000f     vpgnc.lib : Vpu.obj (.text:_ZN3Geo8Fidcache4NodeC1Ev)
                  000b1fa7    0000000f               : Vpu.obj (.text:_ZN4Base10LinkedlistIRKNS_6IcheckEE8add_elemEPNS4_7ElementE)
                  000b1fb6    0000000f     base.lib : Ftelemetryod.obj (.text:_ZN4Base12Ftelemetryod5Fsvod4initEv)
                  000b1fc5    0000000f              : Async_transfer_data.obj (.text:_ZN4Base19Async_transfer_data4initEm)
                  000b1fd4    0000000f     pa_blocks.lib : Mixer_allocator.obj (.text:_ZN4Base5ArrayIeE4copyIfEEvRKNS0_IT_EE)
                  000b1fe3    0000000f     first.lib : Error.obj (.text:_ZN4Base5ErrorC1Ev)
                  000b1ff2    0000000f               : Lossy.obj (.text:_ZN4Base5Lossy10get_uint16ERj)
                  000b2001    0000000f               : Lossy.obj (.text:_ZN4Base5Lossy10get_uint32ERm)
                  000b2010    0000000f               : Lossy.obj (.text:_ZN4Base5Lossy10get_uint64ERy)
                  000b201f    0000000f               : Lossy.obj (.text:_ZN4Base5Lossy9get_int32ERl)
                  000b202e    0000000f               : Lossy.obj (.text:_ZN4Base5Lossy9get_int64ERx)
                  000b203d    0000000f     vpgnc.lib : Opranges.obj (.text:_ZN4Base8TwrapdesINS_9Tuntraits10DesdefaultINS_8ArraymskIN5Vpgnc8Opranges3RngELj40EEEEERS7_E4csetERNS_11Lossy_errorE)
                  000b204c    0000000f     first.lib : Allocator.obj (.text:_ZN4Base9Allocator16Allocator_bufferC1EPjm)
                  000b205b    0000000f     midlevel.lib : Irxfw.obj (.text:_ZN4Base9Fifospsc0INS_8Msg_dataENS_10SPSCtraits8InternalES3_EC1EPS1_S5_PKS1_S5_)
                  000b206a    0000000f     base.lib : Herrors.obj (.text:_ZN4Base9Fifospsc0IVjNS_10SPSCtraits8ExternalENS2_12Internal_refEEC1EPS1_S6_RVKPVKjRVS6_)
                  000b2079    0000000f     first.lib : Rfun.obj (.text:_ZN4Rfun7pow_u32Emh)
                  000b2088    0000000f     media.lib : Cfgmgr.obj (.text:_ZN5Media6Cfgmgr13load_blockingEN4Base3Cfg2IdE)
                  000b2097    0000000f               : Cfgmgr.obj (.text:_ZN5Media6Cfgmgr16send_set_result0Ev)
                  000b20a6    0000000f               : Cfgmgr.obj (.text:_ZN5Media6Cfgmgr17send_load_result0Ev)
                  000b20b5    0000000f               : Cfgmgr.obj (.text:_ZN5Media6Cfgmgr17send_save_result0Ev)
                  000b20c4    0000000f               : Cfgmgr.obj (.text:_ZN5Media6Cfgmgr9get_reqidERN4Base5LossyE)
                  000b20d3    0000000f     vpgnc.lib : Rvar_op_commit.obj (.text:_ZN5Vpgnc14Rvar_op_commit7Roptype4csetERN4Base11Lossy_errorE)
                  000b20e2    0000000f               : Vpu.obj (.text:_ZN5Vpgnc30_GLOBAL__N__7_Vpu_cpp_939b1fa511sync_xctun0ERN4Base5DsyncE)
                  000b20f1    0000000f     pa_blocks.lib : Mission_step.obj (.text:_ZN9Pa_blocks12Mission_step6decodeERNS_16Protobuf_decoderE)
                  000b2100    0000000f                   : Pa_geometric.obj (.text:_ZN9Pa_blocks12Pa_geometric8wrap22piERKf)
                  000b210f    0000000f                   : Tp_utilities.obj (.text:_ZN9Pa_blocks12Tp_utilities35set_standard_day_environment_valuesERNS_18Environment_valuesE)
                  000b211e    0000000f                   : Model_dynamic.obj (.text:_ZN9Pa_blocks13Model_dynamic34form_state_reset_solution_matricesERKN8Maverick7RmatrixES4_RKNS1_7RvectorE)
                  000b212d    0000000f                   : Motor_performance.obj (.text:_ZN9Pa_blocks17Esc_health_alertsC1Ev)
                  000b213c    0000000f                   : Commands_processor.obj (.text:_ZN9Pa_blocks18Commands_processor25Route_command_and_controlC1Ev)
                  000b214b    0000000f                   : Route_msg.obj (.text:_ZN9Pa_blocks18Shallow_copy_arrayINS_12Maneuver_msgEEC1EN4Base6MblockIS1_EE)
                  000b215a    0000000f                   : Command_route_entries.obj (.text:_ZN9Pa_blocks18Shallow_copy_arrayINS_19Command_route_entryEEC1EN4Base6MblockIS1_EE)
                  000b2169    0000000f                   : Route_msg.obj (.text:_ZN9Pa_blocks18Shallow_copy_arrayIfEC1EN4Base6MblockIfEE)
                  000b2178    0000000f                   : Controllers_param.obj (.text:_ZN9Pa_blocks24State_space_model_paramsC2ILm144ELm4EEEjjjjRKjS3_RKN4Base7XrtableIXT_EXT0_EEE)
                  000b2187    0000000f                   : Controllers_param.obj (.text:_ZN9Pa_blocks24State_space_model_paramsC2ILm16ELm4EEEjjjjRKjS3_RKN4Base7XrtableIXT_EXT0_EEE)
                  000b2196    0000000f                   : Controllers_param.obj (.text:_ZN9Pa_blocks24State_space_model_paramsC2ILm18ELm4EEEjjjjRKjS3_RKN4Base7XrtableIXT_EXT0_EEE)
                  000b21a5    0000000f                   : Controllers_param.obj (.text:_ZN9Pa_blocks24State_space_model_paramsC2ILm32ELm4EEEjjjjRKjS3_RKN4Base7XrtableIXT_EXT0_EEE)
                  000b21b4    0000000f                   : Controllers_param.obj (.text:_ZN9Pa_blocks24State_space_model_paramsC2ILm36ELm1EEEjjjjRKjS3_RKN4Base7XrtableIXT_EXT0_EEE)
                  000b21c3    0000000f                   : Controllers_param.obj (.text:_ZN9Pa_blocks24State_space_model_paramsC2ILm4ELm1EEEjjjjRKjS3_RKN4Base7XrtableIXT_EXT0_EEE)
                  000b21d2    0000000f                   : Controllers_param.obj (.text:_ZN9Pa_blocks24State_space_model_paramsC2ILm4ELm4EEEjjjjRKjS3_RKN4Base7XrtableIXT_EXT0_EEE)
                  000b21e1    0000000f                   : Controllers_param.obj (.text:_ZN9Pa_blocks24State_space_model_paramsC2ILm54ELm4EEEjjjjRKjS3_RKN4Base7XrtableIXT_EXT0_EEE)
                  000b21f0    0000000f                   : Controllers_param.obj (.text:_ZN9Pa_blocks24State_space_model_paramsC2ILm8ELm4EEEjjjjRKjS3_RKN4Base7XrtableIXT_EXT0_EEE)
                  000b21ff    0000000f                   : Recovery_route_constructor.obj (.text:_ZN9Pa_blocks26Recovery_route_constructor5ParamC1Ev)
                  000b220e    0000000f                   : Cm.obj (.text:_ZN9Pa_blocks2Cm5ParamC1Ev)
                  000b221d    0000000f     veronte.lib : Hvar.obj (.text:_ZNK3Bsp5Hbvar3getEv)
                  000b222c    0000000f                 : Hvar.obj (.text:_ZNK3Bsp5Hrvar8get_krefEv)
                  000b223b    0000000f                 : Hvar.obj (.text:_ZNK3Bsp5Huvar3getEv)
                  000b224a    0000000f                 : Vfspermission.obj (.text:_ZNK3Ver13Vfspermission3hasEj)
                  000b2259    0000000f     base.lib : Field_BCD.obj (.text:_ZNK4Base9Field_BCD4cgetERNS_5LossyE)
                  000b2268    0000000f     pa_blocks.lib : DComms_cfg.obj (.text:_ZNK9Pa_blocks10DComms_cfg7Reg_cfg4cgetERN4Base5LossyE)
                  000b2277    0000000f                   : Waypoint_msg.obj (.text:_ZNK9Pa_blocks12Waypoint_msg15get_groundspeedEv)
                  000b2286    0000000f                   : Persistent_pdi.obj (.text:_ZNK9Pa_blocks14Persistent_pdi4cgetERN4Base5LossyE)
                  000b2295    0000000f                   : State_machines.obj (.text:_ZNK9Pa_blocks14State_machines22eval_mode_track_splineEv)
                  000b22a4    0000000f                   : State_machines.obj (.text:_ZNK9Pa_blocks14State_machines30eval_integrators_mode_force_onEv)
                  000b22b3    0000000f                   : Pa_profiling.obj (.text:__sti___16_Pa_profiling_cpp_f711d801)
                  000b22c2    0000000f     main_cpu2.obj (.text:_system_pre_init)
                  000b22d1    0000000e     DSP2838x_ent.lib : Ipc_2838x.obj (.text:_ZN12Dsp28335_ent3Ipc14is_cpu2_lockedEv)
                  000b22df    0000000e     veronte.lib : Hvar.obj (.text:_ZN3Bsp5HbvarC1EN4Base4BvarE)
                  000b22ed    0000000e                 : Hvar.obj (.text:_ZN3Bsp5HrvarC1EN4Base4RvarE)
                  000b22fb    0000000e                 : Hvar.obj (.text:_ZN3Bsp5HuvarC1EN4Base4UvarE)
                  000b2309    0000000e     base.lib : CANid_filter.obj (.text:_ZN4Base12CANid_filter4csetERNS_11Lossy_errorE)
                  000b2317    0000000e              : Varsens1D_cfg.obj (.text:_ZN4Base13Varsens1D_cfg4csetERNS_11Lossy_errorE)
                  000b2325    0000000e              : Varsens3D_Cfg.obj (.text:_ZN4Base13Varsens3D_cfg4csetERNS_11Lossy_errorE)
                  000b2333    0000000e              : Sync.obj (.text:_ZN4Base4Sync13set_modified0Em)
                  000b2341    0000000e              : Tllh.obj (.text:_ZN4Base4Tllh5buildERKeS2_S2_)
                  000b234f    0000000e     first.lib : Tmem.obj (.text:_ZN4Base4Tmem7cpy_selEPvPKvm)
                  000b235d    0000000e     vpgnc.lib : Opranges.obj (.text:_ZN4Base5ArrayIN5Vpgnc8Opranges3RngEEC2IS3_EENS_6MblockIT_EE)
                  000b236b    0000000e     base.lib : Fsniffer.obj (.text:_ZN4Base5ArrayINS_10Vmap_entryEEC2IS1_EENS_6MblockIT_EE)
                  000b2379    0000000e     veronte.lib : Tunsuite_pa.obj (.text:_ZN4Base5ArrayINS_13Channelmgrcfg6ChncfgEEC2IS2_EENS_6MblockIT_EE)
                  000b2387    0000000e                 : Tunsuite_pa.obj (.text:_ZN4Base5ArrayINS_13Channelmgrcfg6ChnselEEC2IS2_EENS_6MblockIT_EE)
                  000b2395    0000000e                 : Hevact_cpu2.obj (.text:_ZN4Base5ArrayINS_6ActionEEC2IS1_EENS_6MblockIT_EE)
                  000b23a3    0000000e     base.lib : Sticktypes.obj (.text:_ZN4Base5ArrayINS_8StickoutEEC2IS1_EENS_6MblockIT_EE)
                  000b23b1    0000000e     vpgnc.lib : Rvar_op_commit.obj (.text:_ZN4Base5ArrayINS_8TwraptunINS_9Tuntraits11Lossy_floatEfEEEC2IS4_EENS_6MblockIT_EE)
                  000b23bf    0000000e     veronte.lib : Hevact_cpu2.obj (.text:_ZN4Base5ArrayINS_9Evactcfg0EEC2IS1_EENS_6MblockIT_EE)
                  000b23cd    0000000e                 : Tunsuite_pa.obj (.text:_ZN4Base5ArrayIfEC2IfEENS_6MblockIT_EE)
                  000b23db    0000000e     first.lib : Lossy.obj (.text:_ZN4Base5Lossy9get_floatEv)
                  000b23e9    0000000e               : Lossy.obj (.text:_ZN4Base5Lossy9get_ubitsERmj)
                  000b23f7    0000000e               : Lossy.obj (.text:_ZN4Base5Lossy9get_ubitsERyj)
                  000b2405    0000000e     base.lib : Varmgr.obj (.text:_ZN4Base6Varmgr3setENS_4BvarEb)
                  000b2413    0000000e              : Varmgr.obj (.text:_ZN4Base6Varmgr3setENS_4UvarEj)
                  000b2421    0000000e              : Xcfile.obj (.text:_ZN4Base6Xcfile7set_crcEm)
                  000b242f    0000000e              : CANin_p.obj (.text:_ZN4Base7CANin_p9In_filter4csetERNS_11Lossy_errorE)
                  000b243d    0000000e     veronte.lib : Copystep.obj (.text:_ZN4Base7TnarrayIN3Bsp5Hbvar5RangeELm16EED1Ev)
                  000b244b    0000000e                 : Copystep.obj (.text:_ZN4Base7TnarrayIN3Bsp5Hrvar5RangeELm13EED1Ev)
                  000b2459    0000000e                 : Tunsuite_pa.obj (.text:_ZN4Base8TwrapdesINS_9Tuntraits10DesdefaultINS_11TnarrayreszIN6Stanag11Stanag_port8Port_cfgELm6EEEEERS7_E4csetERNS_11Lossy_errorE)
                  000b2467    0000000e                 : Tunsuite_pa.obj (.text:_ZN4Base8TwrapdesINS_9Tuntraits15Arraytun_size16INS1_7Lossy16IjEENS_11TnarrayreszIjLm32EEENS_13Order_checker9AscendingIS6_EEEERS6_E4csetERNS_11Lossy_errorE)
                  000b2475    0000000e     base.lib : SerialCAN.obj (.text:_ZN4Base9SerialCAN6Config4csetERNS_11Lossy_errorE)
                  000b2483    0000000e              : SerialCAN.obj (.text:_ZN4Base9SerialCAN6Config5buildEmbf)
                  000b2491    0000000e     media.lib : Fstrfast.obj (.text:_ZN5Media8Fstrfast4csetERN4Base11Lossy_errorE)
                  000b249f    0000000e     vpgnc.lib : Vpu.obj (.text:_ZN5Vpgnc3Vpu7step_gcEv)
                  000b24ad    0000000e     maverick.lib : Notch_lpf_cfg.obj (.text:_ZN8Maverick13Notch_lpf_cfg4csetERN4Base11Lossy_errorE)
                  000b24bb    0000000e                  : Rquat.obj (.text:_ZN8Maverick5RquatC1Effff)
                  000b24c9    0000000e     pa_blocks.lib : Vector_saturation.obj (.text:_ZN8Maverick6TarrayIfE6lincmbEfRKN4Base5ArrayIfEE)
                  000b24d7    0000000e                   : Dyn_pa_interpolator_cat_2.obj (.text:_ZN8Maverick6TarrayIfE7signinvEv)
                  000b24e5    0000000e     midlevel.lib : Sys_status_mgr.obj (.text:_ZN8Midlevel14Sys_status_mgr4csetERN4Base11Lossy_errorE)
                  000b24f3    0000000e     pa_blocks.lib : Model_dynamic.obj (.text:_ZN9Pa_blocks13Model_dynamic11reset_stateEb)
                  000b2501    0000000e                   : Motor_rpm_cmd.obj (.text:_ZN9Pa_blocks13Motor_rpm_cmd16get_cyphal_flagsEv)
                  000b250f    0000000e                   : Tp_vsdk_param.obj (.text:_ZN9Pa_blocks13Tp_vsdk_paramC1Ev)
                  000b251d    0000000e                   : Commands_processor.obj (.text:_ZN9Pa_blocks18Commands_processor25Route_command_and_control5resetEv)
                  000b252b    0000000e                   : Command_route_entries.obj (.text:_ZN9Pa_blocks18Shallow_copy_arrayINS_19Command_route_entryEEC2EN4Base6MblockIS1_EE)
                  000b2539    0000000e                   : Waypoint_coordinate.obj (.text:_ZN9Pa_blocks19Waypoint_coordinate5resetEv)
                  000b2547    0000000e                   : Recovery_motor_rpm_cmd.obj (.text:_ZN9Pa_blocks22Recovery_motor_rpm_cmd16get_cyphal_flagsEv)
                  000b2555    0000000e                   : In_flight_speed_change_command_params.obj (.text:_ZN9Pa_blocks37In_flight_speed_change_command_paramsC1Ev)
                  000b2563    0000000e                   : Asc.obj (.text:_ZN9Pa_blocks3Asc9TelemetryC1Ev)
                  000b2571    0000000e                   : Tp_output.obj (.text:_ZN9Pa_blocks9Tp_outputC1Ev)
                  000b257f    0000000e     veronte.lib : Hvar_cpu2.obj (.text:_ZNK3Bsp5Hbvar7get_refEv)
                  000b258d    0000000e                 : Hvar.obj (.text:_ZNK3Bsp5Hbvar8get_krefEv)
                  000b259b    0000000e                 : Hvar.obj (.text:_ZNK3Bsp5Huvar8get_krefEv)
                  000b25a9    0000000e     base.lib : Varmgr.obj (.text:_ZNK4Base6Varmgr3getEv)
                  000b25b7    0000000e     pa_blocks.lib : Cm.obj (.text:_ZNK9Pa_blocks2Cm22is_specification_validEv)
                  000b25c5    0000000e                   : Asc.obj (.text:_ZNK9Pa_blocks3Asc9Telemetry4cgetERN4Base5LossyE)
                  000b25d3    0000000d     DSP2837x_ent.lib : Pwmdev.obj (.text:_ZN12Dsp28335_ent6Pwmdev9write_cmpEj)
                  000b25e0    0000000d     veronte.lib : Hsys.obj (.text:_ZN3Ver4Hsys11get_khwaddrEv)
                  000b25ed    0000000d     base.lib : Checklist.obj (.text:_ZN4Base10LinkedlistIRKNS_6IcheckEE14Const_iterator4nextEv)
                  000b25fa    0000000d     veronte.lib : Tunsuite_pa.obj (.text:_ZN4Base11CANin_suiteILj6EE4csetERNS_11Lossy_errorE)
                  000b2607    0000000d                 : Tunsuite_pa.obj (.text:_ZN4Base11CANsc_suiteILj6EE4csetERNS_11Lossy_errorE)
                  000b2614    0000000d                 : Tunsuite_pa.obj (.text:_ZN4Base12CANout_suiteILj6EE4csetERNS_11Lossy_errorE)
                  000b2621    0000000d                 : Tunsuite_pa.obj (.text:_ZN4Base18Routing_table_dataILj2ELj16EE5Table4csetERNS_11Lossy_errorE)
                  000b262e    0000000d     base.lib : Taskmgr.obj (.text:_ZN4Base7Taskmgr6cancelERKNS_5ItaskE)
                  000b263b    0000000d     veronte.lib : Copystep.obj (.text:_ZN4Base7TnarrayIN3Bsp5Huvar5RangeELm8EED1Ev)
                  000b2648    0000000d     base.lib : Xclkcfg.obj (.text:_ZN4Base7Xclkcfg4csetERNS_11Lossy_errorE)
                  000b2655    0000000d              : Apos_data.obj (.text:_ZN4Base9Apos_data7set_llhERKNS_14TllhcompressedE)
                  000b2662    0000000d              : Herrors.obj (.text:_ZN4Base9Fifospsc0IVKjNS_10SPSCtraits8InternalENS2_22Add_reference_to_traitINS2_8ExternalEE8TemplateEEC1EPS1_S9_S9_RVKS9_)
                  000b266f    0000000d     veronte.lib : Hxcff.obj (.text:_ZN4Base9Fifospsc0IVKjNS_10SPSCtraits8InternalENS2_8ExternalEEC1EPS1_S6_S6_RVKS6_)
                  000b267c    0000000d     vpgnc.lib : Event.obj (.text:_ZN5Vpgnc5Event5InputC1ERKNS_7VlimitsERKN4Base7UclkmgrERNS_6ImarksERNS_13Evt_wp_groupsERNS5_20Message_received_hndE)
                  000b2689    0000000d     stanag.lib : IStanag_msg_push.obj (.text:_ZN6Stanag14IStanag_msg_rx9Rx_paramsC1ERN4Base9U8istreamERKNS2_8Spkt_hdrERNS2_10StimestampERKNS2_15Auth_connectionERNS2_11Imsg_senderE)
                  000b2696    0000000d     maverick.lib : Irquat.obj (.text:_ZN8Maverick6Irquat7rectifyEv)
                  000b26a3    0000000d     pa_blocks.lib : Velocity_3d.obj (.text:_ZN9Pa_blocks11Velocity_3d5zerosEv)
                  000b26b0    0000000d                   : Gnc_model_set.obj (.text:_ZN9Pa_blocks13Gnc_model_set9TelemetryC1Ev)
                  000b26bd    0000000d                   : Roll_maneuver.obj (.text:_ZN9Pa_blocks13Roll_maneuver26is_straight_flight_segmentEf)
                  000b26ca    0000000d                   : Flight_dynamics.obj (.text:_ZN9Pa_blocks15Flight_dynamics35true_airspeed_from_dynamic_pressureEff)
                  000b26d7    0000000d                   : Mission_plan_msg.obj (.text:_ZN9Pa_blocks16Mission_plan_msg7Mission5resetEv)
                  000b26e4    0000000d                   : Environment_values.obj (.text:_ZN9Pa_blocks18Environment_values5resetEv)
                  000b26f1    0000000d                   : Environment_values.obj (.text:_ZN9Pa_blocks18Environment_valuesC1Ev)
                  000b26fe    0000000d                   : Command_route_entry.obj (.text:_ZN9Pa_blocks19Command_route_entry5resetEv)
                  000b270b    0000000d                   : Vsdk_params.obj (.text:_ZN9Pa_blocks19Vsdk_vehicle_params4csetERN4Base11Lossy_errorE)
                  000b2718    0000000d                   : Command_route_entries.obj (.text:_ZN9Pa_blocks21Command_route_entriesC1Ev)
                  000b2725    0000000d                   : Mission_reset_command.obj (.text:_ZN9Pa_blocks21Mission_reset_command4csetERN4Base5LossyE)
                  000b2732    0000000d                   : Alternate_plans_buffer.obj (.text:_ZN9Pa_blocks22Alternate_plans_buffer5clearEv)
                  000b273f    0000000d                   : Recovery_mission_phase_of_flight.obj (.text:_ZN9Pa_blocks32Recovery_mission_phase_of_flight5StateC1Ev)
                  000b274c    0000000d     first.lib : Lossy.obj (.text:_ZNK4Base5Lossy17is_default_endianEv)
                  000b2759    0000000d     pa_blocks.lib : Recovery_mission_data_processor.obj (.text:_ZNK9Pa_blocks31Recovery_mission_data_processor22is_specification_validEv)
                  000b2766    0000000d                   : Aacg.obj (.text:_ZNK9Pa_blocks4Aacg18use_fixed_attitudeERKNS_18Modes_and_commands37Horizontal_translational_control_mode4TypeE)
                  000b2773    0000000d     base.lib : Herrors.obj (.text:__sti___11_Herrors_cpp_b86a41c4)
                  000b2780    0000000c     DSP2838x_ent.lib : Ipc_2838x.obj (.text:_ZN12Dsp28335_ent3Ipc16is_reset_requestEv)
                  000b278c    0000000c     DSP2837x_ent.lib : Pwmdev.obj (.text:_ZN12Dsp28335_ent6Pwmdev6ConfigC1Ev)
                  000b2798    0000000c     base.lib : Int_decimator.obj (.text:_ZN4Base13Int_decimatorC1Effb)
                  000b27a4    0000000c     first.lib : Mutex.obj (.text:_ZN4Base5Mutex22enter_critical_sectionEv)
                  000b27b0    0000000c     base.lib : Xcfile.obj (.text:_ZN4Base6Xcfile11exist_asyncENS_5Ifile3UidERb)
                  000b27bc    0000000c              : Xcfile.obj (.text:_ZN4Base6Xcfile12remove_asyncENS_5Ifile3UidE)
                  000b27c8    0000000c     first.lib : Bitutils.obj (.text:_ZN4Base8Bitutils9reflect16Ej)
                  000b27d4    0000000c               : Bitutils.obj (.text:_ZN4Base8Bitutils9reflect32Em)
                  000b27e0    0000000c     base.lib : Spkt_hdr.obj (.text:_ZN4Base8Spkt_hdr9Msg_propsC1Ev)
                  000b27ec    0000000c     vpgnc.lib : Oprvar.obj (.text:_ZN5Vpgnc13is_rvar_rangeERKN4Base4VrefENS0_4RvarES4_)
                  000b27f8    0000000c               : Evtmgr.obj (.text:_ZN5Vpgnc6Evtmgr7UevtcmdC1Ev)
                  000b2804    0000000c     devices.lib : Ubxcfgmsgrate.obj (.text:_ZN7Devices3Ubx13Ubxcfgmsgrate4initENS0_5MsgidE)
                  000b2810    0000000c     pa_blocks.lib : Velocity_3d.obj (.text:_ZN9Pa_blocks11Velocity_3d29velocity_3d_from_velocity_nedERKN4Base7TnarrayIfLm3EEE)
                  000b281c    0000000c                   : Pa_turn_direction.obj (.text:_ZN9Pa_blocks14Turn_direction10turn_senseENS0_9DirectionE)
                  000b2828    0000000c                   : Control_builder.obj (.text:_ZN9Pa_blocks15Control_builder4stepERNS_38Recovery_wrapper_control_system_object5InputERNS1_6OutputE)
                  000b2834    0000000c                   : Protobuf_decoder.obj (.text:_ZN9Pa_blocks16Protobuf_decoderC1ERKN4Base6MblockIjEEm)
                  000b2840    0000000c                   : Recovery_route_constructor.obj (.text:_ZN9Pa_blocks18Shallow_copy_arrayINS_19Command_route_entryEE5zerosEv)
                  000b284c    0000000c                   : Land_command_params.obj (.text:_ZN9Pa_blocks19Land_command_paramsC1Ev)
                  000b2858    0000000c                   : Gnc_vector_saturation.obj (.text:_ZN9Pa_blocks21Gnc_vector_saturation8saturateERKN8Maverick9Irvector3ERKNS1_6IrquatEfRNS0_6OutputE)
                  000b2864    0000000c                   : Recovery_mission_data_processor.obj (.text:_ZN9Pa_blocks31Recovery_mission_data_processor5InputC1ERKNS_17Mission_plan_dataE)
                  000b2870    0000000c                   : Recovery_wrapper_control_system_object.obj (.text:_ZN9Pa_blocks38Recovery_wrapper_control_system_object17is_switchover_setEb)
                  000b287c    0000000c                   : Ttcg.obj (.text:_ZN9Pa_blocks4Ttcg39initialize_output_and_log_data_messagesERNS0_6OutputE)
                  000b2888    0000000c                   : Real16_amz.obj (.text:_ZNK9Pa_blocks10Real16_amz25convert_to_half_precisionEv)
                  000b2894    0000000c                   : Mission_plan.obj (.text:_ZNK9Pa_blocks12Mission_plan12initial_planEv)
                  000b28a0    0000000c                   : Mission_plan.obj (.text:_ZNK9Pa_blocks12Mission_plan19has_delivery_actionEv)
                  000b28ac    0000000c     vpgnc.lib : Event.obj (.text:_ZNV4Base9Eventout03setEb)
                  000b28b8    0000000c     rts2800_fpu64_eabi.lib : args_main.c.obj (.text)
                  000b28c4    0000000b     DSP2837x_ent.lib : Emif1.obj (.text:_ZN12Dsp28335_ent5Emif1C1Ev)
                  000b28cf    0000000b                      : Piectrl.obj (.text:_ZN12Dsp28335_ent7Piectrl10enable_pieEv)
                  000b28da    0000000b     veronte.lib : Xfreqmgr0.obj (.text:_ZN3Ver9Xfreqmgr08sanitizeEv)
                  000b28e5    0000000b     base.lib : Xclk.obj (.text:_ZN4Base4Xclk6cancelEv)
                  000b28f0    0000000b     first.lib : Lossy.obj (.text:_ZN4Base5Lossy10get_uint32Ev)
                  000b28fb    0000000b               : Memmgr_c2000.obj (.text:_ZN4Base6Memmgr16close_allocationEv)
                  000b2906    0000000b               : Bitutils.obj (.text:_ZN4Base8Bitutils8reflectnEmj)
                  000b2911    0000000b               : Memcpy32.obj (.text:_ZN4Base8Memcpy324copyEPvPKvj)
                  000b291c    0000000b               : PDIcheck.obj (.text:_ZN4Base8PDIcheck7OpflushC1Ev)
                  000b2927    0000000b     vpgnc.lib : Opranges.obj (.text:_ZN5Vpgnc8Opranges3RngC1Ev)
                  000b2932    0000000b     vblocks.lib : Multi_interpolator_tun.obj (.text:_ZN7Vblocks22Multi_interpolator_tun8Pdi_dataC1Ev)
                  000b293d    0000000b     pa_blocks.lib : Dyn_pa_interpolator_cat_2.obj (.text:_ZN8Maverick7RvectorC1IN4Base5ArrayIfEEEERT_)
                  000b2948    0000000b     maverick.lib : Rvector3.obj (.text:_ZN8Maverick8Rvector3C1Efff)
                  000b2953    0000000b     midlevel.lib : CAN_term_cfg.obj (.text:_ZN8Midlevel12CAN_term_cfgC1EN12Dsp28335_ent6GPIOidES2_S2_)
                  000b295e    0000000b     pa_blocks.lib : Recovery_wrapper_control_system_object.obj (.text:_ZN9Pa_blocks12Command_fifoINS_9Mixer_logELj1EE4ElemC1Ev)
                  000b2969    0000000b                   : Pa_profiling.obj (.text:_ZN9Pa_blocks12Pa_profiling3ticEv)
                  000b2974    0000000b                   : State_machines.obj (.text:_ZN9Pa_blocks14State_machines33eval_track_spline_vtol_conditionsEv)
                  000b297f    0000000b                   : Tracking_method.obj (.text:_ZN9Pa_blocks15Tracking_method24get_ttcg_tracking_methodENS_15Phase_of_flightE)
                  000b298a    0000000b                   : Mission_utilities.obj (.text:_ZN9Pa_blocks17Mission_utilities35is_markerless_delivery_action_validERKNS_26Markerless_delivery_actionE)
                  000b2995    0000000b                   : Mission_utilities.obj (.text:_ZN9Pa_blocks17Mission_utilities36alternate_plan_id_from_rhcp_route_idEm)
                  000b29a0    0000000b                   : Commands_processor.obj (.text:_ZN9Pa_blocks18Commands_processor41check_and_update_last_command_sequence_idEm)
                  000b29ab    0000000b                   : Power_on_builtin_test.obj (.text:_ZN9Pa_blocks21Power_on_builtin_testC1EbRNS0_5StateE)
                  000b29b6    0000000b                   : Cm.obj (.text:_ZN9Pa_blocks2Cm7LogDataC1Ev)
                  000b29c1    0000000b                   : Mission_takeoff_landing_information.obj (.text:_ZN9Pa_blocks35Mission_takeoff_landing_information5resetEv)
                  000b29cc    0000000b                   : Tsc.obj (.text:_ZN9Pa_blocks3Tsc16Vsdk_parameters_C1Ev)
                  000b29d7    0000000b                   : Motor_performance.obj (.text:_ZN9Pa_blocks9Esc_stateC1Ev)
                  000b29e2    0000000b     base.lib : Field_real_dec_ASCII.obj (.text:_ZNK4Base20Field_real_dec_ASCII8get_sizeEv)
                  000b29ed    0000000b              : Xclk.obj (.text:_ZNK4Base4Xclk7ongoingEv)
                  000b29f8    0000000b     pa_blocks.lib : State_machines.obj (.text:_ZNK9Pa_blocks14State_machines26eval_mode_takeoff_completeEv)
                  000b2a03    0000000b                   : State_machines.obj (.text:_ZNK9Pa_blocks14State_machines31eval_mode_takeoff_position_holdEv)
                  000b2a0e    0000000b                   : Trajectory_planner.obj (.text:_ZNK9Pa_blocks18Trajectory_planner24process_clear_route_dataERNS_9Tp_outputERNS_11Tp_log_dataE)
                  000b2a19    0000000b     vpgnc.lib : Rvar_op_commit.obj (.text:_ZThn2_NK4Base8TwraptunINS_9Tuntraits11Lossy_floatEfE4cgetERNS_5LossyE)
                  000b2a24    0000000b     rts2800_fpu64_eabi.lib : guard.c.obj (.text)
                  000b2a2f    0000000a     DSP2837x_ent.lib : System_cpu2.obj (.text:_ZN12Dsp28335_ent18post_init_sys_cpu2Ev)
                  000b2a39    0000000a     DSP2838x_ent.lib : Ipc_2838x.obj (.text:_ZN12Dsp28335_ent3Ipc11cpu1_unlockEv)
                  000b2a43    0000000a     base.lib : Stimestamp.obj (.text:_ZN4Base10Stimestamp4csetERNS_9U8istreamE)
                  000b2a4d    0000000a     first.lib : Lossy.obj (.text:_ZN4Base5Lossy10get_uint16Ev)
                  000b2a57    0000000a               : Lossy.obj (.text:_ZN4Base5Lossy9get_uint8Ev)
                  000b2a61    0000000a               : Mutex.obj (.text:_ZN4Base5Mutex21exit_critical_sectionEv)
                  000b2a6b    0000000a               : Mutex.obj (.text:_ZN4Base5MutexC1Eb)
                  000b2a75    0000000a               : Mutex.obj (.text:_ZN4Base5MutexD1Ev)
                  000b2a7f    0000000a     pa_blocks.lib : Roll_maneuver.obj (.text:_ZN4Rfun6interpIfEET_N4Base12JSF116_paramIS1_E4typeES5_S5_)
                  000b2a89    0000000a     media.lib : Cfgmgr.obj (.text:_ZN5Media6Cfgmgr11set_processEjN4Base5Ifile9Open_modeENS1_3Cfg10Config_argENS0_5StateE)
                  000b2a93    0000000a               : Cfgmgr.obj (.text:_ZN5Media6Cfgmgr4loadEN4Base6LoadstE)
                  000b2a9d    0000000a     vpgnc.lib : CAN_cfg_maint_astro.obj (.text:_ZN5Vpgnc47_GLOBAL__N__23_CAN_cfg_maint_astro_cpp_2770a0d012set_can_mbxsERVN12Dsp28335_ent6CANcfg5RxcfgERKN4Base12CANid_filterE)
                  000b2aa7    0000000a     base.lib : Cyphal.obj (.text:_ZN6Cyphal10Cyphal_msg7MutatorD1Ev)
                  000b2ab1    0000000a     stanag.lib : IStanag_msg_pull.obj (.text:_ZN6Stanag14IStanag_msg_tx9Tx_paramsC1ERN4Base9U8ostreamERNS2_15Auth_connectionERNS2_11Imsg_senderERKNS2_8Msg_dataE)
                  000b2abb    0000000a     pa_blocks.lib : Polynomial.obj (.text:_ZN9Pa_blocks10Polynomial10set_coeffsERKNS_17Polynomial_coeffsE)
                  000b2ac5    0000000a                   : Mission_plan.obj (.text:_ZN9Pa_blocks12Mission_plan7invalidEv)
                  000b2acf    0000000a                   : Hover_maneuver.obj (.text:_ZN9Pa_blocks14Hover_maneuver7invalidERNS_12Maneuver_msgE)
                  000b2ad9    0000000a                   : Control_builder.obj (.text:_ZN9Pa_blocks15Control_builder4csetERN4Base11Lossy_errorE)
                  000b2ae3    0000000a                   : Flight_dynamics.obj (.text:_ZN9Pa_blocks15Flight_dynamics41dynamic_pressure_from_equivalent_airspeedEf)
                  000b2aed    0000000a                   : Mission_reset_command.obj (.text:_ZN9Pa_blocks21Mission_reset_commandC1Ev)
                  000b2af7    0000000a                   : Cm.obj (.text:_ZN9Pa_blocks2Cm5State5resetEv)
                  000b2b01    0000000a                   : Drone_mission_phase_notification.obj (.text:_ZN9Pa_blocks32Drone_mission_phase_notificationC1Ev)
                  000b2b0b    0000000a                   : Asc.obj (.text:_ZN9Pa_blocks3Asc9Telemetry5resetEv)
                  000b2b15    0000000a                   : Waca.obj (.text:_ZN9Pa_blocks4Waca9TelemetryC1Ev)
                  000b2b1f    0000000a                   : Tp_output.obj (.text:_ZN9Pa_blocks9Tp_output5resetEv)
                  000b2b29    0000000a     DSP2837x_ent.lib : GPIO.obj (.text:_ZNK12Dsp28335_ent4GPIO3getEv)
                  000b2b33    0000000a     base.lib : Varmgr.obj (.text:_ZNK4Base6Varmgr3getENS_4BvarE)
                  000b2b3d    0000000a              : Varmgr.obj (.text:_ZNK4Base6Varmgr3getENS_4RvarE)
                  000b2b47    0000000a              : Varmgr.obj (.text:_ZNK4Base6Varmgr3getENS_4UvarE)
                  000b2b51    0000000a              : Varmgr.obj (.text:_ZNK4Base6Varmgr7get_u64Ej)
                  000b2b5b    0000000a     vpgnc.lib : Rvar_op_commit.obj (.text:_ZNK4Base8TwraptunINS_9Tuntraits11Lossy_floatEfE4cgetERNS_5LossyE)
                  000b2b65    0000000a     pa_blocks.lib : Takeoff_manager.obj (.text:_ZNK9Pa_blocks15Takeoff_manager22is_specification_validEv)
                  000b2b6f    0000000a                   : Trajectory_planner.obj (.text:_ZNK9Pa_blocks18Trajectory_planner22is_specification_validEv)
                  000b2b79    0000000a                   : Trajectory_planner.obj (.text:_ZNK9Pa_blocks18Trajectory_planner28compute_processed_route_dataERKNS_9Route_msgERNS_20Processed_route_dataE)
                  000b2b83    00000009     DSP2837x_ent.lib : Default_isr_cpu2.obj (.text:_ZN12Dsp28335_ent11Default_isr3isrEv)
                  000b2b8c    00000009     DSP2838x_ent.lib : Ipc_2838x.obj (.text:_ZN12Dsp28335_ent3Ipc20cpu2_wait_for_unlockEv)
                  000b2b95    00000009                      : Ipc_2838x.obj (.text:_ZN12Dsp28335_ent3Ipc27send_ack_reset_request_2to1Ev)
                  000b2b9e    00000009                      : Ipc_2838x.obj (.text:_ZN12Dsp28335_ent3Ipc28send_nack_reset_request_2to1Ev)
                  000b2ba7    00000009     DSP2837x_ent.lib : Delay.obj (.text:_ZN12Dsp28335_ent5Delay2msEj)
                  000b2bb0    00000009                      : Pwmdev.obj (.text:_ZN12Dsp28335_ent6Pwmdev11set_enabledEb)
                  000b2bb9    00000009     veronte.lib : Hxcfield_cpu2.obj (.text:_ZN3Ver8Hxcfield14get_ftmod_stepEv)
                  000b2bc2    00000009     base.lib : Stimestamp.obj (.text:_ZN4Base10Stimestamp4csetERNS_11U16stream_rE)
                  000b2bcb    00000009     vpgnc.lib : Vpu.obj (.text:_ZN4Base11Vpktsend_xc4sendERNS_5EspktE)
                  000b2bd4    00000009     base.lib : Auth_connection.obj (.text:_ZN4Base15Auth_connectionC1Ev)
                  000b2bdd    00000009              : Cfg_utils.obj (.text:_ZN4Base3Cfg24get_cget_response_headerENS0_2IdERNS_5LossyE)
                  000b2be6    00000009              : Sync.obj (.text:_ZN4Base4Sync9set_sync0Em)
                  000b2bef    00000009              : Xcrd.obj (.text:_ZN4Base4Xcrd6commitEv)
                  000b2bf8    00000009     pa_blocks.lib : Mixer_allocator.obj (.text:_ZN4Base5ArrayIeEC1EPem)
                  000b2c01    00000009     blocks.lib : Dynrvector.obj (.text:_ZN4Base5ArrayIfE4initEPfm)
                  000b2c0a    00000009     maverick.lib : Rvector.obj (.text:_ZN4Base5ArrayIfEC1EPfm)
                  000b2c13    00000009     first.lib : Memmgr_c2000.obj (.text:_ZN4Base6Memmgr21get_allocator_of_typeENS0_4TypeE)
                  000b2c1c    00000009     base.lib : Varmgr.obj (.text:_ZN4Base6Varmgr3setENS_8Bvar_mapERKNS_8Hbmapvar4TypeE)
                  000b2c25    00000009     pa_blocks.lib : Actuator_allocator_object.obj (.text:_ZN4Base7TnarrayIfLm6EE7set_allEf)
                  000b2c2e    00000009     base.lib : CANgpio_p.obj (.text:_ZN4Base7TnarrayIiLm16EE7set_allEi)
                  000b2c37    00000009     vpgnc.lib : Vpu.obj (.text:_ZN4Base7TnarrayIjLm1EE7set_allEj)
                  000b2c40    00000009     base.lib : Presence_vec.obj (.text:_ZN4Base7TnarrayIjLm3EE7set_allEj)
                  000b2c49    00000009     first.lib : Bitmblock.obj (.text:_ZN4Base9Bitmblock5zerosEv)
                  000b2c52    00000009               : Rfun.obj (.text:_ZN4Rfun4signEf)
                  000b2c5b    00000009     blocks.lib : Dynrvector.obj (.text:_ZN6Blocks10DynrvectorC1Ev)
                  000b2c64    00000009     Vmain_cpu2.obj (.text:_ZN7Project10Vmain_cpu27PreinitC1Ev)
                  000b2c6d    00000009     Vmain_cpu2.obj (.text:_ZN7Project10Vmain_cpu29Wait_addrC1Ev)
                  000b2c76    00000009     maverick.lib : Rvector.obj (.text:_ZN8Maverick7RvectorC1EjN4Base6Memmgr4TypeE)
                  000b2c7f    00000009     pa_blocks.lib : Cqp.obj (.text:_ZN8Maverick7TmatrixIeE7matTmatERKS1_S3_)
                  000b2c88    00000009     maverick.lib : Rvector2.obj (.text:_ZN8Maverick8Rvector2C1Eff)
                  000b2c91    00000009     pa_blocks.lib : Flight_dynamics.obj (.text:_ZN9Pa_blocks15Flight_dynamics35dynamic_pressure_from_true_airspeedEff)
                  000b2c9a    00000009                   : Vsdk_params.obj (.text:_ZN9Pa_blocks15Mixer_telemetryC1Ev)
                  000b2ca3    00000009                   : Track_spline_manager.obj (.text:_ZN9Pa_blocks20Track_spline_manager6OutputC1Ev)
                  000b2cac    00000009                   : Vsdk_navigation_params.obj (.text:_ZN9Pa_blocks22Vsdk_navigation_params11Wind_paramsC1Ev)
                  000b2cb5    00000009                   : Vsdk_navigation_params.obj (.text:_ZN9Pa_blocks22Vsdk_navigation_params7HeadingC1Ev)
                  000b2cbe    00000009                   : Controller_command_type.obj (.text:_ZN9Pa_blocks23Controller_command_type5buildENS0_4TypeE)
                  000b2cc7    00000009                   : Cm.obj (.text:_ZN9Pa_blocks2Cm6OutputC1Ev)
                  000b2cd0    00000009                   : Ttcg.obj (.text:_ZN9Pa_blocks4Ttcg10Vsdk_paramC1Ev)
                  000b2cd9    00000009                   : Waca.obj (.text:_ZN9Pa_blocks4Waca9Telemetry5resetEv)
                  000b2ce2    00000009                   : Model.obj (.text:_ZN9Pa_blocks5Model11reset_stateEv)
                  000b2ceb    00000009                   : Model.obj (.text:_ZN9Pa_blocks5Model26copy_compatible_state_fromERKS0_)
                  000b2cf4    00000009     base.lib : Field_real_hex_ASCII.obj (.text:_ZNK4Base20Field_real_hex_ASCII4cgetERNS_5LossyE)
                  000b2cfd    00000009              : Varmgr.obj (.text:_ZNK4Base6Varmgr3getENS_8Bvar_mapERNS_8Hbmapvar4TypeE)
                  000b2d06    00000009     pa_blocks.lib : Mission_plan.obj (.text:_ZNK9Pa_blocks12Mission_plan34alternate_plan_index_from_route_idEm)
                  000b2d0f    00000009     rts2800_fpu64_eabi.lib : _lock.c.obj (.text)
                  000b2d18    00000008     DSP28x_CodeStartBranch.obj (.text)
                  000b2d20    00000008     DSP2837x_ent.lib : GPIO.obj (.text:_ZN12Dsp28335_ent14Gpio_data_regs8get_bankENS_6GPIOidE)
                  000b2d28    00000008                      : GPIO.obj (.text:_ZN12Dsp28335_ent4GPIO3setEb)
                  000b2d30    00000008                      : Delay.obj (.text:_ZN12Dsp28335_ent5Delay2usEj)
                  000b2d38    00000008     veronte.lib : Hvar_cpu2.obj (.text:_ZN3Bsp7Hu64varC1Ej)
                  000b2d40    00000008     vpgnc.lib : Vpu.obj (.text:_ZN3Bsp8is_astroENS_6SysappE)
                  000b2d48    00000008     veronte.lib : Hcontroller_outputs_cpu2.obj (.text:_ZN3Ver19Hcontroller_outputs22get_controller_outputsEv)
                  000b2d50    00000008                 : Copystep.obj (.text:_ZN3Ver36_GLOBAL__N__12_Copystep_cpp_e59cf1d56HrangeIN3Bsp5HbvarEEC1Ev)
                  000b2d58    00000008                 : Copystep.obj (.text:_ZN3Ver36_GLOBAL__N__12_Copystep_cpp_e59cf1d56HrangeIN3Bsp5HrvarEEC1Ev)
                  000b2d60    00000008                 : Copystep.obj (.text:_ZN3Ver36_GLOBAL__N__12_Copystep_cpp_e59cf1d56HrangeIN3Bsp5HuvarEEC1Ev)
                  000b2d68    00000008                 : Hxcfield.obj (.text:_ZN3Ver8Hxcfield13get_kfstrfastEv)
                  000b2d70    00000008                 : Hxcfield.obj (.text:_ZN3Ver8Hxcfield18get_kfmsg8consumerEv)
                  000b2d78    00000008                 : Hxcfield.obj (.text:_ZN3Ver8Hxcfield20get_kfmsgcanconsumerEv)
                  000b2d80    00000008                 : Hcfg_mode_cpu2.obj (.text:_ZN3Ver9Hcfg_mode12get_cfgmodesEv)
                  000b2d88    00000008     first.lib : PDIcheck.obj (.text:_ZN4Base17Fifospscwr_commitIVjNS_10SPSCtraits8ExternalENS2_12Internal_refEE5writeIS1_NS_8Cptraits8OperatorIS1_S1_EEEEbNS_12JSF116_paramIT_E4typeE)
                  000b2d90    00000008     veronte.lib : Hvar_cpu2.obj (.text:_ZN4Base5ArrayIKjEC1EPS1_m)
                  000b2d98    00000008     first.lib : Error.obj (.text:_ZN4Base5ArrayINS_8ErrorsrcEEC1EPS1_m)
                  000b2da0    00000008               : Vstring.obj (.text:_ZN4Base5ArrayIcEC1EPcm)
                  000b2da8    00000008               : Lossy.obj (.text:_ZN4Base5ArrayIjEC1EPjm)
                  000b2db0    00000008               : Lossy.obj (.text:_ZN4Base5Lossy11align_bytesEv)
                  000b2db8    00000008               : Lossy.obj (.text:_ZN4Base5Lossy5alignEv)
                  000b2dc0    00000008     vpgnc.lib : Vpu.obj (.text:_ZN4Base5RngitIN12Dsp28335_ent6Pwmdev5PWMidEE4nextEv)
                  000b2dc8    00000008               : Vpu.obj (.text:_ZN4Base5RngitINS_3FidEE4nextEv)
                  000b2dd0    00000008     veronte.lib : Copystep.obj (.text:_ZN4Base5RngitINS_4RvarEE4nextEv)
                  000b2dd8    00000008     base.lib : CANin_p.obj (.text:_ZN4Base7CANin_p6Config13build_defaultEv)
                  000b2de0    00000008              : Fheader.obj (.text:_ZN4Base7Fheader12wr_availableEj)
                  000b2de8    00000008              : Stickrawtrans.obj (.text:_ZN4Base8Lintrans5buildEff)
                  000b2df0    00000008     Blockfactory_pac.obj (.text:_ZN6Stanag14IStanag_rx_pktC1Ev)
                  000b2df8    00000008     maverick.lib : Rvector.obj (.text:_ZN8Maverick7RvectorC1EPfj)
                  000b2e00    00000008     pa_blocks.lib : Model_dynamic.obj (.text:_ZN8Maverick7RvectorC1EjRN4Base9AllocatorE)
                  000b2e08    00000008                   : Cqp.obj (.text:_ZN8Maverick7TvectorIeEC1EjRN4Base9AllocatorE)
                  000b2e10    00000008                   : Model_dynamic.obj (.text:_ZN9Pa_blocks13Model_dynamic12zero_x_stateEv)
                  000b2e18    00000008                   : Roll_maneuver.obj (.text:_ZN9Pa_blocks13Roll_maneuver22is_turn_flight_segmentEf)
                  000b2e20    00000008                   : State_machines.obj (.text:_ZN9Pa_blocks14State_machines34eval_track_spline_is_recovery_laneEv)
                  000b2e28    00000008                   : Cy_file_transfer.obj (.text:_ZN9Pa_blocks16Cy_file_transfer16get_cyphal_flagsEv)
                  000b2e30    00000008                   : Commands_processor.obj (.text:_ZN9Pa_blocks18Commands_processor12Land_command5resetEv)
                  000b2e38    00000008                   : Commands_processor.obj (.text:_ZN9Pa_blocks18Commands_processor15Takeoff_command5resetEv)
                  000b2e40    00000008                   : Processed_route_data.obj (.text:_ZN9Pa_blocks20Processed_route_data5resetEv)
                  000b2e48    00000008                   : Track_spline_manager.obj (.text:_ZN9Pa_blocks20Track_spline_manager5ParamC1Ev)
                  000b2e50    00000008                   : Controller_command_type.obj (.text:_ZN9Pa_blocks23Controller_command_type4csetERN4Base5LossyE)
                  000b2e58    00000008                   : Motor_ramp_down_handler.obj (.text:_ZN9Pa_blocks23Motor_ramp_down_handler40get_flight_controller_modes_and_commandsERNS_18Modes_and_commandsE)
                  000b2e60    00000008                   : Onground_controller_info.obj (.text:_ZN9Pa_blocks24Onground_controller_infoC1Ev)
                  000b2e68    00000008                   : Current_route_information.obj (.text:_ZN9Pa_blocks25Current_route_information5resetEv)
                  000b2e70    00000008                   : Current_route_information.obj (.text:_ZN9Pa_blocks25Current_route_informationC1Ev)
                  000b2e78    00000008                   : Recovery_mission_phase_of_flight.obj (.text:_ZN9Pa_blocks32Recovery_mission_phase_of_flight8Log_data5resetEv)
                  000b2e80    00000008                   : Aacg.obj (.text:_ZN9Pa_blocks4Aacg11Vsdk_param_C1Ev)
                  000b2e88    00000008                   : Tp_state.obj (.text:_ZN9Pa_blocks8Tp_state5resetEv)
                  000b2e90    00000008     base.lib : Stimestamp.obj (.text:_ZNK4Base10Stimestamp4cgetERNS_9U8ostreamE)
                  000b2e98    00000008              : Spkt_hdr.obj (.text:_ZNK4Base8Spkt_hdr9Msg_props13get_chk_bytesEv)
                  000b2ea0    00000008     pa_blocks.lib : State_machines.obj (.text:_ZNK9Pa_blocks14State_machines14eval_mode_landEv)
                  000b2ea8    00000008                   : State_machines.obj (.text:_ZNK9Pa_blocks14State_machines17eval_mode_takeoffEv)
                  000b2eb0    00000008                   : Controllers_object.obj (.text:_ZNK9Pa_blocks18Controllers_object22is_state_reset_allowedEv)
                  000b2eb8    00000008                   : Power_on_builtin_test.obj (.text:_ZNK9Pa_blocks21Power_on_builtin_test11reset_stateEv)
                  000b2ec0    00000008                   : Controllers_param_mk30.obj (.text:_ZNK9Pa_blocks25Tstate_space_model_paramsILj0ELj6ELj3ELj4EE15get_interp_sizeEv)
                  000b2ec8    00000008                   : Controllers_param_mk30.obj (.text:_ZNK9Pa_blocks25Tstate_space_model_paramsILj1ELj1ELj1ELj1EE15get_interp_sizeEv)
                  000b2ed0    00000008                   : Controllers_param_mk30.obj (.text:_ZNK9Pa_blocks25Tstate_space_model_paramsILj1ELj1ELj1ELj4EE15get_interp_sizeEv)
                  000b2ed8    00000008                   : Controllers_param_mk30.obj (.text:_ZNK9Pa_blocks25Tstate_space_model_paramsILj1ELj3ELj1ELj4EE15get_interp_sizeEv)
                  000b2ee0    00000008                   : Controllers_param_mk30.obj (.text:_ZNK9Pa_blocks25Tstate_space_model_paramsILj2ELj2ELj2ELj4EE15get_interp_sizeEv)
                  000b2ee8    00000008                   : Controllers_param_mk30.obj (.text:_ZNK9Pa_blocks25Tstate_space_model_paramsILj2ELj6ELj2ELj4EE15get_interp_sizeEv)
                  000b2ef0    00000008                   : Controllers_param_mk30.obj (.text:_ZNK9Pa_blocks25Tstate_space_model_paramsILj3ELj3ELj3ELj1EE15get_interp_sizeEv)
                  000b2ef8    00000008                   : Controllers_param_mk30.obj (.text:_ZNK9Pa_blocks25Tstate_space_model_paramsILj3ELj6ELj3ELj4EE15get_interp_sizeEv)
                  000b2f00    00000008                   : Controllers_param_mk30.obj (.text:_ZNK9Pa_blocks25Tstate_space_model_paramsILj6ELj6ELj6ELj4EE15get_interp_sizeEv)
                  000b2f08    00000008     rts2800_fpu64_eabi.lib : copy_decompress_none.c.obj (.text:decompress:none)
                  000b2f10    00000007     FPU.lib : memcpy_fast.obj (.text)
                  000b2f17    00000007     DSP2837x_ent.lib : System_cpu2.obj (.text:_ZN12Dsp28335_ent15init_sys_cpu2_0Ev)
                  000b2f1e    00000007     veronte.lib : Hstate_estimate.obj (.text:_ZN3Ver15Hstate_estimate19get_kstate_estimateEv)
                  000b2f25    00000007                 : Hcontroller_inputs.obj (.text:_ZN3Ver18Hcontroller_inputs18get_kreset_commandEv)
                  000b2f2c    00000007                 : Hcontroller_inputs.obj (.text:_ZN3Ver18Hcontroller_inputs19get_kbattery_statusEv)
                  000b2f33    00000007                 : Hcontroller_inputs.obj (.text:_ZN3Ver18Hcontroller_inputs22get_kmotor_performanceEv)
                  000b2f3a    00000007                 : Hcontroller_inputs.obj (.text:_ZN3Ver18Hcontroller_inputs31get_kmon_rec_controller_commandEv)
                  000b2f41    00000007                 : Hmeas.obj (.text:_ZN3Ver5Hmeas9get_kmeasEv)
                  000b2f48    00000007                 : Hxcfg_cpu2.obj (.text:_ZN3Ver5Hxcfg8get_xcfgEv)
                  000b2f4f    00000007                 : Hxcfg.obj (.text:_ZN3Ver5Hxcfg9get_kxcfgEv)
                  000b2f56    00000007                 : Hevact_cpu2.obj (.text:_ZN3Ver6Hevact15get_eventsreadyEv)
                  000b2f5d    00000007                 : Hevact_cpu2.obj (.text:_ZN3Ver6Hevact9get_evoutEv)
                  000b2f64    00000007                 : Hxcygen_cpu2.obj (.text:_ZN3Ver7Hxcygen9get_cygenEv)
                  000b2f6b    00000007                 : Hlicense.obj (.text:_ZN3Ver8Hlicense16get_kpermissionsEv)
                  000b2f72    00000007                 : Hregvars.obj (.text:_ZN3Ver8Hregvars12get_kregvarsEv)
                  000b2f79    00000007     base.lib : Uclkmgr.obj (.text:_ZN4Base5ArrayINS_4UclkEEC2INS_4RvarEEEmNS_6Memmgr4TypeENS_5RngitIT_EE)
                  000b2f80    00000007              : Xcfilecli.obj (.text:_ZN4Base5XccliINS_10XcfilectrlENS_9XcfilereqEEC1ERVKS1_RNS_6TdsyncIS2_NS_12Tdsynctraits11Rd_blockingIS2_NS_8Cptraits6PodrawIVS2_EEEENS7_2WrIS2_NS9_8OperatorIS2_S2_EEEEEE)
                  000b2f87    00000007     veronte.lib : Hxcfile_cpu2.obj (.text:_ZN4Base5XccliINS_9XclogctrlENS_8XclogreqEEC1ERVKS1_RNS_6TdsyncIS2_NS_12Tdsynctraits11Rd_blockingIS2_NS_8Cptraits6PodrawIVS2_EEEENS7_2WrIS2_NS9_8OperatorIS2_S2_EEEEEE)
                  000b2f8e    00000007     pa_blocks.lib : Rwcso_input_manager.obj (.text:_ZN4Base8Cptraits6PodrawIVNS_9U8pkarrayILm201EEEE4copyERVKS3_RS4_)
                  000b2f95    00000007                   : Rwcso_input_manager.obj (.text:_ZN4Base8Cptraits6PodrawIVNS_9U8pkarrayILm20EEEE4copyERVKS3_RS4_)
                  000b2f9c    00000007                   : Rwcso_input_manager.obj (.text:_ZN4Base8Cptraits6PodrawIVNS_9U8pkarrayILm214EEEE4copyERVKS3_RS4_)
                  000b2fa3    00000007                   : Rwcso_input_manager.obj (.text:_ZN4Base8Cptraits6PodrawIVNS_9U8pkarrayILm28EEEE4copyERVKS3_RS4_)
                  000b2faa    00000007                   : Rwcso_input_manager.obj (.text:_ZN4Base8Cptraits6PodrawIVNS_9U8pkarrayILm56EEEE4copyERVKS3_RS4_)
                  000b2fb1    00000007     veronte.lib : Copystep.obj (.text:_ZN4Base8Cptraits6PodrawIVfE4copyERVKfRS2_)
                  000b2fb8    00000007     vpgnc.lib : Rvar_op_commit.obj (.text:_ZN4Base8TwraptunINS_9Tuntraits11Lossy_floatEfE4csetERNS_11Lossy_errorE)
                  000b2fbf    00000007     first.lib : Allocator.obj (.text:_ZN4Base9Allocator12allocate_oneEm)
                  000b2fc6    00000007               : PDIcheck.obj (.text:_ZN4Base9Fifospsc0IVjNS_10SPSCtraits22Add_reference_to_traitINS2_8ExternalEE8TemplateENS2_12Internal_refEE6set_wrEPS1_)
                  000b2fcd    00000007               : Rfun.obj (.text:_ZN4Rfun5acoswEf)
                  000b2fd4    00000007               : Rfun.obj (.text:_ZN4Rfun5asinwEf)
                  000b2fdb    00000007     media.lib : Cfgmgr.obj (.text:_ZN5Media34_GLOBAL__N__10_Cfgmgr_cpp_be3311b217Itunable_as_async4csetERN4Base11Lossy_errorE)
                  000b2fe2    00000007               : Cfgmgr.obj (.text:_ZN5Media34_GLOBAL__N__10_Cfgmgr_cpp_be3311b224Ideserializable_as_async4csetERN4Base11Lossy_errorE)
                  000b2fe9    00000007     vpgnc.lib : Varinit.obj (.text:_ZN5Vpgnc7Varinit6Value0C1Ev)
                  000b2ff0    00000007     pa_blocks.lib : Controllers_param_mk30.obj (.text:_ZN8Maverick7RmatrixC1EPfjj)
                  000b2ff7    00000007     midlevel.lib : Default_cfg.obj (.text:_ZN8Midlevel11Default_cfg15set_default_canERN12Dsp28335_ent6CANcfgEmbb)
                  000b2ffe    00000007                  : Sys_status_mgr.obj (.text:_ZN8Midlevel14Sys_status_mgr6ConfigC1Ev)
                  000b3005    00000007     pa_blocks.lib : Polynomial.obj (.text:_ZN9Pa_blocks10PolynomialC1ERKNS_17Polynomial_coeffsE)
                  000b300c    00000007                   : Tp_log_data.obj (.text:_ZN9Pa_blocks11Tp_log_data5resetEv)
                  000b3013    00000007                   : Tp_log_data.obj (.text:_ZN9Pa_blocks11Tp_log_dataC1Ev)
                  000b301a    00000007                   : Recovery_wrapper_control_system_object.obj (.text:_ZN9Pa_blocks12Command_fifoINS_15Mixer_telemetryELj1EE4ElemC1Ev)
                  000b3021    00000007                   : Rwcso_output_manager.obj (.text:_ZN9Pa_blocks12Command_fifoINS_15Recovery_alertsELj1EE4ElemC1Ev)
                  000b3028    00000007                   : Recovery_wrapper_control_system_object.obj (.text:_ZN9Pa_blocks12Command_fifoINS_17Motor_performanceELj6EE4ElemC1Ev)
                  000b302f    00000007                   : Rwcso_output_manager.obj (.text:_ZN9Pa_blocks12Command_fifoINS_17Pre_flight_checksELj1EE4ElemC1Ev)
                  000b3036    00000007                   : Recovery_wrapper_control_system_object.obj (.text:_ZN9Pa_blocks12Command_fifoINS_18Actuator_setpointsELj1EE4ElemC1Ev)
                  000b303d    00000007                   : Recovery_wrapper_control_system_object.obj (.text:_ZN9Pa_blocks12Command_fifoINS_18Commands_processor12Land_commandELj1EE4ElemC1Ev)
                  000b3044    00000007                   : Recovery_wrapper_control_system_object.obj (.text:_ZN9Pa_blocks12Command_fifoINS_18Commands_processor15Takeoff_commandELj1EE4ElemC1Ev)
                  000b304b    00000007                   : Recovery_wrapper_control_system_object.obj (.text:_ZN9Pa_blocks12Command_fifoINS_18Commands_processor25Route_command_and_controlELj1EE4ElemC1Ev)
                  000b3052    00000007                   : Recovery_wrapper_control_system_object.obj (.text:_ZN9Pa_blocks12Command_fifoINS_18Commands_processor27Airspeed_modulation_commandELj1EE4ElemC1Ev)
                  000b3059    00000007                   : Recovery_wrapper_control_system_object.obj (.text:_ZN9Pa_blocks12Command_fifoINS_18Controllers_object12Mixer_returnELj1EE4ElemC1Ev)
                  000b3060    00000007                   : Rwcso_output_manager.obj (.text:_ZN9Pa_blocks12Command_fifoINS_18Recovery_telemetryELj1EE4ElemC1Ev)
                  000b3067    00000007                   : Recovery_wrapper_control_system_object.obj (.text:_ZN9Pa_blocks12Command_fifoINS_21Controllers_telemetryELj1EE4ElemC1Ev)
                  000b306e    00000007                   : Recovery_wrapper_control_system_object.obj (.text:_ZN9Pa_blocks12Command_fifoINS_21Mission_reset_commandELj1EE4ElemC1Ev)
                  000b3075    00000007                   : Rwcso_output_manager.obj (.text:_ZN9Pa_blocks12Command_fifoINS_22Recovery_motor_rpm_cmdELj1EE4ElemC1Ev)
                  000b307c    00000007                   : Rwcso_output_manager.obj (.text:_ZN9Pa_blocks12Command_fifoINS_24Onground_controller_infoELj1EE4ElemC1Ev)
                  000b3083    00000007                   : Recovery_wrapper_control_system_object.obj (.text:_ZN9Pa_blocks12Command_fifoINS_25Mission_readiness_wrapperELj1EE4ElemC1Ev)
                  000b308a    00000007                   : Recovery_wrapper_control_system_object.obj (.text:_ZN9Pa_blocks12Command_fifoINS_25MonRec_controller_commandELj1EE4ElemC1Ev)
                  000b3091    00000007                   : Recovery_wrapper_control_system_object.obj (.text:_ZN9Pa_blocks12Command_fifoINS_26Controllers_state_estimateELj1EE4ElemC1Ev)
                  000b3098    00000007                   : Recovery_wrapper_control_system_object.obj (.text:_ZN9Pa_blocks12Command_fifoINS_26Forces_and_torques_requestELj1EE4ElemC1Ev)
                  000b309f    00000007                   : Recovery_wrapper_control_system_object.obj (.text:_ZN9Pa_blocks12Command_fifoINS_27Command_contingency_wrapperELj1EE4ElemC1Ev)
                  000b30a6    00000007                   : Recovery_wrapper_control_system_object.obj (.text:_ZN9Pa_blocks12Command_fifoINS_27Upload_mission_plan_wrapperELj1EE4ElemC1Ev)
                  000b30ad    00000007                   : Rwcso_output_manager.obj (.text:_ZN9Pa_blocks12Command_fifoINS_29Recovery_controller_telemetryELj1EE4ElemC1Ev)
                  000b30b4    00000007                   : Recovery_wrapper_control_system_object.obj (.text:_ZN9Pa_blocks12Command_fifoINS_32Drone_mission_phase_notificationELj1EE4ElemC1Ev)
                  000b30bb    00000007                   : Rwcso_output_manager.obj (.text:_ZN9Pa_blocks12Command_fifoINS_33Recovery_mission_readiness_signalELj1EE4ElemC1Ev)
                  000b30c2    00000007                   : Waypoint_msg.obj (.text:_ZN9Pa_blocks12Waypoint_msgC1Ev)
                  000b30c9    00000007                   : State_machines.obj (.text:_ZN9Pa_blocks14State_machines9TelemetryC1Ev)
                  000b30d0    00000007                   : Slew_rate_filter.obj (.text:_ZN9Pa_blocks16Slew_rate_filter12reset_filterEf)
                  000b30d7    00000007                   : Controllers_object.obj (.text:_ZN9Pa_blocks18Controllers_object22set_mission_ned_originERKN4Base4TllhE)
                  000b30de    00000007                   : Vsdk_navigation_params.obj (.text:_ZN9Pa_blocks22Vsdk_navigation_params8Air_dataC1Ev)
                  000b30e5    00000007                   : Tcg.obj (.text:_ZN9Pa_blocks3Tcg22set_mission_ned_originERKN4Base4TllhE)
                  000b30ec    00000007                   : Atcg.obj (.text:_ZN9Pa_blocks4Atcg11reset_stateEv)
                  000b30f3    00000007     vpgnc.lib : Vpu.obj (.text:_ZNK8Midlevel17Routing_table_cmdIN4Base18Routing_table_dataILj2ELj16EEEE4cgetERNS1_5LossyE)
                  000b30fa    00000007     pa_blocks.lib : Track_spline_manager.obj (.text:_ZNK9Pa_blocks20Track_spline_manager11reset_stateEv)
                  000b3101    00000007                   : Ttcg.obj (.text:_ZNK9Pa_blocks4Ttcg20are_routes_availableEv)
                  000b3108    00000007     rts2800_fpu64_eabi.lib : memset.c.obj (.text)
                  000b310f    00000006     FPU.lib : memset_fast.obj (.text)
                  000b3115    00000006     DSP2837x_ent.lib : GPIOvalid.obj (.text:_ZN12Dsp28335_ent15is_gpioid_validEj)
                  000b311b    00000006     pa_blocks.lib : Command_routes_and_deviations_params.obj (.text:_ZN19Cyphal_common_types18deserialize_bool16ERbRN4Base5LossyE)
                  000b3121    00000006                   : Controllers_state_estimate.obj (.text:_ZN19Cyphal_common_types18deserialize_bool16ERbRN4Base5LossyE)
                  000b3127    00000006                   : Mission_readiness.obj (.text:_ZN19Cyphal_common_types18deserialize_bool16ERbRN4Base5LossyE)
                  000b312d    00000006                   : MonRec_controller_command.obj (.text:_ZN19Cyphal_common_types18deserialize_bool16ERbRN4Base5LossyE)
                  000b3133    00000006     base.lib : Auth_connection.obj (.text:_ZN4Base15Auth_connectionC1ENS_7AddressE)
                  000b3139    00000006     first.lib : Memmgr_c2000.obj (.text:_ZN4Base6Memmgr22get_external_allocatorEv)
                  000b313f    00000006               : Memmgr_c2000.obj (.text:_ZN4Base6Memmgr22get_internal_allocatorEv)
                  000b3145    00000006               : Memmgr_c2000.obj (.text:_ZN4Base6MemmgrC1ERNS_9AllocatorES2_)
                  000b314b    00000006     media.lib : Cfgmgr.obj (.text:_ZN5Media6Cfgmgr12Itundes_wrap4csetERN4Base11Lossy_errorE)
                  000b3151    00000006     pa_blocks.lib : Message_id.obj (.text:_ZN9Pa_blocks10Message_id4csetERN4Base5LossyE)
                  000b3157    00000006                   : Init_handler.obj (.text:_ZN9Pa_blocks12Init_handler40get_flight_controller_modes_and_commandsERNS_18Modes_and_commandsE)
                  000b315d    00000006                   : Land_manager.obj (.text:_ZN9Pa_blocks12Land_manager10Vsdk_param4csetERN4Base11Lossy_errorE)
                  000b3163    00000006                   : Ground_handler.obj (.text:_ZN9Pa_blocks14Ground_handler40get_flight_controller_modes_and_commandsERNS_18Modes_and_commandsE)
                  000b3169    00000006                   : State_machines.obj (.text:_ZN9Pa_blocks14State_machines22eval_takeoff_on_groundEv)
                  000b316f    00000006                   : Recovery_alerts.obj (.text:_ZN9Pa_blocks15Recovery_alertsC1Ev)
                  000b3175    00000006                   : Takeoff_manager.obj (.text:_ZN9Pa_blocks15Takeoff_manager10Vsdk_param4csetERN4Base11Lossy_errorE)
                  000b317b    00000006                   : Takeoff_manager.obj (.text:_ZN9Pa_blocks15Takeoff_manager5ParamC1Ev)
                  000b3181    00000006                   : Cy_file_transfer.obj (.text:_ZN9Pa_blocks16Cy_file_transfer10on_tx_implERN6Stanag14IStanag_msg_tx9Tx_paramsE)
                  000b3187    00000006                   : Slew_rate_filter.obj (.text:_ZN9Pa_blocks16Slew_rate_filter11reset_stateEv)
                  000b318d    00000006                   : Controllers_object.obj (.text:_ZN9Pa_blocks20Rotors_health_status19Rotor_health_statusC1Ev)
                  000b3193    00000006     veronte.lib : Activated_knob_version.obj (.text:_ZN9Pa_blocks22Activated_knob_version6Config4csetERN4Base11Lossy_errorE)
                  000b3199    00000006     pa_blocks.lib : Vsdk_navigation_params.obj (.text:_ZN9Pa_blocks22Vsdk_navigation_params14Vehicle_params4csetERN4Base11Lossy_errorE)
                  000b319f    00000006                   : Vsdk_navigation_params.obj (.text:_ZN9Pa_blocks22Vsdk_navigation_params8Air_data4csetERN4Base11Lossy_errorE)
                  000b31a5    00000006                   : Recovery_route_constructor.obj (.text:_ZN9Pa_blocks26Recovery_route_constructor5Param4csetERN4Base11Lossy_errorE)
                  000b31ab    00000006                   : Command_routes_and_deviations_params.obj (.text:_ZN9Pa_blocks36Command_routes_and_deviations_params21Stop_and_hover_paramsC1Ev)
                  000b31b1    00000006                   : Waca.obj (.text:_ZN9Pa_blocks4Waca10Vsdk_param4csetERN4Base11Lossy_errorE)
                  000b31b7    00000006                   : Maneuver.obj (.text:_ZN9Pa_blocks8Maneuver27set_predicted_wind_velocityERKN4Base7TnarrayIfLm3EEE)
                  000b31bd    00000006                   : Maneuver.obj (.text:_ZN9Pa_blocks8ManeuverC1ERKNS_12Maneuver_msgE)
                  000b31c3    00000006                   : State_machines.obj (.text:_ZNK9Pa_blocks14State_machines19eval_mode_on_groundEv)
                  000b31c9    00000006                   : State_machines.obj (.text:_ZNK9Pa_blocks14State_machines21eval_land_agl_invalidEv)
                  000b31cf    00000006                   : State_machines.obj (.text:_ZNK9Pa_blocks14State_machines21eval_mode_agl_invalidEv)
                  000b31d5    00000006                   : State_machines.obj (.text:_ZNK9Pa_blocks14State_machines26eval_integrators_on_groundEv)
                  000b31db    00000006                   : Trajectory_planner.obj (.text:_ZNK9Pa_blocks18Trajectory_planner11reset_stateEv)
                  000b31e1    00000006                   : Alternate_plans_buffer.obj (.text:_ZNK9Pa_blocks22Alternate_plans_buffer23get_num_alternate_plansEv)
                  000b31e7    00000006                   : Recovery_mission_data_processor.obj (.text:_ZNK9Pa_blocks31Recovery_mission_data_processor11reset_stateEv)
                  000b31ed    00000006     first.lib : Lossy.obj (.text:_ZNV4Base10U8pkmblock3setEmh)
                  000b31f3    00000006     vpgnc.lib : Evtmgr.obj (.text:_ZNV4Base9Eventout013set_and_clearEv)
                  000b31f9    00000006     stanag.lib : Vehicle_identifier_cfg.obj (.text:_ZNVK4Base8Address0eqENS0_4AddrE)
                  000b31ff    00000006     DSP28x.lib : Absolute_time.obj (.text:__sti___17_Absolute_time_cpp_c8996795)
                  000b3205    00000006     midlevel.lib : Sys_status_mgr.obj (.text:__sti___18_Sys_status_mgr_cpp_2a0467ea)
                  000b320b    00000006     rts2800_fpu64_eabi.lib : copy_zero_init.c.obj (.text:decompress:ZI)
                  000b3211    00000005     DSP2838x_ent.lib : Ipc_2838x.obj (.text:_ZN12Dsp28335_ent3Ipc11reset_flagsEv)
                  000b3216    00000005     DSP2837x_ent.lib : GPIO.obj (.text:_ZN12Dsp28335_ent4GPIO6set_hiEv)
                  000b321b    00000005                      : GPIO.obj (.text:_ZN12Dsp28335_ent4GPIO6set_loEv)
                  000b3220    00000005                      : GPIO.obj (.text:_ZN12Dsp28335_ent4GPIO6toggleEv)
                  000b3225    00000005                      : Emif1.obj (.text:_ZN12Dsp28335_ent5Emif116get_async_cs2_crEv)
                  000b322a    00000005     veronte.lib : Hvar_cpu2.obj (.text:_ZN3Bsp7Hu64var3getEv)
                  000b322f    00000005                 : Hsys.obj (.text:_ZN3Ver4Hsys13get_ksen_initEv)
                  000b3234    00000005                 : Hsys.obj (.text:_ZN3Ver4Hsys20get_loadst_requestedEv)
                  000b3239    00000005     base.lib : Field_cfg.obj (.text:_ZN4Base14Cksum_sagetech5resetEv)
                  000b323e    00000005     veronte.lib : Hvar_cpu2.obj (.text:_ZN4Base5Dsync6ReaderC1ERVKS0_)
                  000b3243    00000005     vpgnc.lib : Vpu.obj (.text:_ZN4Base8BitarrayILj16EE7set_allEv)
                  000b3248    00000005     base.lib : Presence_vec.obj (.text:_ZN4Base8BitarrayILj40EE7set_allEv)
                  000b324d    00000005     first.lib : Allocator.obj (.text:_ZN4Base9Allocator16Allocator_buffer16close_allocationEv)
                  000b3252    00000005     media.lib : Cfgmgr.obj (.text:_ZN5Media6Cfgmgr8add_metaEN4Base3Cfg2IdE)
                  000b3257    00000005     vpgnc.lib : Vpu.obj (.text:_ZN5Vpgnc3Vpu9step_xqrdEf)
                  000b325c    00000005     maverick.lib : R64vector3.obj (.text:_ZN8Maverick10R64vector3C1Ev)
                  000b3261    00000005                  : Rvector2.obj (.text:_ZN8Maverick8Rvector2C1Ev)
                  000b3266    00000005                  : Rvector3.obj (.text:_ZN8Maverick8Rvector3C1Ev)
                  000b326b    00000005     pa_blocks.lib : Land_manager.obj (.text:_ZN9Pa_blocks12Land_manager10Vsdk_paramC1Ev)
                  000b3270    00000005                   : State_machines.obj (.text:_ZN9Pa_blocks14State_machines11reset_stateEv)
                  000b3275    00000005                   : Switch_blender.obj (.text:_ZN9Pa_blocks14Switch_blender11reset_stateEv)
                  000b327a    00000005                   : Takeoff_manager.obj (.text:_ZN9Pa_blocks15Takeoff_manager11reset_stateEv)
                  000b327f    00000005                   : Cy_file_transfer.obj (.text:_ZN9Pa_blocks16Cy_file_transfer5Error4cgetERN4Base9U8ostreamE)
                  000b3284    00000005                   : Mission_readiness.obj (.text:_ZN9Pa_blocks17Mission_readiness15set_is_receivedEv)
                  000b3289    00000005                   : Vsdk_common_params.obj (.text:_ZN9Pa_blocks18Vsdk_common_paramsC1Ev)
                  000b328e    00000005                   : Rhcp_maneuver_range_data.obj (.text:_ZN9Pa_blocks24Rhcp_maneuver_range_data5resetEv)
                  000b3293    00000005                   : Tsc.obj (.text:_ZN9Pa_blocks3Tsc41Vsdk_parameters_a2a_bypass_switch_blenderC1Ev)
                  000b3298    00000005                   : Waca.obj (.text:_ZN9Pa_blocks4Waca5StateC1Ev)
                  000b329d    00000005     geomodel.lib : Apos.obj (.text:_ZNK3Geo31_GLOBAL__N__8_Apos_cpp_ad6fc63620Height_computer_null10msl_heightERKN4Base6LonlatE)
                  000b32a2    00000005                  : Apos.obj (.text:_ZNK3Geo31_GLOBAL__N__8_Apos_cpp_ad6fc63620Height_computer_null12wgs84_heightERKN4Base6LonlatE)
                  000b32a7    00000005     veronte.lib : Tunsuite_pa.obj (.text:_ZThn2_NK4Base8TwraptunINS_9Tuntraits10TundefaultIN9Pa_blocks10DComms_cfg7DynamicEEERS5_E4cgetERNS_5LossyE)
                  000b32ac    00000005                 : Tunsuite_pa.obj (.text:_ZThn2_NK4Base8TwraptunINS_9Tuntraits10TundefaultIN9Pa_blocks11Site_config6ConfigEEERS5_E4cgetERNS_5LossyE)
                  000b32b1    00000005     vpgnc.lib : Evtmgr.obj (.text:_ZThn2_NK4Base8TwraptunINS_9Tuntraits10TundefaultINS_7UclkmgrEEERS3_E4cgetERNS_5LossyE)
                  000b32b6    00000005               : Polymgr_impl_amz.obj (.text:__sti___20_Polymgr_impl_amz_cpp_1b434771)
                  000b32bb    00000005     pa_blocks.lib : Aee.obj (.text:__sti___7_Aee_cpp_d099247d)
                  000b32c0    00000005     rts2800_fpu64_eabi.lib : delete.c.obj (.text)
                  000b32c5    00000004     DSP2837x_ent.lib : Cpusys.obj (.text:_ZN12Dsp28335_ent6CpusysC1Ev)
                  000b32c9    00000004                      : Piectrl.obj (.text:_ZN12Dsp28335_ent7PiectrlC1Ev)
                  000b32cd    00000004     veronte.lib : Sysaddr_ver2.obj (.text:_ZN3Bsp19get_addr_location_kEv)
                  000b32d1    00000004                 : Hauth_connections_cpu2.obj (.text:_ZN3Ver17Hauth_connections16get_kconnectionsEv)
                  000b32d5    00000004                 : Hsys.obj (.text:_ZN3Ver4Hsys11get_kpctimeEv)
                  000b32d9    00000004                 : Hsys.obj (.text:_ZN3Ver4Hsys12get_ksysaddrEv)
                  000b32dd    00000004                 : Hsys.obj (.text:_ZN3Ver4Hsys13get_kgnsstimeEv)
                  000b32e1    00000004                 : Hxcfield_cpu2.obj (.text:_ZN3Ver8Hxcfield9get_ftmodEv)
                  000b32e5    00000004     base.lib : Field_cfg.obj (.text:_ZN4Base10Cksum_modn11update_byteEh)
                  000b32e9    00000004     veronte.lib : Hxcfield_cpu2.obj (.text:_ZN4Base14Twraptun_asyncINS_9Tuntraits10Cxet_asyncINS_12Ftelemetryod5FsvodEEERS4_E4csetERNS_11Lossy_errorE)
                  000b32ed    00000004                 : Hxcfield_cpu2.obj (.text:_ZN4Base14Twraptun_asyncINS_9Tuntraits10Cxet_asyncINS_9FieldsvecINS_6TmvdatELj20EEEEERS5_E4csetERNS_11Lossy_errorE)
                  000b32f1    00000004     base.lib : Spkt.obj (.text:_ZN4Base5CRC325resetEv)
                  000b32f5    00000004              : Spkt.obj (.text:_ZN4Base5Cksum11update_byteEh)
                  000b32f9    00000004     Blockfactory_pac.obj (.text:_ZN4Base5ItaskC1Ev)
                  000b32fd    00000004     Blockfactory_pac.obj (.text:_ZN4Base5ItaskC2Ev)
                  000b3301    00000004     base.lib : CRCmav.obj (.text:_ZN4Base6CRCmav11update_byteEh)
                  000b3305    00000004              : CRCmav.obj (.text:_ZN4Base6CRCmav5resetEv)
                  000b3309    00000004     vblocks.lib : Dyn_multi_interpolator.obj (.text:_ZN4Base8DynarrayIN6Blocks10DynrvectorEEC1Ev)
                  000b330d    00000004     first.lib : PDIcheck.obj (.text:_ZN4Base8PDIcheck8set_fifoEPNS_17Fifospscwr_commitIVjNS_10SPSCtraits8ExternalENS3_12Internal_refEEE)
                  000b3311    00000004     vpgnc.lib : Vpu.obj (.text:_ZN4Base8TwrapdesINS_9Tuntraits10DesdefaultIN5Vpgnc7VarinitEEERS4_E4csetERNS_11Lossy_errorE)
                  000b3315    00000004               : Evtmgr.obj (.text:_ZN4Base8TwrapdesINS_9Tuntraits10DesdefaultIN5Vpgnc7VlimitsEEERS4_E4csetERNS_11Lossy_errorE)
                  000b3319    00000004     veronte.lib : Tunsuite_pa.obj (.text:_ZN4Base8TwrapdesINS_9Tuntraits10DesdefaultIN8Midlevel19Radio_sync_cfg_type6ParamsEEERS5_E4csetERNS_11Lossy_errorE)
                  000b331d    00000004                 : Tunsuite_pa.obj (.text:_ZN4Base8TwrapdesINS_9Tuntraits10DesdefaultIN9Pa_blocks10DComms_cfg6StaticEEERS5_E4csetERNS_11Lossy_errorE)
                  000b3321    00000004                 : Tunsuite_pa.obj (.text:_ZN4Base8TwrapdesINS_9Tuntraits10DesdefaultIN9Pa_blocks22Activated_knob_version6ConfigEEERS5_E4csetERNS_11Lossy_errorE)
                  000b3325    00000004                 : Tunsuite_pa.obj (.text:_ZN4Base8TwrapdesINS_9Tuntraits10DesdefaultINS_18Routing_table_dataILj2ELj16EEEEERS4_E4csetERNS_11Lossy_errorE)
                  000b3329    00000004     vpgnc.lib : Opmgr.obj (.text:_ZN4Base8TwrapdesINS_9Tuntraits10DesdefaultINS_8TuncacheIN5Vpgnc14Rvar_op_commit7RoptypeEEEEERS7_E4csetERNS_11Lossy_errorE)
                  000b332d    00000004     veronte.lib : Tunsuite_pa.obj (.text:_ZN4Base8TwrapdesINS_9Tuntraits15Arraytun_nosizeINS1_15Arraytun_size16INS1_8TupletunINS1_9Cset_onlyIN6Stanag14Subsystem_data8Key_dataEEENS1_7Lossy16INS_4UvarEEEEENS_11TnarrayreszINS_5TupleIS8_SB_EELm64EEENS1_8No_checkISH_EEEENS_7TnarrayISH_Lm32EEENSI_ISM_EEEERSM_E4csetERNS_11Lossy_errorE)
                  000b3331    00000004                 : Hxcfield_cpu2.obj (.text:_ZN4Base8TwrapdesINS_9Tuntraits9Cset_onlyINS_9FieldsvecIN6Stanag7StgvdatELj0EEEEERS6_E4csetERNS_11Lossy_errorE)
                  000b3335    00000004                 : Hxcfield_cpu2.obj (.text:_ZN4Base8TwrapdesINS_9Tuntraits9Cset_onlyINS_9FieldsvecINS_11SniffervdatELj0EEEEERS5_E4csetERNS_11Lossy_errorE)
                  000b3339    00000004                 : Hxcfield_cpu2.obj (.text:_ZN4Base8TwrapdesINS_9Tuntraits9Cset_onlyINS_9FieldsvecINS_6TmvdatELj0EEEEERS5_E4csetERNS_11Lossy_errorE)
                  000b333d    00000004                 : Hxcfield_cpu2.obj (.text:_ZN4Base8TwrapdesINS_9Tuntraits9Cset_onlyINS_9FieldsvecINS_9FmsetvdatELj0EEEEERS5_E4csetERNS_11Lossy_errorE)
                  000b3341    00000004                 : Tunsuite_pa.obj (.text:_ZN4Base8TwrapdesINS_9Tuntraits9Cset_onlyIRNS_10Cfgid_modeEEES4_E4csetERNS_11Lossy_errorE)
                  000b3345    00000004                 : Tunsuite_pa.obj (.text:_ZN4Base8TwrapdesINS_9Tuntraits9Wsync_desINS_6TdsyncIN8Midlevel10Lights_cfgENS_12Tdsynctraits11Rd_blockingIS5_NS_8Cptraits6PodrawIVS5_EEEENS6_15Disabled_structEEENS1_10DesdefaultIS5_EEEERSE_E4csetERNS_11Lossy_errorE)
                  000b3349    00000004                 : Tunsuite_pa.obj (.text:_ZN4Base8TwraptunINS_9Tuntraits10TundefaultIN9Pa_blocks10DComms_cfg7DynamicEEERS5_E4csetERNS_11Lossy_errorE)
                  000b334d    00000004                 : Tunsuite_pa.obj (.text:_ZN4Base8TwraptunINS_9Tuntraits10TundefaultIN9Pa_blocks11Site_config6ConfigEEERS5_E4csetERNS_11Lossy_errorE)
                  000b3351    00000004     vpgnc.lib : Evtmgr.obj (.text:_ZN4Base8TwraptunINS_9Tuntraits10TundefaultINS_7UclkmgrEEERS3_E4csetERNS_11Lossy_errorE)
                  000b3355    00000004     veronte.lib : Hxcfield_cpu2.obj (.text:_ZN4Base9Tuntraits10Cxet_asyncINS_12Ftelemetryod5FsvodEE8elem2strERKS3_RNS_5LossyE)
                  000b3359    00000004                 : Hxcfield_cpu2.obj (.text:_ZN4Base9Tuntraits15Cset_only_asyncINS_12Ftelemetryod5FsvodEE8str2elemERS3_RNS_11Lossy_errorE)
                  000b335d    00000004     vpgnc.lib : Polymgr_impl_amz.obj (.text:_ZN5Vpgnc12Polymgr_implC1ERKN3Geo4AposERKN8Maverick9Irvector3ERN5Media6CfgmgrERN4Base7StepmgrE)
                  000b3361    00000004               : Evt_wp_groups.obj (.text:_ZN5Vpgnc13Evt_wp_groups4csetERN4Base11Lossy_errorE)
                  000b3365    00000004               : Event_inside_checker_amz.obj (.text:_ZN5Vpgnc20Event_inside_checkerC1Ev)
                  000b3369    00000004     Blockfactory_pac.obj (.text:_ZN6Cyphal19CyphalStanag_rx_hnd9step_taskEv)
                  000b336d    00000004     media.lib : Cfgmgr.obj (.text:_ZN6Stanag13Stanag_msg_rx9step_taskEv)
                  000b3371    00000004     Blockfactory_pac.obj (.text:_ZN6Stanag14IStanag_msg_rxC1Ev)
                  000b3375    00000004     pa_blocks.lib : Message_id.obj (.text:_ZN9Pa_blocks10Message_idC1Ev)
                  000b3379    00000004                   : Slew_rate_filter.obj (.text:_ZN9Pa_blocks16Slew_rate_filterC1ERKNS0_5ParamERNS0_5StateE)
                  000b337d    00000004                   : Commands_processor.obj (.text:_ZN9Pa_blocks18Commands_processor27Airspeed_modulation_commandC1Ev)
                  000b3381    00000004                   : Recovery_lane_step1.obj (.text:_ZN9Pa_blocks19Recovery_lane_step122Recovery_state_machine4LogsC1Ev)
                  000b3385    00000004                   : Track_spline_manager.obj (.text:_ZN9Pa_blocks20Track_spline_manager5StateC1Ev)
                  000b3389    00000004                   : Track_spline_manager.obj (.text:_ZN9Pa_blocks20Track_spline_manager7LogDataC1Ev)
                  000b338d    00000004                   : Recovery_wrapper_control_system_object.obj (.text:_ZN9Pa_blocks38Recovery_wrapper_control_system_object28is_switchover_set_to_primaryEv)
                  000b3391    00000004                   : Recovery_wrapper_control_system_object.obj (.text:_ZN9Pa_blocks38Recovery_wrapper_control_system_object29is_switchover_set_to_recoveryEv)
                  000b3395    00000004                   : Asc.obj (.text:_ZN9Pa_blocks3Asc11reset_stateEv)
                  000b3399    00000004                   : Asc.obj (.text:_ZN9Pa_blocks3Asc27initialize_after_switchoverEv)
                  000b339d    00000004                   : Controls_command_processor_command_response.obj (.text:_ZN9Pa_blocks43Controls_command_processor_command_response5resetEv)
                  000b33a1    00000004     base.lib : Field_cfg.obj (.text:_ZNK4Base14Cksum_sagetech9get_valueEv)
                  000b33a5    00000004     veronte.lib : Hxcfield_cpu2.obj (.text:_ZNK4Base14Twraptun_asyncINS_9Tuntraits10Cxet_asyncINS_12Ftelemetryod5FsvodEEERS4_E4cgetERNS_5LossyE)
                  000b33a9    00000004                 : Hxcfield_cpu2.obj (.text:_ZNK4Base14Twraptun_asyncINS_9Tuntraits10Cxet_asyncINS_9FieldsvecINS_6TmvdatELj20EEEEERS5_E4cgetERNS_5LossyE)
                  000b33ad    00000004     vpgnc.lib : Vpu.obj (.text:_ZNK4Base5RngitIN12Dsp28335_ent6Pwmdev5PWMidEE12pending_sizeEv)
                  000b33b1    00000004               : Vpu.obj (.text:_ZNK4Base5RngitINS_3FidEE12pending_sizeEv)
                  000b33b5    00000004     veronte.lib : Copystep.obj (.text:_ZNK4Base5RngitINS_4RvarEE12pending_sizeEv)
                  000b33b9    00000004     base.lib : CRCmav.obj (.text:_ZNK4Base6CRCmav9get_nbitsEv)
                  000b33bd    00000004     veronte.lib : Tunsuite_pa.obj (.text:_ZNK4Base8TwraptunINS_9Tuntraits10TundefaultIN9Pa_blocks10DComms_cfg7DynamicEEERS5_E4cgetERNS_5LossyE)
                  000b33c1    00000004                 : Tunsuite_pa.obj (.text:_ZNK4Base8TwraptunINS_9Tuntraits10TundefaultIN9Pa_blocks11Site_config6ConfigEEERS5_E4cgetERNS_5LossyE)
                  000b33c5    00000004     vpgnc.lib : Evtmgr.obj (.text:_ZNK4Base8TwraptunINS_9Tuntraits10TundefaultINS_7UclkmgrEEERS3_E4cgetERNS_5LossyE)
                  000b33c9    00000004     veronte.lib : Pwm_suite.obj (.text:_ZNK4Base9Range_dynINS_4RvarEE4sizeEv)
                  000b33cd    00000004                 : Pwm_suite.obj (.text:_ZNK4Base9Range_dynINS_4RvarEE7get_idxEj)
                  000b33d1    00000004     pa_blocks.lib : Land_manager.obj (.text:_ZNK8Maverick8Ivector3IfE8norm22xyEv)
                  000b33d5    00000004                   : Hover_maneuver.obj (.text:_ZNK9Pa_blocks14Hover_maneuver34waypoint_coordinates_from_waypointERKNS_12Waypoint_msgERNS_19Maneuver_coordinate25Waypoint_coordinate_arrayE)
                  000b33d9    00000004                   : State_machines.obj (.text:_ZNK9Pa_blocks14State_machines26eval_mode_pbit_done_passedEv)
                  000b33dd    00000004                   : Afc.obj (.text:_ZNK9Pa_blocks3Afc22is_specification_validEv)
                  000b33e1    00000004                   : Afc.obj (.text:_ZNK9Pa_blocks3Afc8is_validEv)
                  000b33e5    00000004                   : Asc.obj (.text:_ZNK9Pa_blocks3Asc22is_specification_validEv)
                  000b33e9    00000004     vpgnc.lib : Vpu.obj (.text:_ZNVK4Base7TnarrayINS_6TdsyncINS_15Xfmsgcanc0arrayILj0ELj0EEENS_12Tdsynctraits11Rd_blockingIS3_NS_8Cptraits6PodrawIVS3_EEEENS4_15Disabled_structEEELm0EEixEm)
                  000b33ed    00000004     media.lib : Fstrfast.obj (.text:_ZThn10_NK5Media8Fstrfast4cgetERN4Base5LossyE)
                  000b33f1    00000004     vpgnc.lib : Vpu.obj (.text:_ZThn2_N12Dsp28335_ent8PwmsuiteINS_6PwmdevELj16EE7disableEv)
                  000b33f5    00000004     base.lib : Ftelemetryod.obj (.text:_ZThn2_N4Base12Ftelemetryod5Fsvod4stepEv)
                  000b33f9    00000004              : Taskmgr.obj (.text:_ZThn2_N4Base7Taskmgr4stepEv)
                  000b33fd    00000004     vpgnc.lib : Evtmgr.obj (.text:_ZThn2_N5Vpgnc6Evtmgr5on_txERN6Stanag14IStanag_msg_tx9Tx_paramsE)
                  000b3401    00000004     midlevel.lib : CyphalStanag_rx_hnd.obj (.text:_ZThn2_N6Cyphal19CyphalStanag_rx_hnd5on_rxERN6Stanag14IStanag_msg_rx9Rx_paramsE)
                  000b3405    00000004                  : Irxfw.obj (.text:_ZThn2_N8Midlevel5Irxfw6Parser4stepEv)
                  000b3409    00000004     pa_blocks.lib : Cy_maint_action.obj (.text:_ZThn2_N9Pa_blocks15Cy_maint_action5on_rxERN6Stanag14IStanag_msg_rx9Rx_paramsE)
                  000b340d    00000004     geomodel.lib : Fmemcmd.obj (.text:_ZThn2_NK3Geo7Fmemcmd4cgetERN4Base5LossyE)
                  000b3411    00000004     base.lib : Cmdvar.obj (.text:_ZThn2_NK4Base6Cmdvar4cgetERNS_5LossyE)
                  000b3415    00000004     vpgnc.lib : Vpu.obj (.text:_ZThn2_NK8Midlevel17Routing_table_cmdIN4Base18Routing_table_dataILj2ELj16EEEE4cgetERNS1_5LossyE)
                  000b3419    00000004     pa_blocks.lib : State_machines.obj (.text:_ZThn2_NK9Pa_blocks14State_machines21eval_land_agl_invalidEv)
                  000b341d    00000004                   : State_machines.obj (.text:_ZThn2_NK9Pa_blocks14State_machines32eval_land_ground_speed_below_maxEv)
                  000b3421    00000004                   : State_machines.obj (.text:_ZThn2_NK9Pa_blocks14State_machines42eval_land_agl_below_slow_descent_thresholdEv)
                  000b3425    00000004                   : State_machines.obj (.text:_ZThn2_NK9Pa_blocks14State_machines46eval_land_agl_below_landing_attitude_thresholdEv)
                  000b3429    00000004                   : State_machines.obj (.text:_ZThn2_NK9Pa_blocks14State_machines57eval_land_time_spent_in_slow_down_to_hover_state_exceededEv)
                  000b342d    00000004     veronte.lib : Pwm_suite.obj (.text:_ZThn4_N12Dsp28335_ent8PwmsuiteINS_6PwmdevELj16EE9set_valueEjf)
                  000b3431    00000004     media.lib : Cfgmgr.obj (.text:_ZThn4_N5Media6Cfgmgr5on_rxERN6Stanag14IStanag_msg_rx9Rx_paramsE)
                  000b3435    00000004               : Fstrfast.obj (.text:_ZThn4_N5Media8Fstrfast5on_rxERN6Stanag14IStanag_msg_rx9Rx_paramsE)
                  000b3439    00000004     stanag.lib : Acknowledgement.obj (.text:_ZThn4_N6Stanag15Acknowledgement5on_rxERNS_14IStanag_msg_rx9Rx_paramsE)
                  000b343d    00000004     midlevel.lib : Errors_irx.obj (.text:_ZThn4_N8Midlevel10Errors_irx5on_rxERN6Stanag14IStanag_msg_rx9Rx_paramsE)
                  000b3441    00000004                  : Sys_status_mgr.obj (.text:_ZThn4_N8Midlevel14Sys_status_mgr5on_rxERN6Stanag14IStanag_msg_rx9Rx_paramsE)
                  000b3445    00000004     pa_blocks.lib : Motor_rpm_cmd.obj (.text:_ZThn4_N9Pa_blocks13Motor_rpm_cmd10on_tx_implERN6Stanag14IStanag_msg_tx9Tx_paramsE)
                  000b3449    00000004                   : Cy_maint_action.obj (.text:_ZThn4_N9Pa_blocks15Cy_maint_action10on_tx_implERN6Stanag14IStanag_msg_tx9Tx_paramsE)
                  000b344d    00000004                   : Command_response.obj (.text:_ZThn4_N9Pa_blocks16Command_response10on_tx_implERN6Stanag14IStanag_msg_tx9Tx_paramsE)
                  000b3451    00000004                   : Cy_file_transfer.obj (.text:_ZThn4_N9Pa_blocks16Cy_file_transfer10on_tx_implERN6Stanag14IStanag_msg_tx9Tx_paramsE)
                  000b3455    00000004                   : Recovery_motor_rpm_cmd.obj (.text:_ZThn4_N9Pa_blocks22Recovery_motor_rpm_cmd10on_tx_implERN6Stanag14IStanag_msg_tx9Tx_paramsE)
                  000b3459    00000004                   : State_machines.obj (.text:_ZThn4_NK9Pa_blocks14State_machines14eval_mode_landEv)
                  000b345d    00000004                   : State_machines.obj (.text:_ZThn4_NK9Pa_blocks14State_machines17eval_mode_takeoffEv)
                  000b3461    00000004                   : State_machines.obj (.text:_ZThn4_NK9Pa_blocks14State_machines19eval_mode_on_groundEv)
                  000b3465    00000004                   : State_machines.obj (.text:_ZThn4_NK9Pa_blocks14State_machines21eval_mode_agl_invalidEv)
                  000b3469    00000004                   : State_machines.obj (.text:_ZThn4_NK9Pa_blocks14State_machines22eval_mode_track_splineEv)
                  000b346d    00000004                   : State_machines.obj (.text:_ZThn4_NK9Pa_blocks14State_machines26eval_mode_pbit_done_passedEv)
                  000b3471    00000004                   : State_machines.obj (.text:_ZThn4_NK9Pa_blocks14State_machines26eval_mode_takeoff_completeEv)
                  000b3475    00000004                   : State_machines.obj (.text:_ZThn4_NK9Pa_blocks14State_machines31eval_mode_takeoff_position_holdEv)
                  000b3479    00000004                   : State_machines.obj (.text:_ZThn4_NK9Pa_blocks14State_machines33eval_mode_motor_rampdown_completeEv)
                  000b347d    00000004                   : State_machines.obj (.text:_ZThn4_NK9Pa_blocks14State_machines50eval_mode_agl_above_land_to_track_spline_thresholdEv)
                  000b3481    00000004     media.lib : Cfgmgr.obj (.text:_ZThn6_N5Media6Cfgmgr4stepEv)
                  000b3485    00000004               : Fstrfast.obj (.text:_ZThn6_N5Media8Fstrfast4stepEv)
                  000b3489    00000004     vpgnc.lib : Evtmgr.obj (.text:_ZThn6_N5Vpgnc6Evtmgr5on_rxERN6Stanag14IStanag_msg_rx9Rx_paramsE)
                  000b348d    00000004     midlevel.lib : Sys_status_mgr.obj (.text:_ZThn6_N8Midlevel14Sys_status_mgr4stepEv)
                  000b3491    00000004     pa_blocks.lib : State_machines.obj (.text:_ZThn6_N9Pa_blocks14State_machines22eval_takeoff_on_groundEv)
                  000b3495    00000004                   : State_machines.obj (.text:_ZThn6_N9Pa_blocks14State_machines36eval_takeoff_above_complete_altitudeEv)
                  000b3499    00000004                   : State_machines.obj (.text:_ZThn6_N9Pa_blocks14State_machines37eval_takeoff_total_inertial_speed_lowEv)
                  000b349d    00000004                   : State_machines.obj (.text:_ZThn6_N9Pa_blocks14State_machines41eval_takeoff_above_position_hold_altitudeEv)
                  000b34a1    00000004     media.lib : Fstrfast.obj (.text:_ZThn8_N5Media8Fstrfast4csetERN4Base11Lossy_errorE)
                  000b34a5    00000004     pa_blocks.lib : State_machines.obj (.text:_ZThn8_N9Pa_blocks14State_machines33eval_track_spline_vtol_conditionsEv)
                  000b34a9    00000004                   : State_machines.obj (.text:_ZThn8_N9Pa_blocks14State_machines34eval_track_spline_is_recovery_laneEv)
                  000b34ad    00000004                   : State_machines.obj (.text:_ZThn8_N9Pa_blocks14State_machines40eval_track_spline_attitude_within_limitsEv)
                  000b34b1    00000004                   : State_machines.obj (.text:_ZThn8_N9Pa_blocks14State_machines42eval_track_spline_velocities_within_limitsEv)
                  000b34b5    00000004                   : State_machines.obj (.text:_ZThn8_N9Pa_blocks14State_machines45eval_track_spline_angular_rates_within_limitsEv)
                  000b34b9    00000004                   : State_machines.obj (.text:_ZThn8_N9Pa_blocks14State_machines46eval_track_spline_position_error_within_limitsEv)
                  000b34bd    00000004                   : State_machines.obj (.text:_ZThn8_N9Pa_blocks14State_machines51eval_track_spline_position_error_within_limits_vtolEv)
                  000b34c1    00000004     media.lib : Cfgmgr.obj (.text:_ZThn8_NK5Media6Cfgmgr20get_last_changed_idxEv)
                  000b34c5    00000004               : Cfgmgr.obj (.text:_ZThn8_NK5Media6Cfgmgr9get_gfcrcEv)
                  000b34c9    00000004               : Cfgmgr.obj (.text:_ZThn8_NK5Media6Cfgmgr9get_gmcrcEv)
                  000b34cd    00000004     main_cpu2.obj (.text:_system_post_cinit)
                  000b34d1    00000004     rts2800_fpu64_eabi.lib : pure_virt.c.obj (.text)
                  000b34d5    00000003     DSP2838x_ent.lib : Emif1_2838x.obj (.text:_ZN12Dsp28335_ent5Emif114get_emif1_regsEv)
                  000b34d8    00000003                      : Emif1_2838x.obj (.text:_ZN12Dsp28335_ent5Emif121get_emif1_config_regsEv)
                  000b34db    00000003     DSP2837x_ent.lib : Emif1.obj (.text:_ZN12Dsp28335_ent5Emif18get_mselEv)
                  000b34de    00000003     pa_blocks.lib : State_machines.obj (.text:_ZN19Cyphal_common_types16serialize_bool16EbRN4Base5LossyE)
                  000b34e1    00000003                   : Vsdk_params.obj (.text:_ZN19Cyphal_common_types16serialize_bool16EbRN4Base5LossyE)
                  000b34e4    00000003                   : Waypoint_msg.obj (.text:_ZN19Cyphal_common_types16serialize_bool16EbRN4Base5LossyE)
                  000b34e7    00000003     veronte.lib : Sysuid.obj (.text:_ZN3Bsp16get_uid_locationEv)
                  000b34ea    00000003                 : Vfspermission.obj (.text:_ZN3Ver13VfspermissionD0Ev)
                  000b34ed    00000003                 : Xcd_cpu2.obj (.text:_ZN3Ver2Xc12get_xcd_cpu1Ev)
                  000b34f0    00000003                 : Xcd_cpu2.obj (.text:_ZN3Ver2Xc12get_xcd_cpu2Ev)
                  000b34f3    00000003     base.lib : Field_cfg.obj (.text:_ZN4Base10Cksum_modn5resetEv)
                  000b34f6    00000003     midlevel.lib : Irxfw.obj (.text:_ZN4Base11Imsg_senderD0Ev)
                  000b34f9    00000003     vpgnc.lib : Vpu.obj (.text:_ZN4Base11Ipkt_senderD0Ev)
                  000b34fc    00000003               : Vpu.obj (.text:_ZN4Base11Vpktsend_xcD0Ev)
                  000b34ff    00000003     base.lib : Feature.obj (.text:_ZN4Base12Data_mutatorINS_11Lossy_error16Mutator_traits16ENS_17U16stream_r_error13Data_traits16EEC2ERS3_)
                  000b3502    00000003              : Feature.obj (.text:_ZN4Base12Data_mutatorINS_11Lossy_error16Mutator_traits16ENS_17U16stream_r_error13Data_traits16EED2Ev)
                  000b3505    00000003              : CRC.obj (.text:_ZN4Base3CRC5resetEv)
                  000b3508    00000003     veronte.lib : Pwm_suite.obj (.text:_ZN4Base5ArrayIN12Dsp28335_ent8PwmsuiteINS1_6PwmdevELj16EE6ConfigEEC2EmNS_6Memmgr4TypeE)
                  000b350b    00000003     vpgnc.lib : Evtmgr.obj (.text:_ZN4Base5ArrayIN5Vpgnc5EventEEC2EmNS_6Memmgr4TypeE)
                  000b350e    00000003               : Evt_wp_groups.obj (.text:_ZN4Base5ArrayINS_4TdesINS_11TnarrayreszIjLm8EEENS_9Tuntraits10TundefaultIS3_EEEEEC2EmNS_6Memmgr4TypeE)
                  000b3511    00000003               : Vlimits.obj (.text:_ZN4Base5ArrayINS_5LimitEEC2EmNS_6Memmgr4TypeE)
                  000b3514    00000003     midlevel.lib : Irxfw.obj (.text:_ZN4Base5ArrayINS_8Msg_dataEEC2EmNS_6Memmgr4TypeE)
                  000b3517    00000003     base.lib : Taskmgr.obj (.text:_ZN4Base5ArrayINS_9TaskentryEEC2EmNS_6Memmgr4TypeE)
                  000b351a    00000003     first.lib : Vstring.obj (.text:_ZN4Base5ArrayIcEC2EPcm)
                  000b351d    00000003     pa_blocks.lib : Mixer_allocator.obj (.text:_ZN4Base5ArrayIeEC2EPem)
                  000b3520    00000003                   : Mixer_allocator.obj (.text:_ZN4Base5ArrayIeEC2EmRNS_9AllocatorE)
                  000b3523    00000003     maverick.lib : Rvector.obj (.text:_ZN4Base5ArrayIfEC2EPfm)
                  000b3526    00000003                  : Rvector.obj (.text:_ZN4Base5ArrayIfEC2EmNS_6Memmgr4TypeE)
                  000b3529    00000003     vblocks.lib : Multi_interpolator.obj (.text:_ZN4Base5ArrayIfEC2EmRNS_9AllocatorE)
                  000b352c    00000003     base.lib : Spkt.obj (.text:_ZN4Base5Cksum5resetEv)
                  000b352f    00000003     vpgnc.lib : Vpu.obj (.text:_ZN4Base5IfileD0Ev)
                  000b3532    00000003     veronte.lib : Hvar_cpu2.obj (.text:_ZN4Base6MblockIVfEC1EPS1_m)
                  000b3535    00000003                 : Hvar_cpu2.obj (.text:_ZN4Base6MblockIVjEC1EPS1_m)
                  000b3538    00000003     base.lib : Xcfile.obj (.text:_ZN4Base6XcfileD0Ev)
                  000b353b    00000003     vpgnc.lib : Vpu.obj (.text:_ZN4Base8CANout_c6ConfigC1Ev)
                  000b353e    00000003     midlevel.lib : Irxfw.obj (.text:_ZN4Base8FifospscINS_8Msg_dataEEC2EmNS_6Memmgr4TypeE)
                  000b3541    00000003     vpgnc.lib : Vpu.obj (.text:_ZN4Base9Range_dynINS_4RvarEEC1ES1_S1_)
                  000b3544    00000003     veronte.lib : Tunsuite_pa.obj (.text:_ZN4Base9Tuntraits9Cset_onlyIN8Midlevel10Lights_cfgEE8str2elemERS3_RNS_11Lossy_errorE)
                  000b3547    00000003     vpgnc.lib : Opmgr.obj (.text:_ZN4Base9Tuntraits9Cset_onlyINS_8TuncacheIN5Vpgnc14Rvar_op_commit7RoptypeEEEE8str2elemERS6_RNS_11Lossy_errorE)
                  000b354a    00000003     media.lib : Updatable_null.obj (.text:_ZN5Media10IupdatableD0Ev)
                  000b354d    00000003     veronte.lib : Vfspermission.obj (.text:_ZN5Media13IfspermissionD0Ev)
                  000b3550    00000003     media.lib : Updatable_null.obj (.text:_ZN5Media14Updatable_nullD0Ev)
                  000b3553    00000003     stanag.lib : Stanag_status_msgs.obj (.text:_ZN6Stanag19Ispecial_conversionD0Ev)
                  000b3556    00000003                : Stanag_status_msgs.obj (.text:_ZN6Stanag23Special_conversion_nullD0Ev)
                  000b3559    00000003     midlevel.lib : Irxfw.obj (.text:_ZN6Stanag8Msg_fifoD0Ev)
                  000b355c    00000003     pa_blocks.lib : Mixer_allocator.obj (.text:_ZN8Maverick7TmatrixIeEC2EPejj)
                  000b355f    00000003                   : Pa_scheduler.obj (.text:_ZN8Maverick7TmatrixIfEC2EPfjj)
                  000b3562    00000003                   : Mixer_allocator.obj (.text:_ZN8Maverick7TmatrixIfEC2EjjRN4Base9AllocatorE)
                  000b3565    00000003     vpgnc.lib : Vpu.obj (.text:_ZN8Midlevel11Default_cfg5Xpcu8IN3Ver11Xpcu8_traitEE16get_default_0sciEv)
                  000b3568    00000003               : Vpu.obj (.text:_ZN8Midlevel11Default_cfg5Xpcu8IN3Ver11Xpcu8_traitEE16get_default_4sciEv)
                  000b356b    00000003               : Vpu.obj (.text:_ZN8Midlevel11Default_cfg6XpccanIN3Ver15Xpccantrait_verEE11get_defaultEv)
                  000b356e    00000003     pa_blocks.lib : Text_logger.obj (.text:_ZN9Pa_blocks11Text_logger12get_instanceEv)
                  000b3571    00000003                   : Model_dynamic.obj (.text:_ZN9Pa_blocks13Model_dynamic27set_is_state_update_enabledEb)
                  000b3574    00000003                   : Takeoff_state.obj (.text:_ZN9Pa_blocks13Takeoff_stateC1Ev)
                  000b3577    00000003                   : Gnc_model_gain.obj (.text:_ZN9Pa_blocks14Gnc_model_gain27set_is_state_update_enabledEb)
                  000b357a    00000003                   : State_machines.obj (.text:_ZN9Pa_blocks14State_machines11Vsdk_params4csetERN4Base11Lossy_errorE)
                  000b357d    00000003                   : Cy_maint_action.obj (.text:_ZN9Pa_blocks15Cy_maint_action6notifyERKN4Base8Msg_dataE)
                  000b3580    00000003                   : Gnc_model_dynamic.obj (.text:_ZN9Pa_blocks17Gnc_model_dynamic11reset_stateEb)
                  000b3583    00000003                   : Gnc_model_dynamic.obj (.text:_ZN9Pa_blocks17Gnc_model_dynamic11reset_stateEv)
                  000b3586    00000003                   : Gnc_model_dynamic.obj (.text:_ZN9Pa_blocks17Gnc_model_dynamic25set_is_output_initializedEb)
                  000b3589    00000003                   : Mission_utilities.obj (.text:_ZN9Pa_blocks17Mission_utilities24is_gps_land_action_validERKNS_15Gps_land_actionE)
                  000b358c    00000003                   : Vsdk_params.obj (.text:_ZN9Pa_blocks17Vsdk_mixer_params4csetERN4Base11Lossy_errorE)
                  000b358f    00000003                   : Waypoint_coordinate.obj (.text:_ZN9Pa_blocks19Waypoint_coordinate8set_timeEf)
                  000b3592    00000003                   : Vsdk_navigation_params.obj (.text:_ZN9Pa_blocks22Vsdk_navigation_params14Vehicle_paramsC1Ev)
                  000b3595    00000003                   : Controllers_param.obj (.text:_ZN9Pa_blocks25Tstate_space_model_paramsILj0ELj6ELj3ELj4EEC2Ev)
                  000b3598    00000003                   : Rhcp_maneuver_range_data_array.obj (.text:_ZN9Pa_blocks30Rhcp_maneuver_range_data_arrayC1Ev)
                  000b359b    00000003                   : Recovery_mission_data_processor.obj (.text:_ZN9Pa_blocks31Recovery_mission_data_processor5StateC1Ev)
                  000b359e    00000003                   : Recovery_mission_readiness_signal.obj (.text:_ZN9Pa_blocks33Recovery_mission_readiness_signalC1Ev)
                  000b35a1    00000003                   : Command_routes_and_deviations_params.obj (.text:_ZN9Pa_blocks36Command_routes_and_deviations_params35Track_vtol_route_final_point_params4csetERN4Base5LossyE)
                  000b35a4    00000003     geomodel.lib : Tecef.obj (.text:_ZNK3Geo5Tecef9get_wgs84ERN4Base4TllhE)
                  000b35a7    00000003     veronte.lib : Static_cfg.obj (.text:_ZNK3Ver10Static_cfg20get_last_changed_idxEv)
                  000b35aa    00000003                 : Static_cfg.obj (.text:_ZNK3Ver10Static_cfg9get_gfcrcEv)
                  000b35ad    00000003                 : Static_cfg.obj (.text:_ZNK3Ver10Static_cfg9get_gmcrcEv)
                  000b35b0    00000003     base.lib : CRC.obj (.text:_ZNK4Base3CRC9get_nbitsEv)
                  000b35b3    00000003              : Spkt.obj (.text:_ZNK4Base5CRC329get_valueEv)
                  000b35b6    00000003     media.lib : Cfgmgr.obj (.text:_ZNK5Media6Cfgmgr20get_last_changed_idxEv)
                  000b35b9    00000003               : Cfgmgr.obj (.text:_ZNK5Media6Cfgmgr9get_gfcrcEv)
                  000b35bc    00000003               : Cfgmgr.obj (.text:_ZNK5Media6Cfgmgr9get_gmcrcEv)
                  000b35bf    00000003     pa_blocks.lib : Model_dynamic.obj (.text:_ZNK9Pa_blocks13Model_dynamic26get_is_state_reset_allowedEv)
                  000b35c2    00000003                   : Model_dynamic.obj (.text:_ZNK9Pa_blocks13Model_dynamic27get_is_state_update_enabledEv)
                  000b35c5    00000003                   : Model_dynamic.obj (.text:_ZNK9Pa_blocks13Model_dynamic33get_is_output_state_reset_enabledEv)
                  000b35c8    00000003                   : Hover_maneuver.obj (.text:_ZNK9Pa_blocks14Hover_maneuver12displacementEv)
                  000b35cb    00000003                   : Gnc_model_dynamic.obj (.text:_ZNK9Pa_blocks17Gnc_model_dynamic26get_is_state_reset_allowedEv)
                  000b35ce    00000003                   : Controllers_object.obj (.text:_ZNK9Pa_blocks18Controllers_object5Input35vsdk_trigger_timestamp_monotonic_nsEv)
                  000b35d1    00000003                   : Trajectory_planner.obj (.text:_ZNK9Pa_blocks18Trajectory_planner8is_validEv)
                  000b35d4    00000003                   : Alternate_plans_buffer.obj (.text:_ZNK9Pa_blocks22Alternate_plans_buffer21get_num_mission_stepsEv)
                  000b35d7    00000003                   : Recovery_mission_data_processor.obj (.text:_ZNK9Pa_blocks31Recovery_mission_data_processor8is_validEv)
                  000b35da    00000003                   : Recovery_mission_phase_of_flight.obj (.text:_ZNK9Pa_blocks32Recovery_mission_phase_of_flight8is_validEv)
                  000b35dd    00000003                   : Recovery_controls_command_processor.obj (.text:_ZNK9Pa_blocks35Recovery_controls_command_processor8is_validEv)
                  000b35e0    00000003                   : Ttcg.obj (.text:_ZNK9Pa_blocks4Ttcg50compute_commanded_displacement_from_start_of_routeEv)
                  000b35e3    00000003                   : Alternate_plans_buffer.obj (.text:_ZNVK4Base11TnarrayreszIN9Pa_blocks12Mission_stepELm3500EE8size_maxEv)
                  000b35e6    00000003     veronte.lib : Hxcfield_cpu2.obj (.text:_ZNVK4Base5Dsync10wr_ongoingEv)
                  000b35e9    00000003     Vmain_cpu2.obj (.text:_ZNVK4Base5Ttime8get_ticsEv)
                  000b35ec    00000003     base.lib : Varmgr.obj (.text:_ZThn2_N4Base6Varmgr3setENS_3FidERKNS_7FeatureE)
                  000b35ef    00000003              : Varmgr.obj (.text:_ZThn2_N4Base6Varmgr3setENS_4BvarEb)
                  000b35f2    00000003              : Varmgr.obj (.text:_ZThn2_N4Base6Varmgr3setENS_4RvarEf)
                  000b35f5    00000003              : Varmgr.obj (.text:_ZThn2_N4Base6Varmgr3setENS_4UvarEj)
                  000b35f8    00000003              : Varmgr.obj (.text:_ZThn2_N4Base6Varmgr3setENS_8Bvar_mapERKNS_8Hbmapvar4TypeE)
                  000b35fb    00000003     pa_blocks.lib : Cy_maint_action.obj (.text:_ZThn4_N9Pa_blocks15Cy_maint_action6notifyERKN4Base8Msg_dataE)
                  000b35fe    00000003                   : State_machines.obj (.text:_ZThn4_NK9Pa_blocks14State_machines24eval_mode_in_flight_testEv)
                  000b3601    00000003     rts2800_fpu64_eabi.lib : error.c.obj (.text)
                  000b3604    00000002     veronte.lib : GPIOname_util.obj (.text:_ZN3Ver18get_cana_term_gpioEv)
                  000b3606    00000002                 : GPIOname_util.obj (.text:_ZN3Ver18get_canb_term_gpioEv)
                  000b3608    00000002                 : GPIOname_util.obj (.text:_ZN3Ver18get_gpio_switch_fbEv)
                  000b360a    00000002                 : GPIOname_util.obj (.text:_ZN3Ver19get_gpio_led_red_idEv)
                  000b360c    00000002                 : GPIOname_util.obj (.text:_ZN3Ver21get_canfd_a_term_gpioEv)
                  000b360e    00000002                 : GPIOname_util.obj (.text:_ZN3Ver21get_gpio_switch_alertEv)
                  000b3610    00000002                 : GPIOname_util.obj (.text:_ZN3Ver22get_gpio_switch_nalertEv)
                  000b3612    00000002     first.lib : Dsync.obj (.text:_ZN4Base5Dsync6Reader10build_nullEv)
                  000b3614    00000002     base.lib : Varmgr.obj (.text:_ZN4Base6Varmgr3setERKNS_12U8pkmblock_kE)
                  000b3616    00000002     media.lib : Cfgmgr.obj (.text:_ZN5Media34_GLOBAL__N__10_Cfgmgr_cpp_be3311b210Meta_async4csetERN4Base11Lossy_errorE)
                  000b3618    00000002     vpgnc.lib : Polymgr_impl_amz.obj (.text:_ZN5Vpgnc12Polymgr_impl24get_event_inside_checkerEv)
                  000b361a    00000002               : Event_inside_checker_amz.obj (.text:_ZN5Vpgnc20Event_inside_checker4initERNS_5EventE)
                  000b361c    00000002               : Event_inside_checker_amz.obj (.text:_ZN5Vpgnc20Event_inside_checker9step_taskEv)
                  000b361e    00000002               : Airframe_action_wp_publish.obj (.text:_ZN5Vpgnc26Airframe_action_wp_publishC1ERVKN4Base4BvarE)
                  000b3620    00000002     pa_blocks.lib : Polynomial.obj (.text:_ZN9Pa_blocks10Polynomial11set_invalidEv)
                  000b3622    00000002                   : Gnc_model_gain.obj (.text:_ZN9Pa_blocks14Gnc_model_gain39perform_state_reset_to_specified_outputERKN8Maverick7RvectorE)
                  000b3624    00000002                   : State_machines.obj (.text:_ZN9Pa_blocks14State_machines32reset_track_spline_state_machineERNS_20State_machines_state12Track_spline4TypeE)
                  000b3626    00000002                   : Command_received_types.obj (.text:_ZN9Pa_blocks22Command_received_typesC1Ev)
                  000b3628    00000002                   : Controller_command_type.obj (.text:_ZN9Pa_blocks23Controller_command_typeC1Ev)
                  000b362a    00000002                   : Recovery_mission_phase_of_flight.obj (.text:_ZN9Pa_blocks32Recovery_mission_phase_of_flight6OutputC1Ev)
                  000b362c    00000002     base.lib : Field_cfg.obj (.text:_ZNK4Base10Cksum_modn9get_nbitsEv)
                  000b362e    00000002              : Xcrd.obj (.text:_ZNK4Base10FifospscrdIVKjE6get_rdEv)
                  000b3630    00000002              : Ftelemetryod.obj (.text:_ZNK4Base12Ftelemetryod5Fsvod4cgetERNS_5LossyE)
                  000b3632    00000002              : Field_cfg.obj (.text:_ZNK4Base14Cksum_sagetech9get_nbitsEv)
                  000b3634    00000002              : Spkt.obj (.text:_ZNK4Base5CRC329get_nbitsEv)
                  000b3636    00000002              : Spkt.obj (.text:_ZNK4Base5Cksum9get_nbitsEv)
                  000b3638    00000002              : Xcfile.obj (.text:_ZNK4Base6Xcfile8get_timeEv)
                  000b363a    00000002     media.lib : Updatable_null.obj (.text:_ZNK5Media14Updatable_null12is_updatableEj)
                  000b363c    00000002               : Updatable_null.obj (.text:_ZNK5Media14Updatable_null14update_allowedEv)
                  000b363e    00000002               : Cfgmgr.obj (.text:_ZNK5Media6Cfgmgr12Itundes_wrap4cgetERN4Base5LossyE)
                  000b3640    00000002     vpgnc.lib : Polymgr_impl_amz.obj (.text:_ZNK5Vpgnc12Polymgr_impl32get_mov_obstacle_changed_counterEv)
                  000b3642    00000002               : Vpu.obj (.text:_ZNK5Vpgnc3Vpu18get_status_versionEv)
                  000b3644    00000002     vblocks.lib : Blockfactory_amz.obj (.text:_ZNK7Vblocks8No_marks10mark_eventERKN4Base6MblockIjEE)
                  000b3646    00000002     pa_blocks.lib : Cqp.obj (.text:_ZNK8Maverick9TcholeskyIeE5get_lEv)
                  000b3648    00000002                   : Gnc_model_gain.obj (.text:_ZNK9Pa_blocks14Gnc_model_gain27get_is_state_update_enabledEv)
                  000b364a    00000002                   : Gnc_model_gain.obj (.text:_ZNK9Pa_blocks14Gnc_model_gain33get_is_output_state_reset_enabledEv)
                  000b364c    00000002                   : State_machines.obj (.text:_ZNK9Pa_blocks14State_machines24eval_mode_in_flight_testEv)
                  000b364e    00000002                   : Trajectory_planner.obj (.text:_ZNK9Pa_blocks18Trajectory_planner22is_state_reset_allowedEv)
                  000b3650    00000002                   : Rotors_health_status.obj (.text:_ZNK9Pa_blocks20Rotors_health_status40rotors_health_status_to_contingency_modeEv)
                  000b3652    00000002                   : Power_on_builtin_test.obj (.text:_ZNK9Pa_blocks21Power_on_builtin_test42is_parameter_configuration_self_consistentEv)
                  000b3654    00000002                   : Recovery_route_constructor.obj (.text:_ZNK9Pa_blocks26Recovery_route_constructor22is_state_reset_allowedEv)
                  000b3656    00000002                   : Recovery_route_constructor.obj (.text:_ZNK9Pa_blocks26Recovery_route_constructor8is_validEv)
                  000b3658    00000002                   : Recovery_mission_data_processor.obj (.text:_ZNK9Pa_blocks31Recovery_mission_data_processor22is_state_reset_allowedEv)
                  000b365a    00000002                   : Recovery_mission_phase_of_flight.obj (.text:_ZNK9Pa_blocks32Recovery_mission_phase_of_flight22is_state_reset_allowedEv)
                  000b365c    00000002                   : Waca.obj (.text:_ZNK9Pa_blocks4Waca22is_specification_validEv)
                  000b365e    00000002                   : Model.obj (.text:_ZNK9Pa_blocks5Model26get_is_state_reset_allowedEv)
                  000b3660    00000002     DSP2838x_ent.lib : CAN_FD_cfg.obj (.text:_ZNVK4Base11TnarrayreszIN12Dsp28335_ent6CANcfg5RxcfgELm32EE4sizeEv)
                  000b3662    00000002     vpgnc.lib : CAN_cfg_maint_astro.obj (.text:_ZNVK4Base11TnarrayreszIN12Dsp28335_ent6CANcfg5RxcfgELm32EE8size_maxEv)
                  000b3664    00000002               : Varinit.obj (.text:_ZNVK4Base11TnarrayreszIN5Vpgnc7Varinit6Value0ELm96EE4sizeEv)
                  000b3666    00000002     veronte.lib : Tunsuite_pa.obj (.text:_ZNVK4Base11TnarrayreszIN6Stanag11Stanag_port8Port_cfgELm6EE4sizeEv)
                  000b3668    00000002                 : Tunsuite_pa.obj (.text:_ZNVK4Base11TnarrayreszIN6Stanag15Stanag_msg_cfgs9Cfg_entryELm20EE4sizeEv)
                  000b366a    00000002     stanag.lib : Fstgcfg.obj (.text:_ZNVK4Base11TnarrayreszIN6Stanag7Fstgcfg5EntryELm5EE4sizeEv)
                  000b366c    00000002     veronte.lib : Hxcfield_cpu2.obj (.text:_ZNVK4Base11TnarrayreszIN6Stanag7FstgcfgELm40EE4sizeEv)
                  000b366e    00000002                 : Tunsuite_pa.obj (.text:_ZNVK4Base11TnarrayreszIN7Devices8TPS9266410Config_regELm40EE4sizeEv)
                  000b3670    00000002                 : Tunsuite_pa.obj (.text:_ZNVK4Base11TnarrayreszIN7Devices8TPS926649Led_stateELm13EE4sizeEv)
                  000b3672    00000002                 : Tunsuite_pa.obj (.text:_ZNVK4Base11TnarrayreszIN8Midlevel10Lights_cfg16Indication_stateELm10EE4sizeEv)
                  000b3674    00000002                 : Tunsuite_pa.obj (.text:_ZNVK4Base11TnarrayreszIN8Midlevel10Lights_cfg19Indication_sequenceELm11EE4sizeEv)
                  000b3676    00000002     pa_blocks.lib : DComms_cfg.obj (.text:_ZNVK4Base11TnarrayreszIN9Pa_blocks10DComms_cfg10Freq_entryELm64EE4sizeEv)
                  000b3678    00000002                   : DComms_cfg.obj (.text:_ZNVK4Base11TnarrayreszIN9Pa_blocks10DComms_cfg7Reg_cfgELm30EE4sizeEv)
                  000b367a    00000002                   : Afc.obj (.text:_ZNVK4Base11TnarrayreszIN9Pa_blocks10Real16_amzELm6EE4sizeEv)
                  000b367c    00000002                   : Recovery_mission_data_processor.obj (.text:_ZNVK4Base11TnarrayreszIN9Pa_blocks11Uint32_pairELm50EE4sizeEv)
                  000b367e    00000002                   : Recovery_mission_data_processor.obj (.text:_ZNVK4Base11TnarrayreszIN9Pa_blocks11Uint32_pairELm50EE8size_maxEv)
                  000b3680    00000002                   : Controllers_object.obj (.text:_ZNVK4Base11TnarrayreszIN9Pa_blocks12Command_fifoINS1_14Scheduler_dataELj1EE4ElemELm1EE4sizeEv)
                  000b3682    00000002                   : Rwcso_input_manager.obj (.text:_ZNVK4Base11TnarrayreszIN9Pa_blocks12Command_fifoINS1_15Battery_summaryELj1EE4ElemELm1EE4sizeEv)
                  000b3684    00000002                   : Recovery_wrapper_control_system_object.obj (.text:_ZNVK4Base11TnarrayreszIN9Pa_blocks12Command_fifoINS1_15Mixer_telemetryELj1EE4ElemELm1EE4sizeEv)
                  000b3686    00000002                   : Rwcso_output_manager.obj (.text:_ZNVK4Base11TnarrayreszIN9Pa_blocks12Command_fifoINS1_15Recovery_alertsELj1EE4ElemELm1EE4sizeEv)
                  000b3688    00000002                   : Recovery_wrapper_control_system_object.obj (.text:_ZNVK4Base11TnarrayreszIN9Pa_blocks12Command_fifoINS1_16Command_responseELj1EE4ElemELm1EE4sizeEv)
                  000b368a    00000002                   : Rwcso_input_manager.obj (.text:_ZNVK4Base11TnarrayreszIN9Pa_blocks12Command_fifoINS1_17Motor_performanceELj6EE4ElemELm6EE4sizeEv)
                  000b368c    00000002                   : Rwcso_output_manager.obj (.text:_ZNVK4Base11TnarrayreszIN9Pa_blocks12Command_fifoINS1_17Pre_flight_checksELj1EE4ElemELm1EE4sizeEv)
                  000b368e    00000002                   : Recovery_wrapper_control_system_object.obj (.text:_ZNVK4Base11TnarrayreszIN9Pa_blocks12Command_fifoINS1_18Actuator_setpointsELj1EE4ElemELm1EE4sizeEv)
                  000b3690    00000002                   : Commands_processor.obj (.text:_ZNVK4Base11TnarrayreszIN9Pa_blocks12Command_fifoINS1_18Commands_processor12Land_commandELj1EE4ElemELm1EE4sizeEv)
                  000b3692    00000002                   : Commands_processor.obj (.text:_ZNVK4Base11TnarrayreszIN9Pa_blocks12Command_fifoINS1_18Commands_processor15Takeoff_commandELj1EE4ElemELm1EE4sizeEv)
                  000b3694    00000002                   : Commands_processor.obj (.text:_ZNVK4Base11TnarrayreszIN9Pa_blocks12Command_fifoINS1_18Commands_processor25Route_command_and_controlELj1EE4ElemELm1EE4sizeEv)
                  000b3696    00000002                   : Commands_processor.obj (.text:_ZNVK4Base11TnarrayreszIN9Pa_blocks12Command_fifoINS1_18Commands_processor27Airspeed_modulation_commandELj1EE4ElemELm1EE4sizeEv)
                  000b3698    00000002                   : Controllers_object.obj (.text:_ZNVK4Base11TnarrayreszIN9Pa_blocks12Command_fifoINS1_18Controllers_object12Mixer_returnELj1EE4ElemELm1EE4sizeEv)
                  000b369a    00000002                   : Controllers_object.obj (.text:_ZNVK4Base11TnarrayreszIN9Pa_blocks12Command_fifoINS1_18Controllers_object18Controllers_statusELj1EE4ElemELm1EE4sizeEv)
                  000b369c    00000002                   : Controllers_object.obj (.text:_ZNVK4Base11TnarrayreszIN9Pa_blocks12Command_fifoINS1_18Controllers_object24Recovery_switchover_dataELj1EE4ElemELm1EE4sizeEv)
                  000b369e    00000002                   : Rwcso_output_manager.obj (.text:_ZNVK4Base11TnarrayreszIN9Pa_blocks12Command_fifoINS1_18Recovery_telemetryELj1EE4ElemELm1EE4sizeEv)
                  000b36a0    00000002                   : Controllers_object.obj (.text:_ZNVK4Base11TnarrayreszIN9Pa_blocks12Command_fifoINS1_21Controllers_telemetryELj1EE4ElemELm1EE4sizeEv)
                  000b36a2    00000002                   : Rwcso_input_manager.obj (.text:_ZNVK4Base11TnarrayreszIN9Pa_blocks12Command_fifoINS1_21Mission_reset_commandELj1EE4ElemELm1EE4sizeEv)
                  000b36a4    00000002                   : Rwcso_output_manager.obj (.text:_ZNVK4Base11TnarrayreszIN9Pa_blocks12Command_fifoINS1_22Recovery_motor_rpm_cmdELj1EE4ElemELm1EE4sizeEv)
                  000b36a6    00000002                   : Rwcso_output_manager.obj (.text:_ZNVK4Base11TnarrayreszIN9Pa_blocks12Command_fifoINS1_24Onground_controller_infoELj1EE4ElemELm1EE4sizeEv)
                  000b36a8    00000002                   : Actuator_allocator_object.obj (.text:_ZNVK4Base11TnarrayreszIN9Pa_blocks12Command_fifoINS1_25Actuator_allocator_object12Mixer_statusELj1EE4ElemELm1EE4sizeEv)
                  000b36aa    00000002                   : Rwcso_input_manager.obj (.text:_ZNVK4Base11TnarrayreszIN9Pa_blocks12Command_fifoINS1_25Mission_readiness_wrapperELj1EE4ElemELm1EE4sizeEv)
                  000b36ac    00000002                   : Rwcso_input_manager.obj (.text:_ZNVK4Base11TnarrayreszIN9Pa_blocks12Command_fifoINS1_25MonRec_controller_commandELj1EE4ElemELm1EE4sizeEv)
                  000b36ae    00000002                   : Rwcso_input_manager.obj (.text:_ZNVK4Base11TnarrayreszIN9Pa_blocks12Command_fifoINS1_26Controllers_state_estimateELj1EE4ElemELm1EE4sizeEv)
                  000b36b0    00000002                   : Controllers_object.obj (.text:_ZNVK4Base11TnarrayreszIN9Pa_blocks12Command_fifoINS1_26Forces_and_torques_requestELj1EE4ElemELm1EE4sizeEv)
                  000b36b2    00000002                   : Rwcso_input_manager.obj (.text:_ZNVK4Base11TnarrayreszIN9Pa_blocks12Command_fifoINS1_27Command_contingency_wrapperELj1EE4ElemELm1EE4sizeEv)
                  000b36b4    00000002                   : Rwcso_input_manager.obj (.text:_ZNVK4Base11TnarrayreszIN9Pa_blocks12Command_fifoINS1_27Upload_mission_plan_wrapperELj1EE4ElemELm1EE4sizeEv)
                  000b36b6    00000002                   : Rwcso_output_manager.obj (.text:_ZNVK4Base11TnarrayreszIN9Pa_blocks12Command_fifoINS1_29Recovery_controller_telemetryELj1EE4ElemELm1EE4sizeEv)
                  000b36b8    00000002                   : Controllers_object.obj (.text:_ZNVK4Base11TnarrayreszIN9Pa_blocks12Command_fifoINS1_32Drone_mission_phase_notificationELj1EE4ElemELm1EE4sizeEv)
                  000b36ba    00000002                   : Rwcso_output_manager.obj (.text:_ZNVK4Base11TnarrayreszIN9Pa_blocks12Command_fifoINS1_33Recovery_mission_readiness_signalELj1EE4ElemELm1EE4sizeEv)
                  000b36bc    00000002                   : Actuator_allocator_object.obj (.text:_ZNVK4Base11TnarrayreszIN9Pa_blocks12Command_fifoINS1_9Mixer_logELj1EE4ElemELm1EE4sizeEv)
                  000b36be    00000002                   : Recovery_wrapper_control_system_object.obj (.text:_ZNVK4Base11TnarrayreszIN9Pa_blocks12Command_fifoIPNS1_17Mission_plan_dataELj1EE4ElemELm1EE4sizeEv)
                  000b36c0    00000002                   : Mission_plan.obj (.text:_ZNVK4Base11TnarrayreszIN9Pa_blocks12Mission_stepELm301EE4sizeEv)
                  000b36c2    00000002                   : Alternate_plans_buffer.obj (.text:_ZNVK4Base11TnarrayreszIN9Pa_blocks12Mission_stepELm3500EE4sizeEv)
                  000b36c4    00000002                   : Mission_plan.obj (.text:_ZNVK4Base11TnarrayreszIN9Pa_blocks12Mission_stepELm604EE4sizeEv)
                  000b36c6    00000002                   : Mission_plan.obj (.text:_ZNVK4Base11TnarrayreszIN9Pa_blocks13Timing_windowELm603EE4sizeEv)
                  000b36c8    00000002                   : Mission_utilities.obj (.text:_ZNVK4Base11TnarrayreszIN9Pa_blocks14Route_maneuverELm300EE4sizeEv)
                  000b36ca    00000002                   : Maneuver_coordinate.obj (.text:_ZNVK4Base11TnarrayreszIN9Pa_blocks17Polynomial_coeffsELm5EE4sizeEv)
                  000b36cc    00000002                   : Roll_maneuver.obj (.text:_ZNVK4Base11TnarrayreszIN9Pa_blocks19Maneuver_coordinateELm2EE4sizeEv)
                  000b36ce    00000002                   : Roll_maneuver.obj (.text:_ZNVK4Base11TnarrayreszIN9Pa_blocks19Waypoint_coordinateELm6EE4sizeEv)
                  000b36d0    00000002                   : Alternate_plans_buffer.obj (.text:_ZNVK4Base11TnarrayreszIN9Pa_blocks23Alternate_plan_metadataELm50EE4sizeEv)
                  000b36d2    00000002                   : Recovery_route_constructor.obj (.text:_ZNVK4Base11TnarrayreszIN9Pa_blocks24Rhcp_maneuver_range_dataELm52EE4sizeEv)
                  000b36d4    00000002                   : Recovery_mission_phase_of_flight.obj (.text:_ZNVK4Base11TnarrayreszIN9Pa_blocks25Route_landing_informationELm52EE4sizeEv)
                  000b36d6    00000002                   : Recovery_mission_data_processor.obj (.text:_ZNVK4Base11TnarrayreszIN9Pa_blocks25Route_landing_informationELm52EE8size_maxEv)
                  000b36d8    00000002     base.lib : Sticktypes.obj (.text:_ZNVK4Base11TnarrayreszINS_12Stickvarcfg013StickvarcfgchELm16EE4sizeEv)
                  000b36da    00000002              : Sticktypes.obj (.text:_ZNVK4Base11TnarrayreszINS_12Stickvarcfg013StickvarcfgchELm16EE8size_maxEv)
                  000b36dc    00000002     veronte.lib : Tunsuite_pa.obj (.text:_ZNVK4Base11TnarrayreszINS_18Routing_table_dataILj2ELj16EE5TableELm2EE4sizeEv)
                  000b36de    00000002                 : Tunsuite_pa.obj (.text:_ZNVK4Base11TnarrayreszINS_19Routing_table_entryELm16EE4sizeEv)
                  000b36e0    00000002                 : Tunsuite_pa.obj (.text:_ZNVK4Base11TnarrayreszINS_4BvarELm20EE4sizeEv)
                  000b36e2    00000002                 : Hxcfield_cpu2.obj (.text:_ZNVK4Base11TnarrayreszINS_5FieldELm128EE4sizeEv)
                  000b36e4    00000002                 : Tunsuite_pa.obj (.text:_ZNVK4Base11TnarrayreszINS_5TupleIN6Stanag14Subsystem_data8Key_dataENS_4UvarEEELm64EE4sizeEv)
                  000b36e6    00000002                 : Hxcfield_cpu2.obj (.text:_ZNVK4Base11TnarrayreszINS_5TupleIjNS0_INS_8Fmsg_cfgELm32EEEEELm2EE4sizeEv)
                  000b36e8    00000002                 : Hxcfield_cpu2.obj (.text:_ZNVK4Base11TnarrayreszINS_5TupleIjNS0_INS_8Fmsg_cfgELm32EEEEELm3EE4sizeEv)
                  000b36ea    00000002     base.lib : Cmdvar.obj (.text:_ZNVK4Base11TnarrayreszINS_6Cmdvar3VarELm16EE4sizeEv)
                  000b36ec    00000002     veronte.lib : Hxcfield_cpu2.obj (.text:_ZNVK4Base11TnarrayreszINS_6PFieldELm128EE4sizeEv)
                  000b36ee    00000002                 : Tunsuite_pa.obj (.text:_ZNVK4Base11TnarrayreszINS_7CANin_p6ConfigELm6EE4sizeEv)
                  000b36f0    00000002     vpgnc.lib : CAN_cfg_maint_astro.obj (.text:_ZNVK4Base11TnarrayreszINS_7CANin_p6ConfigELm6EE8size_maxEv)
                  000b36f2    00000002     veronte.lib : Tunsuite_pa.obj (.text:_ZNVK4Base11TnarrayreszINS_7Xpcmap0ELm19EE4sizeEv)
                  000b36f4    00000002     vpgnc.lib : Vpu.obj (.text:_ZNVK4Base11TnarrayreszINS_7Xpcmap0ELm45EE4sizeEv)
                  000b36f6    00000002     veronte.lib : Tunsuite_pa.obj (.text:_ZNVK4Base11TnarrayreszINS_8CANout_c6ConfigELm6EE4sizeEv)
                  000b36f8    00000002     vpgnc.lib : CAN_cfg_maint_astro.obj (.text:_ZNVK4Base11TnarrayreszINS_8CANout_c6ConfigELm6EE8size_maxEv)
                  000b36fa    00000002     veronte.lib : Hxcfield_cpu2.obj (.text:_ZNVK4Base11TnarrayreszINS_8Fmsg_cfgELm32EE4sizeEv)
                  000b36fc    00000002                 : Tunsuite_pa.obj (.text:_ZNVK4Base11TnarrayreszINS_9CANgpio_p6ConfigELm2EE4sizeEv)
                  000b36fe    00000002                 : Tunsuite_pa.obj (.text:_ZNVK4Base11TnarrayreszINS_9SerialCAN6ConfigELm6EE4sizeEv)
                  000b3700    00000002     vpgnc.lib : CAN_cfg_maint_astro.obj (.text:_ZNVK4Base11TnarrayreszINS_9SerialCAN6ConfigELm6EE8size_maxEv)
                  000b3702    00000002     pa_blocks.lib : DComms_cfg.obj (.text:_ZNVK4Base11TnarrayreszIcLm17EE4sizeEv)
                  000b3704    00000002     Blockfactory_pac.obj (.text:_ZNVK4Base11TnarrayreszIfLm13EE4sizeEv)
                  000b3706    00000002     veronte.lib : Tunsuite_pa.obj (.text:_ZNVK4Base11TnarrayreszIhLm20EE4sizeEv)
                  000b3708    00000002     base.lib : Evactcfg.obj (.text:_ZNVK4Base11TnarrayreszIjLm128EE4sizeEv)
                  000b370a    00000002              : Action.obj (.text:_ZNVK4Base11TnarrayreszIjLm200EE4sizeEv)
                  000b370c    00000002     veronte.lib : Tunsuite_pa.obj (.text:_ZNVK4Base11TnarrayreszIjLm32EE4sizeEv)
                  000b370e    00000002     vpgnc.lib : Evtmgr.obj (.text:_ZNVK4Base11TnarrayreszIjLm60EE4sizeEv)
                  000b3710    00000002               : Evtmgr.obj (.text:_ZNVK4Base11TnarrayreszIjLm60EE8size_maxEv)
                  000b3712    00000002     base.lib : Evactcfg.obj (.text:_ZNVK4Base11TnarrayreszIjLm8EE4sizeEv)
                  000b3714    00000002     pa_blocks.lib : Trajectory_planner.obj (.text:_ZNVK4Base11TnarrayreszImLm4EE4sizeEv)
                  000b3716    00000002     base.lib : Varmgr.obj (.text:_ZThn2_N4Base6Varmgr3setERKNS_12U8pkmblock_kE)
                  000b3718    00000001     veronte.lib : Copystep.obj (.text:_ZN3Bsp5Hrvar5RangeD1Ev)
                  000b3719    00000001                 : Copystep.obj (.text:_ZN3Bsp5Huvar5RangeD1Ev)
                  000b371a    00000001     DSP28x.lib : Warning.obj (.text:_ZN3Bsp7warningEv)
                  000b371b    00000001     veronte.lib : Vfspermission.obj (.text:_ZN3Ver13VfspermissionD1Ev)
                  000b371c    00000001                 : Hxcfield_cpu2.obj (.text:_ZN3Ver8HtunfsetIN4Base12FtelemetryodEED1Ev)
                  000b371d    00000001                 : Hxcfield_cpu2.obj (.text:_ZN3Ver8HtunfsetIN4Base14Fvecdata_asyncINS1_6TmvdatELm150ELj1EEEED1Ev)
                  000b371e    00000001                 : Hxcfield_cpu2.obj (.text:_ZN3Ver8HtunfsetIN4Base8FvecdataIN6Stanag7StgvdatELm1000ELj100EEEED1Ev)
                  000b371f    00000001                 : Hxcfield_cpu2.obj (.text:_ZN3Ver8HtunfsetIN4Base8FvecdataINS1_11SniffervdatELm300ELj2EEEED1Ev)
                  000b3720    00000001                 : Hxcfield_cpu2.obj (.text:_ZN3Ver8HtunfsetIN4Base8FvecdataINS1_6TmvdatELm600ELj4EEEED1Ev)
                  000b3721    00000001                 : Hxcfield_cpu2.obj (.text:_ZN3Ver8HtunfsetIN4Base8FvecdataINS1_9FmsetvdatELm2000ELj104EEEED1Ev)
                  000b3722    00000001     base.lib : Stimestamp.obj (.text:_ZN4Base10Stimestamp5buildEx)
                  000b3723    00000001     midlevel.lib : Irxfw.obj (.text:_ZN4Base11Imsg_senderD1Ev)
                  000b3724    00000001     vpgnc.lib : Vpu.obj (.text:_ZN4Base11Ipkt_senderD1Ev)
                  000b3725    00000001               : Vpu.obj (.text:_ZN4Base11Vpktsend_xcD1Ev)
                  000b3726    00000001     base.lib : Message_received_hnd.obj (.text:_ZN4Base20Message_received_hnd10get_parserEv)
                  000b3727    00000001     vpgnc.lib : Vpu.obj (.text:_ZN4Base5IfileD1Ev)
                  000b3728    00000001     base.lib : Kfieldset.obj (.text:_ZN4Base6TuncrcD1Ev)
                  000b3729    00000001              : Varmgr.obj (.text:_ZN4Base6Varmgr3setERKNS_4Iset4DataINS_6R64varEeEE)
                  000b372a    00000001              : Varmgr.obj (.text:_ZN4Base6VarmgrD1Ev)
                  000b372b    00000001              : Xcfile.obj (.text:_ZN4Base6XcfileD1Ev)
                  000b372c    00000001              : Stepmgr_dsp.obj (.text:_ZN4Base7StepmgrD1Ev)
                  000b372d    00000001     first.lib : Endian3.obj (.text:_ZN4Base8E3helperD1Ev)
                  000b372e    00000001     veronte.lib : Hxcfield_cpu2.obj (.text:_ZN4Base8TwrapdesINS_9Tuntraits9Wsync_desINS_6TdsyncINS_11Fstr1fieldsENS_12Tdsynctraits11Rd_blockingIS4_NS_8Cptraits6PodrawIVS4_EEEENS5_15Disabled_structEEENS1_10DesdefaultIS4_EEEERSD_ED1Ev)
                  000b372f    00000001                 : Hxcfield_cpu2.obj (.text:_ZN4Base8TwrapdesINS_9Tuntraits9Wsync_desINS_6TdsyncINS_11FstrtfieldsENS_12Tdsynctraits11Rd_blockingIS4_NS_8Cptraits6PodrawIVS4_EEEENS5_15Disabled_structEEENS1_10DesdefaultIS4_EEEERSD_ED1Ev)
                  000b3730    00000001                 : Hxcfield_cpu2.obj (.text:_ZN4Base8TwrapdesINS_9Tuntraits9Wsync_desINS_6TdsyncINS_11Pfields_cfgENS_12Tdsynctraits11Rd_blockingIS4_NS_8Cptraits6PodrawIVS4_EEEENS5_15Disabled_structEEENS1_10DesdefaultIS4_EEEERSD_ED1Ev)
                  000b3731    00000001                 : Hstick_cpu2.obj (.text:_ZN4Base8TwrapdesINS_9Tuntraits9Wsync_desINS_6TdsyncINS_11StickppmcfgENS_12Tdsynctraits11Rd_blockingIS4_NS_8Cptraits6PodrawIVS4_EEEENS5_15Disabled_structEEENS1_10DesdefaultIS4_EEEERSD_ED1Ev)
                  000b3732    00000001                 : Hstick_cpu2.obj (.text:_ZN4Base8TwrapdesINS_9Tuntraits9Wsync_desINS_6TdsyncINS_11StickvarcfgENS_12Tdsynctraits11Rd_blockingIS4_NS_8Cptraits6PodrawIVS4_EEEENS5_15Disabled_structEEENS1_10DesdefaultIS4_EEEERSD_ED1Ev)
                  000b3733    00000001                 : Hxcfield_cpu2.obj (.text:_ZN4Base8TwrapdesINS_9Tuntraits9Wsync_desINS_6TdsyncINS_11TnarrayreszIN6Stanag7FstgcfgELm40EEENS_12Tdsynctraits11Rd_blockingIS7_NS_8Cptraits6PodrawIVS7_EEEENS8_15Disabled_structEEENS1_15Arraytun_size16INS1_9Cset_onlyIS6_EES7_NS1_8No_checkIS7_EEEEEERSG_ED1Ev)
                  000b3734    00000001                 : Hxcfield_cpu2.obj (.text:_ZN4Base8TwrapdesINS_9Tuntraits9Wsync_desINS_6TdsyncINS_11TnarrayreszINS_5TupleIjNS4_INS_8Fmsg_cfgELm32EEEEELm2EEENS_12Tdsynctraits11Rd_blockingIS9_NS_8Cptraits6PodrawIVS9_EEEENSA_15Disabled_structEEENS1_15Arraytun_size16INS1_8TupletunINS1_7Lossy16IjEENSJ_INS1_9Cset_onlyIS6_EES7_NS1_8No_checkIS7_EEEEEES9_NSP_IS9_EEEEEERSI_ED1Ev)
                  000b3735    00000001                 : Hxcfield_cpu2.obj (.text:_ZN4Base8TwrapdesINS_9Tuntraits9Wsync_desINS_6TdsyncINS_11TnarrayreszINS_5TupleIjNS4_INS_8Fmsg_cfgELm32EEEEELm3EEENS_12Tdsynctraits11Rd_blockingIS9_NS_8Cptraits6PodrawIVS9_EEEENSA_15Disabled_structEEENS1_15Arraytun_size16INS1_8TupletunINS1_7Lossy16IjEENSJ_INS1_9Cset_onlyIS6_EES7_NS1_8No_checkIS7_EEEEEES9_NSP_IS9_EEEEEERSI_ED1Ev)
                  000b3736    00000001                 : Hevact_cpu2.obj (.text:_ZN4Base8TwrapdesINS_9Tuntraits9Wsync_desINS_6TdsyncINS_8ArraymskINS_6ActionELj120EEENS_12Tdsynctraits11Rd_blockingIS6_NS_8Cptraits6PodrawIVS6_EEEENS7_15Disabled_structEEENS1_11TunarraymskIS5_Lj120EEEEERSF_ED1Ev)
                  000b3737    00000001                 : Hevact_cpu2.obj (.text:_ZN4Base8TwrapdesINS_9Tuntraits9Wsync_desINS_6TdsyncINS_8ArraymskINS_9Evactcfg0ELj100EEENS_12Tdsynctraits11Rd_blockingIS6_NS_8Cptraits6PodrawIVS6_EEEENS7_15Disabled_structEEENS1_11TunarraymskIS5_Lj100EEEEERSF_ED1Ev)
                  000b3738    00000001                 : Hxcfield_cpu2.obj (.text:_ZN4Base8TwrapdesINS_9Tuntraits9Wsync_desINS_6TdsyncINS_8FstrFastENS_12Tdsynctraits11Rd_blockingIS4_NS_8Cptraits6PodrawIVS4_EEEENS5_15Disabled_structEEENS1_10DesdefaultIS4_EEEERSD_ED1Ev)
                  000b3739    00000001                 : Hxcfile_cpu2.obj (.text:_ZN4Base9XcfilecliD1Ev)
                  000b373a    00000001     media.lib : Updatable_null.obj (.text:_ZN5Media10IupdatableD1Ev)
                  000b373b    00000001     veronte.lib : Vfspermission.obj (.text:_ZN5Media13IfspermissionD1Ev)
                  000b373c    00000001     media.lib : Updatable_null.obj (.text:_ZN5Media14Updatable_nullD1Ev)
                  000b373d    00000001               : Cfgmgr.obj (.text:_ZN5Media34_GLOBAL__N__10_Cfgmgr_cpp_be3311b210Meta_asyncD1Ev)
                  000b373e    00000001               : Cfgmgr.obj (.text:_ZN5Media6Cfgmgr13send_nothing0Ev)
                  000b373f    00000001               : Cfgmgr.obj (.text:_ZN6Stanag13Stanag_msg_tx6notifyERKN4Base8Msg_dataE)
                  000b3740    00000001     stanag.lib : Stanag_status_msgs.obj (.text:_ZN6Stanag19Ispecial_conversionD1Ev)
                  000b3741    00000001                : Stanag_status_msgs.obj (.text:_ZN6Stanag23Special_conversion_null11rev_convertEjRKfRfRN4Base12Stanag_typesE)
                  000b3742    00000001                : Stanag_status_msgs.obj (.text:_ZN6Stanag23Special_conversion_null7convertEjRKfRfRN4Base12Stanag_typesE)
                  000b3743    00000001                : Stanag_status_msgs.obj (.text:_ZN6Stanag23Special_conversion_nullD1Ev)
                  000b3744    00000001     midlevel.lib : Irxfw.obj (.text:_ZN6Stanag8Msg_fifoD1Ev)
                  000b3745    00000001     Blockfactory_pac.obj (.text:_ZN7Vblocks12Blockfactory8step_gncEv)
                  000b3746    00000001     vblocks.lib : Blockfactory_amz.obj (.text:_ZN7Vblocks8No_marks4stepEv)
                  000b3747    00000001                 : Blockfactory_amz.obj (.text:_ZN7Vblocks8No_marksD1Ev)
                  000b3748    00000001     pa_blocks.lib : Motor_rpm_cmd.obj (.text:_ZN9Pa_blocks13Motor_rpm_cmd6notifyERKN4Base8Msg_dataE)
                  000b3749    00000001                   : Gnc_model_gain.obj (.text:_ZN9Pa_blocks14Gnc_model_gain12zero_x_stateEv)
                  000b374a    00000001                   : Command_response.obj (.text:_ZN9Pa_blocks16Command_response6notifyERKN4Base8Msg_dataE)
                  000b374b    00000001                   : Cy_file_transfer.obj (.text:_ZN9Pa_blocks16Cy_file_transfer6notifyERKN4Base8Msg_dataE)
                  000b374c    00000001                   : Recovery_motor_rpm_cmd.obj (.text:_ZN9Pa_blocks22Recovery_motor_rpm_cmd6notifyERKN4Base8Msg_dataE)
                  000b374d    00000001     vpgnc.lib : Vpu.obj (.text:_ZNK5Vpgnc3Vpu18get_status_data_exERN4Base9U8ostreamE)
                  000b374e    00000001               : Ftsactcmd.obj (.text:_ZNK5Vpgnc9Ftsactcmd4cgetERN4Base5LossyE)
                  000b374f    00000001     base.lib : Varmgr.obj (.text:_ZThn2_N4Base6Varmgr3setERKNS_4Iset4DataINS_6R64varEeEE)
                  000b3750    00000001     vpgnc.lib : Ftsactcmd.obj (.text:_ZThn2_NK5Vpgnc9Ftsactcmd4cgetERN4Base5LossyE)
                  000b3751    00000001     pa_blocks.lib : Motor_rpm_cmd.obj (.text:_ZThn4_N9Pa_blocks13Motor_rpm_cmd6notifyERKN4Base8Msg_dataE)
                  000b3752    00000001                   : Command_response.obj (.text:_ZThn4_N9Pa_blocks16Command_response6notifyERKN4Base8Msg_dataE)
                  000b3753    00000001                   : Cy_file_transfer.obj (.text:_ZThn4_N9Pa_blocks16Cy_file_transfer6notifyERKN4Base8Msg_dataE)
                  000b3754    00000001                   : Recovery_motor_rpm_cmd.obj (.text:_ZThn4_N9Pa_blocks22Recovery_motor_rpm_cmd6notifyERKN4Base8Msg_dataE)
                  000b3755    00000001     veronte.lib : Sysuid.obj (.text:__sti___10_Sysuid_cpp_85c6185f)
                  000b3756    00000001                 : Hlicense.obj (.text:__sti___12_Hlicense_cpp_a82de323)
                  000b3757    00000001                 : Hregvars.obj (.text:__sti___12_Hregvars_cpp_4944de89)
                  000b3758    00000001                 : Hxcfield.obj (.text:__sti___12_Hxcfield_cpp_9d66e5d0)
                  000b3759    00000001                 : Xcd_cpu2.obj (.text:__sti___12_Xcd_cpu2_cpp_0c32b705)
                  000b375a    00000001                 : Hvar_cpu2.obj (.text:__sti___13_Hvar_cpu2_cpp_77b24d1e)
                  000b375b    00000001     main_cpu2.obj (.text:__sti___13_main_cpu2_cpp_a3fe240e)
                  000b375c    00000001     veronte.lib : Hxcfg_cpu2.obj (.text:__sti___14_Hxcfg_cpu2_cpp_d1a62207)
                  000b375d    00000001     Vmain_cpu2.obj (.text:__sti___14_Vmain_cpu2_cpp_5bd1185c)
                  000b375e    00000001     veronte.lib : Hevact_cpu2.obj (.text:__sti___15_Hevact_cpu2_cpp_654971b7)
                  000b375f    00000001                 : Hstick_cpu2.obj (.text:__sti___15_Hstick_cpu2_cpp_c98da30b)
                  000b3760    00000001     DSP2838x_ent.lib : Htime_2838x.obj (.text:__sti___15_Htime_2838x_cpp_8100e017)
                  000b3761    00000001     veronte.lib : Tunsuite_pa.obj (.text:__sti___15_Tunsuite_pa_cpp_5746aedd)
                  000b3762    00000001     crypto_c28.lib : Compute_hash.obj (.text:__sti___16_Compute_hash_cpp_bf21941f)
                  000b3763    00000001     veronte.lib : Hxcfile_cpu2.obj (.text:__sti___16_Hxcfile_cpu2_cpp_db7d06da)
                  000b3764    00000001                 : Hxcygen_cpu2.obj (.text:__sti___16_Hxcygen_cpu2_cpp_76e44217)
                  000b3765    00000001                 : Sysaddr_ver2.obj (.text:__sti___16_Sysaddr_ver2_cpp_d2ccc277)
                  000b3766    00000001                 : Code_hash_amz.obj (.text:__sti___17_Code_hash_amz_cpp_a3ac516f)
                  000b3767    00000001                 : Hxcfield_cpu2.obj (.text:__sti___17_Hxcfield_cpu2_cpp_b4af5a32)
                  000b3768    00000001                 : Hcfg_mode_cpu2.obj (.text:__sti___18_Hcfg_mode_cpu2_cpp_b1868e4f)
                  000b3769    00000001                 : Herrors_ver_pa.obj (.text:__sti___18_Herrors_ver_pa_cpp_3011a4a7)
                  000b376a    00000001                 : Hstate_estimate.obj (.text:__sti___19_Hstate_estimate_cpp_3cdf892f)
                  000b376b    00000001     stanag.lib : Stanag_msg_cfgs.obj (.text:__sti___19_Stanag_msg_cfgs_cpp_6177b44c)
                  000b376c    00000001     Blockfactory_pac.obj (.text:__sti___20_Blockfactory_pac_cpp_f396dcb2)
                  000b376d    00000001     veronte.lib : Hcontroller_inputs.obj (.text:__sti___22_Hcontroller_inputs_cpp_bce66220)
                  000b376e    00000001     vpgnc.lib : CAN_cfg_maint_astro.obj (.text:__sti___23_CAN_cfg_maint_astro_cpp_2770a0d0)
                  000b376f    00000001     veronte.lib : Hauth_connections_cpu2.obj (.text:__sti___26_Hauth_connections_cpu2_cpp_f2a71969)
                  000b3770    00000001                 : Hcontroller_outputs_cpu2.obj (.text:__sti___28_Hcontroller_outputs_cpu2_cpp_23d6d090)
                  000b3771    00000001     vpgnc.lib : Vpu.obj (.text:__sti___7_Vpu_cpp_939b1fa5)
                  000b3772    00000001     veronte.lib : Hsys.obj (.text:__sti___8_Hsys_cpp_a557da24)
                  000b3773    00000001                 : Hvar.obj (.text:__sti___8_Hvar_cpp_72202282)
                  000b3774    00000001                 : Hmeas.obj (.text:__sti___9_Hmeas_cpp_1bf92ba1)
                  000b3775    00000001                 : Hxcff.obj (.text:__sti___9_Hxcff_cpp_a134acfb)
                  000b3776    00000001                 : Hxcfg.obj (.text:__sti___9_Hxcfg_cpp_eead2fca)
                  000b3777    00000001     rts2800_fpu64_eabi.lib : newhandler.c.obj (.text)
                  000b3778    00000001                            : placenew.c.obj (.text)

.const     0    000b377c    00005dac     
                  000b377c    00000200     base.lib : CRC32.obj (.const:_ZN4Base11CRC32_table5tableE)
                  000b397c    00000145     veronte.lib : Hxcfield_cpu2.obj (.const:.typeinfo:_ZTSN4Base8TwrapdesINS_9Tuntraits9Wsync_desINS_6TdsyncINS_11TnarrayreszINS_5TupleIjNS4_INS_8Fmsg_cfgELm32EEEEELm2EEENS_12Tdsynctraits11Rd_blockingIS9_NS_8Cptraits6PodrawIVS9_EEEENSA_15Disabled_structEEENS1_15Arraytun_size16INS1_8TupletunINS1_7Lossy16IjEENSJ_INS1_9Cset_onlyIS6_EES7_NS1_8No_checkIS7_EEEEEES9_NSP_IS9_EEEEEERSI_EE)
                  000b3ac1    00000145                 : Hxcfield_cpu2.obj (.const:.typeinfo:_ZTSN4Base8TwrapdesINS_9Tuntraits9Wsync_desINS_6TdsyncINS_11TnarrayreszINS_5TupleIjNS4_INS_8Fmsg_cfgELm32EEEEELm3EEENS_12Tdsynctraits11Rd_blockingIS9_NS_8Cptraits6PodrawIVS9_EEEENSA_15Disabled_structEEENS1_15Arraytun_size16INS1_8TupletunINS1_7Lossy16IjEENSJ_INS1_9Cset_onlyIS6_EES7_NS1_8No_checkIS7_EEEEEES9_NSP_IS9_EEEEEERSI_EE)
                  000b3c06    00000039     media.lib : Cfgmgr.obj (.const:.typeinfo:_ZTSN5Media34_GLOBAL__N__10_Cfgmgr_cpp_be3311b210Meta_asyncE)
                  000b3c3f    00000001     midlevel.lib : Sys_status_mgr.obj (.const:$P$T25$1)
                  000b3c40    00000144     pa_blocks.lib : Pa_scheduler.obj (.const:_ZN9Pa_blocks19Pa_scheduler_tables5cat_3E)
                  000b3d84    0000012a     veronte.lib : Tunsuite_pa.obj (.const:.typeinfo:_ZTSN4Base8TwrapdesINS_9Tuntraits9Wsync_desINS_6TdsyncINS_7TnarrayINS_11TnarrayreszINS_4BvarELm20EEELm3EEENS_12Tdsynctraits11Rd_blockingIS8_NS_8Cptraits6PodrawIVS8_EEEENS9_15Disabled_structEEENS1_15Arraytun_nosizeINS1_15Arraytun_size16INS1_7Lossy16IS6_EES7_NS1_8No_checkIS7_EEEES8_NSM_IS8_EEEEEERSH_EE)
                  000b3eae    00000120     pa_blocks.lib : Controllers_param_mk30.obj (.const:_ZZN9Pa_blocks22Controllers_param_mk30C1ERKNS_23Vsdk_controllers_paramsEE1a_7)
                  000b3fce    00000120                   : Controllers_param_mk30.obj (.const:_ZZN9Pa_blocks22Controllers_param_mk30C1ERKNS_23Vsdk_controllers_paramsEE1b_7)
                  000b40ee    00000120                   : Controllers_param_mk30.obj (.const:_ZZN9Pa_blocks22Controllers_param_mk30C1ERKNS_23Vsdk_controllers_paramsEE1c_7)
                  000b420e    00000120                   : Controllers_param_mk30.obj (.const:_ZZN9Pa_blocks22Controllers_param_mk30C1ERKNS_23Vsdk_controllers_paramsEE1d_8)
                  000b432e    00000111     veronte.lib : Tunsuite_pa.obj (.const:.typeinfo:_ZTSN4Base8TwrapdesINS_9Tuntraits9Wsync_desINS_6TdsyncINS_7TnarrayIN12Dsp28335_ent8TGPIOtunINS5_9GPIOmux16EEELm20EEENS_12Tdsynctraits11Rd_blockingIS9_NS_8Cptraits6PodrawIVS9_EEEENSA_15Disabled_structEEENS1_15Arraytun_nosizeINS1_9Cset_onlyIS8_EES9_NS1_8No_checkIS9_EEEEEERSI_EE)
                  000b443f    00000110                 : Tunsuite_pa.obj (.const:.typeinfo:_ZTSN4Base8TwrapdesINS_9Tuntraits9Wsync_desINS_6TdsyncINS_11TnarrayreszIN6Stanag15Stanag_msg_cfgs9Cfg_entryELm20EEENS_12Tdsynctraits11Rd_blockingIS8_NS_8Cptraits6PodrawIVS8_EEEENS9_15Disabled_structEEENS1_15Arraytun_size16INS1_9Cset_onlyIS7_EES8_NS1_8No_checkIS8_EEEEEERSH_EE)
                  000b454f    0000010f                 : Tunsuite_pa.obj (.const:.typeinfo:_ZTSN4Base8TwrapdesINS_9Tuntraits9Wsync_desINS_6TdsyncINS_11TnarrayreszINS_7Xpcmap0ELm19EEENS_12Tdsynctraits11Rd_blockingIS6_NS_8Cptraits6PodrawIVS6_EEEENS7_15Disabled_structEEENS1_15Arraytun_size16INS_3XpcIN3Ver15Xpccantrait_verEE9Tuntrait0ES6_NS1_8No_checkIS6_EEEEEERSF_EE)
                  000b465e    0000010b                 : Tunsuite_pa.obj (.const:.typeinfo:_ZTSN4Base8TwrapdesINS_9Tuntraits9Wsync_desINS_6TdsyncINS_11TnarrayreszINS_7Xpcmap0ELm45EEENS_12Tdsynctraits11Rd_blockingIS6_NS_8Cptraits6PodrawIVS6_EEEENS7_15Disabled_structEEENS1_15Arraytun_size16INS_3XpcIN3Ver11Xpcu8_traitEE9Tuntrait0ES6_NS1_8No_checkIS6_EEEEEERSF_EE)
                  000b4769    00000108                 : Tunsuite_pa.obj (.const:.typeinfo:_ZTSN4Base8TwrapdesINS_9Tuntraits15Arraytun_nosizeINS1_15Arraytun_size16INS1_8TupletunINS1_9Cset_onlyIN6Stanag14Subsystem_data8Key_dataEEENS1_7Lossy16INS_4UvarEEEEENS_11TnarrayreszINS_5TupleIS8_SB_EELm64EEENS1_8No_checkISH_EEEENS_7TnarrayISH_Lm32EEENSI_ISM_EEEERSM_EE)
                  000b4871    000000fd                 : Hxcfield_cpu2.obj (.const:.typeinfo:_ZTSN4Base8TwrapdesINS_9Tuntraits9Wsync_desINS_6TdsyncINS_11TnarrayreszIN6Stanag7FstgcfgELm40EEENS_12Tdsynctraits11Rd_blockingIS7_NS_8Cptraits6PodrawIVS7_EEEENS8_15Disabled_structEEENS1_15Arraytun_size16INS1_9Cset_onlyIS6_EES7_NS1_8No_checkIS7_EEEEEERSG_EE)
                  000b496e    000000d2                 : Hevact_cpu2.obj (.const:.typeinfo:_ZTSN4Base8TwrapdesINS_9Tuntraits9Wsync_desINS_6TdsyncINS_8ArraymskINS_9Evactcfg0ELj100EEENS_12Tdsynctraits11Rd_blockingIS6_NS_8Cptraits6PodrawIVS6_EEEENS7_15Disabled_structEEENS1_11TunarraymskIS5_Lj100EEEEERSF_EE)
                  000b4a40    000000cf                 : Hevact_cpu2.obj (.const:.typeinfo:_ZTSN4Base8TwrapdesINS_9Tuntraits9Wsync_desINS_6TdsyncINS_8ArraymskINS_6ActionELj120EEENS_12Tdsynctraits11Rd_blockingIS6_NS_8Cptraits6PodrawIVS6_EEEENS7_15Disabled_structEEENS1_11TunarraymskIS5_Lj120EEEEERSF_EE)
                  000b4b0f    000000c9                 : Tunsuite_pa.obj (.const:.typeinfo:_ZTSN4Base8TwrapdesINS_9Tuntraits9Wsync_desINS_6TdsyncIN6Stanag22Vehicle_identifier_cfgENS_12Tdsynctraits11Rd_blockingIS5_NS_8Cptraits6PodrawIVS5_EEEENS6_15Disabled_structEEENS1_10DesdefaultIS5_EEEERSE_EE)
                  000b4bd8    000000c6                 : Tunsuite_pa.obj (.const:.typeinfo:_ZTSN4Base8TwrapdesINS_9Tuntraits9Wsync_desINS_6TdsyncINS_13CANgpio_suiteILj2ELh55EEENS_12Tdsynctraits11Rd_blockingIS5_NS_8Cptraits6PodrawIVS5_EEEENS6_15Disabled_structEEENS1_10DesdefaultIS5_EEEERSE_EE)
                  000b4c9e    000000c4                 : Tunsuite_pa.obj (.const:.typeinfo:_ZTSN4Base8TwrapdesINS_9Tuntraits9Wsync_desINS_6TdsyncIN12Dsp28335_ent10CAN_FD_cfgENS_12Tdsynctraits11Rd_blockingIS5_NS_8Cptraits6PodrawIVS5_EEEENS6_15Disabled_structEEENS1_10DesdefaultIS5_EEEERSE_EE)
                  000b4d62    000000c4                 : Tunsuite_pa.obj (.const:.typeinfo:_ZTSN4Base8TwrapdesINS_9Tuntraits9Wsync_desINS_6TdsyncIN6Stanag17Stanag_period_cfgENS_12Tdsynctraits11Rd_blockingIS5_NS_8Cptraits6PodrawIVS5_EEEENS6_15Disabled_structEEENS1_10DesdefaultIS5_EEEERSE_EE)
                  000b4e26    000000c2                 : Tunsuite_pa.obj (.const:.typeinfo:_ZTSN4Base8TwrapdesINS_9Tuntraits9Wsync_desINS_6TdsyncIN7Devices14Adis165053_cfgENS_12Tdsynctraits11Rd_blockingIS5_NS_8Cptraits6PodrawIVS5_EEEENS6_15Disabled_structEEENS1_10DesdefaultIS5_EEEERSE_EE)
                  000b4ee8    000000c2                 : Tunsuite_pa.obj (.const:.typeinfo:_ZTSN4Base8TwrapdesINS_9Tuntraits9Wsync_desINS_6TdsyncIN7Devices14Dev_common_cfgENS_12Tdsynctraits11Rd_blockingIS5_NS_8Cptraits6PodrawIVS5_EEEENS6_15Disabled_structEEENS1_10DesdefaultIS5_EEEERSE_EE)
                  000b4faa    000000c2                 : Tunsuite_pa.obj (.const:.typeinfo:_ZTSN4Base8TwrapdesINS_9Tuntraits9Wsync_desINS_6TdsyncIN7Devices3Ubx10UbxcfgdataENS_12Tdsynctraits11Rd_blockingIS6_NS_8Cptraits6PodrawIVS6_EEEENS7_15Disabled_structEEENS1_10DesdefaultIS6_EEEERSF_EE)
                  000b506c    000000c2                 : Tunsuite_pa.obj (.const:.typeinfo:_ZTSN4Base8TwrapdesINS_9Tuntraits9Wsync_desINS_6TdsyncIN8Maverick13Notch_lpf_cfgENS_12Tdsynctraits11Rd_blockingIS5_NS_8Cptraits6PodrawIVS5_EEEENS6_15Disabled_structEEENS1_10DesdefaultIS5_EEEERSE_EE)
                  000b512e    000000c0                 : Tunsuite_pa.obj (.const:.typeinfo:_ZTSN4Base8TwrapdesINS_9Tuntraits9Wsync_desINS_6TdsyncINS_12CANout_suiteILj6EEENS_12Tdsynctraits11Rd_blockingIS5_NS_8Cptraits6PodrawIVS5_EEEENS6_15Disabled_structEEENS1_10DesdefaultIS5_EEEERSE_EE)
                  000b51ee    000000bf                 : Tunsuite_pa.obj (.const:.typeinfo:_ZTSN4Base8TwrapdesINS_9Tuntraits9Wsync_desINS_6TdsyncIN12Dsp28335_ent6CANcfgENS_12Tdsynctraits11Rd_blockingIS5_NS_8Cptraits6PodrawIVS5_EEEENS6_15Disabled_structEEENS1_10DesdefaultIS5_EEEERSE_EE)
                  000b52ad    000000bf                 : Tunsuite_pa.obj (.const:.typeinfo:_ZTSN4Base8TwrapdesINS_9Tuntraits9Wsync_desINS_6TdsyncIN12Dsp28335_ent6SCIcfgENS_12Tdsynctraits11Rd_blockingIS5_NS_8Cptraits6PodrawIVS5_EEEENS6_15Disabled_structEEENS1_10DesdefaultIS5_EEEERSE_EE)
                  000b536c    000000bf                 : Tunsuite_pa.obj (.const:.typeinfo:_ZTSN4Base8TwrapdesINS_9Tuntraits9Wsync_desINS_6TdsyncIN8Midlevel10Lights_cfgENS_12Tdsynctraits11Rd_blockingIS5_NS_8Cptraits6PodrawIVS5_EEEENS6_15Disabled_structEEENS1_10DesdefaultIS5_EEEERSE_EE)
                  000b542b    000000bf                 : Tunsuite_pa.obj (.const:.typeinfo:_ZTSN4Base8TwrapdesINS_9Tuntraits9Wsync_desINS_6TdsyncINS_11CANin_suiteILj6EEENS_12Tdsynctraits11Rd_blockingIS5_NS_8Cptraits6PodrawIVS5_EEEENS6_15Disabled_structEEENS1_10DesdefaultIS5_EEEERSE_EE)
                  000b54ea    000000bf                 : Tunsuite_pa.obj (.const:.typeinfo:_ZTSN4Base8TwrapdesINS_9Tuntraits9Wsync_desINS_6TdsyncINS_11CANsc_suiteILj6EEENS_12Tdsynctraits11Rd_blockingIS5_NS_8Cptraits6PodrawIVS5_EEEENS6_15Disabled_structEEENS1_10DesdefaultIS5_EEEERSE_EE)
                  000b55a9    000000bb                 : Tunsuite_pa.obj (.const:.typeinfo:_ZTSN4Base8TwrapdesINS_9Tuntraits9Wsync_desINS_6TdsyncIN3Ver11Ext_nav_cfgENS_12Tdsynctraits11Rd_blockingIS5_NS_8Cptraits6PodrawIVS5_EEEENS6_15Disabled_structEEENS1_10DesdefaultIS5_EEEERSE_EE)
                  000b5664    000000bb                 : Tunsuite_pa.obj (.const:.typeinfo:_ZTSN4Base8TwrapdesINS_9Tuntraits9Wsync_desINS_6TdsyncINS_13ChannelmgrcfgENS_12Tdsynctraits11Rd_blockingIS4_NS_8Cptraits6PodrawIVS4_EEEENS5_15Disabled_structEEENS1_10DesdefaultIS4_EEEERSD_EE)
                  000b571f    000000bb                 : Tunsuite_pa.obj (.const:.typeinfo:_ZTSN4Base8TwrapdesINS_9Tuntraits9Wsync_desINS_6TdsyncINS_13Varsens1D_cfgENS_12Tdsynctraits11Rd_blockingIS4_NS_8Cptraits6PodrawIVS4_EEEENS5_15Disabled_structEEENS1_10DesdefaultIS4_EEEERSD_EE)
                  000b57da    000000bb                 : Tunsuite_pa.obj (.const:.typeinfo:_ZTSN4Base8TwrapdesINS_9Tuntraits9Wsync_desINS_6TdsyncINS_13Varsens3D_cfgENS_12Tdsynctraits11Rd_blockingIS4_NS_8Cptraits6PodrawIVS4_EEEENS5_15Disabled_structEEENS1_10DesdefaultIS4_EEEERSD_EE)
                  000b5895    000000b9                 : Hxcfield_cpu2.obj (.const:.typeinfo:_ZTSN4Base8TwrapdesINS_9Tuntraits9Wsync_desINS_6TdsyncINS_11Fstr1fieldsENS_12Tdsynctraits11Rd_blockingIS4_NS_8Cptraits6PodrawIVS4_EEEENS5_15Disabled_structEEENS1_10DesdefaultIS4_EEEERSD_EE)
                  000b594e    000000b9                 : Hxcfield_cpu2.obj (.const:.typeinfo:_ZTSN4Base8TwrapdesINS_9Tuntraits9Wsync_desINS_6TdsyncINS_11FstrtfieldsENS_12Tdsynctraits11Rd_blockingIS4_NS_8Cptraits6PodrawIVS4_EEEENS5_15Disabled_structEEENS1_10DesdefaultIS4_EEEERSD_EE)
                  000b5a07    000000b9                 : Hxcfield_cpu2.obj (.const:.typeinfo:_ZTSN4Base8TwrapdesINS_9Tuntraits9Wsync_desINS_6TdsyncINS_11Pfields_cfgENS_12Tdsynctraits11Rd_blockingIS4_NS_8Cptraits6PodrawIVS4_EEEENS5_15Disabled_structEEENS1_10DesdefaultIS4_EEEERSD_EE)
                  000b5ac0    000000b9                 : Hstick_cpu2.obj (.const:.typeinfo:_ZTSN4Base8TwrapdesINS_9Tuntraits9Wsync_desINS_6TdsyncINS_11StickppmcfgENS_12Tdsynctraits11Rd_blockingIS4_NS_8Cptraits6PodrawIVS4_EEEENS5_15Disabled_structEEENS1_10DesdefaultIS4_EEEERSD_EE)
                  000b5b79    000000b9                 : Hstick_cpu2.obj (.const:.typeinfo:_ZTSN4Base8TwrapdesINS_9Tuntraits9Wsync_desINS_6TdsyncINS_11StickvarcfgENS_12Tdsynctraits11Rd_blockingIS4_NS_8Cptraits6PodrawIVS4_EEEENS5_15Disabled_structEEENS1_10DesdefaultIS4_EEEERSD_EE)
                  000b5c32    000000b9                 : Tunsuite_pa.obj (.const:.typeinfo:_ZTSN4Base8TwrapdesINS_9Tuntraits9Wsync_desINS_6TdsyncINS_5Xcal0ILj12EEENS_12Tdsynctraits11Rd_blockingIS5_NS_8Cptraits6PodrawIVS5_EEEENS6_15Disabled_structEEENS1_10DesdefaultIS5_EEEERSE_EE)
                  000b5ceb    000000b8                 : Tunsuite_pa.obj (.const:.typeinfo:_ZTSN4Base8TwrapdesINS_9Tuntraits9Wsync_desINS_6TdsyncIN3Ver9Xfreqmgr0ENS_12Tdsynctraits11Rd_blockingIS5_NS_8Cptraits6PodrawIVS5_EEEENS6_15Disabled_structEEENS1_10DesdefaultIS5_EEEERSE_EE)
                  000b5da3    000000b8                 : Tunsuite_pa.obj (.const:.typeinfo:_ZTSN4Base8TwrapdesINS_9Tuntraits9Wsync_desINS_6TdsyncINS_10Xcomstats0ENS_12Tdsynctraits11Rd_blockingIS4_NS_8Cptraits6PodrawIVS4_EEEENS5_15Disabled_structEEENS1_10DesdefaultIS4_EEEERSD_EE)
                  000b5e5b    000000b8                 : Tunsuite_pa.obj (.const:.typeinfo:_ZTSN4Base8TwrapdesINS_9Tuntraits9Wsync_desINS_6TdsyncINS_5Xcal0ILj2EEENS_12Tdsynctraits11Rd_blockingIS5_NS_8Cptraits6PodrawIVS5_EEEENS6_15Disabled_structEEENS1_10DesdefaultIS5_EEEERSE_EE)
                  000b5f13    0000002d     vpgnc.lib : Vpu.obj (.const:.typeinfo:_ZTSN4Base5RngitIN12Dsp28335_ent6Pwmdev5PWMidEEE)
                  000b5f40    000000b6               : Vpu.obj (.const:_ZZN8Midlevel11Default_cfg5Xpcu8IN3Ver11Xpcu8_traitEE16get_default_0sciEvE4tmap)
                  000b5ff6    0000000a     main_cpu2.obj (.const:.typeinfo:_ZTIN4Base8FifospscINS_8Msg_dataEEE)
                  000b6000    000000b6     vpgnc.lib : Vpu.obj (.const:_ZZN8Midlevel11Default_cfg5Xpcu8IN3Ver11Xpcu8_traitEE16get_default_4sciEvE4tmap)
                  000b60b6    000000b5     veronte.lib : Hxcfield_cpu2.obj (.const:.typeinfo:_ZTSN4Base8TwrapdesINS_9Tuntraits9Wsync_desINS_6TdsyncINS_8FstrFastENS_12Tdsynctraits11Rd_blockingIS4_NS_8Cptraits6PodrawIVS4_EEEENS5_15Disabled_structEEENS1_10DesdefaultIS4_EEEERSD_EE)
                  000b616b    00000001     --HOLE-- [fill = 0]
                  000b616c    00000090     pa_blocks.lib : Controllers_param_mk30.obj (.const:_ZZN9Pa_blocks22Controllers_param_mk30C1ERKNS_23Vsdk_controllers_paramsEE1b_8)
                  000b61fc    00000090                   : Controllers_param_mk30.obj (.const:_ZZN9Pa_blocks22Controllers_param_mk30C1ERKNS_23Vsdk_controllers_paramsEE1d_7)
                  000b628c    00000090                   : Controllers_param_mk30.obj (.const:_ZZN9Pa_blocks22Controllers_param_mk30C1ERKNS_23Vsdk_controllers_paramsEE1d_9)
                  000b631c    00000090                   : Controllers_param_mk30.obj (.const:_ZZN9Pa_blocks22Controllers_param_mk30C1ERKNS_23Vsdk_controllers_paramsEE1d__10_)
                  000b63ac    00000084                   : State_machines.obj (.const:_ZTVN9Pa_blocks14State_machinesE)
                  000b6430    00000084     rts2800_fpu64_eabi.lib : k_rem_pio2.c.obj (.const:ipio2)
                  000b64b4    00000083     veronte.lib : Tunsuite_pa.obj (.const:.typeinfo:_ZTSN4Base8TwrapdesINS_9Tuntraits15Arraytun_size16INS1_7Lossy16IjEENS_11TnarrayreszIjLm32EEENS_13Order_checker9AscendingIS6_EEEERS6_EE)
                  000b6537    00000001     --HOLE-- [fill = 0]
                  000b6538    00000080     crypto_c28.lib : sha256.obj (.const:SHA256_K)
                  000b65b8    00000069     veronte.lib : Tunsuite_pa.obj (.const:.typeinfo:_ZTSN4Base8TwrapdesINS_9Tuntraits10DesdefaultINS_11TnarrayreszIN6Stanag11Stanag_port8Port_cfgELm6EEEEERS7_EE)
                  000b6621    00000062     vpgnc.lib : Opmgr.obj (.const:.typeinfo:_ZTSN4Base8TwrapdesINS_9Tuntraits10DesdefaultINS_8TuncacheIN5Vpgnc14Rvar_op_commit7RoptypeEEEEERS7_EE)
                  000b6683    00000001     --HOLE-- [fill = 0]
                  000b6684    00000060     pa_blocks.lib : Controllers_param_mk30.obj (.const:_ZZN9Pa_blocks22Controllers_param_mk30C1ERKNS_23Vsdk_controllers_paramsEE1b_5)
                  000b66e4    00000060                   : Controllers_param_mk30.obj (.const:_ZZN9Pa_blocks22Controllers_param_mk30C1ERKNS_23Vsdk_controllers_paramsEE1d_5)
                  000b6744    0000005e     veronte.lib : Tunsuite_pa.obj (.const:.typeinfo:_ZTSN4Base8TwrapdesINS_9Tuntraits10DesdefaultIN9Pa_blocks22Activated_knob_version6ConfigEEERS5_EE)
                  000b67a2    0000005c     vpgnc.lib : Opranges.obj (.const:.typeinfo:_ZTSN4Base8TwrapdesINS_9Tuntraits10DesdefaultINS_8ArraymskIN5Vpgnc8Opranges3RngELj40EEEEERS7_EE)
                  000b67fe    0000005a     veronte.lib : Hxcfield_cpu2.obj (.const:.typeinfo:_ZTSN4Base14Twraptun_asyncINS_9Tuntraits10Cxet_asyncINS_9FieldsvecINS_6TmvdatELj20EEEEERS5_EE)
                  000b6858    0000005a                 : Tunsuite_pa.obj (.const:.typeinfo:_ZTSN4Base8TwrapdesINS_9Tuntraits10DesdefaultIN8Midlevel19Radio_sync_cfg_type6ParamsEEERS5_EE)
                  000b68b2    00000056                 : Tunsuite_pa.obj (.const:.typeinfo:_ZTSN4Base8TwrapdesINS_9Tuntraits10DesdefaultINS_18Routing_table_dataILj2ELj16EEEEERS4_EE)
                  000b6908    00000056                 : Hxcfield_cpu2.obj (.const:.typeinfo:_ZTSN4Base8TwrapdesINS_9Tuntraits9Cset_onlyINS_9FieldsvecIN6Stanag7StgvdatELj0EEEEERS6_EE)
                  000b695e    00000056                 : Hxcfield_cpu2.obj (.const:.typeinfo:_ZTSN4Base8TwrapdesINS_9Tuntraits9Cset_onlyINS_9FieldsvecINS_11SniffervdatELj0EEEEERS5_EE)
                  000b69b4    0000000c     base.lib : CRC.obj (.const:.typeinfo:_ZTSN4Base3CRCE)
                  000b69c0    00000054     Blockfactory_pac.obj (.const:_ZN9Pa_blocks19Pa_scheduler_tables13interp_pointsE)
                  000b6a14    0000002c     veronte.lib : Pwm_suite.obj (.const:.typeinfo:_ZTSN12Dsp28335_ent8PwmsuiteINS_6PwmdevELj16EEE)
                  000b6a40    00000054     pa_blocks.lib : Pa_scheduler.obj (.const:_ZN9Pa_blocks19Pa_scheduler_tables13interp_pointsE)
                  000b6a94    00000053     veronte.lib : Xcrdsuite.obj (.const:.typeinfo:_ZTSN4Base6XcmvarINS_8Bvar_mapENS_9Tuntraits10U16strCxetINS_8Hbmapvar4TypeEEEE6ParserE)
                  000b6ae7    00000053                 : Hxcfield_cpu2.obj (.const:.typeinfo:_ZTSN4Base8TwrapdesINS_9Tuntraits9Cset_onlyINS_9FieldsvecINS_9FmsetvdatELj0EEEEERS5_EE)
                  000b6b3a    00000053                 : Tunsuite_pa.obj (.const:.typeinfo:_ZTSN4Base8TwraptunINS_9Tuntraits10TundefaultIN9Pa_blocks10DComms_cfg7DynamicEEERS5_EE)
                  000b6b8d    00000053                 : Tunsuite_pa.obj (.const:.typeinfo:_ZTSN4Base8TwraptunINS_9Tuntraits10TundefaultIN9Pa_blocks11Site_config6ConfigEEERS5_EE)
                  000b6be0    00000052                 : Hxcfield_cpu2.obj (.const:.typeinfo:_ZTSN4Base14Twraptun_asyncINS_9Tuntraits10Cxet_asyncINS_12Ftelemetryod5FsvodEEERS4_EE)
                  000b6c32    00000052                 : Tunsuite_pa.obj (.const:.typeinfo:_ZTSN4Base8TwrapdesINS_9Tuntraits10DesdefaultIN9Pa_blocks10DComms_cfg6StaticEEERS5_EE)
                  000b6c84    00000050                 : Hxcfield_cpu2.obj (.const:.typeinfo:_ZTSN4Base8TwrapdesINS_9Tuntraits9Cset_onlyINS_9FieldsvecINS_6TmvdatELj0EEEEERS5_EE)
                  000b6cd4    0000004e     pa_blocks.lib : Rwcso_input_manager.obj (.const:.typeinfo:_ZTSN9Pa_blocks24Cyphal_cset_command_fifoINS_27Command_contingency_wrapperELj1EEE)
                  000b6d22    0000004e                   : Rwcso_input_manager.obj (.const:.typeinfo:_ZTSN9Pa_blocks24Cyphal_cset_command_fifoINS_27Upload_mission_plan_wrapperELj1EEE)
                  000b6d70    00000010     vpgnc.lib : Vpu.obj (.const:.typeinfo:_ZTSN4Base7IerrorsE)
                  000b6d80    0000004e               : Vpu.obj (.const:_ZZN8Midlevel11Default_cfg6XpccanIN3Ver15Xpccantrait_verEE11get_defaultEvE4tmap)
                  000b6dce    0000004c     pa_blocks.lib : Rwcso_input_manager.obj (.const:.typeinfo:_ZTSN9Pa_blocks24Cyphal_cset_command_fifoINS_25Mission_readiness_wrapperELj1EEE)
                  000b6e1a    00000048     veronte.lib : Xcrdsuite.obj (.const:.typeinfo:_ZTSN4Base6XcmvarINS_3FidENS_9Tuntraits10U16strCxetINS_7FeatureEEEE6ParserE)
                  000b6e62    00000048     pa_blocks.lib : Controllers_param_mk30.obj (.const:_ZZN9Pa_blocks22Controllers_param_mk30C1ERKNS_23Vsdk_controllers_paramsEE1a_8)
                  000b6eaa    00000048                   : Controllers_param_mk30.obj (.const:_ZZN9Pa_blocks22Controllers_param_mk30C1ERKNS_23Vsdk_controllers_paramsEE1c_8)
